ARM GAS  /var/folders/m5/x8wc2gdj7z5cpgcqdsb_gkj40000gn/T//ccGxviRN.s 			page 1


   1              		.cpu cortex-m7
   2              		.arch armv7e-m
   3              		.fpu fpv5-d16
   4              		.eabi_attribute 28, 1
   5              		.eabi_attribute 20, 1
   6              		.eabi_attribute 21, 1
   7              		.eabi_attribute 23, 3
   8              		.eabi_attribute 24, 1
   9              		.eabi_attribute 25, 1
  10              		.eabi_attribute 26, 1
  11              		.eabi_attribute 30, 2
  12              		.eabi_attribute 34, 1
  13              		.eabi_attribute 18, 4
  14              		.file	"sardinia.cpp"
  15              		.text
  16              	.Ltext0:
  17              		.cfi_sections	.debug_frame
  18              		.section	.text._ZN5daisy7EncoderD2Ev,"axG",%progbits,_ZN5daisy7EncoderD5Ev,comdat
  19              		.align	1
  20              		.p2align 2,,3
  21              		.weak	_ZN5daisy7EncoderD2Ev
  22              		.syntax unified
  23              		.thumb
  24              		.thumb_func
  26              	_ZN5daisy7EncoderD2Ev:
  27              	.LVL0:
  28              	.LFB1652:
  29              		.file 1 "/Users/dominicfrugoli/Desktop/ProgrammingCode/DaisyCode/DaisyExamples/libDaisy/src/hid/en
   1:/Users/dominicfrugoli/Desktop/ProgrammingCode/DaisyCode/DaisyExamples/libDaisy/src/hid/encoder.h **** #pragma once
   2:/Users/dominicfrugoli/Desktop/ProgrammingCode/DaisyCode/DaisyExamples/libDaisy/src/hid/encoder.h **** #ifndef DSY_ENCODER_H
   3:/Users/dominicfrugoli/Desktop/ProgrammingCode/DaisyCode/DaisyExamples/libDaisy/src/hid/encoder.h **** #define DSY_ENCODER_H
   4:/Users/dominicfrugoli/Desktop/ProgrammingCode/DaisyCode/DaisyExamples/libDaisy/src/hid/encoder.h **** #include "daisy_core.h"
   5:/Users/dominicfrugoli/Desktop/ProgrammingCode/DaisyCode/DaisyExamples/libDaisy/src/hid/encoder.h **** #include "per/gpio.h"
   6:/Users/dominicfrugoli/Desktop/ProgrammingCode/DaisyCode/DaisyExamples/libDaisy/src/hid/encoder.h **** #include "hid/switch.h"
   7:/Users/dominicfrugoli/Desktop/ProgrammingCode/DaisyCode/DaisyExamples/libDaisy/src/hid/encoder.h **** 
   8:/Users/dominicfrugoli/Desktop/ProgrammingCode/DaisyCode/DaisyExamples/libDaisy/src/hid/encoder.h **** namespace daisy
   9:/Users/dominicfrugoli/Desktop/ProgrammingCode/DaisyCode/DaisyExamples/libDaisy/src/hid/encoder.h **** {
  10:/Users/dominicfrugoli/Desktop/ProgrammingCode/DaisyCode/DaisyExamples/libDaisy/src/hid/encoder.h **** /** 
  11:/Users/dominicfrugoli/Desktop/ProgrammingCode/DaisyCode/DaisyExamples/libDaisy/src/hid/encoder.h ****     @brief Generic Class for handling Quadrature Encoders \n 
  12:/Users/dominicfrugoli/Desktop/ProgrammingCode/DaisyCode/DaisyExamples/libDaisy/src/hid/encoder.h ****     Inspired/influenced by Mutable Instruments (pichenettes) Encoder classes
  13:/Users/dominicfrugoli/Desktop/ProgrammingCode/DaisyCode/DaisyExamples/libDaisy/src/hid/encoder.h ****     @author Stephen Hensley
  14:/Users/dominicfrugoli/Desktop/ProgrammingCode/DaisyCode/DaisyExamples/libDaisy/src/hid/encoder.h ****     @date December 2019
  15:/Users/dominicfrugoli/Desktop/ProgrammingCode/DaisyCode/DaisyExamples/libDaisy/src/hid/encoder.h ****     @ingroup controls
  16:/Users/dominicfrugoli/Desktop/ProgrammingCode/DaisyCode/DaisyExamples/libDaisy/src/hid/encoder.h **** */
  17:/Users/dominicfrugoli/Desktop/ProgrammingCode/DaisyCode/DaisyExamples/libDaisy/src/hid/encoder.h **** class Encoder
  18:/Users/dominicfrugoli/Desktop/ProgrammingCode/DaisyCode/DaisyExamples/libDaisy/src/hid/encoder.h **** {
  19:/Users/dominicfrugoli/Desktop/ProgrammingCode/DaisyCode/DaisyExamples/libDaisy/src/hid/encoder.h ****   public:
  20:/Users/dominicfrugoli/Desktop/ProgrammingCode/DaisyCode/DaisyExamples/libDaisy/src/hid/encoder.h ****     Encoder() {}
  21:/Users/dominicfrugoli/Desktop/ProgrammingCode/DaisyCode/DaisyExamples/libDaisy/src/hid/encoder.h ****     ~Encoder() {}
  30              		.loc 1 21 5 view -0
  31              		.cfi_startproc
  32              		@ args = 0, pretend = 0, frame = 0
  33              		@ frame_needed = 0, uses_anonymous_args = 0
  34              		@ link register save eliminated.
  35              	.LBB401:
  36              	.LBI401:
  37              		.file 2 "/Users/dominicfrugoli/Desktop/ProgrammingCode/DaisyCode/DaisyExamples/libDaisy/src/hid/sw
ARM GAS  /var/folders/m5/x8wc2gdj7z5cpgcqdsb_gkj40000gn/T//ccGxviRN.s 			page 2


   1:/Users/dominicfrugoli/Desktop/ProgrammingCode/DaisyCode/DaisyExamples/libDaisy/src/hid/switch.h **** #pragma once
   2:/Users/dominicfrugoli/Desktop/ProgrammingCode/DaisyCode/DaisyExamples/libDaisy/src/hid/switch.h **** #ifndef DSY_SWITCH_H
   3:/Users/dominicfrugoli/Desktop/ProgrammingCode/DaisyCode/DaisyExamples/libDaisy/src/hid/switch.h **** #define DSY_SWITCH_H
   4:/Users/dominicfrugoli/Desktop/ProgrammingCode/DaisyCode/DaisyExamples/libDaisy/src/hid/switch.h **** #include "daisy_core.h"
   5:/Users/dominicfrugoli/Desktop/ProgrammingCode/DaisyCode/DaisyExamples/libDaisy/src/hid/switch.h **** #include "per/gpio.h"
   6:/Users/dominicfrugoli/Desktop/ProgrammingCode/DaisyCode/DaisyExamples/libDaisy/src/hid/switch.h **** #include "sys/system.h"
   7:/Users/dominicfrugoli/Desktop/ProgrammingCode/DaisyCode/DaisyExamples/libDaisy/src/hid/switch.h **** 
   8:/Users/dominicfrugoli/Desktop/ProgrammingCode/DaisyCode/DaisyExamples/libDaisy/src/hid/switch.h **** namespace daisy
   9:/Users/dominicfrugoli/Desktop/ProgrammingCode/DaisyCode/DaisyExamples/libDaisy/src/hid/switch.h **** {
  10:/Users/dominicfrugoli/Desktop/ProgrammingCode/DaisyCode/DaisyExamples/libDaisy/src/hid/switch.h **** /** 
  11:/Users/dominicfrugoli/Desktop/ProgrammingCode/DaisyCode/DaisyExamples/libDaisy/src/hid/switch.h ****     Generic Class for handling momentary/latching switches \n 
  12:/Users/dominicfrugoli/Desktop/ProgrammingCode/DaisyCode/DaisyExamples/libDaisy/src/hid/switch.h ****     Inspired/influenced by Mutable Instruments (pichenettes) Switch classes
  13:/Users/dominicfrugoli/Desktop/ProgrammingCode/DaisyCode/DaisyExamples/libDaisy/src/hid/switch.h ****     @author Stephen Hensley
  14:/Users/dominicfrugoli/Desktop/ProgrammingCode/DaisyCode/DaisyExamples/libDaisy/src/hid/switch.h ****     @date December 2019
  15:/Users/dominicfrugoli/Desktop/ProgrammingCode/DaisyCode/DaisyExamples/libDaisy/src/hid/switch.h ****     @ingroup controls
  16:/Users/dominicfrugoli/Desktop/ProgrammingCode/DaisyCode/DaisyExamples/libDaisy/src/hid/switch.h **** */
  17:/Users/dominicfrugoli/Desktop/ProgrammingCode/DaisyCode/DaisyExamples/libDaisy/src/hid/switch.h **** class Switch
  18:/Users/dominicfrugoli/Desktop/ProgrammingCode/DaisyCode/DaisyExamples/libDaisy/src/hid/switch.h **** {
  19:/Users/dominicfrugoli/Desktop/ProgrammingCode/DaisyCode/DaisyExamples/libDaisy/src/hid/switch.h ****   public:
  20:/Users/dominicfrugoli/Desktop/ProgrammingCode/DaisyCode/DaisyExamples/libDaisy/src/hid/switch.h ****     /** Specifies the expected behavior of the switch */
  21:/Users/dominicfrugoli/Desktop/ProgrammingCode/DaisyCode/DaisyExamples/libDaisy/src/hid/switch.h ****     enum Type
  22:/Users/dominicfrugoli/Desktop/ProgrammingCode/DaisyCode/DaisyExamples/libDaisy/src/hid/switch.h ****     {
  23:/Users/dominicfrugoli/Desktop/ProgrammingCode/DaisyCode/DaisyExamples/libDaisy/src/hid/switch.h ****         TYPE_TOGGLE,    /**< & */
  24:/Users/dominicfrugoli/Desktop/ProgrammingCode/DaisyCode/DaisyExamples/libDaisy/src/hid/switch.h ****         TYPE_MOMENTARY, /**< & */
  25:/Users/dominicfrugoli/Desktop/ProgrammingCode/DaisyCode/DaisyExamples/libDaisy/src/hid/switch.h ****     };
  26:/Users/dominicfrugoli/Desktop/ProgrammingCode/DaisyCode/DaisyExamples/libDaisy/src/hid/switch.h ****     /** Specifies whether the pressed is HIGH or LOW. */
  27:/Users/dominicfrugoli/Desktop/ProgrammingCode/DaisyCode/DaisyExamples/libDaisy/src/hid/switch.h ****     enum Polarity
  28:/Users/dominicfrugoli/Desktop/ProgrammingCode/DaisyCode/DaisyExamples/libDaisy/src/hid/switch.h ****     {
  29:/Users/dominicfrugoli/Desktop/ProgrammingCode/DaisyCode/DaisyExamples/libDaisy/src/hid/switch.h ****         POLARITY_NORMAL,   /**< & */
  30:/Users/dominicfrugoli/Desktop/ProgrammingCode/DaisyCode/DaisyExamples/libDaisy/src/hid/switch.h ****         POLARITY_INVERTED, /**< & */
  31:/Users/dominicfrugoli/Desktop/ProgrammingCode/DaisyCode/DaisyExamples/libDaisy/src/hid/switch.h ****     };
  32:/Users/dominicfrugoli/Desktop/ProgrammingCode/DaisyCode/DaisyExamples/libDaisy/src/hid/switch.h **** 
  33:/Users/dominicfrugoli/Desktop/ProgrammingCode/DaisyCode/DaisyExamples/libDaisy/src/hid/switch.h ****     /** Specifies whether to use built-in Pull Up/Down resistors to hold button at a given state wh
  34:/Users/dominicfrugoli/Desktop/ProgrammingCode/DaisyCode/DaisyExamples/libDaisy/src/hid/switch.h ****     enum Pull
  35:/Users/dominicfrugoli/Desktop/ProgrammingCode/DaisyCode/DaisyExamples/libDaisy/src/hid/switch.h ****     {
  36:/Users/dominicfrugoli/Desktop/ProgrammingCode/DaisyCode/DaisyExamples/libDaisy/src/hid/switch.h ****         PULL_UP,   /**< & */
  37:/Users/dominicfrugoli/Desktop/ProgrammingCode/DaisyCode/DaisyExamples/libDaisy/src/hid/switch.h ****         PULL_DOWN, /**< & */
  38:/Users/dominicfrugoli/Desktop/ProgrammingCode/DaisyCode/DaisyExamples/libDaisy/src/hid/switch.h ****         PULL_NONE, /**< & */
  39:/Users/dominicfrugoli/Desktop/ProgrammingCode/DaisyCode/DaisyExamples/libDaisy/src/hid/switch.h ****     };
  40:/Users/dominicfrugoli/Desktop/ProgrammingCode/DaisyCode/DaisyExamples/libDaisy/src/hid/switch.h **** 
  41:/Users/dominicfrugoli/Desktop/ProgrammingCode/DaisyCode/DaisyExamples/libDaisy/src/hid/switch.h ****     Switch() {}
  42:/Users/dominicfrugoli/Desktop/ProgrammingCode/DaisyCode/DaisyExamples/libDaisy/src/hid/switch.h ****     ~Switch() {}
  38              		.loc 2 42 5 view .LVU1
  39              		.loc 2 42 5 is_stmt 0 view .LVU2
  40              	.LBE401:
  41              		.loc 1 21 17 view .LVU3
  42 0000 7047     		bx	lr
  43              		.cfi_endproc
  44              	.LFE1652:
  46              		.weak	_ZN5daisy7EncoderD1Ev
  47              		.thumb_set _ZN5daisy7EncoderD1Ev,_ZN5daisy7EncoderD2Ev
  48 0002 00BF     		.section	.text._ZN5daisy10LcdHD44780D2Ev,"axG",%progbits,_ZN5daisy10LcdHD44780D5Ev,comdat
  49              		.align	1
  50              		.p2align 2,,3
  51              		.weak	_ZN5daisy10LcdHD44780D2Ev
  52              		.syntax unified
  53              		.thumb
ARM GAS  /var/folders/m5/x8wc2gdj7z5cpgcqdsb_gkj40000gn/T//ccGxviRN.s 			page 3


  54              		.thumb_func
  56              	_ZN5daisy10LcdHD44780D2Ev:
  57              	.LVL1:
  58              	.LFB2017:
  59              		.file 3 "/Users/dominicfrugoli/Desktop/ProgrammingCode/DaisyCode/DaisyExamples/libDaisy/src/dev/lc
   1:/Users/dominicfrugoli/Desktop/ProgrammingCode/DaisyCode/DaisyExamples/libDaisy/src/dev/lcd_hd44780.h **** #pragma once
   2:/Users/dominicfrugoli/Desktop/ProgrammingCode/DaisyCode/DaisyExamples/libDaisy/src/dev/lcd_hd44780.h **** #ifndef DSY_LCD_HD44780_H
   3:/Users/dominicfrugoli/Desktop/ProgrammingCode/DaisyCode/DaisyExamples/libDaisy/src/dev/lcd_hd44780.h **** #define DSY_LCD_HD44780_H
   4:/Users/dominicfrugoli/Desktop/ProgrammingCode/DaisyCode/DaisyExamples/libDaisy/src/dev/lcd_hd44780.h **** 
   5:/Users/dominicfrugoli/Desktop/ProgrammingCode/DaisyCode/DaisyExamples/libDaisy/src/dev/lcd_hd44780.h **** #include "daisy_core.h"
   6:/Users/dominicfrugoli/Desktop/ProgrammingCode/DaisyCode/DaisyExamples/libDaisy/src/dev/lcd_hd44780.h **** #include "per/gpio.h"
   7:/Users/dominicfrugoli/Desktop/ProgrammingCode/DaisyCode/DaisyExamples/libDaisy/src/dev/lcd_hd44780.h **** 
   8:/Users/dominicfrugoli/Desktop/ProgrammingCode/DaisyCode/DaisyExamples/libDaisy/src/dev/lcd_hd44780.h **** 
   9:/Users/dominicfrugoli/Desktop/ProgrammingCode/DaisyCode/DaisyExamples/libDaisy/src/dev/lcd_hd44780.h **** namespace daisy
  10:/Users/dominicfrugoli/Desktop/ProgrammingCode/DaisyCode/DaisyExamples/libDaisy/src/dev/lcd_hd44780.h **** {
  11:/Users/dominicfrugoli/Desktop/ProgrammingCode/DaisyCode/DaisyExamples/libDaisy/src/dev/lcd_hd44780.h **** /**
  12:/Users/dominicfrugoli/Desktop/ProgrammingCode/DaisyCode/DaisyExamples/libDaisy/src/dev/lcd_hd44780.h ****    @brief Device Driver for 16x2 LCD panel. \n 
  13:/Users/dominicfrugoli/Desktop/ProgrammingCode/DaisyCode/DaisyExamples/libDaisy/src/dev/lcd_hd44780.h ****    HD44780 with 4 data lines. \n
  14:/Users/dominicfrugoli/Desktop/ProgrammingCode/DaisyCode/DaisyExamples/libDaisy/src/dev/lcd_hd44780.h ****    Example product: https://www.adafruit.com/product/181
  15:/Users/dominicfrugoli/Desktop/ProgrammingCode/DaisyCode/DaisyExamples/libDaisy/src/dev/lcd_hd44780.h ****    @author StaffanMelin
  16:/Users/dominicfrugoli/Desktop/ProgrammingCode/DaisyCode/DaisyExamples/libDaisy/src/dev/lcd_hd44780.h ****    @date March 2021
  17:/Users/dominicfrugoli/Desktop/ProgrammingCode/DaisyCode/DaisyExamples/libDaisy/src/dev/lcd_hd44780.h ****    @ingroup device
  18:/Users/dominicfrugoli/Desktop/ProgrammingCode/DaisyCode/DaisyExamples/libDaisy/src/dev/lcd_hd44780.h **** */
  19:/Users/dominicfrugoli/Desktop/ProgrammingCode/DaisyCode/DaisyExamples/libDaisy/src/dev/lcd_hd44780.h **** class LcdHD44780
  20:/Users/dominicfrugoli/Desktop/ProgrammingCode/DaisyCode/DaisyExamples/libDaisy/src/dev/lcd_hd44780.h **** {
  21:/Users/dominicfrugoli/Desktop/ProgrammingCode/DaisyCode/DaisyExamples/libDaisy/src/dev/lcd_hd44780.h ****   public:
  22:/Users/dominicfrugoli/Desktop/ProgrammingCode/DaisyCode/DaisyExamples/libDaisy/src/dev/lcd_hd44780.h ****     LcdHD44780() {}
  23:/Users/dominicfrugoli/Desktop/ProgrammingCode/DaisyCode/DaisyExamples/libDaisy/src/dev/lcd_hd44780.h ****     ~LcdHD44780() {}
  60              		.loc 3 23 5 is_stmt 1 view -0
  61              		.cfi_startproc
  62              		@ args = 0, pretend = 0, frame = 0
  63              		@ frame_needed = 0, uses_anonymous_args = 0
  64              		@ link register save eliminated.
  65              		.loc 3 23 20 is_stmt 0 view .LVU5
  66 0000 7047     		bx	lr
  67              		.cfi_endproc
  68              	.LFE2017:
  70              		.weak	_ZN5daisy10LcdHD44780D1Ev
  71              		.thumb_set _ZN5daisy10LcdHD44780D1Ev,_ZN5daisy10LcdHD44780D2Ev
  72 0002 00BF     		.section	.text._ZN5daisy9DaisySeedD2Ev,"axG",%progbits,_ZN5daisy9DaisySeedD5Ev,comdat
  73              		.align	1
  74              		.p2align 2,,3
  75              		.weak	_ZN5daisy9DaisySeedD2Ev
  76              		.syntax unified
  77              		.thumb
  78              		.thumb_func
  80              	_ZN5daisy9DaisySeedD2Ev:
  81              	.LVL2:
  82              	.LFB2556:
  83              		.file 4 "/Users/dominicfrugoli/Desktop/ProgrammingCode/DaisyCode/DaisyExamples/libDaisy/src/daisy_
   1:/Users/dominicfrugoli/Desktop/ProgrammingCode/DaisyCode/DaisyExamples/libDaisy/src/daisy_seed.h **** #pragma once
   2:/Users/dominicfrugoli/Desktop/ProgrammingCode/DaisyCode/DaisyExamples/libDaisy/src/daisy_seed.h **** #ifndef DSY_SEED_H
   3:/Users/dominicfrugoli/Desktop/ProgrammingCode/DaisyCode/DaisyExamples/libDaisy/src/daisy_seed.h **** #define DSY_SEED_H
   4:/Users/dominicfrugoli/Desktop/ProgrammingCode/DaisyCode/DaisyExamples/libDaisy/src/daisy_seed.h **** 
   5:/Users/dominicfrugoli/Desktop/ProgrammingCode/DaisyCode/DaisyExamples/libDaisy/src/daisy_seed.h **** #include "daisy.h"
   6:/Users/dominicfrugoli/Desktop/ProgrammingCode/DaisyCode/DaisyExamples/libDaisy/src/daisy_seed.h **** 
   7:/Users/dominicfrugoli/Desktop/ProgrammingCode/DaisyCode/DaisyExamples/libDaisy/src/daisy_seed.h **** //Uncomment this out if you're still using the rev2 hardware
ARM GAS  /var/folders/m5/x8wc2gdj7z5cpgcqdsb_gkj40000gn/T//ccGxviRN.s 			page 4


   8:/Users/dominicfrugoli/Desktop/ProgrammingCode/DaisyCode/DaisyExamples/libDaisy/src/daisy_seed.h **** //#define SEED_REV2
   9:/Users/dominicfrugoli/Desktop/ProgrammingCode/DaisyCode/DaisyExamples/libDaisy/src/daisy_seed.h **** 
  10:/Users/dominicfrugoli/Desktop/ProgrammingCode/DaisyCode/DaisyExamples/libDaisy/src/daisy_seed.h **** namespace daisy
  11:/Users/dominicfrugoli/Desktop/ProgrammingCode/DaisyCode/DaisyExamples/libDaisy/src/daisy_seed.h **** {
  12:/Users/dominicfrugoli/Desktop/ProgrammingCode/DaisyCode/DaisyExamples/libDaisy/src/daisy_seed.h **** /**
  13:/Users/dominicfrugoli/Desktop/ProgrammingCode/DaisyCode/DaisyExamples/libDaisy/src/daisy_seed.h ****    @brief This is the higher-level interface for the Daisy board. \n 
  14:/Users/dominicfrugoli/Desktop/ProgrammingCode/DaisyCode/DaisyExamples/libDaisy/src/daisy_seed.h ****     All basic peripheral configuration/initialization is setup here. \n
  15:/Users/dominicfrugoli/Desktop/ProgrammingCode/DaisyCode/DaisyExamples/libDaisy/src/daisy_seed.h **** 
  16:/Users/dominicfrugoli/Desktop/ProgrammingCode/DaisyCode/DaisyExamples/libDaisy/src/daisy_seed.h ****    @ingroup boards
  17:/Users/dominicfrugoli/Desktop/ProgrammingCode/DaisyCode/DaisyExamples/libDaisy/src/daisy_seed.h **** */
  18:/Users/dominicfrugoli/Desktop/ProgrammingCode/DaisyCode/DaisyExamples/libDaisy/src/daisy_seed.h **** class DaisySeed
  19:/Users/dominicfrugoli/Desktop/ProgrammingCode/DaisyCode/DaisyExamples/libDaisy/src/daisy_seed.h **** {
  20:/Users/dominicfrugoli/Desktop/ProgrammingCode/DaisyCode/DaisyExamples/libDaisy/src/daisy_seed.h ****   public:
  21:/Users/dominicfrugoli/Desktop/ProgrammingCode/DaisyCode/DaisyExamples/libDaisy/src/daisy_seed.h ****     DaisySeed() {}
  22:/Users/dominicfrugoli/Desktop/ProgrammingCode/DaisyCode/DaisyExamples/libDaisy/src/daisy_seed.h ****     ~DaisySeed() {}
  84              		.loc 4 22 5 is_stmt 1 view -0
  85              		.cfi_startproc
  86              		@ args = 0, pretend = 0, frame = 0
  87              		@ frame_needed = 0, uses_anonymous_args = 0
  88              		@ link register save eliminated.
  89              	.LBB402:
  90              	.LBI402:
  91              		.file 5 "/Users/dominicfrugoli/Desktop/ProgrammingCode/DaisyCode/DaisyExamples/libDaisy/src/sys/sy
   1:/Users/dominicfrugoli/Desktop/ProgrammingCode/DaisyCode/DaisyExamples/libDaisy/src/sys/system.h **** #ifndef DSY_SYSTEM_H
   2:/Users/dominicfrugoli/Desktop/ProgrammingCode/DaisyCode/DaisyExamples/libDaisy/src/sys/system.h **** #define DSY_SYSTEM_H
   3:/Users/dominicfrugoli/Desktop/ProgrammingCode/DaisyCode/DaisyExamples/libDaisy/src/sys/system.h **** 
   4:/Users/dominicfrugoli/Desktop/ProgrammingCode/DaisyCode/DaisyExamples/libDaisy/src/sys/system.h **** #ifndef UNIT_TEST // for unit tests, a dummy implementation is provided below
   5:/Users/dominicfrugoli/Desktop/ProgrammingCode/DaisyCode/DaisyExamples/libDaisy/src/sys/system.h **** 
   6:/Users/dominicfrugoli/Desktop/ProgrammingCode/DaisyCode/DaisyExamples/libDaisy/src/sys/system.h **** #include <cstdint>
   7:/Users/dominicfrugoli/Desktop/ProgrammingCode/DaisyCode/DaisyExamples/libDaisy/src/sys/system.h **** #include "per/tim.h"
   8:/Users/dominicfrugoli/Desktop/ProgrammingCode/DaisyCode/DaisyExamples/libDaisy/src/sys/system.h **** 
   9:/Users/dominicfrugoli/Desktop/ProgrammingCode/DaisyCode/DaisyExamples/libDaisy/src/sys/system.h **** namespace daisy
  10:/Users/dominicfrugoli/Desktop/ProgrammingCode/DaisyCode/DaisyExamples/libDaisy/src/sys/system.h **** {
  11:/Users/dominicfrugoli/Desktop/ProgrammingCode/DaisyCode/DaisyExamples/libDaisy/src/sys/system.h **** /** A handle for interacting with the Core System.
  12:/Users/dominicfrugoli/Desktop/ProgrammingCode/DaisyCode/DaisyExamples/libDaisy/src/sys/system.h ****  ** This includes the Clock tree, MPU, global DMA initialization,
  13:/Users/dominicfrugoli/Desktop/ProgrammingCode/DaisyCode/DaisyExamples/libDaisy/src/sys/system.h ****  ** cache handling, and any other necessary global initiailzation
  14:/Users/dominicfrugoli/Desktop/ProgrammingCode/DaisyCode/DaisyExamples/libDaisy/src/sys/system.h ****  **
  15:/Users/dominicfrugoli/Desktop/ProgrammingCode/DaisyCode/DaisyExamples/libDaisy/src/sys/system.h ****  ** @author shensley
  16:/Users/dominicfrugoli/Desktop/ProgrammingCode/DaisyCode/DaisyExamples/libDaisy/src/sys/system.h ****  ** @ingroup system
  17:/Users/dominicfrugoli/Desktop/ProgrammingCode/DaisyCode/DaisyExamples/libDaisy/src/sys/system.h ****  */
  18:/Users/dominicfrugoli/Desktop/ProgrammingCode/DaisyCode/DaisyExamples/libDaisy/src/sys/system.h **** class System
  19:/Users/dominicfrugoli/Desktop/ProgrammingCode/DaisyCode/DaisyExamples/libDaisy/src/sys/system.h **** {
  20:/Users/dominicfrugoli/Desktop/ProgrammingCode/DaisyCode/DaisyExamples/libDaisy/src/sys/system.h ****   public:
  21:/Users/dominicfrugoli/Desktop/ProgrammingCode/DaisyCode/DaisyExamples/libDaisy/src/sys/system.h ****     /** Contains settings for initializing the System */
  22:/Users/dominicfrugoli/Desktop/ProgrammingCode/DaisyCode/DaisyExamples/libDaisy/src/sys/system.h ****     struct Config
  23:/Users/dominicfrugoli/Desktop/ProgrammingCode/DaisyCode/DaisyExamples/libDaisy/src/sys/system.h ****     {
  24:/Users/dominicfrugoli/Desktop/ProgrammingCode/DaisyCode/DaisyExamples/libDaisy/src/sys/system.h ****         /** Specifies the system clock frequency that feeds APB/AHB clocks, etc. */
  25:/Users/dominicfrugoli/Desktop/ProgrammingCode/DaisyCode/DaisyExamples/libDaisy/src/sys/system.h ****         enum class SysClkFreq
  26:/Users/dominicfrugoli/Desktop/ProgrammingCode/DaisyCode/DaisyExamples/libDaisy/src/sys/system.h ****         {
  27:/Users/dominicfrugoli/Desktop/ProgrammingCode/DaisyCode/DaisyExamples/libDaisy/src/sys/system.h ****             FREQ_400MHZ,
  28:/Users/dominicfrugoli/Desktop/ProgrammingCode/DaisyCode/DaisyExamples/libDaisy/src/sys/system.h ****             FREQ_480MHZ,
  29:/Users/dominicfrugoli/Desktop/ProgrammingCode/DaisyCode/DaisyExamples/libDaisy/src/sys/system.h ****         };
  30:/Users/dominicfrugoli/Desktop/ProgrammingCode/DaisyCode/DaisyExamples/libDaisy/src/sys/system.h **** 
  31:/Users/dominicfrugoli/Desktop/ProgrammingCode/DaisyCode/DaisyExamples/libDaisy/src/sys/system.h ****         /** Method to call on the struct to set to defaults
  32:/Users/dominicfrugoli/Desktop/ProgrammingCode/DaisyCode/DaisyExamples/libDaisy/src/sys/system.h ****          ** CPU Freq set to 400MHz
  33:/Users/dominicfrugoli/Desktop/ProgrammingCode/DaisyCode/DaisyExamples/libDaisy/src/sys/system.h ****          ** Cache Enabled
  34:/Users/dominicfrugoli/Desktop/ProgrammingCode/DaisyCode/DaisyExamples/libDaisy/src/sys/system.h ****          ** */
ARM GAS  /var/folders/m5/x8wc2gdj7z5cpgcqdsb_gkj40000gn/T//ccGxviRN.s 			page 5


  35:/Users/dominicfrugoli/Desktop/ProgrammingCode/DaisyCode/DaisyExamples/libDaisy/src/sys/system.h ****         void Defaults()
  36:/Users/dominicfrugoli/Desktop/ProgrammingCode/DaisyCode/DaisyExamples/libDaisy/src/sys/system.h ****         {
  37:/Users/dominicfrugoli/Desktop/ProgrammingCode/DaisyCode/DaisyExamples/libDaisy/src/sys/system.h ****             cpu_freq    = SysClkFreq::FREQ_400MHZ;
  38:/Users/dominicfrugoli/Desktop/ProgrammingCode/DaisyCode/DaisyExamples/libDaisy/src/sys/system.h ****             use_dcache  = true;
  39:/Users/dominicfrugoli/Desktop/ProgrammingCode/DaisyCode/DaisyExamples/libDaisy/src/sys/system.h ****             use_icache  = true;
  40:/Users/dominicfrugoli/Desktop/ProgrammingCode/DaisyCode/DaisyExamples/libDaisy/src/sys/system.h ****             skip_clocks = false;
  41:/Users/dominicfrugoli/Desktop/ProgrammingCode/DaisyCode/DaisyExamples/libDaisy/src/sys/system.h ****         }
  42:/Users/dominicfrugoli/Desktop/ProgrammingCode/DaisyCode/DaisyExamples/libDaisy/src/sys/system.h **** 
  43:/Users/dominicfrugoli/Desktop/ProgrammingCode/DaisyCode/DaisyExamples/libDaisy/src/sys/system.h ****         /** Method to call on the struct to set to boost mode:
  44:/Users/dominicfrugoli/Desktop/ProgrammingCode/DaisyCode/DaisyExamples/libDaisy/src/sys/system.h ****          ** CPU Freq set to 480MHz
  45:/Users/dominicfrugoli/Desktop/ProgrammingCode/DaisyCode/DaisyExamples/libDaisy/src/sys/system.h ****          ** Cache Enabled
  46:/Users/dominicfrugoli/Desktop/ProgrammingCode/DaisyCode/DaisyExamples/libDaisy/src/sys/system.h ****          ** */
  47:/Users/dominicfrugoli/Desktop/ProgrammingCode/DaisyCode/DaisyExamples/libDaisy/src/sys/system.h ****         void Boost()
  48:/Users/dominicfrugoli/Desktop/ProgrammingCode/DaisyCode/DaisyExamples/libDaisy/src/sys/system.h ****         {
  49:/Users/dominicfrugoli/Desktop/ProgrammingCode/DaisyCode/DaisyExamples/libDaisy/src/sys/system.h ****             cpu_freq    = SysClkFreq::FREQ_480MHZ;
  50:/Users/dominicfrugoli/Desktop/ProgrammingCode/DaisyCode/DaisyExamples/libDaisy/src/sys/system.h ****             use_dcache  = true;
  51:/Users/dominicfrugoli/Desktop/ProgrammingCode/DaisyCode/DaisyExamples/libDaisy/src/sys/system.h ****             use_icache  = true;
  52:/Users/dominicfrugoli/Desktop/ProgrammingCode/DaisyCode/DaisyExamples/libDaisy/src/sys/system.h ****             skip_clocks = false;
  53:/Users/dominicfrugoli/Desktop/ProgrammingCode/DaisyCode/DaisyExamples/libDaisy/src/sys/system.h ****         }
  54:/Users/dominicfrugoli/Desktop/ProgrammingCode/DaisyCode/DaisyExamples/libDaisy/src/sys/system.h **** 
  55:/Users/dominicfrugoli/Desktop/ProgrammingCode/DaisyCode/DaisyExamples/libDaisy/src/sys/system.h ****         SysClkFreq cpu_freq;
  56:/Users/dominicfrugoli/Desktop/ProgrammingCode/DaisyCode/DaisyExamples/libDaisy/src/sys/system.h ****         bool       use_dcache;
  57:/Users/dominicfrugoli/Desktop/ProgrammingCode/DaisyCode/DaisyExamples/libDaisy/src/sys/system.h ****         bool       use_icache;
  58:/Users/dominicfrugoli/Desktop/ProgrammingCode/DaisyCode/DaisyExamples/libDaisy/src/sys/system.h ****         bool       skip_clocks;
  59:/Users/dominicfrugoli/Desktop/ProgrammingCode/DaisyCode/DaisyExamples/libDaisy/src/sys/system.h ****     };
  60:/Users/dominicfrugoli/Desktop/ProgrammingCode/DaisyCode/DaisyExamples/libDaisy/src/sys/system.h **** 
  61:/Users/dominicfrugoli/Desktop/ProgrammingCode/DaisyCode/DaisyExamples/libDaisy/src/sys/system.h ****     /** Describes the different regions of memory available to the Daisy */
  62:/Users/dominicfrugoli/Desktop/ProgrammingCode/DaisyCode/DaisyExamples/libDaisy/src/sys/system.h ****     enum MemoryRegion
  63:/Users/dominicfrugoli/Desktop/ProgrammingCode/DaisyCode/DaisyExamples/libDaisy/src/sys/system.h ****     {
  64:/Users/dominicfrugoli/Desktop/ProgrammingCode/DaisyCode/DaisyExamples/libDaisy/src/sys/system.h ****         INTERNAL_FLASH = 0,
  65:/Users/dominicfrugoli/Desktop/ProgrammingCode/DaisyCode/DaisyExamples/libDaisy/src/sys/system.h ****         ITCMRAM,
  66:/Users/dominicfrugoli/Desktop/ProgrammingCode/DaisyCode/DaisyExamples/libDaisy/src/sys/system.h ****         DTCMRAM,
  67:/Users/dominicfrugoli/Desktop/ProgrammingCode/DaisyCode/DaisyExamples/libDaisy/src/sys/system.h ****         SRAM_D1,
  68:/Users/dominicfrugoli/Desktop/ProgrammingCode/DaisyCode/DaisyExamples/libDaisy/src/sys/system.h ****         SRAM_D2,
  69:/Users/dominicfrugoli/Desktop/ProgrammingCode/DaisyCode/DaisyExamples/libDaisy/src/sys/system.h ****         SRAM_D3,
  70:/Users/dominicfrugoli/Desktop/ProgrammingCode/DaisyCode/DaisyExamples/libDaisy/src/sys/system.h ****         SDRAM,
  71:/Users/dominicfrugoli/Desktop/ProgrammingCode/DaisyCode/DaisyExamples/libDaisy/src/sys/system.h ****         QSPI,
  72:/Users/dominicfrugoli/Desktop/ProgrammingCode/DaisyCode/DaisyExamples/libDaisy/src/sys/system.h ****         INVALID_ADDRESS,
  73:/Users/dominicfrugoli/Desktop/ProgrammingCode/DaisyCode/DaisyExamples/libDaisy/src/sys/system.h ****     };
  74:/Users/dominicfrugoli/Desktop/ProgrammingCode/DaisyCode/DaisyExamples/libDaisy/src/sys/system.h **** 
  75:/Users/dominicfrugoli/Desktop/ProgrammingCode/DaisyCode/DaisyExamples/libDaisy/src/sys/system.h ****     /** Bootloader struct for controlling bootloading parameters */
  76:/Users/dominicfrugoli/Desktop/ProgrammingCode/DaisyCode/DaisyExamples/libDaisy/src/sys/system.h ****     struct BootInfo
  77:/Users/dominicfrugoli/Desktop/ProgrammingCode/DaisyCode/DaisyExamples/libDaisy/src/sys/system.h ****     {
  78:/Users/dominicfrugoli/Desktop/ProgrammingCode/DaisyCode/DaisyExamples/libDaisy/src/sys/system.h ****         enum class Type : uint32_t
  79:/Users/dominicfrugoli/Desktop/ProgrammingCode/DaisyCode/DaisyExamples/libDaisy/src/sys/system.h ****         {
  80:/Users/dominicfrugoli/Desktop/ProgrammingCode/DaisyCode/DaisyExamples/libDaisy/src/sys/system.h ****             INVALID      = 0x00000000,
  81:/Users/dominicfrugoli/Desktop/ProgrammingCode/DaisyCode/DaisyExamples/libDaisy/src/sys/system.h ****             JUMP         = 0xDEADBEEF,
  82:/Users/dominicfrugoli/Desktop/ProgrammingCode/DaisyCode/DaisyExamples/libDaisy/src/sys/system.h ****             SKIP_TIMEOUT = 0x5AFEB007,
  83:/Users/dominicfrugoli/Desktop/ProgrammingCode/DaisyCode/DaisyExamples/libDaisy/src/sys/system.h ****             INF_TIMEOUT  = 0xB0074EFA,
  84:/Users/dominicfrugoli/Desktop/ProgrammingCode/DaisyCode/DaisyExamples/libDaisy/src/sys/system.h ****         } status;
  85:/Users/dominicfrugoli/Desktop/ProgrammingCode/DaisyCode/DaisyExamples/libDaisy/src/sys/system.h ****         uint32_t data;
  86:/Users/dominicfrugoli/Desktop/ProgrammingCode/DaisyCode/DaisyExamples/libDaisy/src/sys/system.h ****         enum class Version : uint32_t
  87:/Users/dominicfrugoli/Desktop/ProgrammingCode/DaisyCode/DaisyExamples/libDaisy/src/sys/system.h ****         {
  88:/Users/dominicfrugoli/Desktop/ProgrammingCode/DaisyCode/DaisyExamples/libDaisy/src/sys/system.h ****             LT_v6_0 = 0, // Less than v6.0
  89:/Users/dominicfrugoli/Desktop/ProgrammingCode/DaisyCode/DaisyExamples/libDaisy/src/sys/system.h ****             NONE,        // No bootloader present
  90:/Users/dominicfrugoli/Desktop/ProgrammingCode/DaisyCode/DaisyExamples/libDaisy/src/sys/system.h ****             v6_0,        // v6.0
  91:/Users/dominicfrugoli/Desktop/ProgrammingCode/DaisyCode/DaisyExamples/libDaisy/src/sys/system.h ****             v6_1,        // v6.1 or greater
ARM GAS  /var/folders/m5/x8wc2gdj7z5cpgcqdsb_gkj40000gn/T//ccGxviRN.s 			page 6


  92:/Users/dominicfrugoli/Desktop/ProgrammingCode/DaisyCode/DaisyExamples/libDaisy/src/sys/system.h ****             LAST
  93:/Users/dominicfrugoli/Desktop/ProgrammingCode/DaisyCode/DaisyExamples/libDaisy/src/sys/system.h ****         } version;
  94:/Users/dominicfrugoli/Desktop/ProgrammingCode/DaisyCode/DaisyExamples/libDaisy/src/sys/system.h ****     };
  95:/Users/dominicfrugoli/Desktop/ProgrammingCode/DaisyCode/DaisyExamples/libDaisy/src/sys/system.h **** 
  96:/Users/dominicfrugoli/Desktop/ProgrammingCode/DaisyCode/DaisyExamples/libDaisy/src/sys/system.h ****     System() {}
  97:/Users/dominicfrugoli/Desktop/ProgrammingCode/DaisyCode/DaisyExamples/libDaisy/src/sys/system.h ****     ~System() {}
  92              		.loc 5 97 5 view .LVU7
  93              		.loc 5 97 5 is_stmt 0 view .LVU8
  94              	.LBE402:
  95              	.LBB403:
  96              	.LBI403:
  97              		.file 6 "/Users/dominicfrugoli/Desktop/ProgrammingCode/DaisyCode/DaisyExamples/libDaisy/src/hid/us
   1:/Users/dominicfrugoli/Desktop/ProgrammingCode/DaisyCode/DaisyExamples/libDaisy/src/hid/usb.h **** #pragma once
   2:/Users/dominicfrugoli/Desktop/ProgrammingCode/DaisyCode/DaisyExamples/libDaisy/src/hid/usb.h **** #ifndef DSY_HID_USB_H
   3:/Users/dominicfrugoli/Desktop/ProgrammingCode/DaisyCode/DaisyExamples/libDaisy/src/hid/usb.h **** #define DSY_HID_USB_H
   4:/Users/dominicfrugoli/Desktop/ProgrammingCode/DaisyCode/DaisyExamples/libDaisy/src/hid/usb.h **** #include <stdint.h>
   5:/Users/dominicfrugoli/Desktop/ProgrammingCode/DaisyCode/DaisyExamples/libDaisy/src/hid/usb.h **** #include <stdlib.h>
   6:/Users/dominicfrugoli/Desktop/ProgrammingCode/DaisyCode/DaisyExamples/libDaisy/src/hid/usb.h **** 
   7:/Users/dominicfrugoli/Desktop/ProgrammingCode/DaisyCode/DaisyExamples/libDaisy/src/hid/usb.h **** namespace daisy
   8:/Users/dominicfrugoli/Desktop/ProgrammingCode/DaisyCode/DaisyExamples/libDaisy/src/hid/usb.h **** /** @addtogroup human_interface
   9:/Users/dominicfrugoli/Desktop/ProgrammingCode/DaisyCode/DaisyExamples/libDaisy/src/hid/usb.h ****     @{
  10:/Users/dominicfrugoli/Desktop/ProgrammingCode/DaisyCode/DaisyExamples/libDaisy/src/hid/usb.h **** */
  11:/Users/dominicfrugoli/Desktop/ProgrammingCode/DaisyCode/DaisyExamples/libDaisy/src/hid/usb.h **** 
  12:/Users/dominicfrugoli/Desktop/ProgrammingCode/DaisyCode/DaisyExamples/libDaisy/src/hid/usb.h **** {
  13:/Users/dominicfrugoli/Desktop/ProgrammingCode/DaisyCode/DaisyExamples/libDaisy/src/hid/usb.h **** /** 
  14:/Users/dominicfrugoli/Desktop/ProgrammingCode/DaisyCode/DaisyExamples/libDaisy/src/hid/usb.h ****     @brief Interface for initializing and using the USB Peripherals on the daisy
  15:/Users/dominicfrugoli/Desktop/ProgrammingCode/DaisyCode/DaisyExamples/libDaisy/src/hid/usb.h ****     @author Stephen Hensley
  16:/Users/dominicfrugoli/Desktop/ProgrammingCode/DaisyCode/DaisyExamples/libDaisy/src/hid/usb.h ****     @date December 2019
  17:/Users/dominicfrugoli/Desktop/ProgrammingCode/DaisyCode/DaisyExamples/libDaisy/src/hid/usb.h **** */
  18:/Users/dominicfrugoli/Desktop/ProgrammingCode/DaisyCode/DaisyExamples/libDaisy/src/hid/usb.h **** class UsbHandle
  19:/Users/dominicfrugoli/Desktop/ProgrammingCode/DaisyCode/DaisyExamples/libDaisy/src/hid/usb.h **** {
  20:/Users/dominicfrugoli/Desktop/ProgrammingCode/DaisyCode/DaisyExamples/libDaisy/src/hid/usb.h ****   public:
  21:/Users/dominicfrugoli/Desktop/ProgrammingCode/DaisyCode/DaisyExamples/libDaisy/src/hid/usb.h ****     /** Return values for USBHandle Functions */
  22:/Users/dominicfrugoli/Desktop/ProgrammingCode/DaisyCode/DaisyExamples/libDaisy/src/hid/usb.h ****     enum class Result
  23:/Users/dominicfrugoli/Desktop/ProgrammingCode/DaisyCode/DaisyExamples/libDaisy/src/hid/usb.h ****     {
  24:/Users/dominicfrugoli/Desktop/ProgrammingCode/DaisyCode/DaisyExamples/libDaisy/src/hid/usb.h ****         OK,
  25:/Users/dominicfrugoli/Desktop/ProgrammingCode/DaisyCode/DaisyExamples/libDaisy/src/hid/usb.h ****         ERR,
  26:/Users/dominicfrugoli/Desktop/ProgrammingCode/DaisyCode/DaisyExamples/libDaisy/src/hid/usb.h ****     };
  27:/Users/dominicfrugoli/Desktop/ProgrammingCode/DaisyCode/DaisyExamples/libDaisy/src/hid/usb.h **** 
  28:/Users/dominicfrugoli/Desktop/ProgrammingCode/DaisyCode/DaisyExamples/libDaisy/src/hid/usb.h ****     /** Specified which of the two USB Peripherals to initialize. */
  29:/Users/dominicfrugoli/Desktop/ProgrammingCode/DaisyCode/DaisyExamples/libDaisy/src/hid/usb.h ****     enum UsbPeriph
  30:/Users/dominicfrugoli/Desktop/ProgrammingCode/DaisyCode/DaisyExamples/libDaisy/src/hid/usb.h ****     {
  31:/Users/dominicfrugoli/Desktop/ProgrammingCode/DaisyCode/DaisyExamples/libDaisy/src/hid/usb.h ****         FS_INTERNAL, /**< Internal pin */
  32:/Users/dominicfrugoli/Desktop/ProgrammingCode/DaisyCode/DaisyExamples/libDaisy/src/hid/usb.h ****         FS_EXTERNAL, /**< FS External D+ pin is Pin 38 (GPIO32). FS External D- pin is Pin 37 (GPIO
  33:/Users/dominicfrugoli/Desktop/ProgrammingCode/DaisyCode/DaisyExamples/libDaisy/src/hid/usb.h ****         FS_BOTH,     /**< Both */
  34:/Users/dominicfrugoli/Desktop/ProgrammingCode/DaisyCode/DaisyExamples/libDaisy/src/hid/usb.h ****     };
  35:/Users/dominicfrugoli/Desktop/ProgrammingCode/DaisyCode/DaisyExamples/libDaisy/src/hid/usb.h **** 
  36:/Users/dominicfrugoli/Desktop/ProgrammingCode/DaisyCode/DaisyExamples/libDaisy/src/hid/usb.h **** 
  37:/Users/dominicfrugoli/Desktop/ProgrammingCode/DaisyCode/DaisyExamples/libDaisy/src/hid/usb.h ****     /** Function called upon reception of a buffer */
  38:/Users/dominicfrugoli/Desktop/ProgrammingCode/DaisyCode/DaisyExamples/libDaisy/src/hid/usb.h ****     typedef void (*ReceiveCallback)(uint8_t* buff, uint32_t* len);
  39:/Users/dominicfrugoli/Desktop/ProgrammingCode/DaisyCode/DaisyExamples/libDaisy/src/hid/usb.h **** 
  40:/Users/dominicfrugoli/Desktop/ProgrammingCode/DaisyCode/DaisyExamples/libDaisy/src/hid/usb.h ****     UsbHandle() {}
  41:/Users/dominicfrugoli/Desktop/ProgrammingCode/DaisyCode/DaisyExamples/libDaisy/src/hid/usb.h **** 
  42:/Users/dominicfrugoli/Desktop/ProgrammingCode/DaisyCode/DaisyExamples/libDaisy/src/hid/usb.h ****     ~UsbHandle() {}
  98              		.loc 6 42 5 is_stmt 1 view .LVU9
  99              		.loc 6 42 5 is_stmt 0 view .LVU10
 100              	.LBE403:
ARM GAS  /var/folders/m5/x8wc2gdj7z5cpgcqdsb_gkj40000gn/T//ccGxviRN.s 			page 7


 101              	.LBB404:
 102              	.LBI404:
 103              		.file 7 "/Users/dominicfrugoli/Desktop/ProgrammingCode/DaisyCode/DaisyExamples/libDaisy/src/per/ad
   1:/Users/dominicfrugoli/Desktop/ProgrammingCode/DaisyCode/DaisyExamples/libDaisy/src/per/adc.h **** #pragma once
   2:/Users/dominicfrugoli/Desktop/ProgrammingCode/DaisyCode/DaisyExamples/libDaisy/src/per/adc.h **** #ifndef DSY_ADC_H
   3:/Users/dominicfrugoli/Desktop/ProgrammingCode/DaisyCode/DaisyExamples/libDaisy/src/per/adc.h **** #define DSY_ADC_H /**< Macro */
   4:/Users/dominicfrugoli/Desktop/ProgrammingCode/DaisyCode/DaisyExamples/libDaisy/src/per/adc.h **** #include <stdint.h>
   5:/Users/dominicfrugoli/Desktop/ProgrammingCode/DaisyCode/DaisyExamples/libDaisy/src/per/adc.h **** #include <stdlib.h>
   6:/Users/dominicfrugoli/Desktop/ProgrammingCode/DaisyCode/DaisyExamples/libDaisy/src/per/adc.h **** #include "daisy_core.h"
   7:/Users/dominicfrugoli/Desktop/ProgrammingCode/DaisyCode/DaisyExamples/libDaisy/src/per/adc.h **** #include "per/gpio.h"
   8:/Users/dominicfrugoli/Desktop/ProgrammingCode/DaisyCode/DaisyExamples/libDaisy/src/per/adc.h **** 
   9:/Users/dominicfrugoli/Desktop/ProgrammingCode/DaisyCode/DaisyExamples/libDaisy/src/per/adc.h **** #define DSY_ADC_MAX_CHANNELS 16 /**< Maximum number of ADC channels */
  10:/Users/dominicfrugoli/Desktop/ProgrammingCode/DaisyCode/DaisyExamples/libDaisy/src/per/adc.h **** 
  11:/Users/dominicfrugoli/Desktop/ProgrammingCode/DaisyCode/DaisyExamples/libDaisy/src/per/adc.h **** namespace daisy
  12:/Users/dominicfrugoli/Desktop/ProgrammingCode/DaisyCode/DaisyExamples/libDaisy/src/per/adc.h **** {
  13:/Users/dominicfrugoli/Desktop/ProgrammingCode/DaisyCode/DaisyExamples/libDaisy/src/per/adc.h **** /** @addtogroup per_analog
  14:/Users/dominicfrugoli/Desktop/ProgrammingCode/DaisyCode/DaisyExamples/libDaisy/src/per/adc.h ****     @{
  15:/Users/dominicfrugoli/Desktop/ProgrammingCode/DaisyCode/DaisyExamples/libDaisy/src/per/adc.h **** */
  16:/Users/dominicfrugoli/Desktop/ProgrammingCode/DaisyCode/DaisyExamples/libDaisy/src/per/adc.h **** 
  17:/Users/dominicfrugoli/Desktop/ProgrammingCode/DaisyCode/DaisyExamples/libDaisy/src/per/adc.h **** /* While there may not be many configuration options here,
  18:/Users/dominicfrugoli/Desktop/ProgrammingCode/DaisyCode/DaisyExamples/libDaisy/src/per/adc.h **** using a struct like this allows us to add more configuration
  19:/Users/dominicfrugoli/Desktop/ProgrammingCode/DaisyCode/DaisyExamples/libDaisy/src/per/adc.h **** later without breaking existing functionality.
  20:/Users/dominicfrugoli/Desktop/ProgrammingCode/DaisyCode/DaisyExamples/libDaisy/src/per/adc.h **** */
  21:/Users/dominicfrugoli/Desktop/ProgrammingCode/DaisyCode/DaisyExamples/libDaisy/src/per/adc.h **** 
  22:/Users/dominicfrugoli/Desktop/ProgrammingCode/DaisyCode/DaisyExamples/libDaisy/src/per/adc.h **** /** @brief   Configuration Structure for an ADC Channel 
  23:/Users/dominicfrugoli/Desktop/ProgrammingCode/DaisyCode/DaisyExamples/libDaisy/src/per/adc.h ****  *  @details This can be used to configure a a single input, 
  24:/Users/dominicfrugoli/Desktop/ProgrammingCode/DaisyCode/DaisyExamples/libDaisy/src/per/adc.h ****  *           or a multiplexed input, allowing up to 8 inputs on 
  25:/Users/dominicfrugoli/Desktop/ProgrammingCode/DaisyCode/DaisyExamples/libDaisy/src/per/adc.h ****  *           one channel.
  26:/Users/dominicfrugoli/Desktop/ProgrammingCode/DaisyCode/DaisyExamples/libDaisy/src/per/adc.h ****  *  @note    Sharing data lines to multiple muxes _is_ possible, but
  27:/Users/dominicfrugoli/Desktop/ProgrammingCode/DaisyCode/DaisyExamples/libDaisy/src/per/adc.h ****  *           each channel sharing data lines must be set to the maximum
  28:/Users/dominicfrugoli/Desktop/ProgrammingCode/DaisyCode/DaisyExamples/libDaisy/src/per/adc.h ****  *           number of channels, even if some multiplexers have fewer
  29:/Users/dominicfrugoli/Desktop/ProgrammingCode/DaisyCode/DaisyExamples/libDaisy/src/per/adc.h ****  *           inputs connected.
  30:/Users/dominicfrugoli/Desktop/ProgrammingCode/DaisyCode/DaisyExamples/libDaisy/src/per/adc.h **** */
  31:/Users/dominicfrugoli/Desktop/ProgrammingCode/DaisyCode/DaisyExamples/libDaisy/src/per/adc.h **** struct AdcChannelConfig
  32:/Users/dominicfrugoli/Desktop/ProgrammingCode/DaisyCode/DaisyExamples/libDaisy/src/per/adc.h **** {
  33:/Users/dominicfrugoli/Desktop/ProgrammingCode/DaisyCode/DaisyExamples/libDaisy/src/per/adc.h ****     /** Which pin to use for multiplexing */
  34:/Users/dominicfrugoli/Desktop/ProgrammingCode/DaisyCode/DaisyExamples/libDaisy/src/per/adc.h ****     enum MuxPin
  35:/Users/dominicfrugoli/Desktop/ProgrammingCode/DaisyCode/DaisyExamples/libDaisy/src/per/adc.h ****     {
  36:/Users/dominicfrugoli/Desktop/ProgrammingCode/DaisyCode/DaisyExamples/libDaisy/src/per/adc.h ****         MUX_SEL_0,    /**< & */
  37:/Users/dominicfrugoli/Desktop/ProgrammingCode/DaisyCode/DaisyExamples/libDaisy/src/per/adc.h ****         MUX_SEL_1,    /**< & */
  38:/Users/dominicfrugoli/Desktop/ProgrammingCode/DaisyCode/DaisyExamples/libDaisy/src/per/adc.h ****         MUX_SEL_2,    /**< & */
  39:/Users/dominicfrugoli/Desktop/ProgrammingCode/DaisyCode/DaisyExamples/libDaisy/src/per/adc.h ****         MUX_SEL_LAST, /**< & */
  40:/Users/dominicfrugoli/Desktop/ProgrammingCode/DaisyCode/DaisyExamples/libDaisy/src/per/adc.h ****     };
  41:/Users/dominicfrugoli/Desktop/ProgrammingCode/DaisyCode/DaisyExamples/libDaisy/src/per/adc.h **** 
  42:/Users/dominicfrugoli/Desktop/ProgrammingCode/DaisyCode/DaisyExamples/libDaisy/src/per/adc.h ****     /** \brief per channel conversion speed added to fixed time based on bitdepth, etc. */
  43:/Users/dominicfrugoli/Desktop/ProgrammingCode/DaisyCode/DaisyExamples/libDaisy/src/per/adc.h ****     enum ConversionSpeed
  44:/Users/dominicfrugoli/Desktop/ProgrammingCode/DaisyCode/DaisyExamples/libDaisy/src/per/adc.h ****     {
  45:/Users/dominicfrugoli/Desktop/ProgrammingCode/DaisyCode/DaisyExamples/libDaisy/src/per/adc.h ****         SPEED_1CYCLES_5,
  46:/Users/dominicfrugoli/Desktop/ProgrammingCode/DaisyCode/DaisyExamples/libDaisy/src/per/adc.h ****         SPEED_2CYCLES_5,
  47:/Users/dominicfrugoli/Desktop/ProgrammingCode/DaisyCode/DaisyExamples/libDaisy/src/per/adc.h ****         SPEED_8CYCLES_5,
  48:/Users/dominicfrugoli/Desktop/ProgrammingCode/DaisyCode/DaisyExamples/libDaisy/src/per/adc.h ****         SPEED_16CYCLES_5,
  49:/Users/dominicfrugoli/Desktop/ProgrammingCode/DaisyCode/DaisyExamples/libDaisy/src/per/adc.h ****         SPEED_32CYCLES_5,
  50:/Users/dominicfrugoli/Desktop/ProgrammingCode/DaisyCode/DaisyExamples/libDaisy/src/per/adc.h ****         SPEED_64CYCLES_5,
  51:/Users/dominicfrugoli/Desktop/ProgrammingCode/DaisyCode/DaisyExamples/libDaisy/src/per/adc.h ****         SPEED_387CYCLES_5,
  52:/Users/dominicfrugoli/Desktop/ProgrammingCode/DaisyCode/DaisyExamples/libDaisy/src/per/adc.h ****         SPEED_810CYCLES_5,
  53:/Users/dominicfrugoli/Desktop/ProgrammingCode/DaisyCode/DaisyExamples/libDaisy/src/per/adc.h ****     };
  54:/Users/dominicfrugoli/Desktop/ProgrammingCode/DaisyCode/DaisyExamples/libDaisy/src/per/adc.h **** 
ARM GAS  /var/folders/m5/x8wc2gdj7z5cpgcqdsb_gkj40000gn/T//ccGxviRN.s 			page 8


  55:/Users/dominicfrugoli/Desktop/ProgrammingCode/DaisyCode/DaisyExamples/libDaisy/src/per/adc.h ****     /** Initializes a single ADC pin as an ADC. 
  56:/Users/dominicfrugoli/Desktop/ProgrammingCode/DaisyCode/DaisyExamples/libDaisy/src/per/adc.h ****     \param pin Pin to init.
  57:/Users/dominicfrugoli/Desktop/ProgrammingCode/DaisyCode/DaisyExamples/libDaisy/src/per/adc.h ****     \param speed conversion speed for this pin defaults to 8.5 cycles
  58:/Users/dominicfrugoli/Desktop/ProgrammingCode/DaisyCode/DaisyExamples/libDaisy/src/per/adc.h ****      */
  59:/Users/dominicfrugoli/Desktop/ProgrammingCode/DaisyCode/DaisyExamples/libDaisy/src/per/adc.h ****     void InitSingle(dsy_gpio_pin pin, ConversionSpeed speed = SPEED_8CYCLES_5);
  60:/Users/dominicfrugoli/Desktop/ProgrammingCode/DaisyCode/DaisyExamples/libDaisy/src/per/adc.h **** 
  61:/Users/dominicfrugoli/Desktop/ProgrammingCode/DaisyCode/DaisyExamples/libDaisy/src/per/adc.h ****     /** 
  62:/Users/dominicfrugoli/Desktop/ProgrammingCode/DaisyCode/DaisyExamples/libDaisy/src/per/adc.h ****     Initializes a single ADC pin as a Multiplexed ADC.
  63:/Users/dominicfrugoli/Desktop/ProgrammingCode/DaisyCode/DaisyExamples/libDaisy/src/per/adc.h ****     Requires a CD405X Multiplexer connected to the pin.
  64:/Users/dominicfrugoli/Desktop/ProgrammingCode/DaisyCode/DaisyExamples/libDaisy/src/per/adc.h ****     You only need to supply the mux pins that are required,
  65:/Users/dominicfrugoli/Desktop/ProgrammingCode/DaisyCode/DaisyExamples/libDaisy/src/per/adc.h ****     e.g. a 4052 mux would only require mux_0 and mux_1.
  66:/Users/dominicfrugoli/Desktop/ProgrammingCode/DaisyCode/DaisyExamples/libDaisy/src/per/adc.h ****     Internal Callbacks handle the pin addressing.
  67:/Users/dominicfrugoli/Desktop/ProgrammingCode/DaisyCode/DaisyExamples/libDaisy/src/per/adc.h ****     \param adc_pin &
  68:/Users/dominicfrugoli/Desktop/ProgrammingCode/DaisyCode/DaisyExamples/libDaisy/src/per/adc.h ****     \param mux_channels must be 1-8
  69:/Users/dominicfrugoli/Desktop/ProgrammingCode/DaisyCode/DaisyExamples/libDaisy/src/per/adc.h ****     \param mux_0 First mux pin
  70:/Users/dominicfrugoli/Desktop/ProgrammingCode/DaisyCode/DaisyExamples/libDaisy/src/per/adc.h ****     \param mux_1 Second mux pin
  71:/Users/dominicfrugoli/Desktop/ProgrammingCode/DaisyCode/DaisyExamples/libDaisy/src/per/adc.h ****     \param mux_2 Third mux pin
  72:/Users/dominicfrugoli/Desktop/ProgrammingCode/DaisyCode/DaisyExamples/libDaisy/src/per/adc.h ****     \param speed conversion speed for this pin defaults to 8.5 cycles
  73:/Users/dominicfrugoli/Desktop/ProgrammingCode/DaisyCode/DaisyExamples/libDaisy/src/per/adc.h ****     */
  74:/Users/dominicfrugoli/Desktop/ProgrammingCode/DaisyCode/DaisyExamples/libDaisy/src/per/adc.h ****     void InitMux(dsy_gpio_pin    adc_pin,
  75:/Users/dominicfrugoli/Desktop/ProgrammingCode/DaisyCode/DaisyExamples/libDaisy/src/per/adc.h ****                  size_t          mux_channels,
  76:/Users/dominicfrugoli/Desktop/ProgrammingCode/DaisyCode/DaisyExamples/libDaisy/src/per/adc.h ****                  dsy_gpio_pin    mux_0,
  77:/Users/dominicfrugoli/Desktop/ProgrammingCode/DaisyCode/DaisyExamples/libDaisy/src/per/adc.h ****                  dsy_gpio_pin    mux_1 = {DSY_GPIOX, 0},
  78:/Users/dominicfrugoli/Desktop/ProgrammingCode/DaisyCode/DaisyExamples/libDaisy/src/per/adc.h ****                  dsy_gpio_pin    mux_2 = {DSY_GPIOX, 0},
  79:/Users/dominicfrugoli/Desktop/ProgrammingCode/DaisyCode/DaisyExamples/libDaisy/src/per/adc.h ****                  ConversionSpeed speed = SPEED_8CYCLES_5);
  80:/Users/dominicfrugoli/Desktop/ProgrammingCode/DaisyCode/DaisyExamples/libDaisy/src/per/adc.h **** 
  81:/Users/dominicfrugoli/Desktop/ProgrammingCode/DaisyCode/DaisyExamples/libDaisy/src/per/adc.h ****     dsy_gpio        pin_;                   /**< & */
  82:/Users/dominicfrugoli/Desktop/ProgrammingCode/DaisyCode/DaisyExamples/libDaisy/src/per/adc.h ****     dsy_gpio        mux_pin_[MUX_SEL_LAST]; /**< & */
  83:/Users/dominicfrugoli/Desktop/ProgrammingCode/DaisyCode/DaisyExamples/libDaisy/src/per/adc.h ****     uint8_t         mux_channels_;          /**< & */
  84:/Users/dominicfrugoli/Desktop/ProgrammingCode/DaisyCode/DaisyExamples/libDaisy/src/per/adc.h ****     ConversionSpeed speed_;
  85:/Users/dominicfrugoli/Desktop/ProgrammingCode/DaisyCode/DaisyExamples/libDaisy/src/per/adc.h **** };
  86:/Users/dominicfrugoli/Desktop/ProgrammingCode/DaisyCode/DaisyExamples/libDaisy/src/per/adc.h **** 
  87:/Users/dominicfrugoli/Desktop/ProgrammingCode/DaisyCode/DaisyExamples/libDaisy/src/per/adc.h **** /**
  88:/Users/dominicfrugoli/Desktop/ProgrammingCode/DaisyCode/DaisyExamples/libDaisy/src/per/adc.h ****    @brief Handler for analog to digital conversion
  89:/Users/dominicfrugoli/Desktop/ProgrammingCode/DaisyCode/DaisyExamples/libDaisy/src/per/adc.h **** */
  90:/Users/dominicfrugoli/Desktop/ProgrammingCode/DaisyCode/DaisyExamples/libDaisy/src/per/adc.h **** class AdcHandle
  91:/Users/dominicfrugoli/Desktop/ProgrammingCode/DaisyCode/DaisyExamples/libDaisy/src/per/adc.h **** {
  92:/Users/dominicfrugoli/Desktop/ProgrammingCode/DaisyCode/DaisyExamples/libDaisy/src/per/adc.h ****   public:
  93:/Users/dominicfrugoli/Desktop/ProgrammingCode/DaisyCode/DaisyExamples/libDaisy/src/per/adc.h ****     /** Supported oversampling amounts */
  94:/Users/dominicfrugoli/Desktop/ProgrammingCode/DaisyCode/DaisyExamples/libDaisy/src/per/adc.h ****     enum OverSampling
  95:/Users/dominicfrugoli/Desktop/ProgrammingCode/DaisyCode/DaisyExamples/libDaisy/src/per/adc.h ****     {
  96:/Users/dominicfrugoli/Desktop/ProgrammingCode/DaisyCode/DaisyExamples/libDaisy/src/per/adc.h ****         OVS_NONE, /**< & */
  97:/Users/dominicfrugoli/Desktop/ProgrammingCode/DaisyCode/DaisyExamples/libDaisy/src/per/adc.h ****         OVS_4,    /**< & */
  98:/Users/dominicfrugoli/Desktop/ProgrammingCode/DaisyCode/DaisyExamples/libDaisy/src/per/adc.h ****         OVS_8,    /**< & */
  99:/Users/dominicfrugoli/Desktop/ProgrammingCode/DaisyCode/DaisyExamples/libDaisy/src/per/adc.h ****         OVS_16,   /**< & */
 100:/Users/dominicfrugoli/Desktop/ProgrammingCode/DaisyCode/DaisyExamples/libDaisy/src/per/adc.h ****         OVS_32,   /**< & */
 101:/Users/dominicfrugoli/Desktop/ProgrammingCode/DaisyCode/DaisyExamples/libDaisy/src/per/adc.h ****         OVS_64,   /**< & */
 102:/Users/dominicfrugoli/Desktop/ProgrammingCode/DaisyCode/DaisyExamples/libDaisy/src/per/adc.h ****         OVS_128,  /**< & */
 103:/Users/dominicfrugoli/Desktop/ProgrammingCode/DaisyCode/DaisyExamples/libDaisy/src/per/adc.h ****         OVS_256,  /**< & */
 104:/Users/dominicfrugoli/Desktop/ProgrammingCode/DaisyCode/DaisyExamples/libDaisy/src/per/adc.h ****         OVS_512,  /**< & */
 105:/Users/dominicfrugoli/Desktop/ProgrammingCode/DaisyCode/DaisyExamples/libDaisy/src/per/adc.h ****         OVS_1024, /**< & */
 106:/Users/dominicfrugoli/Desktop/ProgrammingCode/DaisyCode/DaisyExamples/libDaisy/src/per/adc.h ****         OVS_LAST, /**< & */
 107:/Users/dominicfrugoli/Desktop/ProgrammingCode/DaisyCode/DaisyExamples/libDaisy/src/per/adc.h ****     };
 108:/Users/dominicfrugoli/Desktop/ProgrammingCode/DaisyCode/DaisyExamples/libDaisy/src/per/adc.h **** 
 109:/Users/dominicfrugoli/Desktop/ProgrammingCode/DaisyCode/DaisyExamples/libDaisy/src/per/adc.h ****     AdcHandle() {}
 110:/Users/dominicfrugoli/Desktop/ProgrammingCode/DaisyCode/DaisyExamples/libDaisy/src/per/adc.h ****     ~AdcHandle() {}
 104              		.loc 7 110 5 is_stmt 1 view .LVU11
ARM GAS  /var/folders/m5/x8wc2gdj7z5cpgcqdsb_gkj40000gn/T//ccGxviRN.s 			page 9


 105              		.loc 7 110 5 is_stmt 0 view .LVU12
 106              	.LBE404:
 107              	.LBB405:
 108              	.LBI405:
 109              		.file 8 "/Users/dominicfrugoli/Desktop/ProgrammingCode/DaisyCode/DaisyExamples/libDaisy/src/hid/au
   1:/Users/dominicfrugoli/Desktop/ProgrammingCode/DaisyCode/DaisyExamples/libDaisy/src/hid/audio.h **** #ifndef DSY_AUDIO_H
   2:/Users/dominicfrugoli/Desktop/ProgrammingCode/DaisyCode/DaisyExamples/libDaisy/src/hid/audio.h **** #define DSY_AUDIO_H /**< & */
   3:/Users/dominicfrugoli/Desktop/ProgrammingCode/DaisyCode/DaisyExamples/libDaisy/src/hid/audio.h **** 
   4:/Users/dominicfrugoli/Desktop/ProgrammingCode/DaisyCode/DaisyExamples/libDaisy/src/hid/audio.h **** #include "per/sai.h"
   5:/Users/dominicfrugoli/Desktop/ProgrammingCode/DaisyCode/DaisyExamples/libDaisy/src/hid/audio.h **** 
   6:/Users/dominicfrugoli/Desktop/ProgrammingCode/DaisyCode/DaisyExamples/libDaisy/src/hid/audio.h **** namespace daisy
   7:/Users/dominicfrugoli/Desktop/ProgrammingCode/DaisyCode/DaisyExamples/libDaisy/src/hid/audio.h **** {
   8:/Users/dominicfrugoli/Desktop/ProgrammingCode/DaisyCode/DaisyExamples/libDaisy/src/hid/audio.h **** /** @brief Audio Engine Handle
   9:/Users/dominicfrugoli/Desktop/ProgrammingCode/DaisyCode/DaisyExamples/libDaisy/src/hid/audio.h ****  *  @ingroup audio 
  10:/Users/dominicfrugoli/Desktop/ProgrammingCode/DaisyCode/DaisyExamples/libDaisy/src/hid/audio.h ****  *  @details This class allows for higher level access to an audio engine.
  11:/Users/dominicfrugoli/Desktop/ProgrammingCode/DaisyCode/DaisyExamples/libDaisy/src/hid/audio.h ****  *           If you're using a SOM like the DaisySeed or DaisyPatchSM (or any 
  12:/Users/dominicfrugoli/Desktop/ProgrammingCode/DaisyCode/DaisyExamples/libDaisy/src/hid/audio.h ****  *            board that includes one of those objects) then the intialization
  13:/Users/dominicfrugoli/Desktop/ProgrammingCode/DaisyCode/DaisyExamples/libDaisy/src/hid/audio.h ****  *            is already taken  care of.
  14:/Users/dominicfrugoli/Desktop/ProgrammingCode/DaisyCode/DaisyExamples/libDaisy/src/hid/audio.h ****  *           If you're setting up your own custom hardware, or need to make changes
  15:/Users/dominicfrugoli/Desktop/ProgrammingCode/DaisyCode/DaisyExamples/libDaisy/src/hid/audio.h ****  *           you will have to take the following steps:
  16:/Users/dominicfrugoli/Desktop/ProgrammingCode/DaisyCode/DaisyExamples/libDaisy/src/hid/audio.h ****  *             1. Create and Initialize an SaiHandle or two depending on your requirements
  17:/Users/dominicfrugoli/Desktop/ProgrammingCode/DaisyCode/DaisyExamples/libDaisy/src/hid/audio.h ****  *             2. Initialize the Audio Handle with the desired settings and the Initialized SaiHand
  18:/Users/dominicfrugoli/Desktop/ProgrammingCode/DaisyCode/DaisyExamples/libDaisy/src/hid/audio.h ****  *             3. If the connected codec requires special configuration or initialization, do so
  19:/Users/dominicfrugoli/Desktop/ProgrammingCode/DaisyCode/DaisyExamples/libDaisy/src/hid/audio.h ****  *             4. Write a callback method using either the AudioCallback or the InterleavingAudioCa
  20:/Users/dominicfrugoli/Desktop/ProgrammingCode/DaisyCode/DaisyExamples/libDaisy/src/hid/audio.h ****  *             5. Start the Audio using one of the StartAudio function
  21:/Users/dominicfrugoli/Desktop/ProgrammingCode/DaisyCode/DaisyExamples/libDaisy/src/hid/audio.h ****  */
  22:/Users/dominicfrugoli/Desktop/ProgrammingCode/DaisyCode/DaisyExamples/libDaisy/src/hid/audio.h **** class AudioHandle
  23:/Users/dominicfrugoli/Desktop/ProgrammingCode/DaisyCode/DaisyExamples/libDaisy/src/hid/audio.h **** {
  24:/Users/dominicfrugoli/Desktop/ProgrammingCode/DaisyCode/DaisyExamples/libDaisy/src/hid/audio.h ****   public:
  25:/Users/dominicfrugoli/Desktop/ProgrammingCode/DaisyCode/DaisyExamples/libDaisy/src/hid/audio.h ****     /** Manually configurable details about the Audio Engine */
  26:/Users/dominicfrugoli/Desktop/ProgrammingCode/DaisyCode/DaisyExamples/libDaisy/src/hid/audio.h ****     /** TODO: Figure out how to get samplerate in here. */
  27:/Users/dominicfrugoli/Desktop/ProgrammingCode/DaisyCode/DaisyExamples/libDaisy/src/hid/audio.h ****     struct Config
  28:/Users/dominicfrugoli/Desktop/ProgrammingCode/DaisyCode/DaisyExamples/libDaisy/src/hid/audio.h ****     {
  29:/Users/dominicfrugoli/Desktop/ProgrammingCode/DaisyCode/DaisyExamples/libDaisy/src/hid/audio.h ****         /** number of samples to process per callback */
  30:/Users/dominicfrugoli/Desktop/ProgrammingCode/DaisyCode/DaisyExamples/libDaisy/src/hid/audio.h ****         size_t blocksize;
  31:/Users/dominicfrugoli/Desktop/ProgrammingCode/DaisyCode/DaisyExamples/libDaisy/src/hid/audio.h **** 
  32:/Users/dominicfrugoli/Desktop/ProgrammingCode/DaisyCode/DaisyExamples/libDaisy/src/hid/audio.h ****         /**< Sample rate of audio */
  33:/Users/dominicfrugoli/Desktop/ProgrammingCode/DaisyCode/DaisyExamples/libDaisy/src/hid/audio.h ****         SaiHandle::Config::SampleRate samplerate;
  34:/Users/dominicfrugoli/Desktop/ProgrammingCode/DaisyCode/DaisyExamples/libDaisy/src/hid/audio.h **** 
  35:/Users/dominicfrugoli/Desktop/ProgrammingCode/DaisyCode/DaisyExamples/libDaisy/src/hid/audio.h ****         /** factor for adjustment before and after callback for hardware that may have extra headro
  36:/Users/dominicfrugoli/Desktop/ProgrammingCode/DaisyCode/DaisyExamples/libDaisy/src/hid/audio.h ****         float postgain;
  37:/Users/dominicfrugoli/Desktop/ProgrammingCode/DaisyCode/DaisyExamples/libDaisy/src/hid/audio.h **** 
  38:/Users/dominicfrugoli/Desktop/ProgrammingCode/DaisyCode/DaisyExamples/libDaisy/src/hid/audio.h ****         /** factor for additional one-sided compensation to audio path for hardware that may
  39:/Users/dominicfrugoli/Desktop/ProgrammingCode/DaisyCode/DaisyExamples/libDaisy/src/hid/audio.h ****          *  have unequal input/output ranges
  40:/Users/dominicfrugoli/Desktop/ProgrammingCode/DaisyCode/DaisyExamples/libDaisy/src/hid/audio.h ****          */
  41:/Users/dominicfrugoli/Desktop/ProgrammingCode/DaisyCode/DaisyExamples/libDaisy/src/hid/audio.h ****         float output_compensation;
  42:/Users/dominicfrugoli/Desktop/ProgrammingCode/DaisyCode/DaisyExamples/libDaisy/src/hid/audio.h **** 
  43:/Users/dominicfrugoli/Desktop/ProgrammingCode/DaisyCode/DaisyExamples/libDaisy/src/hid/audio.h ****         /** Sets default values for config struct */
  44:/Users/dominicfrugoli/Desktop/ProgrammingCode/DaisyCode/DaisyExamples/libDaisy/src/hid/audio.h ****         Config()
  45:/Users/dominicfrugoli/Desktop/ProgrammingCode/DaisyCode/DaisyExamples/libDaisy/src/hid/audio.h ****         : blocksize(48),
  46:/Users/dominicfrugoli/Desktop/ProgrammingCode/DaisyCode/DaisyExamples/libDaisy/src/hid/audio.h ****           samplerate(SaiHandle::Config::SampleRate::SAI_48KHZ),
  47:/Users/dominicfrugoli/Desktop/ProgrammingCode/DaisyCode/DaisyExamples/libDaisy/src/hid/audio.h ****           postgain(1.f),
  48:/Users/dominicfrugoli/Desktop/ProgrammingCode/DaisyCode/DaisyExamples/libDaisy/src/hid/audio.h ****           output_compensation(1.f)
  49:/Users/dominicfrugoli/Desktop/ProgrammingCode/DaisyCode/DaisyExamples/libDaisy/src/hid/audio.h ****         {
  50:/Users/dominicfrugoli/Desktop/ProgrammingCode/DaisyCode/DaisyExamples/libDaisy/src/hid/audio.h ****         }
  51:/Users/dominicfrugoli/Desktop/ProgrammingCode/DaisyCode/DaisyExamples/libDaisy/src/hid/audio.h ****     };
  52:/Users/dominicfrugoli/Desktop/ProgrammingCode/DaisyCode/DaisyExamples/libDaisy/src/hid/audio.h **** 
ARM GAS  /var/folders/m5/x8wc2gdj7z5cpgcqdsb_gkj40000gn/T//ccGxviRN.s 			page 10


  53:/Users/dominicfrugoli/Desktop/ProgrammingCode/DaisyCode/DaisyExamples/libDaisy/src/hid/audio.h ****     enum class Result
  54:/Users/dominicfrugoli/Desktop/ProgrammingCode/DaisyCode/DaisyExamples/libDaisy/src/hid/audio.h ****     {
  55:/Users/dominicfrugoli/Desktop/ProgrammingCode/DaisyCode/DaisyExamples/libDaisy/src/hid/audio.h ****         OK,
  56:/Users/dominicfrugoli/Desktop/ProgrammingCode/DaisyCode/DaisyExamples/libDaisy/src/hid/audio.h ****         ERR,
  57:/Users/dominicfrugoli/Desktop/ProgrammingCode/DaisyCode/DaisyExamples/libDaisy/src/hid/audio.h ****     };
  58:/Users/dominicfrugoli/Desktop/ProgrammingCode/DaisyCode/DaisyExamples/libDaisy/src/hid/audio.h **** 
  59:/Users/dominicfrugoli/Desktop/ProgrammingCode/DaisyCode/DaisyExamples/libDaisy/src/hid/audio.h ****     /** Non-Interleaving input buffer
  60:/Users/dominicfrugoli/Desktop/ProgrammingCode/DaisyCode/DaisyExamples/libDaisy/src/hid/audio.h ****      * Buffer arranged by float[chn][sample] 
  61:/Users/dominicfrugoli/Desktop/ProgrammingCode/DaisyCode/DaisyExamples/libDaisy/src/hid/audio.h ****      * const so that the user can't modify the input
  62:/Users/dominicfrugoli/Desktop/ProgrammingCode/DaisyCode/DaisyExamples/libDaisy/src/hid/audio.h ****      */
  63:/Users/dominicfrugoli/Desktop/ProgrammingCode/DaisyCode/DaisyExamples/libDaisy/src/hid/audio.h ****     typedef const float* const* InputBuffer;
  64:/Users/dominicfrugoli/Desktop/ProgrammingCode/DaisyCode/DaisyExamples/libDaisy/src/hid/audio.h **** 
  65:/Users/dominicfrugoli/Desktop/ProgrammingCode/DaisyCode/DaisyExamples/libDaisy/src/hid/audio.h ****     /** Non-Interleaving output buffer
  66:/Users/dominicfrugoli/Desktop/ProgrammingCode/DaisyCode/DaisyExamples/libDaisy/src/hid/audio.h ****      * Arranged by float[chn][sample] 
  67:/Users/dominicfrugoli/Desktop/ProgrammingCode/DaisyCode/DaisyExamples/libDaisy/src/hid/audio.h ****      */
  68:/Users/dominicfrugoli/Desktop/ProgrammingCode/DaisyCode/DaisyExamples/libDaisy/src/hid/audio.h ****     typedef float** OutputBuffer;
  69:/Users/dominicfrugoli/Desktop/ProgrammingCode/DaisyCode/DaisyExamples/libDaisy/src/hid/audio.h **** 
  70:/Users/dominicfrugoli/Desktop/ProgrammingCode/DaisyCode/DaisyExamples/libDaisy/src/hid/audio.h ****     /** Type for a Non-Interleaving audio callback 
  71:/Users/dominicfrugoli/Desktop/ProgrammingCode/DaisyCode/DaisyExamples/libDaisy/src/hid/audio.h ****      * Non-Interleaving audio callbacks in daisy will be of this type
  72:/Users/dominicfrugoli/Desktop/ProgrammingCode/DaisyCode/DaisyExamples/libDaisy/src/hid/audio.h ****      */
  73:/Users/dominicfrugoli/Desktop/ProgrammingCode/DaisyCode/DaisyExamples/libDaisy/src/hid/audio.h ****     typedef void (*AudioCallback)(InputBuffer  in,
  74:/Users/dominicfrugoli/Desktop/ProgrammingCode/DaisyCode/DaisyExamples/libDaisy/src/hid/audio.h ****                                   OutputBuffer out,
  75:/Users/dominicfrugoli/Desktop/ProgrammingCode/DaisyCode/DaisyExamples/libDaisy/src/hid/audio.h ****                                   size_t       size);
  76:/Users/dominicfrugoli/Desktop/ProgrammingCode/DaisyCode/DaisyExamples/libDaisy/src/hid/audio.h **** 
  77:/Users/dominicfrugoli/Desktop/ProgrammingCode/DaisyCode/DaisyExamples/libDaisy/src/hid/audio.h ****     /** Interleaving Input buffer
  78:/Users/dominicfrugoli/Desktop/ProgrammingCode/DaisyCode/DaisyExamples/libDaisy/src/hid/audio.h ****      ** audio is prepared as { L0, R0, L1, R1, . . . LN, RN }]
  79:/Users/dominicfrugoli/Desktop/ProgrammingCode/DaisyCode/DaisyExamples/libDaisy/src/hid/audio.h ****      ** this is const, as the user shouldn't modify it
  80:/Users/dominicfrugoli/Desktop/ProgrammingCode/DaisyCode/DaisyExamples/libDaisy/src/hid/audio.h ****     */
  81:/Users/dominicfrugoli/Desktop/ProgrammingCode/DaisyCode/DaisyExamples/libDaisy/src/hid/audio.h ****     typedef const float* InterleavingInputBuffer;
  82:/Users/dominicfrugoli/Desktop/ProgrammingCode/DaisyCode/DaisyExamples/libDaisy/src/hid/audio.h **** 
  83:/Users/dominicfrugoli/Desktop/ProgrammingCode/DaisyCode/DaisyExamples/libDaisy/src/hid/audio.h ****     /** Interleaving Output buffer 
  84:/Users/dominicfrugoli/Desktop/ProgrammingCode/DaisyCode/DaisyExamples/libDaisy/src/hid/audio.h ****      ** audio is prepared as { L0, R0, L1, R1, . . . LN, RN }
  85:/Users/dominicfrugoli/Desktop/ProgrammingCode/DaisyCode/DaisyExamples/libDaisy/src/hid/audio.h ****     */
  86:/Users/dominicfrugoli/Desktop/ProgrammingCode/DaisyCode/DaisyExamples/libDaisy/src/hid/audio.h ****     typedef float* InterleavingOutputBuffer;
  87:/Users/dominicfrugoli/Desktop/ProgrammingCode/DaisyCode/DaisyExamples/libDaisy/src/hid/audio.h **** 
  88:/Users/dominicfrugoli/Desktop/ProgrammingCode/DaisyCode/DaisyExamples/libDaisy/src/hid/audio.h ****     /** Interleaving Audio Callback 
  89:/Users/dominicfrugoli/Desktop/ProgrammingCode/DaisyCode/DaisyExamples/libDaisy/src/hid/audio.h ****      * Interleaving audio callbacks in daisy must be of this type
  90:/Users/dominicfrugoli/Desktop/ProgrammingCode/DaisyCode/DaisyExamples/libDaisy/src/hid/audio.h ****      */
  91:/Users/dominicfrugoli/Desktop/ProgrammingCode/DaisyCode/DaisyExamples/libDaisy/src/hid/audio.h ****     typedef void (*InterleavingAudioCallback)(InterleavingInputBuffer  in,
  92:/Users/dominicfrugoli/Desktop/ProgrammingCode/DaisyCode/DaisyExamples/libDaisy/src/hid/audio.h ****                                               InterleavingOutputBuffer out,
  93:/Users/dominicfrugoli/Desktop/ProgrammingCode/DaisyCode/DaisyExamples/libDaisy/src/hid/audio.h ****                                               size_t                   size);
  94:/Users/dominicfrugoli/Desktop/ProgrammingCode/DaisyCode/DaisyExamples/libDaisy/src/hid/audio.h **** 
  95:/Users/dominicfrugoli/Desktop/ProgrammingCode/DaisyCode/DaisyExamples/libDaisy/src/hid/audio.h ****     AudioHandle() : pimpl_(nullptr) {}
  96:/Users/dominicfrugoli/Desktop/ProgrammingCode/DaisyCode/DaisyExamples/libDaisy/src/hid/audio.h ****     ~AudioHandle() {}
 110              		.loc 8 96 5 is_stmt 1 view .LVU13
 111              		.loc 8 96 5 is_stmt 0 view .LVU14
 112              	.LBE405:
 113              		.loc 4 22 19 view .LVU15
 114 0000 7047     		bx	lr
 115              		.cfi_endproc
 116              	.LFE2556:
 118              		.weak	_ZN5daisy9DaisySeedD1Ev
 119              		.thumb_set _ZN5daisy9DaisySeedD1Ev,_ZN5daisy9DaisySeedD2Ev
 120 0002 00BF     		.section	.text._ZN7daisysp3SvfD2Ev,"axG",%progbits,_ZN7daisysp3SvfD5Ev,comdat
 121              		.align	1
 122              		.p2align 2,,3
 123              		.weak	_ZN7daisysp3SvfD2Ev
ARM GAS  /var/folders/m5/x8wc2gdj7z5cpgcqdsb_gkj40000gn/T//ccGxviRN.s 			page 11


 124              		.syntax unified
 125              		.thumb
 126              		.thumb_func
 128              	_ZN7daisysp3SvfD2Ev:
 129              	.LVL3:
 130              	.LFB4258:
 131              		.file 9 "/Users/dominicfrugoli/Desktop/ProgrammingCode/DaisyCode/DaisyExamples/DaisySP/Source/Filt
   1:/Users/dominicfrugoli/Desktop/ProgrammingCode/DaisyCode/DaisyExamples/DaisySP/Source/Filters/svf.h **** /*
   2:/Users/dominicfrugoli/Desktop/ProgrammingCode/DaisyCode/DaisyExamples/DaisySP/Source/Filters/svf.h **** Copyright (c) 2020 Electrosmith, Corp
   3:/Users/dominicfrugoli/Desktop/ProgrammingCode/DaisyCode/DaisyExamples/DaisySP/Source/Filters/svf.h **** 
   4:/Users/dominicfrugoli/Desktop/ProgrammingCode/DaisyCode/DaisyExamples/DaisySP/Source/Filters/svf.h **** Use of this source code is governed by an MIT-style
   5:/Users/dominicfrugoli/Desktop/ProgrammingCode/DaisyCode/DaisyExamples/DaisySP/Source/Filters/svf.h **** license that can be found in the LICENSE file or at
   6:/Users/dominicfrugoli/Desktop/ProgrammingCode/DaisyCode/DaisyExamples/DaisySP/Source/Filters/svf.h **** https://opensource.org/licenses/MIT.
   7:/Users/dominicfrugoli/Desktop/ProgrammingCode/DaisyCode/DaisyExamples/DaisySP/Source/Filters/svf.h **** */
   8:/Users/dominicfrugoli/Desktop/ProgrammingCode/DaisyCode/DaisyExamples/DaisySP/Source/Filters/svf.h **** 
   9:/Users/dominicfrugoli/Desktop/ProgrammingCode/DaisyCode/DaisyExamples/DaisySP/Source/Filters/svf.h **** #pragma once
  10:/Users/dominicfrugoli/Desktop/ProgrammingCode/DaisyCode/DaisyExamples/DaisySP/Source/Filters/svf.h **** #ifndef DSY_SVF_H
  11:/Users/dominicfrugoli/Desktop/ProgrammingCode/DaisyCode/DaisyExamples/DaisySP/Source/Filters/svf.h **** #define DSY_SVF_H
  12:/Users/dominicfrugoli/Desktop/ProgrammingCode/DaisyCode/DaisyExamples/DaisySP/Source/Filters/svf.h **** 
  13:/Users/dominicfrugoli/Desktop/ProgrammingCode/DaisyCode/DaisyExamples/DaisySP/Source/Filters/svf.h **** namespace daisysp
  14:/Users/dominicfrugoli/Desktop/ProgrammingCode/DaisyCode/DaisyExamples/DaisySP/Source/Filters/svf.h **** {
  15:/Users/dominicfrugoli/Desktop/ProgrammingCode/DaisyCode/DaisyExamples/DaisySP/Source/Filters/svf.h **** /**      Double Sampled, Stable State Variable Filter
  16:/Users/dominicfrugoli/Desktop/ProgrammingCode/DaisyCode/DaisyExamples/DaisySP/Source/Filters/svf.h **** 
  17:/Users/dominicfrugoli/Desktop/ProgrammingCode/DaisyCode/DaisyExamples/DaisySP/Source/Filters/svf.h **** Credit to Andrew Simper from musicdsp.org
  18:/Users/dominicfrugoli/Desktop/ProgrammingCode/DaisyCode/DaisyExamples/DaisySP/Source/Filters/svf.h **** 
  19:/Users/dominicfrugoli/Desktop/ProgrammingCode/DaisyCode/DaisyExamples/DaisySP/Source/Filters/svf.h **** This is his "State Variable Filter (Double Sampled, Stable)"
  20:/Users/dominicfrugoli/Desktop/ProgrammingCode/DaisyCode/DaisyExamples/DaisySP/Source/Filters/svf.h **** 
  21:/Users/dominicfrugoli/Desktop/ProgrammingCode/DaisyCode/DaisyExamples/DaisySP/Source/Filters/svf.h **** Additional thanks to Laurent de Soras for stability limit, and 
  22:/Users/dominicfrugoli/Desktop/ProgrammingCode/DaisyCode/DaisyExamples/DaisySP/Source/Filters/svf.h **** Stefan Diedrichsen for the correct notch output
  23:/Users/dominicfrugoli/Desktop/ProgrammingCode/DaisyCode/DaisyExamples/DaisySP/Source/Filters/svf.h **** 
  24:/Users/dominicfrugoli/Desktop/ProgrammingCode/DaisyCode/DaisyExamples/DaisySP/Source/Filters/svf.h **** Ported by: Stephen Hensley
  25:/Users/dominicfrugoli/Desktop/ProgrammingCode/DaisyCode/DaisyExamples/DaisySP/Source/Filters/svf.h **** */
  26:/Users/dominicfrugoli/Desktop/ProgrammingCode/DaisyCode/DaisyExamples/DaisySP/Source/Filters/svf.h **** class Svf
  27:/Users/dominicfrugoli/Desktop/ProgrammingCode/DaisyCode/DaisyExamples/DaisySP/Source/Filters/svf.h **** {
  28:/Users/dominicfrugoli/Desktop/ProgrammingCode/DaisyCode/DaisyExamples/DaisySP/Source/Filters/svf.h ****   public:
  29:/Users/dominicfrugoli/Desktop/ProgrammingCode/DaisyCode/DaisyExamples/DaisySP/Source/Filters/svf.h ****     Svf() {}
  30:/Users/dominicfrugoli/Desktop/ProgrammingCode/DaisyCode/DaisyExamples/DaisySP/Source/Filters/svf.h ****     ~Svf() {}
 132              		.loc 9 30 5 is_stmt 1 view -0
 133              		.cfi_startproc
 134              		@ args = 0, pretend = 0, frame = 0
 135              		@ frame_needed = 0, uses_anonymous_args = 0
 136              		@ link register save eliminated.
 137              		.loc 9 30 13 is_stmt 0 view .LVU17
 138 0000 7047     		bx	lr
 139              		.cfi_endproc
 140              	.LFE4258:
 142              		.weak	_ZN7daisysp3SvfD1Ev
 143              		.thumb_set _ZN7daisysp3SvfD1Ev,_ZN7daisysp3SvfD2Ev
 144 0002 00BF     		.section	.text._ZN7daisysp6ChorusD2Ev,"axG",%progbits,_ZN7daisysp6ChorusD5Ev,comdat
 145              		.align	1
 146              		.p2align 2,,3
 147              		.weak	_ZN7daisysp6ChorusD2Ev
 148              		.syntax unified
 149              		.thumb
 150              		.thumb_func
 152              	_ZN7daisysp6ChorusD2Ev:
 153              	.LVL4:
ARM GAS  /var/folders/m5/x8wc2gdj7z5cpgcqdsb_gkj40000gn/T//ccGxviRN.s 			page 12


 154              	.LFB4375:
 155              		.file 10 "/Users/dominicfrugoli/Desktop/ProgrammingCode/DaisyCode/DaisyExamples/DaisySP/Source/Eff
   1:/Users/dominicfrugoli/Desktop/ProgrammingCode/DaisyCode/DaisyExamples/DaisySP/Source/Effects/chorus.h **** /*
   2:/Users/dominicfrugoli/Desktop/ProgrammingCode/DaisyCode/DaisyExamples/DaisySP/Source/Effects/chorus.h **** Copyright (c) 2020 Electrosmith, Corp
   3:/Users/dominicfrugoli/Desktop/ProgrammingCode/DaisyCode/DaisyExamples/DaisySP/Source/Effects/chorus.h **** 
   4:/Users/dominicfrugoli/Desktop/ProgrammingCode/DaisyCode/DaisyExamples/DaisySP/Source/Effects/chorus.h **** Use of this source code is governed by an MIT-style
   5:/Users/dominicfrugoli/Desktop/ProgrammingCode/DaisyCode/DaisyExamples/DaisySP/Source/Effects/chorus.h **** license that can be found in the LICENSE file or at
   6:/Users/dominicfrugoli/Desktop/ProgrammingCode/DaisyCode/DaisyExamples/DaisySP/Source/Effects/chorus.h **** https://opensource.org/licenses/MIT.
   7:/Users/dominicfrugoli/Desktop/ProgrammingCode/DaisyCode/DaisyExamples/DaisySP/Source/Effects/chorus.h **** */
   8:/Users/dominicfrugoli/Desktop/ProgrammingCode/DaisyCode/DaisyExamples/DaisySP/Source/Effects/chorus.h **** 
   9:/Users/dominicfrugoli/Desktop/ProgrammingCode/DaisyCode/DaisyExamples/DaisySP/Source/Effects/chorus.h **** #pragma once
  10:/Users/dominicfrugoli/Desktop/ProgrammingCode/DaisyCode/DaisyExamples/DaisySP/Source/Effects/chorus.h **** #ifndef DSY_CHORUS_H
  11:/Users/dominicfrugoli/Desktop/ProgrammingCode/DaisyCode/DaisyExamples/DaisySP/Source/Effects/chorus.h **** #define DSY_CHORUS_H
  12:/Users/dominicfrugoli/Desktop/ProgrammingCode/DaisyCode/DaisyExamples/DaisySP/Source/Effects/chorus.h **** #ifdef __cplusplus
  13:/Users/dominicfrugoli/Desktop/ProgrammingCode/DaisyCode/DaisyExamples/DaisySP/Source/Effects/chorus.h **** 
  14:/Users/dominicfrugoli/Desktop/ProgrammingCode/DaisyCode/DaisyExamples/DaisySP/Source/Effects/chorus.h **** #include <stdint.h>
  15:/Users/dominicfrugoli/Desktop/ProgrammingCode/DaisyCode/DaisyExamples/DaisySP/Source/Effects/chorus.h **** #include "Utility/delayline.h"
  16:/Users/dominicfrugoli/Desktop/ProgrammingCode/DaisyCode/DaisyExamples/DaisySP/Source/Effects/chorus.h **** 
  17:/Users/dominicfrugoli/Desktop/ProgrammingCode/DaisyCode/DaisyExamples/DaisySP/Source/Effects/chorus.h **** /** @file chorus.h */
  18:/Users/dominicfrugoli/Desktop/ProgrammingCode/DaisyCode/DaisyExamples/DaisySP/Source/Effects/chorus.h **** 
  19:/Users/dominicfrugoli/Desktop/ProgrammingCode/DaisyCode/DaisyExamples/DaisySP/Source/Effects/chorus.h **** namespace daisysp
  20:/Users/dominicfrugoli/Desktop/ProgrammingCode/DaisyCode/DaisyExamples/DaisySP/Source/Effects/chorus.h **** {
  21:/Users/dominicfrugoli/Desktop/ProgrammingCode/DaisyCode/DaisyExamples/DaisySP/Source/Effects/chorus.h **** /**  
  22:/Users/dominicfrugoli/Desktop/ProgrammingCode/DaisyCode/DaisyExamples/DaisySP/Source/Effects/chorus.h ****     @brief Single Chorus engine. Used in Chorus.
  23:/Users/dominicfrugoli/Desktop/ProgrammingCode/DaisyCode/DaisyExamples/DaisySP/Source/Effects/chorus.h ****     @author Ben Sergentanis
  24:/Users/dominicfrugoli/Desktop/ProgrammingCode/DaisyCode/DaisyExamples/DaisySP/Source/Effects/chorus.h **** */
  25:/Users/dominicfrugoli/Desktop/ProgrammingCode/DaisyCode/DaisyExamples/DaisySP/Source/Effects/chorus.h **** class ChorusEngine
  26:/Users/dominicfrugoli/Desktop/ProgrammingCode/DaisyCode/DaisyExamples/DaisySP/Source/Effects/chorus.h **** {
  27:/Users/dominicfrugoli/Desktop/ProgrammingCode/DaisyCode/DaisyExamples/DaisySP/Source/Effects/chorus.h ****   public:
  28:/Users/dominicfrugoli/Desktop/ProgrammingCode/DaisyCode/DaisyExamples/DaisySP/Source/Effects/chorus.h ****     ChorusEngine() {}
  29:/Users/dominicfrugoli/Desktop/ProgrammingCode/DaisyCode/DaisyExamples/DaisySP/Source/Effects/chorus.h ****     ~ChorusEngine() {}
  30:/Users/dominicfrugoli/Desktop/ProgrammingCode/DaisyCode/DaisyExamples/DaisySP/Source/Effects/chorus.h **** 
  31:/Users/dominicfrugoli/Desktop/ProgrammingCode/DaisyCode/DaisyExamples/DaisySP/Source/Effects/chorus.h ****     /** Initialize the module
  32:/Users/dominicfrugoli/Desktop/ProgrammingCode/DaisyCode/DaisyExamples/DaisySP/Source/Effects/chorus.h ****         \param sample_rate Audio engine sample rate.
  33:/Users/dominicfrugoli/Desktop/ProgrammingCode/DaisyCode/DaisyExamples/DaisySP/Source/Effects/chorus.h ****     */
  34:/Users/dominicfrugoli/Desktop/ProgrammingCode/DaisyCode/DaisyExamples/DaisySP/Source/Effects/chorus.h ****     void Init(float sample_rate);
  35:/Users/dominicfrugoli/Desktop/ProgrammingCode/DaisyCode/DaisyExamples/DaisySP/Source/Effects/chorus.h **** 
  36:/Users/dominicfrugoli/Desktop/ProgrammingCode/DaisyCode/DaisyExamples/DaisySP/Source/Effects/chorus.h ****     /** Get the next sample
  37:/Users/dominicfrugoli/Desktop/ProgrammingCode/DaisyCode/DaisyExamples/DaisySP/Source/Effects/chorus.h ****         \param in Sample to process
  38:/Users/dominicfrugoli/Desktop/ProgrammingCode/DaisyCode/DaisyExamples/DaisySP/Source/Effects/chorus.h ****     */
  39:/Users/dominicfrugoli/Desktop/ProgrammingCode/DaisyCode/DaisyExamples/DaisySP/Source/Effects/chorus.h ****     float Process(float in);
  40:/Users/dominicfrugoli/Desktop/ProgrammingCode/DaisyCode/DaisyExamples/DaisySP/Source/Effects/chorus.h **** 
  41:/Users/dominicfrugoli/Desktop/ProgrammingCode/DaisyCode/DaisyExamples/DaisySP/Source/Effects/chorus.h ****     /** How much to modulate the delay by.
  42:/Users/dominicfrugoli/Desktop/ProgrammingCode/DaisyCode/DaisyExamples/DaisySP/Source/Effects/chorus.h ****         \param depth Works 0-1.
  43:/Users/dominicfrugoli/Desktop/ProgrammingCode/DaisyCode/DaisyExamples/DaisySP/Source/Effects/chorus.h ****     */
  44:/Users/dominicfrugoli/Desktop/ProgrammingCode/DaisyCode/DaisyExamples/DaisySP/Source/Effects/chorus.h ****     void SetLfoDepth(float depth);
  45:/Users/dominicfrugoli/Desktop/ProgrammingCode/DaisyCode/DaisyExamples/DaisySP/Source/Effects/chorus.h **** 
  46:/Users/dominicfrugoli/Desktop/ProgrammingCode/DaisyCode/DaisyExamples/DaisySP/Source/Effects/chorus.h ****     /** Set lfo frequency.
  47:/Users/dominicfrugoli/Desktop/ProgrammingCode/DaisyCode/DaisyExamples/DaisySP/Source/Effects/chorus.h ****         \param freq Frequency in Hz
  48:/Users/dominicfrugoli/Desktop/ProgrammingCode/DaisyCode/DaisyExamples/DaisySP/Source/Effects/chorus.h ****     */
  49:/Users/dominicfrugoli/Desktop/ProgrammingCode/DaisyCode/DaisyExamples/DaisySP/Source/Effects/chorus.h ****     void SetLfoFreq(float freq);
  50:/Users/dominicfrugoli/Desktop/ProgrammingCode/DaisyCode/DaisyExamples/DaisySP/Source/Effects/chorus.h **** 
  51:/Users/dominicfrugoli/Desktop/ProgrammingCode/DaisyCode/DaisyExamples/DaisySP/Source/Effects/chorus.h ****     /** Set the internal delay rate. 
  52:/Users/dominicfrugoli/Desktop/ProgrammingCode/DaisyCode/DaisyExamples/DaisySP/Source/Effects/chorus.h ****         \param delay Tuned for 0-1. Maps to .1 to 50 ms.
  53:/Users/dominicfrugoli/Desktop/ProgrammingCode/DaisyCode/DaisyExamples/DaisySP/Source/Effects/chorus.h ****     */
  54:/Users/dominicfrugoli/Desktop/ProgrammingCode/DaisyCode/DaisyExamples/DaisySP/Source/Effects/chorus.h ****     void SetDelay(float delay);
  55:/Users/dominicfrugoli/Desktop/ProgrammingCode/DaisyCode/DaisyExamples/DaisySP/Source/Effects/chorus.h **** 
ARM GAS  /var/folders/m5/x8wc2gdj7z5cpgcqdsb_gkj40000gn/T//ccGxviRN.s 			page 13


  56:/Users/dominicfrugoli/Desktop/ProgrammingCode/DaisyCode/DaisyExamples/DaisySP/Source/Effects/chorus.h ****     /** Set the delay time in ms.
  57:/Users/dominicfrugoli/Desktop/ProgrammingCode/DaisyCode/DaisyExamples/DaisySP/Source/Effects/chorus.h ****         \param ms Delay time in ms, 0 to 50 ms.
  58:/Users/dominicfrugoli/Desktop/ProgrammingCode/DaisyCode/DaisyExamples/DaisySP/Source/Effects/chorus.h ****     */
  59:/Users/dominicfrugoli/Desktop/ProgrammingCode/DaisyCode/DaisyExamples/DaisySP/Source/Effects/chorus.h ****     void SetDelayMs(float ms);
  60:/Users/dominicfrugoli/Desktop/ProgrammingCode/DaisyCode/DaisyExamples/DaisySP/Source/Effects/chorus.h **** 
  61:/Users/dominicfrugoli/Desktop/ProgrammingCode/DaisyCode/DaisyExamples/DaisySP/Source/Effects/chorus.h ****     /** Set the feedback amount.
  62:/Users/dominicfrugoli/Desktop/ProgrammingCode/DaisyCode/DaisyExamples/DaisySP/Source/Effects/chorus.h ****         \param feedback Amount from 0-1.
  63:/Users/dominicfrugoli/Desktop/ProgrammingCode/DaisyCode/DaisyExamples/DaisySP/Source/Effects/chorus.h ****     */
  64:/Users/dominicfrugoli/Desktop/ProgrammingCode/DaisyCode/DaisyExamples/DaisySP/Source/Effects/chorus.h ****     void SetFeedback(float feedback);
  65:/Users/dominicfrugoli/Desktop/ProgrammingCode/DaisyCode/DaisyExamples/DaisySP/Source/Effects/chorus.h **** 
  66:/Users/dominicfrugoli/Desktop/ProgrammingCode/DaisyCode/DaisyExamples/DaisySP/Source/Effects/chorus.h ****   private:
  67:/Users/dominicfrugoli/Desktop/ProgrammingCode/DaisyCode/DaisyExamples/DaisySP/Source/Effects/chorus.h ****     float                    sample_rate_;
  68:/Users/dominicfrugoli/Desktop/ProgrammingCode/DaisyCode/DaisyExamples/DaisySP/Source/Effects/chorus.h ****     static constexpr int32_t kDelayLength
  69:/Users/dominicfrugoli/Desktop/ProgrammingCode/DaisyCode/DaisyExamples/DaisySP/Source/Effects/chorus.h ****         = 2400; // 50 ms at 48kHz = .05 * 48000
  70:/Users/dominicfrugoli/Desktop/ProgrammingCode/DaisyCode/DaisyExamples/DaisySP/Source/Effects/chorus.h **** 
  71:/Users/dominicfrugoli/Desktop/ProgrammingCode/DaisyCode/DaisyExamples/DaisySP/Source/Effects/chorus.h ****     //triangle lfos
  72:/Users/dominicfrugoli/Desktop/ProgrammingCode/DaisyCode/DaisyExamples/DaisySP/Source/Effects/chorus.h ****     float lfo_phase_;
  73:/Users/dominicfrugoli/Desktop/ProgrammingCode/DaisyCode/DaisyExamples/DaisySP/Source/Effects/chorus.h ****     float lfo_freq_;
  74:/Users/dominicfrugoli/Desktop/ProgrammingCode/DaisyCode/DaisyExamples/DaisySP/Source/Effects/chorus.h ****     float lfo_amp_;
  75:/Users/dominicfrugoli/Desktop/ProgrammingCode/DaisyCode/DaisyExamples/DaisySP/Source/Effects/chorus.h **** 
  76:/Users/dominicfrugoli/Desktop/ProgrammingCode/DaisyCode/DaisyExamples/DaisySP/Source/Effects/chorus.h ****     float feedback_;
  77:/Users/dominicfrugoli/Desktop/ProgrammingCode/DaisyCode/DaisyExamples/DaisySP/Source/Effects/chorus.h **** 
  78:/Users/dominicfrugoli/Desktop/ProgrammingCode/DaisyCode/DaisyExamples/DaisySP/Source/Effects/chorus.h ****     float delay_;
  79:/Users/dominicfrugoli/Desktop/ProgrammingCode/DaisyCode/DaisyExamples/DaisySP/Source/Effects/chorus.h **** 
  80:/Users/dominicfrugoli/Desktop/ProgrammingCode/DaisyCode/DaisyExamples/DaisySP/Source/Effects/chorus.h ****     DelayLine<float, kDelayLength> del_;
  81:/Users/dominicfrugoli/Desktop/ProgrammingCode/DaisyCode/DaisyExamples/DaisySP/Source/Effects/chorus.h **** 
  82:/Users/dominicfrugoli/Desktop/ProgrammingCode/DaisyCode/DaisyExamples/DaisySP/Source/Effects/chorus.h ****     float ProcessLfo();
  83:/Users/dominicfrugoli/Desktop/ProgrammingCode/DaisyCode/DaisyExamples/DaisySP/Source/Effects/chorus.h **** };
  84:/Users/dominicfrugoli/Desktop/ProgrammingCode/DaisyCode/DaisyExamples/DaisySP/Source/Effects/chorus.h **** 
  85:/Users/dominicfrugoli/Desktop/ProgrammingCode/DaisyCode/DaisyExamples/DaisySP/Source/Effects/chorus.h **** //wraps up all of the chorus engines
  86:/Users/dominicfrugoli/Desktop/ProgrammingCode/DaisyCode/DaisyExamples/DaisySP/Source/Effects/chorus.h **** /**  
  87:/Users/dominicfrugoli/Desktop/ProgrammingCode/DaisyCode/DaisyExamples/DaisySP/Source/Effects/chorus.h ****     @brief Chorus Effect.
  88:/Users/dominicfrugoli/Desktop/ProgrammingCode/DaisyCode/DaisyExamples/DaisySP/Source/Effects/chorus.h ****     @author Ben Sergentanis
  89:/Users/dominicfrugoli/Desktop/ProgrammingCode/DaisyCode/DaisyExamples/DaisySP/Source/Effects/chorus.h ****     @date Jan 2021
  90:/Users/dominicfrugoli/Desktop/ProgrammingCode/DaisyCode/DaisyExamples/DaisySP/Source/Effects/chorus.h ****     Based on https://www.izotope.com/en/learn/understanding-chorus-flangers-and-phasers-in-audio-pr
  91:/Users/dominicfrugoli/Desktop/ProgrammingCode/DaisyCode/DaisyExamples/DaisySP/Source/Effects/chorus.h ****     and https://www.researchgate.net/publication/236629475_Implementing_Professional_Audio_Effects_
  92:/Users/dominicfrugoli/Desktop/ProgrammingCode/DaisyCode/DaisyExamples/DaisySP/Source/Effects/chorus.h **** */
  93:/Users/dominicfrugoli/Desktop/ProgrammingCode/DaisyCode/DaisyExamples/DaisySP/Source/Effects/chorus.h **** class Chorus
  94:/Users/dominicfrugoli/Desktop/ProgrammingCode/DaisyCode/DaisyExamples/DaisySP/Source/Effects/chorus.h **** {
  95:/Users/dominicfrugoli/Desktop/ProgrammingCode/DaisyCode/DaisyExamples/DaisySP/Source/Effects/chorus.h ****   public:
  96:/Users/dominicfrugoli/Desktop/ProgrammingCode/DaisyCode/DaisyExamples/DaisySP/Source/Effects/chorus.h ****     Chorus() {}
  97:/Users/dominicfrugoli/Desktop/ProgrammingCode/DaisyCode/DaisyExamples/DaisySP/Source/Effects/chorus.h ****     ~Chorus() {}
 156              		.loc 10 97 5 is_stmt 1 view -0
 157              		.cfi_startproc
 158              		@ args = 0, pretend = 0, frame = 0
 159              		@ frame_needed = 0, uses_anonymous_args = 0
 160              		@ link register save eliminated.
 161              		.loc 10 97 16 is_stmt 0 view .LVU19
 162 0000 7047     		bx	lr
 163              		.cfi_endproc
 164              	.LFE4375:
 166              		.weak	_ZN7daisysp6ChorusD1Ev
 167              		.thumb_set _ZN7daisysp6ChorusD1Ev,_ZN7daisysp6ChorusD2Ev
 168 0002 00BF     		.section	.text._ZN7daisysp9OverdriveD2Ev,"axG",%progbits,_ZN7daisysp9OverdriveD5Ev,comdat
 169              		.align	1
 170              		.p2align 2,,3
 171              		.weak	_ZN7daisysp9OverdriveD2Ev
ARM GAS  /var/folders/m5/x8wc2gdj7z5cpgcqdsb_gkj40000gn/T//ccGxviRN.s 			page 14


 172              		.syntax unified
 173              		.thumb
 174              		.thumb_func
 176              	_ZN7daisysp9OverdriveD2Ev:
 177              	.LVL5:
 178              	.LFB4395:
 179              		.file 11 "/Users/dominicfrugoli/Desktop/ProgrammingCode/DaisyCode/DaisyExamples/DaisySP/Source/Eff
   1:/Users/dominicfrugoli/Desktop/ProgrammingCode/DaisyCode/DaisyExamples/DaisySP/Source/Effects/overdrive.h **** /*
   2:/Users/dominicfrugoli/Desktop/ProgrammingCode/DaisyCode/DaisyExamples/DaisySP/Source/Effects/overdrive.h **** Copyright (c) 2020 Electrosmith, Corp, Emilie Gillet
   3:/Users/dominicfrugoli/Desktop/ProgrammingCode/DaisyCode/DaisyExamples/DaisySP/Source/Effects/overdrive.h **** 
   4:/Users/dominicfrugoli/Desktop/ProgrammingCode/DaisyCode/DaisyExamples/DaisySP/Source/Effects/overdrive.h **** Use of this source code is governed by an MIT-style
   5:/Users/dominicfrugoli/Desktop/ProgrammingCode/DaisyCode/DaisyExamples/DaisySP/Source/Effects/overdrive.h **** license that can be found in the LICENSE file or at
   6:/Users/dominicfrugoli/Desktop/ProgrammingCode/DaisyCode/DaisyExamples/DaisySP/Source/Effects/overdrive.h **** https://opensource.org/licenses/MIT.
   7:/Users/dominicfrugoli/Desktop/ProgrammingCode/DaisyCode/DaisyExamples/DaisySP/Source/Effects/overdrive.h **** */
   8:/Users/dominicfrugoli/Desktop/ProgrammingCode/DaisyCode/DaisyExamples/DaisySP/Source/Effects/overdrive.h **** 
   9:/Users/dominicfrugoli/Desktop/ProgrammingCode/DaisyCode/DaisyExamples/DaisySP/Source/Effects/overdrive.h **** #pragma once
  10:/Users/dominicfrugoli/Desktop/ProgrammingCode/DaisyCode/DaisyExamples/DaisySP/Source/Effects/overdrive.h **** #ifndef DSY_OVERDRIVE_H
  11:/Users/dominicfrugoli/Desktop/ProgrammingCode/DaisyCode/DaisyExamples/DaisySP/Source/Effects/overdrive.h **** #define DSY_OVERDRIVE_H
  12:/Users/dominicfrugoli/Desktop/ProgrammingCode/DaisyCode/DaisyExamples/DaisySP/Source/Effects/overdrive.h **** 
  13:/Users/dominicfrugoli/Desktop/ProgrammingCode/DaisyCode/DaisyExamples/DaisySP/Source/Effects/overdrive.h **** #include <stdint.h>
  14:/Users/dominicfrugoli/Desktop/ProgrammingCode/DaisyCode/DaisyExamples/DaisySP/Source/Effects/overdrive.h **** #ifdef __cplusplus
  15:/Users/dominicfrugoli/Desktop/ProgrammingCode/DaisyCode/DaisyExamples/DaisySP/Source/Effects/overdrive.h **** 
  16:/Users/dominicfrugoli/Desktop/ProgrammingCode/DaisyCode/DaisyExamples/DaisySP/Source/Effects/overdrive.h **** /** @file overdrive.h */
  17:/Users/dominicfrugoli/Desktop/ProgrammingCode/DaisyCode/DaisyExamples/DaisySP/Source/Effects/overdrive.h **** 
  18:/Users/dominicfrugoli/Desktop/ProgrammingCode/DaisyCode/DaisyExamples/DaisySP/Source/Effects/overdrive.h **** namespace daisysp
  19:/Users/dominicfrugoli/Desktop/ProgrammingCode/DaisyCode/DaisyExamples/DaisySP/Source/Effects/overdrive.h **** {
  20:/Users/dominicfrugoli/Desktop/ProgrammingCode/DaisyCode/DaisyExamples/DaisySP/Source/Effects/overdrive.h **** /**  
  21:/Users/dominicfrugoli/Desktop/ProgrammingCode/DaisyCode/DaisyExamples/DaisySP/Source/Effects/overdrive.h ****        @brief Distortion / Overdrive Module
  22:/Users/dominicfrugoli/Desktop/ProgrammingCode/DaisyCode/DaisyExamples/DaisySP/Source/Effects/overdrive.h ****        @author Ported by Ben Sergentanis 
  23:/Users/dominicfrugoli/Desktop/ProgrammingCode/DaisyCode/DaisyExamples/DaisySP/Source/Effects/overdrive.h ****        @date Jan 2021 
  24:/Users/dominicfrugoli/Desktop/ProgrammingCode/DaisyCode/DaisyExamples/DaisySP/Source/Effects/overdrive.h ****        Ported from pichenettes/eurorack/plaits/dsp/fx/overdrive.h \n
  25:/Users/dominicfrugoli/Desktop/ProgrammingCode/DaisyCode/DaisyExamples/DaisySP/Source/Effects/overdrive.h ****        to an independent module. \n
  26:/Users/dominicfrugoli/Desktop/ProgrammingCode/DaisyCode/DaisyExamples/DaisySP/Source/Effects/overdrive.h ****        Original code written by Emilie Gillet in 2014. \n
  27:/Users/dominicfrugoli/Desktop/ProgrammingCode/DaisyCode/DaisyExamples/DaisySP/Source/Effects/overdrive.h **** */
  28:/Users/dominicfrugoli/Desktop/ProgrammingCode/DaisyCode/DaisyExamples/DaisySP/Source/Effects/overdrive.h **** class Overdrive
  29:/Users/dominicfrugoli/Desktop/ProgrammingCode/DaisyCode/DaisyExamples/DaisySP/Source/Effects/overdrive.h **** {
  30:/Users/dominicfrugoli/Desktop/ProgrammingCode/DaisyCode/DaisyExamples/DaisySP/Source/Effects/overdrive.h ****   public:
  31:/Users/dominicfrugoli/Desktop/ProgrammingCode/DaisyCode/DaisyExamples/DaisySP/Source/Effects/overdrive.h ****     Overdrive() {}
  32:/Users/dominicfrugoli/Desktop/ProgrammingCode/DaisyCode/DaisyExamples/DaisySP/Source/Effects/overdrive.h ****     ~Overdrive() {}
 180              		.loc 11 32 5 is_stmt 1 view -0
 181              		.cfi_startproc
 182              		@ args = 0, pretend = 0, frame = 0
 183              		@ frame_needed = 0, uses_anonymous_args = 0
 184              		@ link register save eliminated.
 185              		.loc 11 32 19 is_stmt 0 view .LVU21
 186 0000 7047     		bx	lr
 187              		.cfi_endproc
 188              	.LFE4395:
 190              		.weak	_ZN7daisysp9OverdriveD1Ev
 191              		.thumb_set _ZN7daisysp9OverdriveD1Ev,_ZN7daisysp9OverdriveD2Ev
 192 0002 00BF     		.section	.text._ZN7daisysp7OnePoleD2Ev,"axG",%progbits,_ZN7daisysp7OnePoleD5Ev,comdat
 193              		.align	1
 194              		.p2align 2,,3
 195              		.weak	_ZN7daisysp7OnePoleD2Ev
 196              		.syntax unified
 197              		.thumb
 198              		.thumb_func
ARM GAS  /var/folders/m5/x8wc2gdj7z5cpgcqdsb_gkj40000gn/T//ccGxviRN.s 			page 15


 200              	_ZN7daisysp7OnePoleD2Ev:
 201              	.LVL6:
 202              	.LFB4453:
 203              		.file 12 "/Users/dominicfrugoli/Desktop/ProgrammingCode/DaisyCode/DaisyExamples/DaisySP/Source/Fil
   1:/Users/dominicfrugoli/Desktop/ProgrammingCode/DaisyCode/DaisyExamples/DaisySP/Source/Filters/onepole.h **** /*
   2:/Users/dominicfrugoli/Desktop/ProgrammingCode/DaisyCode/DaisyExamples/DaisySP/Source/Filters/onepole.h **** Copyright (c) 2020 Electrosmith, Corp, Emilie Gillet
   3:/Users/dominicfrugoli/Desktop/ProgrammingCode/DaisyCode/DaisyExamples/DaisySP/Source/Filters/onepole.h **** 
   4:/Users/dominicfrugoli/Desktop/ProgrammingCode/DaisyCode/DaisyExamples/DaisySP/Source/Filters/onepole.h **** Use of this source code is governed by an MIT-style
   5:/Users/dominicfrugoli/Desktop/ProgrammingCode/DaisyCode/DaisyExamples/DaisySP/Source/Filters/onepole.h **** license that can be found in the LICENSE file or at
   6:/Users/dominicfrugoli/Desktop/ProgrammingCode/DaisyCode/DaisyExamples/DaisySP/Source/Filters/onepole.h **** https://opensource.org/licenses/MIT.
   7:/Users/dominicfrugoli/Desktop/ProgrammingCode/DaisyCode/DaisyExamples/DaisySP/Source/Filters/onepole.h **** */
   8:/Users/dominicfrugoli/Desktop/ProgrammingCode/DaisyCode/DaisyExamples/DaisySP/Source/Filters/onepole.h **** 
   9:/Users/dominicfrugoli/Desktop/ProgrammingCode/DaisyCode/DaisyExamples/DaisySP/Source/Filters/onepole.h **** #ifndef DSY_ONEPOLE_H
  10:/Users/dominicfrugoli/Desktop/ProgrammingCode/DaisyCode/DaisyExamples/DaisySP/Source/Filters/onepole.h **** #define DSY_ONEPOLE_H
  11:/Users/dominicfrugoli/Desktop/ProgrammingCode/DaisyCode/DaisyExamples/DaisySP/Source/Filters/onepole.h **** 
  12:/Users/dominicfrugoli/Desktop/ProgrammingCode/DaisyCode/DaisyExamples/DaisySP/Source/Filters/onepole.h **** #include "Utility/dsp.h"
  13:/Users/dominicfrugoli/Desktop/ProgrammingCode/DaisyCode/DaisyExamples/DaisySP/Source/Filters/onepole.h **** #include <cmath>
  14:/Users/dominicfrugoli/Desktop/ProgrammingCode/DaisyCode/DaisyExamples/DaisySP/Source/Filters/onepole.h **** #include <algorithm>
  15:/Users/dominicfrugoli/Desktop/ProgrammingCode/DaisyCode/DaisyExamples/DaisySP/Source/Filters/onepole.h **** 
  16:/Users/dominicfrugoli/Desktop/ProgrammingCode/DaisyCode/DaisyExamples/DaisySP/Source/Filters/onepole.h **** namespace daisysp
  17:/Users/dominicfrugoli/Desktop/ProgrammingCode/DaisyCode/DaisyExamples/DaisySP/Source/Filters/onepole.h **** {
  18:/Users/dominicfrugoli/Desktop/ProgrammingCode/DaisyCode/DaisyExamples/DaisySP/Source/Filters/onepole.h **** /**         
  19:/Users/dominicfrugoli/Desktop/ProgrammingCode/DaisyCode/DaisyExamples/DaisySP/Source/Filters/onepole.h ****     @brief One Pole Lowpass / Highpass Filter
  20:/Users/dominicfrugoli/Desktop/ProgrammingCode/DaisyCode/DaisyExamples/DaisySP/Source/Filters/onepole.h ****     @author beserge
  21:/Users/dominicfrugoli/Desktop/ProgrammingCode/DaisyCode/DaisyExamples/DaisySP/Source/Filters/onepole.h ****     @date Dec 2023 
  22:/Users/dominicfrugoli/Desktop/ProgrammingCode/DaisyCode/DaisyExamples/DaisySP/Source/Filters/onepole.h ****     Ported from pichenettes/stmlib/dsp/filter.h \n 
  23:/Users/dominicfrugoli/Desktop/ProgrammingCode/DaisyCode/DaisyExamples/DaisySP/Source/Filters/onepole.h ****     \n to an independent module. \n
  24:/Users/dominicfrugoli/Desktop/ProgrammingCode/DaisyCode/DaisyExamples/DaisySP/Source/Filters/onepole.h ****     Original code written by Emilie Gillet. \n
  25:/Users/dominicfrugoli/Desktop/ProgrammingCode/DaisyCode/DaisyExamples/DaisySP/Source/Filters/onepole.h **** */
  26:/Users/dominicfrugoli/Desktop/ProgrammingCode/DaisyCode/DaisyExamples/DaisySP/Source/Filters/onepole.h **** class OnePole
  27:/Users/dominicfrugoli/Desktop/ProgrammingCode/DaisyCode/DaisyExamples/DaisySP/Source/Filters/onepole.h **** {
  28:/Users/dominicfrugoli/Desktop/ProgrammingCode/DaisyCode/DaisyExamples/DaisySP/Source/Filters/onepole.h ****   public:
  29:/Users/dominicfrugoli/Desktop/ProgrammingCode/DaisyCode/DaisyExamples/DaisySP/Source/Filters/onepole.h ****     OnePole() {}
  30:/Users/dominicfrugoli/Desktop/ProgrammingCode/DaisyCode/DaisyExamples/DaisySP/Source/Filters/onepole.h ****     ~OnePole() {}
 204              		.loc 12 30 5 is_stmt 1 view -0
 205              		.cfi_startproc
 206              		@ args = 0, pretend = 0, frame = 0
 207              		@ frame_needed = 0, uses_anonymous_args = 0
 208              		@ link register save eliminated.
 209              		.loc 12 30 17 is_stmt 0 view .LVU23
 210 0000 7047     		bx	lr
 211              		.cfi_endproc
 212              	.LFE4453:
 214              		.weak	_ZN7daisysp7OnePoleD1Ev
 215              		.thumb_set _ZN7daisysp7OnePoleD1Ev,_ZN7daisysp7OnePoleD2Ev
 216 0002 00BF     		.section	.text._Z16AdvanceReadIndexv.part.0,"ax",%progbits
 217              		.align	1
 218              		.p2align 2,,3
 219              		.syntax unified
 220              		.thumb
 221              		.thumb_func
 223              	_Z16AdvanceReadIndexv.part.0:
 224              	.LFB5284:
 225              		.file 13 "sampleengine.h"
   1:sampleengine.h **** // ================================
   2:sampleengine.h **** // COMPANY: Feni Design
   3:sampleengine.h **** // AUTHOR: Dominic Frugoli
ARM GAS  /var/folders/m5/x8wc2gdj7z5cpgcqdsb_gkj40000gn/T//ccGxviRN.s 			page 16


   4:sampleengine.h **** // CREATE DATE: 9/15/2024
   5:sampleengine.h **** // PROJECT: Fall 2024 Independent Project
   6:sampleengine.h **** // HEADER FILE FOR USE WITH: "sardinia.cpp"
   7:sampleengine.h **** // SPECIAL NOTES: Code is meant for Electrosmith Daisy microcontroller
   8:sampleengine.h **** // ================================
   9:sampleengine.h **** 
  10:sampleengine.h **** 
  11:sampleengine.h **** using namespace daisy;
  12:sampleengine.h **** using namespace daisy::seed;
  13:sampleengine.h **** using namespace daisysp;
  14:sampleengine.h **** 
  15:sampleengine.h **** 
  16:sampleengine.h **** // |Audio Objects|---------------------------------------------------------------------------------
  17:sampleengine.h **** 
  18:sampleengine.h **** #define MAX_RECORD_SIZE (48000 * 120) // 60 seconds of floats at 48 khz
  19:sampleengine.h **** #define MAX_SPLICE_SIZE (48000 * 20) // 5 seconds of floats at 48 khz
  20:sampleengine.h **** float DSY_SDRAM_BSS recordingBuffer[MAX_RECORD_SIZE];
  21:sampleengine.h **** float DSY_SDRAM_BSS spliceBufferOne[MAX_SPLICE_SIZE];
  22:sampleengine.h **** float DSY_SDRAM_BSS spliceBufferTwo[MAX_SPLICE_SIZE];
  23:sampleengine.h **** float DSY_SDRAM_BSS spliceBufferThree[MAX_SPLICE_SIZE];
  24:sampleengine.h **** float DSY_SDRAM_BSS spliceBufferFour[MAX_SPLICE_SIZE];
  25:sampleengine.h **** 
  26:sampleengine.h **** float readIndex = 0; // index for reading buffer
  27:sampleengine.h **** uint32_t readIndexInt;
  28:sampleengine.h **** float readIndexFraction;
  29:sampleengine.h **** float readFactor = 1; // playback speed
  30:sampleengine.h **** float readPitch;
  31:sampleengine.h **** uint32_t writeIndex = 0; // index for writing into buffer
  32:sampleengine.h **** uint32_t recordingLength = MAX_RECORD_SIZE; // tracks size of sample recording
  33:sampleengine.h **** uint32_t lengthTrack = 0; // for tracking recording size while recording
  34:sampleengine.h **** 
  35:sampleengine.h **** float fullSampleReadIndex = 0.0f;
  36:sampleengine.h **** uint32_t fullSampleReadIndexInt;
  37:sampleengine.h **** float fullSampleReadIndexFraction;
  38:sampleengine.h **** 
  39:sampleengine.h **** uint32_t keyStartIndex[numKeyPads];
  40:sampleengine.h **** uint32_t keyStopIndex[numKeyPads];
  41:sampleengine.h **** bool keyStates[numKeyPads];
  42:sampleengine.h **** uint32_t startPoint = 0;
  43:sampleengine.h **** uint32_t stopPoint = MAX_RECORD_SIZE;
  44:sampleengine.h **** int currentKey = 0;
  45:sampleengine.h **** int noteKey = 0;
  46:sampleengine.h **** 
  47:sampleengine.h **** bool isRecording = false;
  48:sampleengine.h **** bool isPlaying = false;
  49:sampleengine.h **** 
  50:sampleengine.h **** float baseFreq = 440.0f;
  51:sampleengine.h **** int currentSpliceBuffer = 1; // Which splice buffer we are currently playing
  52:sampleengine.h **** 
  53:sampleengine.h **** bool SpliceBufferIsPlaying = false;
  54:sampleengine.h **** float spliceBufferReadIndex = 0.0f;
  55:sampleengine.h **** uint32_t spliceBufferReadIndexInt;
  56:sampleengine.h **** float spliceBufferReadIndexFraction;
  57:sampleengine.h **** uint32_t spliceBufferOneLength = MAX_SPLICE_SIZE;
  58:sampleengine.h **** uint32_t spliceBufferTwoLength = MAX_SPLICE_SIZE;
  59:sampleengine.h **** uint32_t spliceBufferThreeLength = MAX_SPLICE_SIZE;
  60:sampleengine.h **** uint32_t spliceBufferFourLength = MAX_SPLICE_SIZE;
ARM GAS  /var/folders/m5/x8wc2gdj7z5cpgcqdsb_gkj40000gn/T//ccGxviRN.s 			page 17


  61:sampleengine.h **** 
  62:sampleengine.h **** 
  63:sampleengine.h **** // |Init Functions|--------------------------------------------------------------------------------
  64:sampleengine.h **** 
  65:sampleengine.h **** void InitBuffer();
  66:sampleengine.h **** int FindNextPressedKey(int key);
  67:sampleengine.h **** void RecordSample(float sample);
  68:sampleengine.h **** void ResetReadIndex();
  69:sampleengine.h **** void AdvanceReadIndex();
  70:sampleengine.h **** float GetSample();
  71:sampleengine.h **** float FullSampleGetSample();
  72:sampleengine.h **** void StoreSpliceBuffer(int bufferNum);
  73:sampleengine.h **** bool AnyKeyIsPressed();
  74:sampleengine.h **** void SetKeyIndexs();
  75:sampleengine.h **** uint32_t GetStartPoint();
  76:sampleengine.h **** uint32_t GetStopPoint();
  77:sampleengine.h **** 
  78:sampleengine.h **** void InitBuffer()
  79:sampleengine.h **** {
  80:sampleengine.h ****     readIndex = 0.0f;
  81:sampleengine.h ****     for(uint32_t i = 0; i < MAX_RECORD_SIZE; i++) // initializes buffer to all 0s
  82:sampleengine.h ****     {
  83:sampleengine.h ****         recordingBuffer[i] = 0.0f;
  84:sampleengine.h ****     }
  85:sampleengine.h ****     for (uint32_t i = 0; i < MAX_SPLICE_SIZE; i++)
  86:sampleengine.h ****     {
  87:sampleengine.h ****         spliceBufferOne[i] = 0.0f;
  88:sampleengine.h ****         spliceBufferTwo[i] = 0.0f;
  89:sampleengine.h ****         spliceBufferThree[i] = 0.0f;
  90:sampleengine.h ****         spliceBufferFour[i] = 0.0f;
  91:sampleengine.h ****     }
  92:sampleengine.h **** }
  93:sampleengine.h **** 
  94:sampleengine.h **** void RecordSample(float sample) // Records sample from argument and moves forward write index
  95:sampleengine.h **** {
  96:sampleengine.h ****     recordingBuffer[writeIndex] = sample;
  97:sampleengine.h ****     writeIndex++;
  98:sampleengine.h **** }
  99:sampleengine.h **** 
 100:sampleengine.h **** void ResetReadIndex()
 101:sampleengine.h **** {
 102:sampleengine.h ****     readIndex = startPoint;
 103:sampleengine.h **** }
 104:sampleengine.h **** 
 105:sampleengine.h **** void AdvanceReadIndex()
 226              		.loc 13 105 6 is_stmt 1 view -0
 227              		.cfi_startproc
 228              		@ args = 0, pretend = 0, frame = 0
 229              		@ frame_needed = 0, uses_anonymous_args = 0
 230              		@ link register save eliminated.
 106:sampleengine.h **** {
 107:sampleengine.h ****     readIndex += readFactor;
 108:sampleengine.h **** 
 109:sampleengine.h ****     if(readIndex >= stopPoint)
 110:sampleengine.h ****     {
 111:sampleengine.h ****         currentKey = FindNextPressedKey(currentKey);
 231              		.loc 13 111 9 view .LVU25
ARM GAS  /var/folders/m5/x8wc2gdj7z5cpgcqdsb_gkj40000gn/T//ccGxviRN.s 			page 18


 105:sampleengine.h **** {
 232              		.loc 13 105 6 is_stmt 0 view .LVU26
 233 0000 30B4     		push	{r4, r5}
 234              		.cfi_def_cfa_offset 8
 235              		.cfi_offset 4, -8
 236              		.cfi_offset 5, -4
 237              		.loc 13 111 40 view .LVU27
 238 0002 114C     		ldr	r4, .L16
 239 0004 2022     		movs	r2, #32
 240 0006 1148     		ldr	r0, .L16+4
 241 0008 2368     		ldr	r3, [r4]
 242              	.LVL7:
 243              	.LBB411:
 244              	.LBI411:
 112:sampleengine.h ****         startPoint = keyStartIndex[currentKey];
 113:sampleengine.h ****         stopPoint = keyStopIndex[currentKey];
 114:sampleengine.h ****         ResetReadIndex();
 115:sampleengine.h ****     }
 116:sampleengine.h **** }
 117:sampleengine.h **** 
 118:sampleengine.h **** float GetSample()
 119:sampleengine.h **** {
 120:sampleengine.h ****     float a, b, out;
 121:sampleengine.h **** 
 122:sampleengine.h ****     readIndexInt = static_cast<int32_t>(readIndex);
 123:sampleengine.h **** 	readIndexFraction = readIndex - readIndexInt;
 124:sampleengine.h **** 
 125:sampleengine.h **** 	a = recordingBuffer[readIndexInt]; // current sample
 126:sampleengine.h **** 	b = recordingBuffer[readIndexInt + 1]; // next sample
 127:sampleengine.h **** 	out = a + (b - a) * readIndexFraction; // Linear Interpolation
 128:sampleengine.h **** 
 129:sampleengine.h ****     return out;
 130:sampleengine.h **** }
 131:sampleengine.h **** 
 132:sampleengine.h **** float FullSampleGetSample()
 133:sampleengine.h **** {
 134:sampleengine.h ****     fullSampleReadIndex += readFactor;
 135:sampleengine.h ****     if(fullSampleReadIndex > recordingLength) 
 136:sampleengine.h ****     {
 137:sampleengine.h ****         fullSampleReadIndex = 0;
 138:sampleengine.h ****     }
 139:sampleengine.h **** 
 140:sampleengine.h ****     float a, b, out;
 141:sampleengine.h ****     fullSampleReadIndexInt = static_cast<int32_t>(fullSampleReadIndex);
 142:sampleengine.h ****     fullSampleReadIndexFraction = fullSampleReadIndex - fullSampleReadIndexInt;
 143:sampleengine.h ****     a = recordingBuffer[fullSampleReadIndexInt]; // current sample
 144:sampleengine.h ****     b = recordingBuffer[fullSampleReadIndexInt + 1]; // next sample
 145:sampleengine.h ****     out = a + (b - a) * fullSampleReadIndexFraction; // Linear Interpolation
 146:sampleengine.h **** 
 147:sampleengine.h ****     return out;
 148:sampleengine.h **** }
 149:sampleengine.h **** 
 150:sampleengine.h **** float SpliceBufferGetSample(int currentBuffer, int mode, int keynum)
 151:sampleengine.h **** {
 152:sampleengine.h ****     float a, b, out = 0;
 153:sampleengine.h ****     if(currentBuffer == 1)
 154:sampleengine.h ****     {
ARM GAS  /var/folders/m5/x8wc2gdj7z5cpgcqdsb_gkj40000gn/T//ccGxviRN.s 			page 19


 155:sampleengine.h ****         if(mode == 0)
 156:sampleengine.h ****         {
 157:sampleengine.h ****             spliceBufferReadIndex += readFactor;
 158:sampleengine.h ****         }
 159:sampleengine.h ****         else if(mode == 1)
 160:sampleengine.h ****         {
 161:sampleengine.h ****             float playFreq = baseFreq * powf(2.0f, static_cast<float>((keynum-12) / 12.0f));
 162:sampleengine.h ****             float readFactorPitch = playFreq / baseFreq;
 163:sampleengine.h ****             spliceBufferReadIndex += readFactorPitch;
 164:sampleengine.h ****         }
 165:sampleengine.h **** 
 166:sampleengine.h ****         if(spliceBufferReadIndex > spliceBufferOneLength) 
 167:sampleengine.h ****         {
 168:sampleengine.h ****             spliceBufferReadIndex = 0;
 169:sampleengine.h ****         }
 170:sampleengine.h **** 
 171:sampleengine.h ****         spliceBufferReadIndexInt = static_cast<int32_t>(spliceBufferReadIndex);
 172:sampleengine.h ****         spliceBufferReadIndexFraction = spliceBufferReadIndex - spliceBufferReadIndexInt;
 173:sampleengine.h ****         a = spliceBufferOne[spliceBufferReadIndexInt]; // current sample
 174:sampleengine.h ****         b = spliceBufferOne[spliceBufferReadIndexInt + 1]; // next sample
 175:sampleengine.h ****         out = a + (b - a) * spliceBufferReadIndexFraction; // Linear Interpolation
 176:sampleengine.h ****     }
 177:sampleengine.h ****     else if(currentBuffer == 2)
 178:sampleengine.h ****     {
 179:sampleengine.h ****         if(mode == 0)
 180:sampleengine.h ****         {
 181:sampleengine.h ****             spliceBufferReadIndex += readFactor;
 182:sampleengine.h ****         }
 183:sampleengine.h ****         else if(mode == 1)
 184:sampleengine.h ****         {
 185:sampleengine.h ****             float playFreq = baseFreq * powf(2.0f, static_cast<float>(keynum / 12.0f));
 186:sampleengine.h ****             float readFactorPitch = playFreq / baseFreq;
 187:sampleengine.h ****             spliceBufferReadIndex += readFactorPitch;
 188:sampleengine.h ****         }
 189:sampleengine.h **** 
 190:sampleengine.h ****         if(spliceBufferReadIndex > spliceBufferTwoLength) 
 191:sampleengine.h ****         {
 192:sampleengine.h ****             spliceBufferReadIndex = 0;
 193:sampleengine.h ****         }
 194:sampleengine.h **** 
 195:sampleengine.h ****         spliceBufferReadIndexInt = static_cast<int32_t>(spliceBufferReadIndex);
 196:sampleengine.h ****         spliceBufferReadIndexFraction = spliceBufferReadIndex - spliceBufferReadIndexInt;
 197:sampleengine.h ****         a = spliceBufferTwo[spliceBufferReadIndexInt]; // current sample
 198:sampleengine.h ****         b = spliceBufferTwo[spliceBufferReadIndexInt + 1]; // next sample
 199:sampleengine.h ****         out = a + (b - a) * spliceBufferReadIndexFraction; // Linear Interpolation
 200:sampleengine.h ****     }
 201:sampleengine.h ****     else if(currentBuffer == 3)
 202:sampleengine.h ****     {
 203:sampleengine.h ****         if(mode == 0)
 204:sampleengine.h ****         {
 205:sampleengine.h ****             spliceBufferReadIndex += readFactor;
 206:sampleengine.h ****         }
 207:sampleengine.h ****         else if(mode == 1)
 208:sampleengine.h ****         {
 209:sampleengine.h ****             float playFreq = baseFreq * powf(2.0f, static_cast<float>(keynum / 12.0f));
 210:sampleengine.h ****             float readFactorPitch = playFreq / baseFreq;
 211:sampleengine.h ****             spliceBufferReadIndex += readFactorPitch;
ARM GAS  /var/folders/m5/x8wc2gdj7z5cpgcqdsb_gkj40000gn/T//ccGxviRN.s 			page 20


 212:sampleengine.h ****         }
 213:sampleengine.h **** 
 214:sampleengine.h ****         if(spliceBufferReadIndex > spliceBufferThreeLength) 
 215:sampleengine.h ****         {
 216:sampleengine.h ****             spliceBufferReadIndex = 0;
 217:sampleengine.h ****         }
 218:sampleengine.h **** 
 219:sampleengine.h ****         spliceBufferReadIndexInt = static_cast<int32_t>(spliceBufferReadIndex);
 220:sampleengine.h ****         spliceBufferReadIndexFraction = spliceBufferReadIndex - spliceBufferReadIndexInt;
 221:sampleengine.h ****         a = spliceBufferThree[spliceBufferReadIndexInt]; // current sample
 222:sampleengine.h ****         b = spliceBufferThree[spliceBufferReadIndexInt + 1]; // next sample
 223:sampleengine.h ****         out = a + (b - a) * spliceBufferReadIndexFraction; // Linear Interpolation
 224:sampleengine.h ****     }
 225:sampleengine.h ****     else if(currentBuffer == 4)
 226:sampleengine.h ****     {
 227:sampleengine.h ****         if(mode == 0)
 228:sampleengine.h ****         {
 229:sampleengine.h ****             spliceBufferReadIndex += readFactor;
 230:sampleengine.h ****         }
 231:sampleengine.h ****         else if(mode == 1)
 232:sampleengine.h ****         {
 233:sampleengine.h ****             float playFreq = baseFreq * powf(2.0f, static_cast<float>(keynum / 12.0f));
 234:sampleengine.h ****             float readFactorPitch = playFreq / baseFreq;
 235:sampleengine.h ****             spliceBufferReadIndex += readFactorPitch;
 236:sampleengine.h ****         }
 237:sampleengine.h **** 
 238:sampleengine.h ****         if(spliceBufferReadIndex > spliceBufferFourLength) 
 239:sampleengine.h ****         {
 240:sampleengine.h ****             spliceBufferReadIndex = 0;
 241:sampleengine.h ****         }
 242:sampleengine.h **** 
 243:sampleengine.h ****         spliceBufferReadIndexInt = static_cast<int32_t>(spliceBufferReadIndex);
 244:sampleengine.h ****         spliceBufferReadIndexFraction = spliceBufferReadIndex - spliceBufferReadIndexInt;
 245:sampleengine.h ****         a = spliceBufferFour[spliceBufferReadIndexInt]; // current sample
 246:sampleengine.h ****         b = spliceBufferFour[spliceBufferReadIndexInt + 1]; // next sample
 247:sampleengine.h ****         out = a + (b - a) * spliceBufferReadIndexFraction; // Linear Interpolation
 248:sampleengine.h ****     }
 249:sampleengine.h **** 
 250:sampleengine.h ****     return out;
 251:sampleengine.h **** }
 252:sampleengine.h **** 
 253:sampleengine.h **** void StoreSpliceBuffer(int bufferNum)
 254:sampleengine.h **** {
 255:sampleengine.h ****     readIndex = startPoint;
 256:sampleengine.h ****     float startSample = startPoint;
 257:sampleengine.h ****     if(bufferNum == 1)
 258:sampleengine.h ****     {
 259:sampleengine.h ****         for (uint32_t i = 0; i < MAX_SPLICE_SIZE; i++)
 260:sampleengine.h ****         {
 261:sampleengine.h ****             spliceBufferOne[i] = GetSample();
 262:sampleengine.h ****             AdvanceReadIndex();
 263:sampleengine.h ****             if(readIndex == startSample)
 264:sampleengine.h ****             {
 265:sampleengine.h ****                 spliceBufferOneLength = i;
 266:sampleengine.h ****                 break;
 267:sampleengine.h ****             }
 268:sampleengine.h ****         }
ARM GAS  /var/folders/m5/x8wc2gdj7z5cpgcqdsb_gkj40000gn/T//ccGxviRN.s 			page 21


 269:sampleengine.h ****     }
 270:sampleengine.h ****     else if(bufferNum == 2)
 271:sampleengine.h ****     {
 272:sampleengine.h ****         for (uint32_t i = 0; i < MAX_SPLICE_SIZE; i++)
 273:sampleengine.h ****         {
 274:sampleengine.h ****             spliceBufferTwo[i] = GetSample();
 275:sampleengine.h ****             AdvanceReadIndex();
 276:sampleengine.h ****             if(readIndex == startSample)
 277:sampleengine.h ****             {
 278:sampleengine.h ****                 spliceBufferTwoLength = i;
 279:sampleengine.h ****                 break;
 280:sampleengine.h ****             }
 281:sampleengine.h ****         }
 282:sampleengine.h ****     }
 283:sampleengine.h ****     else if(bufferNum == 3)
 284:sampleengine.h ****     {
 285:sampleengine.h ****         for (uint32_t i = 0; i < MAX_SPLICE_SIZE; i++)
 286:sampleengine.h ****         {
 287:sampleengine.h ****             spliceBufferThree[i] = GetSample();
 288:sampleengine.h ****             AdvanceReadIndex();
 289:sampleengine.h ****             if(readIndex == startSample)
 290:sampleengine.h ****             {
 291:sampleengine.h ****                 spliceBufferThreeLength = i;
 292:sampleengine.h ****                 break;
 293:sampleengine.h ****             }
 294:sampleengine.h ****         }
 295:sampleengine.h ****     }
 296:sampleengine.h ****     else if(bufferNum == 4)
 297:sampleengine.h ****     {
 298:sampleengine.h ****         for (uint32_t i = 0; i < MAX_SPLICE_SIZE; i++)
 299:sampleengine.h ****         {
 300:sampleengine.h ****             spliceBufferFour[i] = GetSample();
 301:sampleengine.h ****             AdvanceReadIndex();
 302:sampleengine.h ****             if(readIndex == startSample)
 303:sampleengine.h ****             {
 304:sampleengine.h ****                 spliceBufferFourLength = i;
 305:sampleengine.h ****                 break;
 306:sampleengine.h ****             }
 307:sampleengine.h ****         }
 308:sampleengine.h ****     }
 309:sampleengine.h ****     readIndex = startPoint;
 310:sampleengine.h **** }
 311:sampleengine.h **** 
 312:sampleengine.h **** bool AnyKeyIsPressed()
 313:sampleengine.h **** {
 314:sampleengine.h ****     for(int i = 0; i < numKeyPads; i++)
 315:sampleengine.h ****     {
 316:sampleengine.h ****         if(keyStates[i])
 317:sampleengine.h ****         {
 318:sampleengine.h ****             return true;
 319:sampleengine.h ****         }
 320:sampleengine.h ****     }
 321:sampleengine.h ****     return false;
 322:sampleengine.h **** }
 323:sampleengine.h **** 
 324:sampleengine.h **** int FindNextPressedKey(int key)
 245              		.loc 13 324 5 is_stmt 1 view .LVU28
ARM GAS  /var/folders/m5/x8wc2gdj7z5cpgcqdsb_gkj40000gn/T//ccGxviRN.s 			page 22


 246              	.LBB412:
 247              	.LBB413:
 325:sampleengine.h **** {
 326:sampleengine.h ****     int nextKey = key;
 327:sampleengine.h ****     for(int i = 0; i < numKeyPads; i++)
 248              		.loc 13 327 22 view .LVU29
 249 000a 01E0     		b	.L12
 250              	.LVL8:
 251              	.L15:
 252              		.loc 13 327 22 is_stmt 0 view .LVU30
 253 000c 013A     		subs	r2, r2, #1
 254              	.LVL9:
 255              		.loc 13 327 22 view .LVU31
 256 000e 06D0     		beq	.L11
 257              	.LVL10:
 258              	.L12:
 328:sampleengine.h ****     {
 329:sampleengine.h ****         nextKey++;
 259              		.loc 13 329 9 is_stmt 1 view .LVU32
 327:sampleengine.h ****     {
 260              		.loc 13 327 5 view .LVU33
 261              		.loc 13 329 16 is_stmt 0 view .LVU34
 262 0010 0133     		adds	r3, r3, #1
 263              	.LVL11:
 330:sampleengine.h ****         if(nextKey >= numKeyPads)
 264              		.loc 13 330 9 is_stmt 1 view .LVU35
 331:sampleengine.h ****         {
 332:sampleengine.h ****             nextKey = 0;
 265              		.loc 13 332 21 is_stmt 0 view .LVU36
 266 0012 202B     		cmp	r3, #32
 267 0014 A8BF     		it	ge
 268 0016 0023     		movge	r3, #0
 269              	.LVL12:
 333:sampleengine.h ****         }
 334:sampleengine.h ****         if(keyStates[nextKey])
 270              		.loc 13 334 9 is_stmt 1 view .LVU37
 327:sampleengine.h ****     {
 271              		.loc 13 327 22 view .LVU38
 272              		.loc 13 334 9 is_stmt 0 view .LVU39
 273 0018 C15C     		ldrb	r1, [r0, r3]	@ zero_extendqisi2
 274 001a 0029     		cmp	r1, #0
 275 001c F6D0     		beq	.L15
 276              	.LVL13:
 277              	.L11:
 278              		.loc 13 334 9 view .LVU40
 279              	.LBE413:
 335:sampleengine.h ****         {
 336:sampleengine.h ****             break;
 337:sampleengine.h ****         }
 338:sampleengine.h ****     }
 339:sampleengine.h ****     return nextKey;
 280              		.loc 13 339 5 is_stmt 1 view .LVU41
 281              		.loc 13 339 5 is_stmt 0 view .LVU42
 282              	.LBE412:
 283              	.LBE411:
 112:sampleengine.h ****         stopPoint = keyStopIndex[currentKey];
 284              		.loc 13 112 46 view .LVU43
ARM GAS  /var/folders/m5/x8wc2gdj7z5cpgcqdsb_gkj40000gn/T//ccGxviRN.s 			page 23


 285 001e 0C4A     		ldr	r2, .L16+8
 113:sampleengine.h ****         ResetReadIndex();
 286              		.loc 13 113 44 view .LVU44
 287 0020 0C48     		ldr	r0, .L16+12
 112:sampleengine.h ****         stopPoint = keyStopIndex[currentKey];
 288              		.loc 13 112 46 view .LVU45
 289 0022 52F82320 		ldr	r2, [r2, r3, lsl #2]
 112:sampleengine.h ****         stopPoint = keyStopIndex[currentKey];
 290              		.loc 13 112 20 view .LVU46
 291 0026 0C4D     		ldr	r5, .L16+16
 292              	.LBB414:
 293              	.LBB415:
 102:sampleengine.h **** }
 294              		.loc 13 102 15 view .LVU47
 295 0028 07EE902A 		vmov	s15, r2	@ int
 296              	.LBE415:
 297              	.LBE414:
 113:sampleengine.h ****         ResetReadIndex();
 298              		.loc 13 113 19 view .LVU48
 299 002c 50F82300 		ldr	r0, [r0, r3, lsl #2]
 111:sampleengine.h ****         startPoint = keyStartIndex[currentKey];
 300              		.loc 13 111 20 view .LVU49
 301 0030 2360     		str	r3, [r4]
 112:sampleengine.h ****         stopPoint = keyStopIndex[currentKey];
 302              		.loc 13 112 9 is_stmt 1 view .LVU50
 303              	.LBB419:
 304              	.LBB416:
 102:sampleengine.h **** }
 305              		.loc 13 102 15 is_stmt 0 view .LVU51
 306 0032 F8EE677A 		vcvt.f32.u32	s15, s15
 307              	.LBE416:
 308              	.LBE419:
 113:sampleengine.h ****         ResetReadIndex();
 309              		.loc 13 113 19 view .LVU52
 310 0036 0949     		ldr	r1, .L16+20
 311              	.LBB420:
 312              	.LBB417:
 102:sampleengine.h **** }
 313              		.loc 13 102 15 view .LVU53
 314 0038 094B     		ldr	r3, .L16+24
 315              	.LBE417:
 316              	.LBE420:
 112:sampleengine.h ****         stopPoint = keyStopIndex[currentKey];
 317              		.loc 13 112 20 view .LVU54
 318 003a 2A60     		str	r2, [r5]
 113:sampleengine.h ****         ResetReadIndex();
 319              		.loc 13 113 9 is_stmt 1 view .LVU55
 113:sampleengine.h ****         ResetReadIndex();
 320              		.loc 13 113 19 is_stmt 0 view .LVU56
 321 003c 0860     		str	r0, [r1]
 114:sampleengine.h ****     }
 322              		.loc 13 114 9 is_stmt 1 view .LVU57
 323              	.LBB421:
 324              	.LBI414:
 100:sampleengine.h **** {
 325              		.loc 13 100 6 view .LVU58
 326              	.LBB418:
ARM GAS  /var/folders/m5/x8wc2gdj7z5cpgcqdsb_gkj40000gn/T//ccGxviRN.s 			page 24


 102:sampleengine.h **** }
 327              		.loc 13 102 5 view .LVU59
 102:sampleengine.h **** }
 328              		.loc 13 102 15 is_stmt 0 view .LVU60
 329 003e C3ED007A 		vstr.32	s15, [r3]
 330              	.LBE418:
 331              	.LBE421:
 116:sampleengine.h **** 
 332              		.loc 13 116 1 view .LVU61
 333 0042 30BC     		pop	{r4, r5}
 334              		.cfi_restore 5
 335              		.cfi_restore 4
 336              		.cfi_def_cfa_offset 0
 337 0044 7047     		bx	lr
 338              	.L17:
 339 0046 00BF     		.align	2
 340              	.L16:
 341 0048 00000000 		.word	.LANCHOR0
 342 004c 00000000 		.word	.LANCHOR1
 343 0050 00000000 		.word	.LANCHOR2
 344 0054 00000000 		.word	.LANCHOR5
 345 0058 00000000 		.word	.LANCHOR3
 346 005c 00000000 		.word	.LANCHOR4
 347 0060 00000000 		.word	.LANCHOR6
 348              		.cfi_endproc
 349              	.LFE5284:
 351              		.section	.text._Z12InitControlsv,"ax",%progbits
 352              		.align	1
 353              		.p2align 2,,3
 354              		.global	_Z12InitControlsv
 355              		.syntax unified
 356              		.thumb
 357              		.thumb_func
 359              	_Z12InitControlsv:
 360              	.LFB4682:
 361              		.file 14 "hardware.h"
   1:hardware.h    **** // ================================
   2:hardware.h    **** // COMPANY: Feni Design
   3:hardware.h    **** // AUTHOR: Dominic Frugoli
   4:hardware.h    **** // CREATE DATE: 8/25/2024
   5:hardware.h    **** // PROJECT: Fall 2024 Independent Project
   6:hardware.h    **** // HEADER FILE FOR USE WITH: "sardinia.cpp"
   7:hardware.h    **** // SPECIAL NOTES: Code is meant for Electrosmith Daisy microcontroller
   8:hardware.h    **** // ================================
   9:hardware.h    **** 
  10:hardware.h    **** 
  11:hardware.h    **** using namespace daisy;
  12:hardware.h    **** using namespace daisy::seed;
  13:hardware.h    **** 
  14:hardware.h    **** 
  15:hardware.h    **** // |Pin Declarations|------------------------------------------------------------------------------
  16:hardware.h    **** // Setting up pin locations for all hardware
  17:hardware.h    **** 
  18:hardware.h    **** #define numKeyPads 32
  19:hardware.h    **** 
  20:hardware.h    **** #define knobMuxPin A0
  21:hardware.h    **** #define keypadMuxPin_Row1 A1
ARM GAS  /var/folders/m5/x8wc2gdj7z5cpgcqdsb_gkj40000gn/T//ccGxviRN.s 			page 25


  22:hardware.h    **** #define keypadMuxPin_Row2 A2
  23:hardware.h    **** #define keypadMuxPin_Row3 A3
  24:hardware.h    **** #define keypadMuxPin_Row4 A4
  25:hardware.h    **** #define buttonMuxPin A5 // 0: play, 1: record, 2: ???, 3: ???, 4: ModeOne, 5: ModeTwo, 6: ModeThree
  26:hardware.h    **** 
  27:hardware.h    **** #define muxConPin1 D1
  28:hardware.h    **** #define muxConPin2 D2
  29:hardware.h    **** #define muxConPin3 D3
  30:hardware.h    **** 
  31:hardware.h    **** #define encoderPinA D11
  32:hardware.h    **** #define encoderPinB D10
  33:hardware.h    **** #define encoderPinClick D12
  34:hardware.h    **** 
  35:hardware.h    **** 
  36:hardware.h    **** // |ADC Config Setup|------------------------------------------------------------------------------
  37:hardware.h    **** // Setting up ADC system for Daisy
  38:hardware.h    **** 
  39:hardware.h    **** enum AdcChannel // Just add knobs before last NUM_ADC_CHANNELS as needed
  40:hardware.h    **** {
  41:hardware.h    **** 	knobMux,
  42:hardware.h    **** 	keypadMuxOne,
  43:hardware.h    **** 	keypadMuxTwo,
  44:hardware.h    **** 	keypadMuxThree,
  45:hardware.h    **** 	keypadMuxFour,
  46:hardware.h    **** 	buttonMux,
  47:hardware.h    **** 	NUM_ADC_CHANNELS // Enum allows for auto tracking the amount
  48:hardware.h    **** };
  49:hardware.h    **** 
  50:hardware.h    **** 
  51:hardware.h    **** // |Hardware Object Instantiations|----------------------------------------------------------------
  52:hardware.h    **** // Instantiating objects for hardware control classes
  53:hardware.h    **** 
  54:hardware.h    **** AdcChannelConfig adcConfig[NUM_ADC_CHANNELS]; // array size for number of ADC channels you need
  55:hardware.h    **** 
  56:hardware.h    **** 
  57:hardware.h    **** Encoder encoder;
  58:hardware.h    **** 
  59:hardware.h    **** 
  60:hardware.h    **** // |Variable Declarations|-------------------------------------------------------------------------
  61:hardware.h    **** // Variables for all values that need to be stored
  62:hardware.h    **** 
  63:hardware.h    **** 
  64:hardware.h    **** int encoderTurnVal;
  65:hardware.h    **** 
  66:hardware.h    **** // 0: play, 1: record, 2: ???, 3: ???, 4: ModeOne, 5: ModeTwo, 6: ModeThree, 7: ModeFour
  67:hardware.h    **** bool controlButtonStates[8] = {false, false, false, false, false, false, false, false};
  68:hardware.h    **** bool prevControlButtonStates[8] = {false, false, false, false, false, false, false, false};
  69:hardware.h    **** 
  70:hardware.h    **** bool playButtonOverrule; // For when the playing sample off of play button pressed (overrules keypa
  71:hardware.h    **** 
  72:hardware.h    **** 
  73:hardware.h    **** // |Function Declarations|-------------------------------------------------------------------------
  74:hardware.h    **** // Function declarations for any functions needed
  75:hardware.h    **** 
  76:hardware.h    **** void ProcessControlsKR(); // For controls that only need to be processed every audio block
  77:hardware.h    **** void ProcessControlsAR(); // For controls that need to process every sample
  78:hardware.h    **** 
ARM GAS  /var/folders/m5/x8wc2gdj7z5cpgcqdsb_gkj40000gn/T//ccGxviRN.s 			page 26


  79:hardware.h    **** void InitControls()
  80:hardware.h    **** {
 362              		.loc 14 80 1 is_stmt 1 view -0
 363              		.cfi_startproc
 364              		@ args = 0, pretend = 0, frame = 112
 365              		@ frame_needed = 0, uses_anonymous_args = 0
  81:hardware.h    **** 	adcConfig[knobMux].InitMux(knobMuxPin, 8, muxConPin1, muxConPin2, muxConPin3);
 366              		.loc 14 81 2 view .LVU63
  80:hardware.h    **** 	adcConfig[knobMux].InitMux(knobMuxPin, 8, muxConPin1, muxConPin2, muxConPin3);
 367              		.loc 14 80 1 is_stmt 0 view .LVU64
 368 0000 2DE9F047 		push	{r4, r5, r6, r7, r8, r9, r10, lr}
 369              		.cfi_def_cfa_offset 32
 370              		.cfi_offset 4, -32
 371              		.cfi_offset 5, -28
 372              		.cfi_offset 6, -24
 373              		.cfi_offset 7, -20
 374              		.cfi_offset 8, -16
 375              		.cfi_offset 9, -12
 376              		.cfi_offset 10, -8
 377              		.cfi_offset 14, -4
 378              		.loc 14 81 28 view .LVU65
 379 0004 0224     		movs	r4, #2
  80:hardware.h    **** 	adcConfig[knobMux].InitMux(knobMuxPin, 8, muxConPin1, muxConPin2, muxConPin3);
 380              		.loc 14 80 1 view .LVU66
 381 0006 A0B0     		sub	sp, sp, #128
 382              		.cfi_def_cfa_offset 160
 383              		.loc 14 81 28 view .LVU67
 384 0008 0925     		movs	r5, #9
 385 000a 4FF00A09 		mov	r9, #10
 386 000e 8DF82040 		strb	r4, [sp, #32]
 387 0012 4FF00B08 		mov	r8, #11
 388 0016 8DF82150 		strb	r5, [sp, #33]
 389 001a 4FF0000A 		mov	r10, #0
 390 001e BDF82030 		ldrh	r3, [sp, #32]
 391 0022 0822     		movs	r2, #8
 392 0024 6A4F     		ldr	r7, .L20
  82:hardware.h    **** 	adcConfig[keypadMuxOne].InitMux(keypadMuxPin_Row1, 8, muxConPin1, muxConPin2, muxConPin3);
  83:hardware.h    **** 	adcConfig[keypadMuxTwo].InitMux(keypadMuxPin_Row2, 8, muxConPin1, muxConPin2, muxConPin3);
 393              		.loc 14 83 33 view .LVU68
 394 0026 0126     		movs	r6, #1
  81:hardware.h    **** 	adcConfig[keypadMuxOne].InitMux(keypadMuxPin_Row1, 8, muxConPin1, muxConPin2, muxConPin3);
 395              		.loc 14 81 28 view .LVU69
 396 0028 8DF81C40 		strb	r4, [sp, #28]
 397 002c 8DF81D90 		strb	r9, [sp, #29]
 398 0030 3846     		mov	r0, r7
 399 0032 ADF80430 		strh	r3, [sp, #4]	@ movhi
 400 0036 BDF81C30 		ldrh	r3, [sp, #28]
 401 003a 8DF81440 		strb	r4, [sp, #20]
 402 003e 8DF815A0 		strb	r10, [sp, #21]
 403 0042 8DF81840 		strb	r4, [sp, #24]
 404 0046 8DF81980 		strb	r8, [sp, #25]
 405 004a 0599     		ldr	r1, [sp, #20]
 406 004c ADF80030 		strh	r3, [sp]	@ movhi
 407 0050 0294     		str	r4, [sp, #8]
 408 0052 069B     		ldr	r3, [sp, #24]
 409 0054 FFF7FEFF 		bl	_ZN5daisy16AdcChannelConfig7InitMuxE12dsy_gpio_pinjS1_S1_S1_NS0_15ConversionSpeedE
 410              	.LVL14:
ARM GAS  /var/folders/m5/x8wc2gdj7z5cpgcqdsb_gkj40000gn/T//ccGxviRN.s 			page 27


  82:hardware.h    **** 	adcConfig[keypadMuxOne].InitMux(keypadMuxPin_Row1, 8, muxConPin1, muxConPin2, muxConPin3);
 411              		.loc 14 82 2 is_stmt 1 view .LVU70
  82:hardware.h    **** 	adcConfig[keypadMuxOne].InitMux(keypadMuxPin_Row1, 8, muxConPin1, muxConPin2, muxConPin3);
 412              		.loc 14 82 33 is_stmt 0 view .LVU71
 413 0058 0323     		movs	r3, #3
 414 005a 8DF83040 		strb	r4, [sp, #48]
 415 005e 07F11200 		add	r0, r7, #18
 416 0062 8DF82530 		strb	r3, [sp, #37]
 417 0066 0822     		movs	r2, #8
 418 0068 8DF83150 		strb	r5, [sp, #49]
 419 006c BDF83030 		ldrh	r3, [sp, #48]
 420 0070 8DF82C40 		strb	r4, [sp, #44]
 421 0074 8DF82D90 		strb	r9, [sp, #45]
 422 0078 ADF80430 		strh	r3, [sp, #4]	@ movhi
 423 007c BDF82C30 		ldrh	r3, [sp, #44]
 424 0080 8DF824A0 		strb	r10, [sp, #36]
 425 0084 8DF82840 		strb	r4, [sp, #40]
 426 0088 8DF82980 		strb	r8, [sp, #41]
 427 008c 0999     		ldr	r1, [sp, #36]
 428 008e ADF80030 		strh	r3, [sp]	@ movhi
 429 0092 0294     		str	r4, [sp, #8]
 430 0094 0A9B     		ldr	r3, [sp, #40]
 431 0096 FFF7FEFF 		bl	_ZN5daisy16AdcChannelConfig7InitMuxE12dsy_gpio_pinjS1_S1_S1_NS0_15ConversionSpeedE
 432              	.LVL15:
 433              		.loc 14 83 2 is_stmt 1 view .LVU72
 434              		.loc 14 83 33 is_stmt 0 view .LVU73
 435 009a 8DF84040 		strb	r4, [sp, #64]
 436 009e 8DF84150 		strb	r5, [sp, #65]
 437 00a2 07F12400 		add	r0, r7, #36
 438 00a6 BDF84030 		ldrh	r3, [sp, #64]
 439 00aa 0822     		movs	r2, #8
 440 00ac 8DF83C40 		strb	r4, [sp, #60]
 441 00b0 8DF83D90 		strb	r9, [sp, #61]
 442 00b4 ADF80430 		strh	r3, [sp, #4]	@ movhi
 443 00b8 BDF83C30 		ldrh	r3, [sp, #60]
 444 00bc 8DF83840 		strb	r4, [sp, #56]
 445 00c0 8DF83980 		strb	r8, [sp, #57]
 446 00c4 8DF83460 		strb	r6, [sp, #52]
 447 00c8 8DF83560 		strb	r6, [sp, #53]
 448 00cc 0D99     		ldr	r1, [sp, #52]
 449 00ce ADF80030 		strh	r3, [sp]	@ movhi
 450 00d2 0294     		str	r4, [sp, #8]
 451 00d4 0E9B     		ldr	r3, [sp, #56]
 452 00d6 FFF7FEFF 		bl	_ZN5daisy16AdcChannelConfig7InitMuxE12dsy_gpio_pinjS1_S1_S1_NS0_15ConversionSpeedE
 453              	.LVL16:
  84:hardware.h    **** 	adcConfig[keypadMuxThree].InitMux(keypadMuxPin_Row3, 8, muxConPin1, muxConPin2, muxConPin3);
 454              		.loc 14 84 2 is_stmt 1 view .LVU74
 455              		.loc 14 84 35 is_stmt 0 view .LVU75
 456 00da 0723     		movs	r3, #7
 457 00dc 8DF85040 		strb	r4, [sp, #80]
 458 00e0 07F13600 		add	r0, r7, #54
 459 00e4 8DF84530 		strb	r3, [sp, #69]
 460 00e8 0822     		movs	r2, #8
 461 00ea 8DF85150 		strb	r5, [sp, #81]
 462 00ee BDF85030 		ldrh	r3, [sp, #80]
 463 00f2 8DF84C40 		strb	r4, [sp, #76]
 464 00f6 8DF84D90 		strb	r9, [sp, #77]
ARM GAS  /var/folders/m5/x8wc2gdj7z5cpgcqdsb_gkj40000gn/T//ccGxviRN.s 			page 28


 465 00fa ADF80430 		strh	r3, [sp, #4]	@ movhi
 466 00fe BDF84C30 		ldrh	r3, [sp, #76]
 467 0102 8DF844A0 		strb	r10, [sp, #68]
 468 0106 8DF84840 		strb	r4, [sp, #72]
 469 010a 8DF84980 		strb	r8, [sp, #73]
 470 010e 1199     		ldr	r1, [sp, #68]
 471 0110 ADF80030 		strh	r3, [sp]	@ movhi
 472 0114 0294     		str	r4, [sp, #8]
 473 0116 129B     		ldr	r3, [sp, #72]
 474 0118 FFF7FEFF 		bl	_ZN5daisy16AdcChannelConfig7InitMuxE12dsy_gpio_pinjS1_S1_S1_NS0_15ConversionSpeedE
 475              	.LVL17:
  85:hardware.h    **** 	adcConfig[keypadMuxFour].InitMux(keypadMuxPin_Row4, 8, muxConPin1, muxConPin2, muxConPin3);
 476              		.loc 14 85 2 is_stmt 1 view .LVU76
 477              		.loc 14 85 34 is_stmt 0 view .LVU77
 478 011c 0623     		movs	r3, #6
 479 011e 8DF86040 		strb	r4, [sp, #96]
 480 0122 07F14800 		add	r0, r7, #72
 481 0126 8DF85530 		strb	r3, [sp, #85]
 482 012a 0822     		movs	r2, #8
 483 012c 8DF86150 		strb	r5, [sp, #97]
 484 0130 BDF86030 		ldrh	r3, [sp, #96]
 485 0134 8DF85C40 		strb	r4, [sp, #92]
 486 0138 8DF85D90 		strb	r9, [sp, #93]
 487 013c ADF80430 		strh	r3, [sp, #4]	@ movhi
 488 0140 BDF85C30 		ldrh	r3, [sp, #92]
 489 0144 8DF854A0 		strb	r10, [sp, #84]
 490 0148 8DF85840 		strb	r4, [sp, #88]
 491 014c 8DF85980 		strb	r8, [sp, #89]
 492 0150 1599     		ldr	r1, [sp, #84]
 493 0152 ADF80030 		strh	r3, [sp]	@ movhi
 494 0156 0294     		str	r4, [sp, #8]
 495 0158 169B     		ldr	r3, [sp, #88]
 496 015a FFF7FEFF 		bl	_ZN5daisy16AdcChannelConfig7InitMuxE12dsy_gpio_pinjS1_S1_S1_NS0_15ConversionSpeedE
 497              	.LVL18:
  86:hardware.h    **** 	adcConfig[buttonMux].InitMux(buttonMuxPin, 8, muxConPin1, muxConPin2, muxConPin3);
 498              		.loc 14 86 2 is_stmt 1 view .LVU78
 499              		.loc 14 86 30 is_stmt 0 view .LVU79
 500 015e 8DF86D90 		strb	r9, [sp, #109]
 501 0162 8DF86C40 		strb	r4, [sp, #108]
 502 0166 07F15A00 		add	r0, r7, #90
 503 016a BDF86C20 		ldrh	r2, [sp, #108]
 504 016e 8DF87040 		strb	r4, [sp, #112]
 505 0172 8DF87150 		strb	r5, [sp, #113]
 506 0176 BDF87030 		ldrh	r3, [sp, #112]
 507 017a 8DF86980 		strb	r8, [sp, #105]
 508 017e 8DF86440 		strb	r4, [sp, #100]
 509 0182 8DF86560 		strb	r6, [sp, #101]
 510 0186 8DF86840 		strb	r4, [sp, #104]
 511 018a 1999     		ldr	r1, [sp, #100]
 512 018c ADF80430 		strh	r3, [sp, #4]	@ movhi
 513 0190 ADF80020 		strh	r2, [sp]	@ movhi
 514 0194 0822     		movs	r2, #8
 515 0196 1A9B     		ldr	r3, [sp, #104]
 516 0198 0294     		str	r4, [sp, #8]
 517 019a FFF7FEFF 		bl	_ZN5daisy16AdcChannelConfig7InitMuxE12dsy_gpio_pinjS1_S1_S1_NS0_15ConversionSpeedE
 518              	.LVL19:
  87:hardware.h    **** 
ARM GAS  /var/folders/m5/x8wc2gdj7z5cpgcqdsb_gkj40000gn/T//ccGxviRN.s 			page 29


  88:hardware.h    **** 	encoder.Init(encoderPinA, encoderPinB, encoderPinClick);
 519              		.loc 14 88 2 is_stmt 1 view .LVU80
 520              		.loc 14 88 14 is_stmt 0 view .LVU81
 521 019e 0822     		movs	r2, #8
 522 01a0 0523     		movs	r3, #5
 523 01a2 8DF87460 		strb	r6, [sp, #116]
 524 01a6 8DF87520 		strb	r2, [sp, #117]
 525 01aa 8DF87860 		strb	r6, [sp, #120]
 526 01ae 8DF87930 		strb	r3, [sp, #121]
 527 01b2 8DF87C60 		strb	r6, [sp, #124]
 528 01b6 8DF87D50 		strb	r5, [sp, #125]
 529 01ba 9FED060A 		vldr.32	s0, .L20+4
 530 01be 1D99     		ldr	r1, [sp, #116]
 531 01c0 0548     		ldr	r0, .L20+8
 532 01c2 DDE91E23 		ldrd	r2, r3, [sp, #120]
  89:hardware.h    **** }
 533              		.loc 14 89 1 view .LVU82
 534 01c6 20B0     		add	sp, sp, #128
 535              		.cfi_def_cfa_offset 32
 536              		@ sp needed
 537 01c8 BDE8F047 		pop	{r4, r5, r6, r7, r8, r9, r10, lr}
 538              		.cfi_restore 14
 539              		.cfi_restore 10
 540              		.cfi_restore 9
 541              		.cfi_restore 8
 542              		.cfi_restore 7
 543              		.cfi_restore 6
 544              		.cfi_restore 5
 545              		.cfi_restore 4
 546              		.cfi_def_cfa_offset 0
  88:hardware.h    **** }
 547              		.loc 14 88 14 view .LVU83
 548 01cc FFF7FEBF 		b	_ZN5daisy7Encoder4InitE12dsy_gpio_pinS1_S1_f
 549              	.LVL20:
 550              	.L21:
 551              		.align	2
 552              	.L20:
 553 01d0 00000000 		.word	.LANCHOR7
 554 01d4 00000000 		.word	0
 555 01d8 00000000 		.word	.LANCHOR8
 556              		.cfi_endproc
 557              	.LFE4682:
 559              		.section	.text._Z10RisingEdgebb,"ax",%progbits
 560              		.align	1
 561              		.p2align 2,,3
 562              		.global	_Z10RisingEdgebb
 563              		.syntax unified
 564              		.thumb
 565              		.thumb_func
 567              	_Z10RisingEdgebb:
 568              	.LVL21:
 569              	.LFB4683:
  90:hardware.h    **** 
  91:hardware.h    **** bool RisingEdge(bool buttonState, bool previousButtonState)
  92:hardware.h    **** {
 570              		.loc 14 92 1 is_stmt 1 view -0
 571              		.cfi_startproc
ARM GAS  /var/folders/m5/x8wc2gdj7z5cpgcqdsb_gkj40000gn/T//ccGxviRN.s 			page 30


 572              		@ args = 0, pretend = 0, frame = 0
 573              		@ frame_needed = 0, uses_anonymous_args = 0
 574              		@ link register save eliminated.
  93:hardware.h    **** 	if(buttonState == true && previousButtonState == false)
 575              		.loc 14 93 2 view .LVU85
 576              		.loc 14 93 25 is_stmt 0 view .LVU86
 577 0000 81F00101 		eor	r1, r1, #1
 578              	.LVL22:
  94:hardware.h    **** 	{
  95:hardware.h    **** 		return true;
  96:hardware.h    **** 	}
  97:hardware.h    **** 	else
  98:hardware.h    **** 	{
  99:hardware.h    **** 		return false;
 100:hardware.h    **** 	}
 101:hardware.h    **** }
 579              		.loc 14 101 1 view .LVU87
 580 0004 0840     		ands	r0, r0, r1
 581              	.LVL23:
 582              		.loc 14 101 1 view .LVU88
 583 0006 7047     		bx	lr
 584              		.cfi_endproc
 585              	.LFE4683:
 587              		.section	.text._Z11FallingEdgebb,"ax",%progbits
 588              		.align	1
 589              		.p2align 2,,3
 590              		.global	_Z11FallingEdgebb
 591              		.syntax unified
 592              		.thumb
 593              		.thumb_func
 595              	_Z11FallingEdgebb:
 596              	.LVL24:
 597              	.LFB4684:
 102:hardware.h    **** 
 103:hardware.h    **** bool FallingEdge(bool buttonState, bool previousButtonState)
 104:hardware.h    **** {
 598              		.loc 14 104 1 is_stmt 1 view -0
 599              		.cfi_startproc
 600              		@ args = 0, pretend = 0, frame = 0
 601              		@ frame_needed = 0, uses_anonymous_args = 0
 602              		@ link register save eliminated.
 105:hardware.h    **** 	if(buttonState == false && previousButtonState == true)
 603              		.loc 14 105 2 view .LVU90
 604 0000 80F00100 		eor	r0, r0, #1
 605              	.LVL25:
 106:hardware.h    **** 	{
 107:hardware.h    **** 		return true;
 108:hardware.h    **** 	}
 109:hardware.h    **** 	else
 110:hardware.h    **** 	{
 111:hardware.h    **** 		return false;
 112:hardware.h    **** 	}
 113:hardware.h    **** }
 606              		.loc 14 113 1 is_stmt 0 view .LVU91
 607 0004 0840     		ands	r0, r0, r1
 608 0006 7047     		bx	lr
 609              		.cfi_endproc
ARM GAS  /var/folders/m5/x8wc2gdj7z5cpgcqdsb_gkj40000gn/T//ccGxviRN.s 			page 31


 610              	.LFE4684:
 612              		.section	.text._Z25RisingEdge_ControlButtonsi,"ax",%progbits
 613              		.align	1
 614              		.p2align 2,,3
 615              		.global	_Z25RisingEdge_ControlButtonsi
 616              		.syntax unified
 617              		.thumb
 618              		.thumb_func
 620              	_Z25RisingEdge_ControlButtonsi:
 621              	.LVL26:
 622              	.LFB4685:
 114:hardware.h    **** 
 115:hardware.h    **** bool RisingEdge_ControlButtons(int buttonNum)
 116:hardware.h    **** {
 623              		.loc 14 116 1 is_stmt 1 view -0
 624              		.cfi_startproc
 625              		@ args = 0, pretend = 0, frame = 0
 626              		@ frame_needed = 0, uses_anonymous_args = 0
 627              		@ link register save eliminated.
 117:hardware.h    **** 	if(controlButtonStates[buttonNum] == true && prevControlButtonStates[buttonNum] == false)
 628              		.loc 14 117 2 view .LVU93
 629              		.loc 14 117 34 is_stmt 0 view .LVU94
 630 0000 044A     		ldr	r2, .L29
 116:hardware.h    **** 	if(controlButtonStates[buttonNum] == true && prevControlButtonStates[buttonNum] == false)
 631              		.loc 14 116 1 view .LVU95
 632 0002 0346     		mov	r3, r0
 633              		.loc 14 117 34 view .LVU96
 634 0004 105C     		ldrb	r0, [r2, r0]	@ zero_extendqisi2
 635              	.LVL27:
 636              		.loc 14 117 2 view .LVU97
 637 0006 18B1     		cbz	r0, .L25
 638              		.loc 14 117 80 discriminator 1 view .LVU98
 639 0008 034A     		ldr	r2, .L29+4
 640              		.loc 14 117 44 discriminator 1 view .LVU99
 641 000a D05C     		ldrb	r0, [r2, r3]	@ zero_extendqisi2
 642 000c 80F00100 		eor	r0, r0, #1
 643              	.L25:
 118:hardware.h    **** 	{
 119:hardware.h    **** 		return true;
 120:hardware.h    **** 	}
 121:hardware.h    **** 	else
 122:hardware.h    **** 	{
 123:hardware.h    **** 		return false;
 124:hardware.h    **** 	}
 125:hardware.h    **** }
 644              		.loc 14 125 1 view .LVU100
 645 0010 7047     		bx	lr
 646              	.L30:
 647 0012 00BF     		.align	2
 648              	.L29:
 649 0014 00000000 		.word	.LANCHOR9
 650 0018 00000000 		.word	.LANCHOR10
 651              		.cfi_endproc
 652              	.LFE4685:
 654              		.section	.text._Z26FallingEdge_ControlButtonsi,"ax",%progbits
 655              		.align	1
 656              		.p2align 2,,3
ARM GAS  /var/folders/m5/x8wc2gdj7z5cpgcqdsb_gkj40000gn/T//ccGxviRN.s 			page 32


 657              		.global	_Z26FallingEdge_ControlButtonsi
 658              		.syntax unified
 659              		.thumb
 660              		.thumb_func
 662              	_Z26FallingEdge_ControlButtonsi:
 663              	.LVL28:
 664              	.LFB4686:
 126:hardware.h    **** 
 127:hardware.h    **** bool FallingEdge_ControlButtons(int buttonNum)
 128:hardware.h    **** {
 665              		.loc 14 128 1 is_stmt 1 view -0
 666              		.cfi_startproc
 667              		@ args = 0, pretend = 0, frame = 0
 668              		@ frame_needed = 0, uses_anonymous_args = 0
 669              		@ link register save eliminated.
 129:hardware.h    **** 	if(controlButtonStates[buttonNum] == false && prevControlButtonStates[buttonNum] == true)
 670              		.loc 14 129 2 view .LVU102
 671              		.loc 14 129 34 is_stmt 0 view .LVU103
 672 0000 034B     		ldr	r3, .L34
 673              		.loc 14 129 2 view .LVU104
 674 0002 1B5C     		ldrb	r3, [r3, r0]	@ zero_extendqisi2
 675 0004 13B9     		cbnz	r3, .L33
 676              		.loc 14 129 81 discriminator 1 view .LVU105
 677 0006 034B     		ldr	r3, .L34+4
 678 0008 185C     		ldrb	r0, [r3, r0]	@ zero_extendqisi2
 679              	.LVL29:
 680              		.loc 14 129 81 discriminator 1 view .LVU106
 681 000a 7047     		bx	lr
 682              	.LVL30:
 683              	.L33:
 130:hardware.h    **** 	{
 131:hardware.h    **** 		return true;
 132:hardware.h    **** 	}
 133:hardware.h    **** 	else
 134:hardware.h    **** 	{
 135:hardware.h    **** 		return false;
 684              		.loc 14 135 10 view .LVU107
 685 000c 0020     		movs	r0, #0
 686              	.LVL31:
 136:hardware.h    **** 	}
 137:hardware.h    **** }
 687              		.loc 14 137 1 view .LVU108
 688 000e 7047     		bx	lr
 689              	.L35:
 690              		.align	2
 691              	.L34:
 692 0010 00000000 		.word	.LANCHOR9
 693 0014 00000000 		.word	.LANCHOR10
 694              		.cfi_endproc
 695              	.LFE4686:
 697              		.section	.text._Z13EncoderTurnedv,"ax",%progbits
 698              		.align	1
 699              		.p2align 2,,3
 700              		.global	_Z13EncoderTurnedv
 701              		.syntax unified
 702              		.thumb
 703              		.thumb_func
ARM GAS  /var/folders/m5/x8wc2gdj7z5cpgcqdsb_gkj40000gn/T//ccGxviRN.s 			page 33


 705              	_Z13EncoderTurnedv:
 706              	.LFB4687:
 138:hardware.h    **** 
 139:hardware.h    **** bool EncoderTurned()
 140:hardware.h    **** {
 707              		.loc 14 140 1 is_stmt 1 view -0
 708              		.cfi_startproc
 709              		@ args = 0, pretend = 0, frame = 0
 710              		@ frame_needed = 0, uses_anonymous_args = 0
 711              		@ link register save eliminated.
 141:hardware.h    **** 	float encoderInc = encoder.Increment();
 712              		.loc 14 141 2 view .LVU110
 713              	.LVL32:
 714              	.LBB422:
 715              	.LBI422:
  22:/Users/dominicfrugoli/Desktop/ProgrammingCode/DaisyCode/DaisyExamples/libDaisy/src/hid/encoder.h **** 
  23:/Users/dominicfrugoli/Desktop/ProgrammingCode/DaisyCode/DaisyExamples/libDaisy/src/hid/encoder.h ****     /** Initializes the encoder with the specified hardware pins.
  24:/Users/dominicfrugoli/Desktop/ProgrammingCode/DaisyCode/DaisyExamples/libDaisy/src/hid/encoder.h ****      * Update rate is to be deprecated in a future release
  25:/Users/dominicfrugoli/Desktop/ProgrammingCode/DaisyCode/DaisyExamples/libDaisy/src/hid/encoder.h ****      */
  26:/Users/dominicfrugoli/Desktop/ProgrammingCode/DaisyCode/DaisyExamples/libDaisy/src/hid/encoder.h ****     void Init(dsy_gpio_pin a,
  27:/Users/dominicfrugoli/Desktop/ProgrammingCode/DaisyCode/DaisyExamples/libDaisy/src/hid/encoder.h ****               dsy_gpio_pin b,
  28:/Users/dominicfrugoli/Desktop/ProgrammingCode/DaisyCode/DaisyExamples/libDaisy/src/hid/encoder.h ****               dsy_gpio_pin click,
  29:/Users/dominicfrugoli/Desktop/ProgrammingCode/DaisyCode/DaisyExamples/libDaisy/src/hid/encoder.h ****               float        update_rate = 0.f);
  30:/Users/dominicfrugoli/Desktop/ProgrammingCode/DaisyCode/DaisyExamples/libDaisy/src/hid/encoder.h ****     /** Called at update_rate to debounce and handle timing for the switch.
  31:/Users/dominicfrugoli/Desktop/ProgrammingCode/DaisyCode/DaisyExamples/libDaisy/src/hid/encoder.h ****      * In order for events not to be missed, its important that the Edge/Pressed checks be made at 
  32:/Users/dominicfrugoli/Desktop/ProgrammingCode/DaisyCode/DaisyExamples/libDaisy/src/hid/encoder.h ****      */
  33:/Users/dominicfrugoli/Desktop/ProgrammingCode/DaisyCode/DaisyExamples/libDaisy/src/hid/encoder.h ****     void Debounce();
  34:/Users/dominicfrugoli/Desktop/ProgrammingCode/DaisyCode/DaisyExamples/libDaisy/src/hid/encoder.h **** 
  35:/Users/dominicfrugoli/Desktop/ProgrammingCode/DaisyCode/DaisyExamples/libDaisy/src/hid/encoder.h ****     /** Returns +1 if the encoder was turned clockwise, -1 if it was turned counter-clockwise, or 0
  36:/Users/dominicfrugoli/Desktop/ProgrammingCode/DaisyCode/DaisyExamples/libDaisy/src/hid/encoder.h ****     inline int32_t Increment() const { return updated_ ? inc_ : 0; }
 716              		.loc 1 36 20 view .LVU111
 717              	.LBB423:
 718              		.loc 1 36 40 view .LVU112
 719              		.loc 1 36 47 is_stmt 0 view .LVU113
 720 0000 074B     		ldr	r3, .L41
 721 0002 1879     		ldrb	r0, [r3, #4]	@ zero_extendqisi2
 722              		.loc 1 36 56 view .LVU114
 723 0004 50B1     		cbz	r0, .L37
 724              	.LVL33:
 725              		.loc 1 36 56 view .LVU115
 726              	.LBE423:
 727              	.LBE422:
 142:hardware.h    **** 	if(encoderInc != 0)
 728              		.loc 14 142 2 is_stmt 1 view .LVU116
 141:hardware.h    **** 	float encoderInc = encoder.Increment();
 729              		.loc 14 141 39 is_stmt 0 view .LVU117
 730 0006 D3ED097A 		vldr.32	s15, [r3, #36]	@ int
 731 000a F8EEE77A 		vcvt.f32.s32	s15, s15
 732              	.LVL34:
 733              		.loc 14 142 2 view .LVU118
 734 000e F5EE407A 		vcmp.f32	s15, #0
 735 0012 F1EE10FA 		vmrs	APSR_nzcv, FPSCR
 736 0016 14BF     		ite	ne
 737 0018 0120     		movne	r0, #1
 738 001a 0020     		moveq	r0, #0
 739              	.LVL35:
 740              	.L37:
ARM GAS  /var/folders/m5/x8wc2gdj7z5cpgcqdsb_gkj40000gn/T//ccGxviRN.s 			page 34


 143:hardware.h    **** 	{
 144:hardware.h    **** 		return true;
 145:hardware.h    **** 	}
 146:hardware.h    **** 	else
 147:hardware.h    **** 	{
 148:hardware.h    **** 		return false;
 149:hardware.h    **** 	}
 150:hardware.h    **** }
 741              		.loc 14 150 1 view .LVU119
 742 001c 7047     		bx	lr
 743              	.L42:
 744 001e 00BF     		.align	2
 745              	.L41:
 746 0020 00000000 		.word	.LANCHOR8
 747              		.cfi_endproc
 748              	.LFE4687:
 750              		.section	.text._Z13EncoderTurnedN5daisy7EncoderE,"ax",%progbits
 751              		.align	1
 752              		.p2align 2,,3
 753              		.global	_Z13EncoderTurnedN5daisy7EncoderE
 754              		.syntax unified
 755              		.thumb
 756              		.thumb_func
 758              	_Z13EncoderTurnedN5daisy7EncoderE:
 759              	.LVL36:
 760              	.LFB4688:
 151:hardware.h    **** 
 152:hardware.h    **** bool EncoderTurned(Encoder enc)
 153:hardware.h    **** {
 761              		.loc 14 153 1 is_stmt 1 view -0
 762              		.cfi_startproc
 763              		@ args = 0, pretend = 0, frame = 0
 764              		@ frame_needed = 0, uses_anonymous_args = 0
 765              		@ link register save eliminated.
 154:hardware.h    **** 	float encoderInc = enc.Increment();
 766              		.loc 14 154 2 view .LVU121
 767              	.LBB424:
 768              	.LBI424:
 769              		.loc 1 36 20 view .LVU122
 770              	.LBB425:
 771              		.loc 1 36 40 view .LVU123
 772              		.loc 1 36 47 is_stmt 0 view .LVU124
 773 0000 0379     		ldrb	r3, [r0, #4]	@ zero_extendqisi2
 774              		.loc 1 36 56 view .LVU125
 775 0002 53B1     		cbz	r3, .L44
 776              	.LVL37:
 777              		.loc 1 36 56 view .LVU126
 778              	.LBE425:
 779              	.LBE424:
 155:hardware.h    **** 	if(encoderInc != 0)
 780              		.loc 14 155 2 is_stmt 1 view .LVU127
 154:hardware.h    **** 	float encoderInc = enc.Increment();
 781              		.loc 14 154 35 is_stmt 0 view .LVU128
 782 0004 D0ED097A 		vldr.32	s15, [r0, #36]	@ int
 783 0008 F8EEE77A 		vcvt.f32.s32	s15, s15
 784              	.LVL38:
 785              		.loc 14 155 2 view .LVU129
ARM GAS  /var/folders/m5/x8wc2gdj7z5cpgcqdsb_gkj40000gn/T//ccGxviRN.s 			page 35


 786 000c F5EE407A 		vcmp.f32	s15, #0
 787 0010 F1EE10FA 		vmrs	APSR_nzcv, FPSCR
 788 0014 14BF     		ite	ne
 789 0016 0123     		movne	r3, #1
 790 0018 0023     		moveq	r3, #0
 791              	.LVL39:
 792              	.L44:
 156:hardware.h    **** 	{
 157:hardware.h    **** 		encoderInc = 0;
 158:hardware.h    **** 		return true;
 159:hardware.h    **** 	}
 160:hardware.h    **** 	else
 161:hardware.h    **** 	{
 162:hardware.h    **** 		encoderInc = 0;
 163:hardware.h    **** 		return false;
 164:hardware.h    **** 	}
 165:hardware.h    **** }...
 793              		.loc 14 165 1 view .LVU130
 794 001a 1846     		mov	r0, r3
 795              	.LVL40:
 796              		.loc 14 165 1 view .LVU131
 797 001c 7047     		bx	lr
 798              		.cfi_endproc
 799              	.LFE4688:
 801 001e 00BF     		.section	.text._Z10InitBufferv,"ax",%progbits
 802              		.align	1
 803              		.p2align 2,,3
 804              		.global	_Z10InitBufferv
 805              		.syntax unified
 806              		.thumb
 807              		.thumb_func
 809              	_Z10InitBufferv:
 810              	.LFB4689:
  79:sampleengine.h ****     readIndex = 0.0f;
 811              		.loc 13 79 1 is_stmt 1 view -0
 812              		.cfi_startproc
 813              		@ args = 0, pretend = 0, frame = 0
 814              		@ frame_needed = 0, uses_anonymous_args = 0
  80:sampleengine.h ****     for(uint32_t i = 0; i < MAX_RECORD_SIZE; i++) // initializes buffer to all 0s
 815              		.loc 13 80 5 view .LVU133
  80:sampleengine.h ****     for(uint32_t i = 0; i < MAX_RECORD_SIZE; i++) // initializes buffer to all 0s
 816              		.loc 13 80 15 is_stmt 0 view .LVU134
 817 0000 0F4B     		ldr	r3, .L50
 818 0002 0020     		movs	r0, #0
 819              	.LBB426:
  83:sampleengine.h ****     }
 820              		.loc 13 83 28 view .LVU135
 821 0004 0F4A     		ldr	r2, .L50+4
 822 0006 0021     		movs	r1, #0
 823              	.LBE426:
  79:sampleengine.h ****     readIndex = 0.0f;
 824              		.loc 13 79 1 view .LVU136
 825 0008 10B5     		push	{r4, lr}
 826              		.cfi_def_cfa_offset 8
 827              		.cfi_offset 4, -8
 828              		.cfi_offset 14, -4
 829              	.LBB427:
ARM GAS  /var/folders/m5/x8wc2gdj7z5cpgcqdsb_gkj40000gn/T//ccGxviRN.s 			page 36


  87:sampleengine.h ****         spliceBufferTwo[i] = 0.0f;
 830              		.loc 13 87 28 view .LVU137
 831 000a 0F4C     		ldr	r4, .L50+8
 832              	.LBE427:
  80:sampleengine.h ****     for(uint32_t i = 0; i < MAX_RECORD_SIZE; i++) // initializes buffer to all 0s
 833              		.loc 13 80 15 view .LVU138
 834 000c 1860     		str	r0, [r3]	@ float
  81:sampleengine.h ****     {
 835              		.loc 13 81 5 is_stmt 1 view .LVU139
 836              	.LVL41:
 837              	.LBB428:
  81:sampleengine.h ****     {
 838              		.loc 13 81 27 view .LVU140
  83:sampleengine.h ****     }
 839              		.loc 13 83 28 is_stmt 0 view .LVU141
 840 000e 0F48     		ldr	r0, .L50+12
 841 0010 FFF7FEFF 		bl	memset
 842              	.LVL42:
  83:sampleengine.h ****     }
 843              		.loc 13 83 28 view .LVU142
 844              	.LBE428:
 845              	.LBB429:
  87:sampleengine.h ****         spliceBufferTwo[i] = 0.0f;
 846              		.loc 13 87 28 view .LVU143
 847 0014 2246     		mov	r2, r4
 848 0016 0021     		movs	r1, #0
 849 0018 0D48     		ldr	r0, .L50+16
 850 001a FFF7FEFF 		bl	memset
 851              	.LVL43:
  88:sampleengine.h ****         spliceBufferThree[i] = 0.0f;
 852              		.loc 13 88 28 view .LVU144
 853 001e 2246     		mov	r2, r4
 854 0020 0021     		movs	r1, #0
 855 0022 0C48     		ldr	r0, .L50+20
 856 0024 FFF7FEFF 		bl	memset
 857              	.LVL44:
  89:sampleengine.h ****         spliceBufferFour[i] = 0.0f;
 858              		.loc 13 89 30 view .LVU145
 859 0028 2246     		mov	r2, r4
 860 002a 0021     		movs	r1, #0
 861 002c 0A48     		ldr	r0, .L50+24
 862 002e FFF7FEFF 		bl	memset
 863              	.LVL45:
  90:sampleengine.h ****     }
 864              		.loc 13 90 29 view .LVU146
 865 0032 2246     		mov	r2, r4
 866 0034 0021     		movs	r1, #0
 867 0036 0948     		ldr	r0, .L50+28
 868              	.LBE429:
  92:sampleengine.h **** 
 869              		.loc 13 92 1 view .LVU147
 870 0038 BDE81040 		pop	{r4, lr}
 871              		.cfi_restore 14
 872              		.cfi_restore 4
 873              		.cfi_def_cfa_offset 0
 874              	.LBB430:
  90:sampleengine.h ****     }
ARM GAS  /var/folders/m5/x8wc2gdj7z5cpgcqdsb_gkj40000gn/T//ccGxviRN.s 			page 37


 875              		.loc 13 90 29 view .LVU148
 876 003c FFF7FEBF 		b	memset
 877              	.LVL46:
 878              	.L51:
 879              		.align	2
 880              	.L50:
 881 0040 00000000 		.word	.LANCHOR6
 882 0044 00905F01 		.word	23040000
 883 0048 00983A00 		.word	3840000
 884 004c 00000000 		.word	recordingBuffer
 885 0050 00000000 		.word	spliceBufferOne
 886 0054 00000000 		.word	spliceBufferTwo
 887 0058 00000000 		.word	spliceBufferThree
 888 005c 00000000 		.word	spliceBufferFour
 889              	.LBE430:
 890              		.cfi_endproc
 891              	.LFE4689:
 893              		.section	.text._Z12RecordSamplef,"ax",%progbits
 894              		.align	1
 895              		.p2align 2,,3
 896              		.global	_Z12RecordSamplef
 897              		.syntax unified
 898              		.thumb
 899              		.thumb_func
 901              	_Z12RecordSamplef:
 902              	.LVL47:
 903              	.LFB4690:
  95:sampleengine.h ****     recordingBuffer[writeIndex] = sample;
 904              		.loc 13 95 1 is_stmt 1 view -0
 905              		.cfi_startproc
 906              		@ args = 0, pretend = 0, frame = 0
 907              		@ frame_needed = 0, uses_anonymous_args = 0
 908              		@ link register save eliminated.
  96:sampleengine.h ****     writeIndex++;
 909              		.loc 13 96 5 view .LVU150
  96:sampleengine.h ****     writeIndex++;
 910              		.loc 13 96 31 is_stmt 0 view .LVU151
 911 0000 0449     		ldr	r1, .L53
  96:sampleengine.h ****     writeIndex++;
 912              		.loc 13 96 33 view .LVU152
 913 0002 054A     		ldr	r2, .L53+4
  96:sampleengine.h ****     writeIndex++;
 914              		.loc 13 96 31 view .LVU153
 915 0004 0B68     		ldr	r3, [r1]
  96:sampleengine.h ****     writeIndex++;
 916              		.loc 13 96 33 view .LVU154
 917 0006 02EB8302 		add	r2, r2, r3, lsl #2
  97:sampleengine.h **** }
 918              		.loc 13 97 15 view .LVU155
 919 000a 0133     		adds	r3, r3, #1
  96:sampleengine.h ****     writeIndex++;
 920              		.loc 13 96 33 view .LVU156
 921 000c 82ED000A 		vstr.32	s0, [r2]
  97:sampleengine.h **** }
 922              		.loc 13 97 5 is_stmt 1 view .LVU157
  97:sampleengine.h **** }
 923              		.loc 13 97 15 is_stmt 0 view .LVU158
ARM GAS  /var/folders/m5/x8wc2gdj7z5cpgcqdsb_gkj40000gn/T//ccGxviRN.s 			page 38


 924 0010 0B60     		str	r3, [r1]
  98:sampleengine.h **** 
 925              		.loc 13 98 1 view .LVU159
 926 0012 7047     		bx	lr
 927              	.L54:
 928              		.align	2
 929              	.L53:
 930 0014 00000000 		.word	.LANCHOR11
 931 0018 00000000 		.word	recordingBuffer
 932              		.cfi_endproc
 933              	.LFE4690:
 935              		.section	.text._Z14ResetReadIndexv,"ax",%progbits
 936              		.align	1
 937              		.p2align 2,,3
 938              		.global	_Z14ResetReadIndexv
 939              		.syntax unified
 940              		.thumb
 941              		.thumb_func
 943              	_Z14ResetReadIndexv:
 944              	.LFB4691:
 101:sampleengine.h ****     readIndex = startPoint;
 945              		.loc 13 101 1 is_stmt 1 view -0
 946              		.cfi_startproc
 947              		@ args = 0, pretend = 0, frame = 0
 948              		@ frame_needed = 0, uses_anonymous_args = 0
 949              		@ link register save eliminated.
 102:sampleengine.h **** }
 950              		.loc 13 102 5 view .LVU161
 102:sampleengine.h **** }
 951              		.loc 13 102 15 is_stmt 0 view .LVU162
 952 0000 044A     		ldr	r2, .L56
 953 0002 054B     		ldr	r3, .L56+4
 954 0004 D2ED007A 		vldr.32	s15, [r2]	@ int
 955 0008 F8EE677A 		vcvt.f32.u32	s15, s15
 956 000c C3ED007A 		vstr.32	s15, [r3]
 103:sampleengine.h **** 
 957              		.loc 13 103 1 view .LVU163
 958 0010 7047     		bx	lr
 959              	.L57:
 960 0012 00BF     		.align	2
 961              	.L56:
 962 0014 00000000 		.word	.LANCHOR3
 963 0018 00000000 		.word	.LANCHOR6
 964              		.cfi_endproc
 965              	.LFE4691:
 967              		.section	.text._Z16AdvanceReadIndexv,"ax",%progbits
 968              		.align	1
 969              		.p2align 2,,3
 970              		.global	_Z16AdvanceReadIndexv
 971              		.syntax unified
 972              		.thumb
 973              		.thumb_func
 975              	_Z16AdvanceReadIndexv:
 976              	.LFB4692:
 106:sampleengine.h ****     readIndex += readFactor;
 977              		.loc 13 106 1 is_stmt 1 view -0
 978              		.cfi_startproc
ARM GAS  /var/folders/m5/x8wc2gdj7z5cpgcqdsb_gkj40000gn/T//ccGxviRN.s 			page 39


 979              		@ args = 0, pretend = 0, frame = 0
 980              		@ frame_needed = 0, uses_anonymous_args = 0
 981              		@ link register save eliminated.
 107:sampleengine.h **** 
 982              		.loc 13 107 5 view .LVU165
 107:sampleengine.h **** 
 983              		.loc 13 107 15 is_stmt 0 view .LVU166
 984 0000 0B4B     		ldr	r3, .L63
 985 0002 0C49     		ldr	r1, .L63+4
 109:sampleengine.h ****     {
 986              		.loc 13 109 18 view .LVU167
 987 0004 0C4A     		ldr	r2, .L63+8
 107:sampleengine.h **** 
 988              		.loc 13 107 15 view .LVU168
 989 0006 D3ED007A 		vldr.32	s15, [r3]
 990 000a D1ED006A 		vldr.32	s13, [r1]
 109:sampleengine.h ****     {
 991              		.loc 13 109 18 view .LVU169
 992 000e 92ED007A 		vldr.32	s14, [r2]	@ int
 107:sampleengine.h **** 
 993              		.loc 13 107 15 view .LVU170
 994 0012 77EEA67A 		vadd.f32	s15, s15, s13
 109:sampleengine.h ****     {
 995              		.loc 13 109 18 view .LVU171
 996 0016 B8EE477A 		vcvt.f32.u32	s14, s14
 107:sampleengine.h **** 
 997              		.loc 13 107 15 view .LVU172
 998 001a C3ED007A 		vstr.32	s15, [r3]
 109:sampleengine.h ****     {
 999              		.loc 13 109 5 is_stmt 1 view .LVU173
 1000 001e F4EEC77A 		vcmpe.f32	s15, s14
 1001 0022 F1EE10FA 		vmrs	APSR_nzcv, FPSCR
 1002 0026 01DB     		blt	.L62
 1003 0028 FFF7FEBF 		b	_Z16AdvanceReadIndexv.part.0
 1004              	.LVL48:
 1005              	.L62:
 116:sampleengine.h **** 
 1006              		.loc 13 116 1 is_stmt 0 view .LVU174
 1007 002c 7047     		bx	lr
 1008              	.L64:
 1009 002e 00BF     		.align	2
 1010              	.L63:
 1011 0030 00000000 		.word	.LANCHOR6
 1012 0034 00000000 		.word	.LANCHOR12
 1013 0038 00000000 		.word	.LANCHOR4
 1014              		.cfi_endproc
 1015              	.LFE4692:
 1017              		.section	.text._Z9GetSamplev,"ax",%progbits
 1018              		.align	1
 1019              		.p2align 2,,3
 1020              		.global	_Z9GetSamplev
 1021              		.syntax unified
 1022              		.thumb
 1023              		.thumb_func
 1025              	_Z9GetSamplev:
 1026              	.LFB4693:
 119:sampleengine.h ****     float a, b, out;
ARM GAS  /var/folders/m5/x8wc2gdj7z5cpgcqdsb_gkj40000gn/T//ccGxviRN.s 			page 40


 1027              		.loc 13 119 1 is_stmt 1 view -0
 1028              		.cfi_startproc
 1029              		@ args = 0, pretend = 0, frame = 0
 1030              		@ frame_needed = 0, uses_anonymous_args = 0
 1031              		@ link register save eliminated.
 120:sampleengine.h **** 
 1032              		.loc 13 120 5 view .LVU176
 122:sampleengine.h **** 	readIndexFraction = readIndex - readIndexInt;
 1033              		.loc 13 122 5 view .LVU177
 122:sampleengine.h **** 	readIndexFraction = readIndex - readIndexInt;
 1034              		.loc 13 122 20 is_stmt 0 view .LVU178
 1035 0000 0F4A     		ldr	r2, .L67
 125:sampleengine.h **** 	b = recordingBuffer[readIndexInt + 1]; // next sample
 1036              		.loc 13 125 4 view .LVU179
 1037 0002 104B     		ldr	r3, .L67+4
 122:sampleengine.h **** 	readIndexFraction = readIndex - readIndexInt;
 1038              		.loc 13 122 20 view .LVU180
 1039 0004 D2ED007A 		vldr.32	s15, [r2]
 123:sampleengine.h **** 
 1040              		.loc 13 123 20 view .LVU181
 1041 0008 0F49     		ldr	r1, .L67+8
 122:sampleengine.h **** 	readIndexFraction = readIndex - readIndexInt;
 1042              		.loc 13 122 20 view .LVU182
 1043 000a BDEEE77A 		vcvt.s32.f32	s14, s15
 119:sampleengine.h ****     float a, b, out;
 1044              		.loc 13 119 1 view .LVU183
 1045 000e 10B4     		push	{r4}
 1046              		.cfi_def_cfa_offset 4
 1047              		.cfi_offset 4, -4
 122:sampleengine.h **** 	readIndexFraction = readIndex - readIndexInt;
 1048              		.loc 13 122 20 view .LVU184
 1049 0010 17EE102A 		vmov	r2, s14	@ int
 122:sampleengine.h **** 	readIndexFraction = readIndex - readIndexInt;
 1050              		.loc 13 122 18 view .LVU185
 1051 0014 0D4C     		ldr	r4, .L67+12
 123:sampleengine.h **** 
 1052              		.loc 13 123 32 view .LVU186
 1053 0016 F8EE476A 		vcvt.f32.u32	s13, s14
 125:sampleengine.h **** 	b = recordingBuffer[readIndexInt + 1]; // next sample
 1054              		.loc 13 125 4 view .LVU187
 1055 001a 03EB8200 		add	r0, r3, r2, lsl #2
 122:sampleengine.h **** 	readIndexFraction = readIndex - readIndexInt;
 1056              		.loc 13 122 18 view .LVU188
 1057 001e 84ED007A 		vstr.32	s14, [r4]	@ int
 123:sampleengine.h **** 
 1058              		.loc 13 123 2 is_stmt 1 view .LVU189
 130:sampleengine.h **** 
 1059              		.loc 13 130 1 is_stmt 0 view .LVU190
 1060 0022 5DF8044B 		ldr	r4, [sp], #4
 1061              		.cfi_restore 4
 1062              		.cfi_def_cfa_offset 0
 125:sampleengine.h **** 	b = recordingBuffer[readIndexInt + 1]; // next sample
 1063              		.loc 13 125 4 view .LVU191
 1064 0026 90ED000A 		vldr.32	s0, [r0]
 123:sampleengine.h **** 
 1065              		.loc 13 123 32 view .LVU192
 1066 002a 77EEE67A 		vsub.f32	s15, s15, s13
ARM GAS  /var/folders/m5/x8wc2gdj7z5cpgcqdsb_gkj40000gn/T//ccGxviRN.s 			page 41


 127:sampleengine.h **** 
 1067              		.loc 13 127 15 view .LVU193
 1068 002e 90ED017A 		vldr.32	s14, [r0, #4]
 1069 0032 37EE407A 		vsub.f32	s14, s14, s0
 123:sampleengine.h **** 
 1070              		.loc 13 123 20 view .LVU194
 1071 0036 C1ED007A 		vstr.32	s15, [r1]
 125:sampleengine.h **** 	b = recordingBuffer[readIndexInt + 1]; // next sample
 1072              		.loc 13 125 2 is_stmt 1 view .LVU195
 1073              	.LVL49:
 126:sampleengine.h **** 	out = a + (b - a) * readIndexFraction; // Linear Interpolation
 1074              		.loc 13 126 2 view .LVU196
 127:sampleengine.h **** 
 1075              		.loc 13 127 2 view .LVU197
 129:sampleengine.h **** }
 1076              		.loc 13 129 5 view .LVU198
 130:sampleengine.h **** 
 1077              		.loc 13 130 1 is_stmt 0 view .LVU199
 1078 003a A7EE870A 		vfma.f32	s0, s15, s14
 1079              	.LVL50:
 130:sampleengine.h **** 
 1080              		.loc 13 130 1 view .LVU200
 1081 003e 7047     		bx	lr
 1082              	.L68:
 1083              		.align	2
 1084              	.L67:
 1085 0040 00000000 		.word	.LANCHOR6
 1086 0044 00000000 		.word	recordingBuffer
 1087 0048 00000000 		.word	.LANCHOR14
 1088 004c 00000000 		.word	.LANCHOR13
 1089              		.cfi_endproc
 1090              	.LFE4693:
 1092              		.section	.text._Z19FullSampleGetSamplev,"ax",%progbits
 1093              		.align	1
 1094              		.p2align 2,,3
 1095              		.global	_Z19FullSampleGetSamplev
 1096              		.syntax unified
 1097              		.thumb
 1098              		.thumb_func
 1100              	_Z19FullSampleGetSamplev:
 1101              	.LFB4694:
 133:sampleengine.h ****     fullSampleReadIndex += readFactor;
 1102              		.loc 13 133 1 is_stmt 1 view -0
 1103              		.cfi_startproc
 1104              		@ args = 0, pretend = 0, frame = 0
 1105              		@ frame_needed = 0, uses_anonymous_args = 0
 1106              		@ link register save eliminated.
 134:sampleengine.h ****     if(fullSampleReadIndex > recordingLength) 
 1107              		.loc 13 134 5 view .LVU202
 134:sampleengine.h ****     if(fullSampleReadIndex > recordingLength) 
 1108              		.loc 13 134 25 is_stmt 0 view .LVU203
 1109 0000 1D4B     		ldr	r3, .L73
 1110 0002 1E49     		ldr	r1, .L73+4
 135:sampleengine.h ****     {
 1111              		.loc 13 135 28 view .LVU204
 1112 0004 1E4A     		ldr	r2, .L73+8
 134:sampleengine.h ****     if(fullSampleReadIndex > recordingLength) 
ARM GAS  /var/folders/m5/x8wc2gdj7z5cpgcqdsb_gkj40000gn/T//ccGxviRN.s 			page 42


 1113              		.loc 13 134 25 view .LVU205
 1114 0006 D3ED007A 		vldr.32	s15, [r3]
 1115 000a D1ED006A 		vldr.32	s13, [r1]
 135:sampleengine.h ****     {
 1116              		.loc 13 135 28 view .LVU206
 1117 000e 92ED007A 		vldr.32	s14, [r2]	@ int
 134:sampleengine.h ****     if(fullSampleReadIndex > recordingLength) 
 1118              		.loc 13 134 25 view .LVU207
 1119 0012 77EEA67A 		vadd.f32	s15, s15, s13
 135:sampleengine.h ****     {
 1120              		.loc 13 135 28 view .LVU208
 1121 0016 B8EE477A 		vcvt.f32.u32	s14, s14
 133:sampleengine.h ****     fullSampleReadIndex += readFactor;
 1122              		.loc 13 133 1 view .LVU209
 1123 001a 10B4     		push	{r4}
 1124              		.cfi_def_cfa_offset 4
 1125              		.cfi_offset 4, -4
 135:sampleengine.h ****     {
 1126              		.loc 13 135 5 view .LVU210
 1127 001c F4EEC77A 		vcmpe.f32	s15, s14
 134:sampleengine.h ****     if(fullSampleReadIndex > recordingLength) 
 1128              		.loc 13 134 25 view .LVU211
 1129 0020 C3ED007A 		vstr.32	s15, [r3]
 135:sampleengine.h ****     {
 1130              		.loc 13 135 5 is_stmt 1 view .LVU212
 1131 0024 F1EE10FA 		vmrs	APSR_nzcv, FPSCR
 1132 0028 1DDC     		bgt	.L70
 141:sampleengine.h ****     fullSampleReadIndexFraction = fullSampleReadIndex - fullSampleReadIndexInt;
 1133              		.loc 13 141 30 is_stmt 0 view .LVU213
 1134 002a BDEEE77A 		vcvt.s32.f32	s14, s15
 1135 002e 17EE101A 		vmov	r1, s14	@ int
 142:sampleengine.h ****     a = recordingBuffer[fullSampleReadIndexInt]; // current sample
 1136              		.loc 13 142 55 view .LVU214
 1137 0032 B8EE477A 		vcvt.f32.u32	s14, s14
 144:sampleengine.h ****     out = a + (b - a) * fullSampleReadIndexFraction; // Linear Interpolation
 1138              		.loc 13 144 48 view .LVU215
 1139 0036 4A1C     		adds	r2, r1, #1
 142:sampleengine.h ****     a = recordingBuffer[fullSampleReadIndexInt]; // current sample
 1140              		.loc 13 142 55 view .LVU216
 1141 0038 77EEC77A 		vsub.f32	s15, s15, s14
 1142              	.L71:
 140:sampleengine.h ****     fullSampleReadIndexInt = static_cast<int32_t>(fullSampleReadIndex);
 1143              		.loc 13 140 5 is_stmt 1 view .LVU217
 141:sampleengine.h ****     fullSampleReadIndexFraction = fullSampleReadIndex - fullSampleReadIndexInt;
 1144              		.loc 13 141 5 view .LVU218
 143:sampleengine.h ****     b = recordingBuffer[fullSampleReadIndexInt + 1]; // next sample
 1145              		.loc 13 143 7 is_stmt 0 view .LVU219
 1146 003c 114B     		ldr	r3, .L73+12
 141:sampleengine.h ****     fullSampleReadIndexFraction = fullSampleReadIndex - fullSampleReadIndexInt;
 1147              		.loc 13 141 28 view .LVU220
 1148 003e 124C     		ldr	r4, .L73+16
 144:sampleengine.h ****     out = a + (b - a) * fullSampleReadIndexFraction; // Linear Interpolation
 1149              		.loc 13 144 7 view .LVU221
 1150 0040 03EB8202 		add	r2, r3, r2, lsl #2
 142:sampleengine.h ****     a = recordingBuffer[fullSampleReadIndexInt]; // current sample
 1151              		.loc 13 142 33 view .LVU222
 1152 0044 1148     		ldr	r0, .L73+20
ARM GAS  /var/folders/m5/x8wc2gdj7z5cpgcqdsb_gkj40000gn/T//ccGxviRN.s 			page 43


 143:sampleengine.h ****     b = recordingBuffer[fullSampleReadIndexInt + 1]; // next sample
 1153              		.loc 13 143 7 view .LVU223
 1154 0046 03EB8103 		add	r3, r3, r1, lsl #2
 141:sampleengine.h ****     fullSampleReadIndexFraction = fullSampleReadIndex - fullSampleReadIndexInt;
 1155              		.loc 13 141 28 view .LVU224
 1156 004a 2160     		str	r1, [r4]
 142:sampleengine.h ****     a = recordingBuffer[fullSampleReadIndexInt]; // current sample
 1157              		.loc 13 142 5 is_stmt 1 view .LVU225
 145:sampleengine.h **** 
 1158              		.loc 13 145 18 is_stmt 0 view .LVU226
 1159 004c 92ED007A 		vldr.32	s14, [r2]
 143:sampleengine.h ****     b = recordingBuffer[fullSampleReadIndexInt + 1]; // next sample
 1160              		.loc 13 143 7 view .LVU227
 1161 0050 93ED000A 		vldr.32	s0, [r3]
 148:sampleengine.h **** 
 1162              		.loc 13 148 1 view .LVU228
 1163 0054 5DF8044B 		ldr	r4, [sp], #4
 1164              		.cfi_remember_state
 1165              		.cfi_restore 4
 1166              		.cfi_def_cfa_offset 0
 145:sampleengine.h **** 
 1167              		.loc 13 145 18 view .LVU229
 1168 0058 37EE407A 		vsub.f32	s14, s14, s0
 142:sampleengine.h ****     a = recordingBuffer[fullSampleReadIndexInt]; // current sample
 1169              		.loc 13 142 33 view .LVU230
 1170 005c C0ED007A 		vstr.32	s15, [r0]
 143:sampleengine.h ****     b = recordingBuffer[fullSampleReadIndexInt + 1]; // next sample
 1171              		.loc 13 143 5 is_stmt 1 view .LVU231
 1172              	.LVL51:
 144:sampleengine.h ****     out = a + (b - a) * fullSampleReadIndexFraction; // Linear Interpolation
 1173              		.loc 13 144 5 view .LVU232
 145:sampleengine.h **** 
 1174              		.loc 13 145 5 view .LVU233
 147:sampleengine.h **** }
 1175              		.loc 13 147 5 view .LVU234
 148:sampleengine.h **** 
 1176              		.loc 13 148 1 is_stmt 0 view .LVU235
 1177 0060 A7EE270A 		vfma.f32	s0, s14, s15
 1178              	.LVL52:
 148:sampleengine.h **** 
 1179              		.loc 13 148 1 view .LVU236
 1180 0064 7047     		bx	lr
 1181              	.LVL53:
 1182              	.L70:
 1183              		.cfi_restore_state
 137:sampleengine.h ****     }
 1184              		.loc 13 137 9 is_stmt 1 view .LVU237
 137:sampleengine.h ****     }
 1185              		.loc 13 137 29 is_stmt 0 view .LVU238
 1186 0066 9FED0A7A 		vldr.32	s14, .L73+24
 1187 006a 0122     		movs	r2, #1
 1188 006c 0021     		movs	r1, #0
 1189 006e F0EE477A 		vmov.f32	s15, s14
 1190 0072 83ED007A 		vstr.32	s14, [r3]
 1191 0076 E1E7     		b	.L71
 1192              	.L74:
 1193              		.align	2
ARM GAS  /var/folders/m5/x8wc2gdj7z5cpgcqdsb_gkj40000gn/T//ccGxviRN.s 			page 44


 1194              	.L73:
 1195 0078 00000000 		.word	.LANCHOR15
 1196 007c 00000000 		.word	.LANCHOR12
 1197 0080 00000000 		.word	.LANCHOR16
 1198 0084 00000000 		.word	recordingBuffer
 1199 0088 00000000 		.word	.LANCHOR17
 1200 008c 00000000 		.word	.LANCHOR18
 1201 0090 00000000 		.word	0
 1202              		.cfi_endproc
 1203              	.LFE4694:
 1205              		.section	.text._Z21SpliceBufferGetSampleiii,"ax",%progbits
 1206              		.align	1
 1207              		.p2align 2,,3
 1208              		.global	_Z21SpliceBufferGetSampleiii
 1209              		.syntax unified
 1210              		.thumb
 1211              		.thumb_func
 1213              	_Z21SpliceBufferGetSampleiii:
 1214              	.LVL54:
 1215              	.LFB4695:
 151:sampleengine.h ****     float a, b, out = 0;
 1216              		.loc 13 151 1 is_stmt 1 view -0
 1217              		.cfi_startproc
 1218              		@ args = 0, pretend = 0, frame = 0
 1219              		@ frame_needed = 0, uses_anonymous_args = 0
 152:sampleengine.h ****     if(currentBuffer == 1)
 1220              		.loc 13 152 5 view .LVU240
 153:sampleengine.h ****     {
 1221              		.loc 13 153 5 view .LVU241
 1222              	.LBB431:
 1223 0000 0128     		cmp	r0, #1
 1224              	.LBE431:
 151:sampleengine.h ****     float a, b, out = 0;
 1225              		.loc 13 151 1 is_stmt 0 view .LVU242
 1226 0002 10B5     		push	{r4, lr}
 1227              		.cfi_def_cfa_offset 8
 1228              		.cfi_offset 4, -8
 1229              		.cfi_offset 14, -4
 1230              	.LBB504:
 153:sampleengine.h ****     {
 1231              		.loc 13 153 5 view .LVU243
 1232 0004 27D0     		beq	.L103
 1233              	.LBE504:
 177:sampleengine.h ****     {
 1234              		.loc 13 177 10 is_stmt 1 view .LVU244
 1235              	.LBB505:
 1236              	.LBB432:
 1237 0006 0228     		cmp	r0, #2
 1238 0008 07D0     		beq	.L104
 1239              	.LBE432:
 1240              	.LBE505:
 201:sampleengine.h ****     {
 1241              		.loc 13 201 10 view .LVU245
 1242              	.LBB506:
 1243              	.LBB482:
 1244              	.LBB433:
 1245 000a 0328     		cmp	r0, #3
ARM GAS  /var/folders/m5/x8wc2gdj7z5cpgcqdsb_gkj40000gn/T//ccGxviRN.s 			page 45


 1246 000c 00F08C80 		beq	.L105
 1247              	.LBE433:
 1248              	.LBE482:
 1249              	.LBE506:
 225:sampleengine.h ****     {
 1250              		.loc 13 225 10 view .LVU246
 1251              	.LBB507:
 1252              	.LBB483:
 1253              	.LBB462:
 1254              	.LBB434:
 1255 0010 0428     		cmp	r0, #4
 1256 0012 63D0     		beq	.L106
 1257              	.LBE434:
 1258              	.LBE462:
 1259              	.LBE483:
 1260              	.LBE507:
 152:sampleengine.h ****     if(currentBuffer == 1)
 1261              		.loc 13 152 17 is_stmt 0 view .LVU247
 1262 0014 9FEDA10A 		vldr.32	s0, .L110
 250:sampleengine.h **** }
 1263              		.loc 13 250 5 is_stmt 1 view .LVU248
 251:sampleengine.h **** 
 1264              		.loc 13 251 1 is_stmt 0 view .LVU249
 1265 0018 10BD     		pop	{r4, pc}
 1266              	.L104:
 1267              	.LBB508:
 1268              	.LBB484:
 1269              	.LBB463:
 179:sampleengine.h ****         {
 1270              		.loc 13 179 9 is_stmt 1 view .LVU250
 1271              	.LBB464:
 1272 001a 0029     		cmp	r1, #0
 1273 001c 53D0     		beq	.L107
 1274              	.LBE464:
 1275              	.LBE463:
 1276              	.LBE484:
 1277              	.LBE508:
 183:sampleengine.h ****         {
 1278              		.loc 13 183 14 view .LVU251
 1279              	.LBB509:
 1280              	.LBB485:
 1281              	.LBB471:
 1282              	.LBB468:
 1283              	.LBB465:
 1284 001e 0129     		cmp	r1, #1
 1285 0020 00F0EA80 		beq	.L86
 1286              	.LBE465:
 1287              	.LBE468:
 190:sampleengine.h ****         {
 1288              		.loc 13 190 34 is_stmt 0 view .LVU252
 1289 0024 9E4B     		ldr	r3, .L110+4
 1290 0026 D3ED007A 		vldr.32	s15, [r3]
 1291              	.LVL55:
 1292              	.L85:
 190:sampleengine.h ****         {
 1293              		.loc 13 190 9 is_stmt 1 view .LVU253
 190:sampleengine.h ****         {
ARM GAS  /var/folders/m5/x8wc2gdj7z5cpgcqdsb_gkj40000gn/T//ccGxviRN.s 			page 46


 1294              		.loc 13 190 34 is_stmt 0 view .LVU254
 1295 002a 9E4A     		ldr	r2, .L110+8
 1296 002c 92ED007A 		vldr.32	s14, [r2]	@ int
 1297 0030 B8EE477A 		vcvt.f32.u32	s14, s14
 190:sampleengine.h ****         {
 1298              		.loc 13 190 9 view .LVU255
 1299 0034 B4EEE77A 		vcmpe.f32	s14, s15
 1300 0038 F1EE10FA 		vmrs	APSR_nzcv, FPSCR
 1301 003c 00F19480 		bmi	.L87
 195:sampleengine.h ****         spliceBufferReadIndexFraction = spliceBufferReadIndex - spliceBufferReadIndexInt;
 1302              		.loc 13 195 36 view .LVU256
 1303 0040 BDEEE77A 		vcvt.s32.f32	s14, s15
 1304 0044 17EE101A 		vmov	r1, s14	@ int
 196:sampleengine.h ****         a = spliceBufferTwo[spliceBufferReadIndexInt]; // current sample
 1305              		.loc 13 196 63 view .LVU257
 1306 0048 B8EE477A 		vcvt.f32.u32	s14, s14
 198:sampleengine.h ****         out = a + (b - a) * spliceBufferReadIndexFraction; // Linear Interpolation
 1307              		.loc 13 198 54 view .LVU258
 1308 004c 4A1C     		adds	r2, r1, #1
 196:sampleengine.h ****         a = spliceBufferTwo[spliceBufferReadIndexInt]; // current sample
 1309              		.loc 13 196 63 view .LVU259
 1310 004e 77EEC77A 		vsub.f32	s15, s15, s14
 1311              	.L88:
 195:sampleengine.h ****         spliceBufferReadIndexFraction = spliceBufferReadIndex - spliceBufferReadIndexInt;
 1312              		.loc 13 195 9 is_stmt 1 view .LVU260
 197:sampleengine.h ****         b = spliceBufferTwo[spliceBufferReadIndexInt + 1]; // next sample
 1313              		.loc 13 197 11 is_stmt 0 view .LVU261
 1314 0052 954B     		ldr	r3, .L110+12
 1315 0054 1AE0     		b	.L102
 1316              	.LVL56:
 1317              	.L103:
 197:sampleengine.h ****         b = spliceBufferTwo[spliceBufferReadIndexInt + 1]; // next sample
 1318              		.loc 13 197 11 view .LVU262
 1319              	.LBE471:
 1320              	.LBE485:
 1321              	.LBB486:
 155:sampleengine.h ****         {
 1322              		.loc 13 155 9 is_stmt 1 view .LVU263
 1323              	.LBB487:
 1324 0056 59B3     		cbz	r1, .L108
 1325              	.LBE487:
 1326              	.LBE486:
 1327              	.LBE509:
 159:sampleengine.h ****         {
 1328              		.loc 13 159 14 view .LVU264
 1329              	.LBB510:
 1330              	.LBB494:
 1331              	.LBB491:
 1332              	.LBB488:
 1333 0058 0129     		cmp	r1, #1
 1334 005a 00F0B180 		beq	.L79
 1335              	.LBE488:
 1336              	.LBE491:
 166:sampleengine.h ****         {
 1337              		.loc 13 166 34 is_stmt 0 view .LVU265
 1338 005e 904B     		ldr	r3, .L110+4
 1339 0060 D3ED007A 		vldr.32	s15, [r3]
ARM GAS  /var/folders/m5/x8wc2gdj7z5cpgcqdsb_gkj40000gn/T//ccGxviRN.s 			page 47


 1340              	.LVL57:
 1341              	.L78:
 166:sampleengine.h ****         {
 1342              		.loc 13 166 9 is_stmt 1 view .LVU266
 166:sampleengine.h ****         {
 1343              		.loc 13 166 34 is_stmt 0 view .LVU267
 1344 0064 914A     		ldr	r2, .L110+16
 1345 0066 92ED007A 		vldr.32	s14, [r2]	@ int
 1346 006a B8EE477A 		vcvt.f32.u32	s14, s14
 166:sampleengine.h ****         {
 1347              		.loc 13 166 9 view .LVU268
 1348 006e B4EEE77A 		vcmpe.f32	s14, s15
 1349 0072 F1EE10FA 		vmrs	APSR_nzcv, FPSCR
 1350 0076 4ED4     		bmi	.L80
 171:sampleengine.h ****         spliceBufferReadIndexFraction = spliceBufferReadIndex - spliceBufferReadIndexInt;
 1351              		.loc 13 171 36 view .LVU269
 1352 0078 BDEEE77A 		vcvt.s32.f32	s14, s15
 1353 007c 17EE101A 		vmov	r1, s14	@ int
 172:sampleengine.h ****         a = spliceBufferOne[spliceBufferReadIndexInt]; // current sample
 1354              		.loc 13 172 63 view .LVU270
 1355 0080 B8EE477A 		vcvt.f32.u32	s14, s14
 174:sampleengine.h ****         out = a + (b - a) * spliceBufferReadIndexFraction; // Linear Interpolation
 1356              		.loc 13 174 54 view .LVU271
 1357 0084 4A1C     		adds	r2, r1, #1
 172:sampleengine.h ****         a = spliceBufferOne[spliceBufferReadIndexInt]; // current sample
 1358              		.loc 13 172 63 view .LVU272
 1359 0086 77EEC77A 		vsub.f32	s15, s15, s14
 1360              	.L81:
 171:sampleengine.h ****         spliceBufferReadIndexFraction = spliceBufferReadIndex - spliceBufferReadIndexInt;
 1361              		.loc 13 171 9 is_stmt 1 view .LVU273
 173:sampleengine.h ****         b = spliceBufferOne[spliceBufferReadIndexInt + 1]; // next sample
 1362              		.loc 13 173 11 is_stmt 0 view .LVU274
 1363 008a 894B     		ldr	r3, .L110+20
 1364              	.L102:
 1365              	.LBE494:
 1366              	.LBB495:
 1367              	.LBB472:
 1368              	.LBB447:
 1369              	.LBB435:
 246:sampleengine.h ****         out = a + (b - a) * spliceBufferReadIndexFraction; // Linear Interpolation
 1370              		.loc 13 246 11 view .LVU275
 1371 008c 03EB8202 		add	r2, r3, r2, lsl #2
 244:sampleengine.h ****         a = spliceBufferFour[spliceBufferReadIndexInt]; // current sample
 1372              		.loc 13 244 39 view .LVU276
 1373 0090 8848     		ldr	r0, .L110+24
 245:sampleengine.h ****         b = spliceBufferFour[spliceBufferReadIndexInt + 1]; // next sample
 1374              		.loc 13 245 11 view .LVU277
 1375 0092 03EB8103 		add	r3, r3, r1, lsl #2
 243:sampleengine.h ****         spliceBufferReadIndexFraction = spliceBufferReadIndex - spliceBufferReadIndexInt;
 1376              		.loc 13 243 34 view .LVU278
 1377 0096 884C     		ldr	r4, .L110+28
 244:sampleengine.h ****         a = spliceBufferFour[spliceBufferReadIndexInt]; // current sample
 1378              		.loc 13 244 39 view .LVU279
 1379 0098 C0ED007A 		vstr.32	s15, [r0]
 245:sampleengine.h ****         b = spliceBufferFour[spliceBufferReadIndexInt + 1]; // next sample
 1380              		.loc 13 245 11 view .LVU280
 1381 009c 93ED000A 		vldr.32	s0, [r3]
ARM GAS  /var/folders/m5/x8wc2gdj7z5cpgcqdsb_gkj40000gn/T//ccGxviRN.s 			page 48


 247:sampleengine.h ****     }
 1382              		.loc 13 247 22 view .LVU281
 1383 00a0 92ED007A 		vldr.32	s14, [r2]
 243:sampleengine.h ****         spliceBufferReadIndexFraction = spliceBufferReadIndex - spliceBufferReadIndexInt;
 1384              		.loc 13 243 34 view .LVU282
 1385 00a4 2160     		str	r1, [r4]
 244:sampleengine.h ****         a = spliceBufferFour[spliceBufferReadIndexInt]; // current sample
 1386              		.loc 13 244 9 is_stmt 1 view .LVU283
 245:sampleengine.h ****         b = spliceBufferFour[spliceBufferReadIndexInt + 1]; // next sample
 1387              		.loc 13 245 9 view .LVU284
 1388              	.LVL58:
 246:sampleengine.h ****         out = a + (b - a) * spliceBufferReadIndexFraction; // Linear Interpolation
 1389              		.loc 13 246 9 view .LVU285
 247:sampleengine.h ****     }
 1390              		.loc 13 247 9 view .LVU286
 247:sampleengine.h ****     }
 1391              		.loc 13 247 22 is_stmt 0 view .LVU287
 1392 00a6 37EE407A 		vsub.f32	s14, s14, s0
 247:sampleengine.h ****     }
 1393              		.loc 13 247 13 view .LVU288
 1394 00aa A7EE270A 		vfma.f32	s0, s14, s15
 1395              	.LVL59:
 247:sampleengine.h ****     }
 1396              		.loc 13 247 13 view .LVU289
 1397              	.LBE435:
 1398              	.LBE447:
 1399              	.LBE472:
 1400              	.LBE495:
 1401              	.LBE510:
 251:sampleengine.h **** 
 1402              		.loc 13 251 1 view .LVU290
 1403 00ae 10BD     		pop	{r4, pc}
 1404              	.LVL60:
 1405              	.L108:
 1406              	.LBB511:
 1407              	.LBB496:
 1408              	.LBB492:
 157:sampleengine.h ****         }
 1409              		.loc 13 157 13 is_stmt 1 view .LVU291
 157:sampleengine.h ****         }
 1410              		.loc 13 157 35 is_stmt 0 view .LVU292
 1411 00b0 7B4B     		ldr	r3, .L110+4
 1412 00b2 824A     		ldr	r2, .L110+32
 1413              	.LVL61:
 157:sampleengine.h ****         }
 1414              		.loc 13 157 35 view .LVU293
 1415 00b4 D3ED007A 		vldr.32	s15, [r3]
 1416 00b8 92ED007A 		vldr.32	s14, [r2]
 1417 00bc 77EE877A 		vadd.f32	s15, s15, s14
 1418 00c0 C3ED007A 		vstr.32	s15, [r3]
 1419 00c4 CEE7     		b	.L78
 1420              	.LVL62:
 1421              	.L107:
 157:sampleengine.h ****         }
 1422              		.loc 13 157 35 view .LVU294
 1423              	.LBE492:
 1424              	.LBE496:
ARM GAS  /var/folders/m5/x8wc2gdj7z5cpgcqdsb_gkj40000gn/T//ccGxviRN.s 			page 49


 1425              	.LBB497:
 1426              	.LBB473:
 1427              	.LBB469:
 181:sampleengine.h ****         }
 1428              		.loc 13 181 13 is_stmt 1 view .LVU295
 181:sampleengine.h ****         }
 1429              		.loc 13 181 35 is_stmt 0 view .LVU296
 1430 00c6 764B     		ldr	r3, .L110+4
 1431 00c8 7C4A     		ldr	r2, .L110+32
 1432              	.LVL63:
 181:sampleengine.h ****         }
 1433              		.loc 13 181 35 view .LVU297
 1434 00ca D3ED007A 		vldr.32	s15, [r3]
 1435 00ce 92ED007A 		vldr.32	s14, [r2]
 1436 00d2 77EE877A 		vadd.f32	s15, s15, s14
 1437 00d6 C3ED007A 		vstr.32	s15, [r3]
 1438 00da A6E7     		b	.L85
 1439              	.LVL64:
 1440              	.L106:
 181:sampleengine.h ****         }
 1441              		.loc 13 181 35 view .LVU298
 1442              	.LBE469:
 1443              	.LBE473:
 1444              	.LBB474:
 1445              	.LBB448:
 1446              	.LBB443:
 227:sampleengine.h ****         {
 1447              		.loc 13 227 9 is_stmt 1 view .LVU299
 1448              	.LBB436:
 1449 00dc 0029     		cmp	r1, #0
 1450 00de 5BD0     		beq	.L109
 1451              	.LBE436:
 1452              	.LBE443:
 1453              	.LBE448:
 1454              	.LBE474:
 1455              	.LBE497:
 1456              	.LBE511:
 231:sampleengine.h ****         {
 1457              		.loc 13 231 14 view .LVU300
 1458              	.LBB512:
 1459              	.LBB498:
 1460              	.LBB475:
 1461              	.LBB449:
 1462              	.LBB444:
 1463              	.LBB440:
 1464              	.LBB437:
 1465 00e0 0129     		cmp	r1, #1
 1466 00e2 00F0BF80 		beq	.L97
 1467              	.LBE437:
 1468              	.LBE440:
 238:sampleengine.h ****         {
 1469              		.loc 13 238 34 is_stmt 0 view .LVU301
 1470 00e6 6E4B     		ldr	r3, .L110+4
 1471 00e8 D3ED007A 		vldr.32	s15, [r3]
 1472              	.LVL65:
 1473              	.L96:
 238:sampleengine.h ****         {
ARM GAS  /var/folders/m5/x8wc2gdj7z5cpgcqdsb_gkj40000gn/T//ccGxviRN.s 			page 50


 1474              		.loc 13 238 9 is_stmt 1 view .LVU302
 238:sampleengine.h ****         {
 1475              		.loc 13 238 34 is_stmt 0 view .LVU303
 1476 00ec 744A     		ldr	r2, .L110+36
 1477 00ee 92ED007A 		vldr.32	s14, [r2]	@ int
 1478 00f2 B8EE477A 		vcvt.f32.u32	s14, s14
 238:sampleengine.h ****         {
 1479              		.loc 13 238 9 view .LVU304
 1480 00f6 B4EEE77A 		vcmpe.f32	s14, s15
 1481 00fa F1EE10FA 		vmrs	APSR_nzcv, FPSCR
 1482 00fe 56D4     		bmi	.L98
 243:sampleengine.h ****         spliceBufferReadIndexFraction = spliceBufferReadIndex - spliceBufferReadIndexInt;
 1483              		.loc 13 243 36 view .LVU305
 1484 0100 BDEEE77A 		vcvt.s32.f32	s14, s15
 1485 0104 17EE101A 		vmov	r1, s14	@ int
 244:sampleengine.h ****         a = spliceBufferFour[spliceBufferReadIndexInt]; // current sample
 1486              		.loc 13 244 63 view .LVU306
 1487 0108 B8EE477A 		vcvt.f32.u32	s14, s14
 246:sampleengine.h ****         out = a + (b - a) * spliceBufferReadIndexFraction; // Linear Interpolation
 1488              		.loc 13 246 55 view .LVU307
 1489 010c 4A1C     		adds	r2, r1, #1
 244:sampleengine.h ****         a = spliceBufferFour[spliceBufferReadIndexInt]; // current sample
 1490              		.loc 13 244 63 view .LVU308
 1491 010e 77EEC77A 		vsub.f32	s15, s15, s14
 1492              	.L99:
 243:sampleengine.h ****         spliceBufferReadIndexFraction = spliceBufferReadIndex - spliceBufferReadIndexInt;
 1493              		.loc 13 243 9 is_stmt 1 view .LVU309
 245:sampleengine.h ****         b = spliceBufferFour[spliceBufferReadIndexInt + 1]; // next sample
 1494              		.loc 13 245 11 is_stmt 0 view .LVU310
 1495 0112 6C4B     		ldr	r3, .L110+40
 1496 0114 BAE7     		b	.L102
 1497              	.L80:
 1498              	.LBE444:
 1499              	.LBE449:
 1500              	.LBE475:
 1501              	.LBE498:
 1502              	.LBB499:
 168:sampleengine.h ****         }
 1503              		.loc 13 168 13 is_stmt 1 view .LVU311
 168:sampleengine.h ****         }
 1504              		.loc 13 168 35 is_stmt 0 view .LVU312
 1505 0116 9FED617A 		vldr.32	s14, .L110
 1506 011a 0122     		movs	r2, #1
 1507 011c 0021     		movs	r1, #0
 1508 011e F0EE477A 		vmov.f32	s15, s14
 1509 0122 83ED007A 		vstr.32	s14, [r3]
 1510 0126 B0E7     		b	.L81
 1511              	.LVL66:
 1512              	.L105:
 168:sampleengine.h ****         }
 1513              		.loc 13 168 35 view .LVU313
 1514              	.LBE499:
 1515              	.LBB500:
 1516              	.LBB476:
 1517              	.LBB450:
 203:sampleengine.h ****         {
 1518              		.loc 13 203 9 is_stmt 1 view .LVU314
ARM GAS  /var/folders/m5/x8wc2gdj7z5cpgcqdsb_gkj40000gn/T//ccGxviRN.s 			page 51


 1519              	.LBB451:
 1520 0128 81BB     		cbnz	r1, .L90
 205:sampleengine.h ****         }
 1521              		.loc 13 205 13 view .LVU315
 205:sampleengine.h ****         }
 1522              		.loc 13 205 35 is_stmt 0 view .LVU316
 1523 012a 5D4B     		ldr	r3, .L110+4
 1524 012c 634A     		ldr	r2, .L110+32
 1525              	.LVL67:
 205:sampleengine.h ****         }
 1526              		.loc 13 205 35 view .LVU317
 1527 012e D3ED007A 		vldr.32	s15, [r3]
 1528 0132 92ED007A 		vldr.32	s14, [r2]
 1529 0136 77EE877A 		vadd.f32	s15, s15, s14
 1530 013a C3ED007A 		vstr.32	s15, [r3]
 1531              	.LVL68:
 1532              	.L91:
 205:sampleengine.h ****         }
 1533              		.loc 13 205 35 view .LVU318
 1534              	.LBE451:
 214:sampleengine.h ****         {
 1535              		.loc 13 214 9 is_stmt 1 view .LVU319
 214:sampleengine.h ****         {
 1536              		.loc 13 214 34 is_stmt 0 view .LVU320
 1537 013e 624A     		ldr	r2, .L110+44
 1538 0140 92ED007A 		vldr.32	s14, [r2]	@ int
 1539 0144 B8EE477A 		vcvt.f32.u32	s14, s14
 214:sampleengine.h ****         {
 1540              		.loc 13 214 9 view .LVU321
 1541 0148 B4EEE77A 		vcmpe.f32	s14, s15
 1542 014c F1EE10FA 		vmrs	APSR_nzcv, FPSCR
 1543 0150 13D4     		bmi	.L93
 219:sampleengine.h ****         spliceBufferReadIndexFraction = spliceBufferReadIndex - spliceBufferReadIndexInt;
 1544              		.loc 13 219 36 view .LVU322
 1545 0152 BDEEE77A 		vcvt.s32.f32	s14, s15
 1546 0156 17EE101A 		vmov	r1, s14	@ int
 220:sampleengine.h ****         a = spliceBufferThree[spliceBufferReadIndexInt]; // current sample
 1547              		.loc 13 220 63 view .LVU323
 1548 015a B8EE477A 		vcvt.f32.u32	s14, s14
 222:sampleengine.h ****         out = a + (b - a) * spliceBufferReadIndexFraction; // Linear Interpolation
 1549              		.loc 13 222 56 view .LVU324
 1550 015e 4A1C     		adds	r2, r1, #1
 220:sampleengine.h ****         a = spliceBufferThree[spliceBufferReadIndexInt]; // current sample
 1551              		.loc 13 220 63 view .LVU325
 1552 0160 77EEC77A 		vsub.f32	s15, s15, s14
 1553              	.L94:
 219:sampleengine.h ****         spliceBufferReadIndexFraction = spliceBufferReadIndex - spliceBufferReadIndexInt;
 1554              		.loc 13 219 9 is_stmt 1 view .LVU326
 221:sampleengine.h ****         b = spliceBufferThree[spliceBufferReadIndexInt + 1]; // next sample
 1555              		.loc 13 221 11 is_stmt 0 view .LVU327
 1556 0164 594B     		ldr	r3, .L110+48
 1557 0166 91E7     		b	.L102
 1558              	.L87:
 1559              	.LBE450:
 1560              	.LBE476:
 1561              	.LBB477:
 192:sampleengine.h ****         }
ARM GAS  /var/folders/m5/x8wc2gdj7z5cpgcqdsb_gkj40000gn/T//ccGxviRN.s 			page 52


 1562              		.loc 13 192 13 is_stmt 1 view .LVU328
 192:sampleengine.h ****         }
 1563              		.loc 13 192 35 is_stmt 0 view .LVU329
 1564 0168 9FED4C7A 		vldr.32	s14, .L110
 1565 016c 0122     		movs	r2, #1
 1566 016e 0021     		movs	r1, #0
 1567 0170 F0EE477A 		vmov.f32	s15, s14
 1568 0174 83ED007A 		vstr.32	s14, [r3]
 1569 0178 6BE7     		b	.L88
 1570              	.L93:
 1571              	.LBE477:
 1572              	.LBB478:
 1573              	.LBB457:
 216:sampleengine.h ****         }
 1574              		.loc 13 216 13 is_stmt 1 view .LVU330
 216:sampleengine.h ****         }
 1575              		.loc 13 216 35 is_stmt 0 view .LVU331
 1576 017a 9FED487A 		vldr.32	s14, .L110
 1577 017e 0122     		movs	r2, #1
 1578 0180 0021     		movs	r1, #0
 1579 0182 F0EE477A 		vmov.f32	s15, s14
 1580 0186 83ED007A 		vstr.32	s14, [r3]
 1581 018a EBE7     		b	.L94
 1582              	.LVL69:
 1583              	.L90:
 216:sampleengine.h ****         }
 1584              		.loc 13 216 35 view .LVU332
 1585              	.LBE457:
 1586              	.LBE478:
 1587              	.LBE500:
 1588              	.LBE512:
 207:sampleengine.h ****         {
 1589              		.loc 13 207 14 is_stmt 1 view .LVU333
 1590              	.LBB513:
 1591              	.LBB501:
 1592              	.LBB479:
 1593              	.LBB458:
 1594              	.LBB455:
 1595              	.LBB452:
 1596 018c 0129     		cmp	r1, #1
 1597 018e 4ED0     		beq	.L92
 1598              	.LBE452:
 1599              	.LBE455:
 214:sampleengine.h ****         {
 1600              		.loc 13 214 34 is_stmt 0 view .LVU334
 1601 0190 434B     		ldr	r3, .L110+4
 1602 0192 D3ED007A 		vldr.32	s15, [r3]
 1603 0196 D2E7     		b	.L91
 1604              	.L109:
 214:sampleengine.h ****         {
 1605              		.loc 13 214 34 view .LVU335
 1606              	.LBE458:
 1607              	.LBB459:
 1608              	.LBB445:
 1609              	.LBB441:
 229:sampleengine.h ****         }
 1610              		.loc 13 229 13 is_stmt 1 view .LVU336
ARM GAS  /var/folders/m5/x8wc2gdj7z5cpgcqdsb_gkj40000gn/T//ccGxviRN.s 			page 53


 229:sampleengine.h ****         }
 1611              		.loc 13 229 35 is_stmt 0 view .LVU337
 1612 0198 414B     		ldr	r3, .L110+4
 1613 019a 484A     		ldr	r2, .L110+32
 1614              	.LVL70:
 229:sampleengine.h ****         }
 1615              		.loc 13 229 35 view .LVU338
 1616 019c D3ED007A 		vldr.32	s15, [r3]
 1617 01a0 92ED007A 		vldr.32	s14, [r2]
 1618 01a4 77EE877A 		vadd.f32	s15, s15, s14
 1619 01a8 C3ED007A 		vstr.32	s15, [r3]
 1620 01ac 9EE7     		b	.L96
 1621              	.LVL71:
 1622              	.L98:
 229:sampleengine.h ****         }
 1623              		.loc 13 229 35 view .LVU339
 1624              	.LBE441:
 240:sampleengine.h ****         }
 1625              		.loc 13 240 13 is_stmt 1 view .LVU340
 240:sampleengine.h ****         }
 1626              		.loc 13 240 35 is_stmt 0 view .LVU341
 1627 01ae 9FED3B7A 		vldr.32	s14, .L110
 1628 01b2 0122     		movs	r2, #1
 1629 01b4 0021     		movs	r1, #0
 1630 01b6 F0EE477A 		vmov.f32	s15, s14
 1631 01ba 83ED007A 		vstr.32	s14, [r3]
 1632 01be A8E7     		b	.L99
 1633              	.LVL72:
 1634              	.L79:
 240:sampleengine.h ****         }
 1635              		.loc 13 240 35 view .LVU342
 1636              	.LBE445:
 1637              	.LBE459:
 1638              	.LBE479:
 1639              	.LBE501:
 1640              	.LBB502:
 1641              	.LBB493:
 1642              	.LBB490:
 1643              	.LBB489:
 161:sampleengine.h ****             float readFactorPitch = playFreq / baseFreq;
 1644              		.loc 13 161 13 is_stmt 1 view .LVU343
 161:sampleengine.h ****             float readFactorPitch = playFreq / baseFreq;
 1645              		.loc 13 161 78 is_stmt 0 view .LVU344
 1646 01c0 0C3A     		subs	r2, r2, #12
 1647              	.LVL73:
 161:sampleengine.h ****             float readFactorPitch = playFreq / baseFreq;
 1648              		.loc 13 161 45 view .LVU345
 1649 01c2 F2EE080A 		vmov.f32	s1, #1.2e+1
 1650 01c6 B0EE000A 		vmov.f32	s0, #2.0e+0
 1651 01ca 07EE902A 		vmov	s15, r2	@ int
 1652 01ce F8EEE77A 		vcvt.f32.s32	s15, s15
 1653 01d2 C7EEA00A 		vdiv.f32	s1, s15, s1
 1654 01d6 FFF7FEFF 		bl	powf
 1655              	.LVL74:
 161:sampleengine.h ****             float readFactorPitch = playFreq / baseFreq;
 1656              		.loc 13 161 39 view .LVU346
 1657 01da 3D4A     		ldr	r2, .L110+52
ARM GAS  /var/folders/m5/x8wc2gdj7z5cpgcqdsb_gkj40000gn/T//ccGxviRN.s 			page 54


 163:sampleengine.h ****         }
 1658              		.loc 13 163 35 view .LVU347
 1659 01dc 304B     		ldr	r3, .L110+4
 161:sampleengine.h ****             float readFactorPitch = playFreq / baseFreq;
 1660              		.loc 13 161 39 view .LVU348
 1661 01de 92ED007A 		vldr.32	s14, [r2]
 1662              	.LVL75:
 162:sampleengine.h ****             spliceBufferReadIndex += readFactorPitch;
 1663              		.loc 13 162 13 is_stmt 1 view .LVU349
 163:sampleengine.h ****         }
 1664              		.loc 13 163 13 view .LVU350
 163:sampleengine.h ****         }
 1665              		.loc 13 163 35 is_stmt 0 view .LVU351
 1666 01e2 D3ED006A 		vldr.32	s13, [r3]
 161:sampleengine.h ****             float readFactorPitch = playFreq / baseFreq;
 1667              		.loc 13 161 91 view .LVU352
 1668 01e6 20EE070A 		vmul.f32	s0, s0, s14
 1669              	.LVL76:
 162:sampleengine.h ****             spliceBufferReadIndex += readFactorPitch;
 1670              		.loc 13 162 19 view .LVU353
 1671 01ea C0EE077A 		vdiv.f32	s15, s0, s14
 1672              	.LVL77:
 163:sampleengine.h ****         }
 1673              		.loc 13 163 35 view .LVU354
 1674 01ee 77EEA67A 		vadd.f32	s15, s15, s13
 1675              	.LVL78:
 163:sampleengine.h ****         }
 1676              		.loc 13 163 35 view .LVU355
 1677 01f2 C3ED007A 		vstr.32	s15, [r3]
 1678              	.LBE489:
 1679 01f6 35E7     		b	.L78
 1680              	.LVL79:
 1681              	.L86:
 163:sampleengine.h ****         }
 1682              		.loc 13 163 35 view .LVU356
 1683              	.LBE490:
 1684              	.LBE493:
 1685              	.LBE502:
 1686              	.LBB503:
 1687              	.LBB480:
 1688              	.LBB470:
 1689              	.LBB467:
 1690              	.LBB466:
 185:sampleengine.h ****             float readFactorPitch = playFreq / baseFreq;
 1691              		.loc 13 185 13 is_stmt 1 view .LVU357
 185:sampleengine.h ****             float readFactorPitch = playFreq / baseFreq;
 1692              		.loc 13 185 45 is_stmt 0 view .LVU358
 1693 01f8 07EE902A 		vmov	s15, r2	@ int
 1694 01fc F2EE080A 		vmov.f32	s1, #1.2e+1
 1695 0200 B0EE000A 		vmov.f32	s0, #2.0e+0
 1696 0204 F8EEE77A 		vcvt.f32.s32	s15, s15
 1697 0208 C7EEA00A 		vdiv.f32	s1, s15, s1
 1698 020c FFF7FEFF 		bl	powf
 1699              	.LVL80:
 185:sampleengine.h ****             float readFactorPitch = playFreq / baseFreq;
 1700              		.loc 13 185 39 view .LVU359
 1701 0210 2F4A     		ldr	r2, .L110+52
ARM GAS  /var/folders/m5/x8wc2gdj7z5cpgcqdsb_gkj40000gn/T//ccGxviRN.s 			page 55


 187:sampleengine.h ****         }
 1702              		.loc 13 187 35 view .LVU360
 1703 0212 234B     		ldr	r3, .L110+4
 185:sampleengine.h ****             float readFactorPitch = playFreq / baseFreq;
 1704              		.loc 13 185 39 view .LVU361
 1705 0214 92ED007A 		vldr.32	s14, [r2]
 1706              	.LVL81:
 186:sampleengine.h ****             spliceBufferReadIndex += readFactorPitch;
 1707              		.loc 13 186 13 is_stmt 1 view .LVU362
 187:sampleengine.h ****         }
 1708              		.loc 13 187 13 view .LVU363
 187:sampleengine.h ****         }
 1709              		.loc 13 187 35 is_stmt 0 view .LVU364
 1710 0218 D3ED006A 		vldr.32	s13, [r3]
 185:sampleengine.h ****             float readFactorPitch = playFreq / baseFreq;
 1711              		.loc 13 185 86 view .LVU365
 1712 021c 20EE070A 		vmul.f32	s0, s0, s14
 1713              	.LVL82:
 186:sampleengine.h ****             spliceBufferReadIndex += readFactorPitch;
 1714              		.loc 13 186 19 view .LVU366
 1715 0220 C0EE077A 		vdiv.f32	s15, s0, s14
 1716              	.LVL83:
 187:sampleengine.h ****         }
 1717              		.loc 13 187 35 view .LVU367
 1718 0224 77EEA67A 		vadd.f32	s15, s15, s13
 1719              	.LVL84:
 187:sampleengine.h ****         }
 1720              		.loc 13 187 35 view .LVU368
 1721 0228 C3ED007A 		vstr.32	s15, [r3]
 1722              	.LBE466:
 1723 022c FDE6     		b	.L85
 1724              	.LVL85:
 1725              	.L92:
 187:sampleengine.h ****         }
 1726              		.loc 13 187 35 view .LVU369
 1727              	.LBE467:
 1728              	.LBE470:
 1729              	.LBE480:
 1730              	.LBB481:
 1731              	.LBB460:
 1732              	.LBB456:
 1733              	.LBB454:
 1734              	.LBB453:
 209:sampleengine.h ****             float readFactorPitch = playFreq / baseFreq;
 1735              		.loc 13 209 13 is_stmt 1 view .LVU370
 209:sampleengine.h ****             float readFactorPitch = playFreq / baseFreq;
 1736              		.loc 13 209 45 is_stmt 0 view .LVU371
 1737 022e 07EE902A 		vmov	s15, r2	@ int
 1738 0232 F2EE080A 		vmov.f32	s1, #1.2e+1
 1739 0236 B0EE000A 		vmov.f32	s0, #2.0e+0
 1740 023a F8EEE77A 		vcvt.f32.s32	s15, s15
 1741 023e C7EEA00A 		vdiv.f32	s1, s15, s1
 1742 0242 FFF7FEFF 		bl	powf
 1743              	.LVL86:
 209:sampleengine.h ****             float readFactorPitch = playFreq / baseFreq;
 1744              		.loc 13 209 39 view .LVU372
 1745 0246 224A     		ldr	r2, .L110+52
ARM GAS  /var/folders/m5/x8wc2gdj7z5cpgcqdsb_gkj40000gn/T//ccGxviRN.s 			page 56


 211:sampleengine.h ****         }
 1746              		.loc 13 211 35 view .LVU373
 1747 0248 154B     		ldr	r3, .L110+4
 209:sampleengine.h ****             float readFactorPitch = playFreq / baseFreq;
 1748              		.loc 13 209 39 view .LVU374
 1749 024a 92ED007A 		vldr.32	s14, [r2]
 1750              	.LVL87:
 210:sampleengine.h ****             spliceBufferReadIndex += readFactorPitch;
 1751              		.loc 13 210 13 is_stmt 1 view .LVU375
 211:sampleengine.h ****         }
 1752              		.loc 13 211 13 view .LVU376
 211:sampleengine.h ****         }
 1753              		.loc 13 211 35 is_stmt 0 view .LVU377
 1754 024e D3ED006A 		vldr.32	s13, [r3]
 209:sampleengine.h ****             float readFactorPitch = playFreq / baseFreq;
 1755              		.loc 13 209 86 view .LVU378
 1756 0252 20EE070A 		vmul.f32	s0, s0, s14
 1757              	.LVL88:
 210:sampleengine.h ****             spliceBufferReadIndex += readFactorPitch;
 1758              		.loc 13 210 19 view .LVU379
 1759 0256 C0EE077A 		vdiv.f32	s15, s0, s14
 1760              	.LVL89:
 211:sampleengine.h ****         }
 1761              		.loc 13 211 35 view .LVU380
 1762 025a 77EEA67A 		vadd.f32	s15, s15, s13
 1763              	.LVL90:
 211:sampleengine.h ****         }
 1764              		.loc 13 211 35 view .LVU381
 1765 025e C3ED007A 		vstr.32	s15, [r3]
 1766              	.LBE453:
 1767 0262 6CE7     		b	.L91
 1768              	.LVL91:
 1769              	.L97:
 211:sampleengine.h ****         }
 1770              		.loc 13 211 35 view .LVU382
 1771              	.LBE454:
 1772              	.LBE456:
 1773              	.LBE460:
 1774              	.LBB461:
 1775              	.LBB446:
 1776              	.LBB442:
 1777              	.LBB439:
 1778              	.LBB438:
 233:sampleengine.h ****             float readFactorPitch = playFreq / baseFreq;
 1779              		.loc 13 233 13 is_stmt 1 view .LVU383
 233:sampleengine.h ****             float readFactorPitch = playFreq / baseFreq;
 1780              		.loc 13 233 45 is_stmt 0 view .LVU384
 1781 0264 07EE902A 		vmov	s15, r2	@ int
 1782 0268 F2EE080A 		vmov.f32	s1, #1.2e+1
 1783 026c B0EE000A 		vmov.f32	s0, #2.0e+0
 1784 0270 F8EEE77A 		vcvt.f32.s32	s15, s15
 1785 0274 C7EEA00A 		vdiv.f32	s1, s15, s1
 1786 0278 FFF7FEFF 		bl	powf
 1787              	.LVL92:
 233:sampleengine.h ****             float readFactorPitch = playFreq / baseFreq;
 1788              		.loc 13 233 39 view .LVU385
 1789 027c 144A     		ldr	r2, .L110+52
ARM GAS  /var/folders/m5/x8wc2gdj7z5cpgcqdsb_gkj40000gn/T//ccGxviRN.s 			page 57


 235:sampleengine.h ****         }
 1790              		.loc 13 235 35 view .LVU386
 1791 027e 084B     		ldr	r3, .L110+4
 233:sampleengine.h ****             float readFactorPitch = playFreq / baseFreq;
 1792              		.loc 13 233 39 view .LVU387
 1793 0280 92ED007A 		vldr.32	s14, [r2]
 1794              	.LVL93:
 234:sampleengine.h ****             spliceBufferReadIndex += readFactorPitch;
 1795              		.loc 13 234 13 is_stmt 1 view .LVU388
 235:sampleengine.h ****         }
 1796              		.loc 13 235 13 view .LVU389
 235:sampleengine.h ****         }
 1797              		.loc 13 235 35 is_stmt 0 view .LVU390
 1798 0284 D3ED006A 		vldr.32	s13, [r3]
 233:sampleengine.h ****             float readFactorPitch = playFreq / baseFreq;
 1799              		.loc 13 233 86 view .LVU391
 1800 0288 20EE070A 		vmul.f32	s0, s0, s14
 1801              	.LVL94:
 234:sampleengine.h ****             spliceBufferReadIndex += readFactorPitch;
 1802              		.loc 13 234 19 view .LVU392
 1803 028c C0EE077A 		vdiv.f32	s15, s0, s14
 1804              	.LVL95:
 235:sampleengine.h ****         }
 1805              		.loc 13 235 35 view .LVU393
 1806 0290 77EEA67A 		vadd.f32	s15, s15, s13
 1807              	.LVL96:
 235:sampleengine.h ****         }
 1808              		.loc 13 235 35 view .LVU394
 1809 0294 C3ED007A 		vstr.32	s15, [r3]
 1810              	.LBE438:
 1811 0298 28E7     		b	.L96
 1812              	.L111:
 1813 029a 00BF     		.align	2
 1814              	.L110:
 1815 029c 00000000 		.word	0
 1816 02a0 00000000 		.word	.LANCHOR19
 1817 02a4 00000000 		.word	.LANCHOR24
 1818 02a8 00000000 		.word	spliceBufferTwo
 1819 02ac 00000000 		.word	.LANCHOR21
 1820 02b0 00000000 		.word	spliceBufferOne
 1821 02b4 00000000 		.word	.LANCHOR23
 1822 02b8 00000000 		.word	.LANCHOR22
 1823 02bc 00000000 		.word	.LANCHOR12
 1824 02c0 00000000 		.word	.LANCHOR26
 1825 02c4 00000000 		.word	spliceBufferFour
 1826 02c8 00000000 		.word	.LANCHOR25
 1827 02cc 00000000 		.word	spliceBufferThree
 1828 02d0 00000000 		.word	.LANCHOR20
 1829              	.LBE439:
 1830              	.LBE442:
 1831              	.LBE446:
 1832              	.LBE461:
 1833              	.LBE481:
 1834              	.LBE503:
 1835              	.LBE513:
 1836              		.cfi_endproc
 1837              	.LFE4695:
ARM GAS  /var/folders/m5/x8wc2gdj7z5cpgcqdsb_gkj40000gn/T//ccGxviRN.s 			page 58


 1839              		.section	.text._Z17StoreSpliceBufferi,"ax",%progbits
 1840              		.align	1
 1841              		.p2align 2,,3
 1842              		.global	_Z17StoreSpliceBufferi
 1843              		.syntax unified
 1844              		.thumb
 1845              		.thumb_func
 1847              	_Z17StoreSpliceBufferi:
 1848              	.LVL97:
 1849              	.LFB4696:
 254:sampleengine.h ****     readIndex = startPoint;
 1850              		.loc 13 254 1 is_stmt 1 view -0
 1851              		.cfi_startproc
 1852              		@ args = 0, pretend = 0, frame = 8
 1853              		@ frame_needed = 0, uses_anonymous_args = 0
 255:sampleengine.h ****     float startSample = startPoint;
 1854              		.loc 13 255 5 view .LVU396
 255:sampleengine.h ****     float startSample = startPoint;
 1855              		.loc 13 255 15 is_stmt 0 view .LVU397
 1856 0000 B14B     		ldr	r3, .L146
 1857              	.LBB538:
 257:sampleengine.h ****     {
 1858              		.loc 13 257 5 view .LVU398
 1859 0002 0128     		cmp	r0, #1
 1860              	.LBE538:
 255:sampleengine.h ****     float startSample = startPoint;
 1861              		.loc 13 255 15 view .LVU399
 1862 0004 1B68     		ldr	r3, [r3]
 254:sampleengine.h ****     readIndex = startPoint;
 1863              		.loc 13 254 1 view .LVU400
 1864 0006 2DE9F04F 		push	{r4, r5, r6, r7, r8, r9, r10, fp, lr}
 1865              		.cfi_def_cfa_offset 36
 1866              		.cfi_offset 4, -36
 1867              		.cfi_offset 5, -32
 1868              		.cfi_offset 6, -28
 1869              		.cfi_offset 7, -24
 1870              		.cfi_offset 8, -20
 1871              		.cfi_offset 9, -16
 1872              		.cfi_offset 10, -12
 1873              		.cfi_offset 11, -8
 1874              		.cfi_offset 14, -4
 255:sampleengine.h ****     float startSample = startPoint;
 1875              		.loc 13 255 15 view .LVU401
 1876 000a 07EE903A 		vmov	s15, r3	@ int
 254:sampleengine.h ****     readIndex = startPoint;
 1877              		.loc 13 254 1 view .LVU402
 1878 000e 83B0     		sub	sp, sp, #12
 1879              		.cfi_def_cfa_offset 48
 255:sampleengine.h ****     float startSample = startPoint;
 1880              		.loc 13 255 15 view .LVU403
 1881 0010 AE4D     		ldr	r5, .L146+4
 256:sampleengine.h ****     if(bufferNum == 1)
 1882              		.loc 13 256 5 is_stmt 1 view .LVU404
 255:sampleengine.h ****     float startSample = startPoint;
 1883              		.loc 13 255 15 is_stmt 0 view .LVU405
 1884 0012 B8EE675A 		vcvt.f32.u32	s10, s15
 1885              	.LVL98:
ARM GAS  /var/folders/m5/x8wc2gdj7z5cpgcqdsb_gkj40000gn/T//ccGxviRN.s 			page 59


 257:sampleengine.h ****     {
 1886              		.loc 13 257 5 is_stmt 1 view .LVU406
 255:sampleengine.h ****     float startSample = startPoint;
 1887              		.loc 13 255 15 is_stmt 0 view .LVU407
 1888 0016 0193     		str	r3, [sp, #4]
 1889              	.LBB677:
 257:sampleengine.h ****     {
 1890              		.loc 13 257 5 view .LVU408
 1891 0018 5DD0     		beq	.L142
 1892              	.LBE677:
 270:sampleengine.h ****     {
 1893              		.loc 13 270 10 is_stmt 1 view .LVU409
 1894              	.LBB678:
 1895              	.LBB539:
 1896 001a 0228     		cmp	r0, #2
 1897 001c 0AD0     		beq	.L143
 1898              	.LBE539:
 1899              	.LBE678:
 283:sampleengine.h ****     {
 1900              		.loc 13 283 10 view .LVU410
 1901              	.LBB679:
 1902              	.LBB637:
 1903              	.LBB540:
 1904 001e 0328     		cmp	r0, #3
 1905 0020 00F0F780 		beq	.L144
 1906              	.LBE540:
 1907              	.LBE637:
 1908              	.LBE679:
 296:sampleengine.h ****     {
 1909              		.loc 13 296 10 view .LVU411
 1910              	.LBB680:
 1911              	.LBB638:
 1912              	.LBB601:
 1913              	.LBB541:
 1914 0024 0428     		cmp	r0, #4
 1915 0026 00F0A580 		beq	.L145
 1916              	.LVL99:
 1917              	.L117:
 296:sampleengine.h ****     {
 1918              		.loc 13 296 10 is_stmt 0 view .LVU412
 1919              	.LBE541:
 1920              	.LBE601:
 1921              	.LBE638:
 1922              	.LBE680:
 309:sampleengine.h **** }
 1923              		.loc 13 309 5 is_stmt 1 view .LVU413
 309:sampleengine.h **** }
 1924              		.loc 13 309 15 is_stmt 0 view .LVU414
 1925 002a 85ED005A 		vstr.32	s10, [r5]
 310:sampleengine.h **** 
 1926              		.loc 13 310 1 view .LVU415
 1927 002e 03B0     		add	sp, sp, #12
 1928              		.cfi_remember_state
 1929              		.cfi_def_cfa_offset 36
 1930              		@ sp needed
 1931 0030 BDE8F08F 		pop	{r4, r5, r6, r7, r8, r9, r10, fp, pc}
 1932              	.LVL100:
ARM GAS  /var/folders/m5/x8wc2gdj7z5cpgcqdsb_gkj40000gn/T//ccGxviRN.s 			page 60


 1933              	.L143:
 1934              		.cfi_restore_state
 1935              	.LBB681:
 1936              	.LBB639:
 270:sampleengine.h ****     {
 1937              		.loc 13 270 10 view .LVU416
 1938 0034 F0EE457A 		vmov.f32	s15, s10
 1939 0038 A54A     		ldr	r2, .L146+8
 1940              	.LBB602:
 272:sampleengine.h ****         {
 1941              		.loc 13 272 23 view .LVU417
 1942 003a 0026     		movs	r6, #0
 1943 003c DFF8B8B2 		ldr	fp, .L146+48
 1944 0040 DFF8B8A2 		ldr	r10, .L146+52
 1945 0044 A34C     		ldr	r4, .L146+12
 1946 0046 DFF8B892 		ldr	r9, .L146+56
 1947 004a DFF8B882 		ldr	r8, .L146+60
 1948 004e 03E0     		b	.L124
 1949              	.LVL101:
 1950              	.L123:
 272:sampleengine.h ****         {
 1951              		.loc 13 272 9 discriminator 2 view .LVU418
 1952 0050 0136     		adds	r6, r6, #1
 1953              	.LVL102:
 272:sampleengine.h ****         {
 1954              		.loc 13 272 32 is_stmt 1 discriminator 2 view .LVU419
 1955 0052 9E42     		cmp	r6, r3
 1956 0054 00F02D81 		beq	.L118
 1957              	.LVL103:
 1958              	.L124:
 274:sampleengine.h ****             AdvanceReadIndex();
 1959              		.loc 13 274 13 view .LVU420
 1960              	.LBB603:
 1961              	.LBI603:
 118:sampleengine.h **** {
 1962              		.loc 13 118 7 view .LVU421
 1963              	.LBB604:
 120:sampleengine.h **** 
 1964              		.loc 13 120 5 view .LVU422
 122:sampleengine.h **** 	readIndexFraction = readIndex - readIndexInt;
 1965              		.loc 13 122 5 view .LVU423
 122:sampleengine.h **** 	readIndexFraction = readIndex - readIndexInt;
 1966              		.loc 13 122 20 is_stmt 0 view .LVU424
 1967 0058 BDEEE77A 		vcvt.s32.f32	s14, s15
 1968              	.LBE604:
 1969              	.LBE603:
 1970              	.LBB610:
 1971              	.LBB611:
 107:sampleengine.h **** 
 1972              		.loc 13 107 15 view .LVU425
 1973 005c D9ED004A 		vldr.32	s9, [r9]
 1974              	.LBE611:
 1975              	.LBE610:
 1976              	.LBB618:
 1977              	.LBB605:
 122:sampleengine.h **** 	readIndexFraction = readIndex - readIndexInt;
 1978              		.loc 13 122 20 view .LVU426
ARM GAS  /var/folders/m5/x8wc2gdj7z5cpgcqdsb_gkj40000gn/T//ccGxviRN.s 			page 61


 1979 0060 17EE103A 		vmov	r3, s14	@ int
 123:sampleengine.h **** 
 1980              		.loc 13 123 32 view .LVU427
 1981 0064 F8EE476A 		vcvt.f32.u32	s13, s14
 1982              	.LBE605:
 1983              	.LBE618:
 1984              	.LBB619:
 1985              	.LBB612:
 109:sampleengine.h ****     {
 1986              		.loc 13 109 18 view .LVU428
 1987 0068 98ED007A 		vldr.32	s14, [r8]	@ int
 1988              	.LBE612:
 1989              	.LBE619:
 1990              	.LBB620:
 1991              	.LBB606:
 125:sampleengine.h **** 	b = recordingBuffer[readIndexInt + 1]; // next sample
 1992              		.loc 13 125 4 view .LVU429
 1993 006c 04EB8300 		add	r0, r4, r3, lsl #2
 122:sampleengine.h **** 	readIndexFraction = readIndex - readIndexInt;
 1994              		.loc 13 122 18 view .LVU430
 1995 0070 CBF80030 		str	r3, [fp]
 1996              	.LBE606:
 1997              	.LBE620:
 1998              	.LBB621:
 1999              	.LBB613:
 109:sampleengine.h ****     {
 2000              		.loc 13 109 18 view .LVU431
 2001 0074 B8EE476A 		vcvt.f32.u32	s12, s14
 2002              	.LBE613:
 2003              	.LBE621:
 2004              	.LBB622:
 2005              	.LBB607:
 127:sampleengine.h **** 
 2006              		.loc 13 127 15 view .LVU432
 2007 0078 D0ED015A 		vldr.32	s11, [r0, #4]
 123:sampleengine.h **** 
 2008              		.loc 13 123 2 is_stmt 1 view .LVU433
 123:sampleengine.h **** 
 2009              		.loc 13 123 32 is_stmt 0 view .LVU434
 2010 007c 77EEE66A 		vsub.f32	s13, s15, s13
 125:sampleengine.h **** 	b = recordingBuffer[readIndexInt + 1]; // next sample
 2011              		.loc 13 125 4 view .LVU435
 2012 0080 90ED007A 		vldr.32	s14, [r0]
 2013              	.LBE607:
 2014              	.LBE622:
 2015              	.LBB623:
 2016              	.LBB614:
 107:sampleengine.h **** 
 2017              		.loc 13 107 15 view .LVU436
 2018 0084 77EEA47A 		vadd.f32	s15, s15, s9
 2019              	.LBE614:
 2020              	.LBE623:
 2021              	.LBB624:
 2022              	.LBB608:
 127:sampleengine.h **** 
 2023              		.loc 13 127 15 view .LVU437
 2024 0088 75EEC75A 		vsub.f32	s11, s11, s14
ARM GAS  /var/folders/m5/x8wc2gdj7z5cpgcqdsb_gkj40000gn/T//ccGxviRN.s 			page 62


 123:sampleengine.h **** 
 2025              		.loc 13 123 20 view .LVU438
 2026 008c CAED006A 		vstr.32	s13, [r10]
 125:sampleengine.h **** 	b = recordingBuffer[readIndexInt + 1]; // next sample
 2027              		.loc 13 125 2 is_stmt 1 view .LVU439
 2028              	.LVL104:
 126:sampleengine.h **** 	out = a + (b - a) * readIndexFraction; // Linear Interpolation
 2029              		.loc 13 126 2 view .LVU440
 127:sampleengine.h **** 
 2030              		.loc 13 127 2 view .LVU441
 2031              	.LBE608:
 2032              	.LBE624:
 2033              	.LBB625:
 2034              	.LBB615:
 109:sampleengine.h ****     {
 2035              		.loc 13 109 5 is_stmt 0 view .LVU442
 2036 0090 F4EEC67A 		vcmpe.f32	s15, s12
 107:sampleengine.h **** 
 2037              		.loc 13 107 15 view .LVU443
 2038 0094 C5ED007A 		vstr.32	s15, [r5]
 2039              	.LBE615:
 2040              	.LBE625:
 2041              	.LBB626:
 2042              	.LBB609:
 127:sampleengine.h **** 
 2043              		.loc 13 127 6 view .LVU444
 2044 0098 A6EEA57A 		vfma.f32	s14, s13, s11
 2045              	.LVL105:
 129:sampleengine.h **** }
 2046              		.loc 13 129 5 is_stmt 1 view .LVU445
 129:sampleengine.h **** }
 2047              		.loc 13 129 5 is_stmt 0 view .LVU446
 2048              	.LBE609:
 2049              	.LBE626:
 2050              	.LBB627:
 2051              	.LBB616:
 109:sampleengine.h ****     {
 2052              		.loc 13 109 5 view .LVU447
 2053 009c F1EE10FA 		vmrs	APSR_nzcv, FPSCR
 2054              	.LBE616:
 2055              	.LBE627:
 274:sampleengine.h ****             AdvanceReadIndex();
 2056              		.loc 13 274 32 view .LVU448
 2057 00a0 A2EC017A 		vstmia.32	r2!, {s14}
 275:sampleengine.h ****             if(readIndex == startSample)
 2058              		.loc 13 275 13 is_stmt 1 view .LVU449
 2059              	.LBB628:
 2060              	.LBI610:
 105:sampleengine.h **** {
 2061              		.loc 13 105 6 view .LVU450
 2062              	.LBB617:
 107:sampleengine.h **** 
 2063              		.loc 13 107 5 view .LVU451
 109:sampleengine.h ****     {
 2064              		.loc 13 109 5 view .LVU452
 2065 00a4 05DB     		blt	.L121
 2066 00a6 0192     		str	r2, [sp, #4]
ARM GAS  /var/folders/m5/x8wc2gdj7z5cpgcqdsb_gkj40000gn/T//ccGxviRN.s 			page 63


 2067 00a8 FFF7FEFF 		bl	_Z16AdvanceReadIndexv.part.0
 2068              	.LVL106:
 2069              	.LBE617:
 2070              	.LBE628:
 276:sampleengine.h ****             {
 2071              		.loc 13 276 26 is_stmt 0 view .LVU453
 2072 00ac D5ED007A 		vldr.32	s15, [r5]
 2073 00b0 019A     		ldr	r2, [sp, #4]
 2074              	.L121:
 276:sampleengine.h ****             {
 2075              		.loc 13 276 13 is_stmt 1 view .LVU454
 272:sampleengine.h ****         {
 2076              		.loc 13 272 9 view .LVU455
 276:sampleengine.h ****             {
 2077              		.loc 13 276 13 is_stmt 0 view .LVU456
 2078 00b2 B4EE675A 		vcmp.f32	s10, s15
 272:sampleengine.h ****         {
 2079              		.loc 13 272 32 view .LVU457
 2080 00b6 884B     		ldr	r3, .L146+16
 276:sampleengine.h ****             {
 2081              		.loc 13 276 13 view .LVU458
 2082 00b8 F1EE10FA 		vmrs	APSR_nzcv, FPSCR
 2083 00bc C8D1     		bne	.L123
 278:sampleengine.h ****                 break;
 2084              		.loc 13 278 17 is_stmt 1 view .LVU459
 2085              	.LBE602:
 2086              	.LBE639:
 2087              	.LBE681:
 309:sampleengine.h **** }
 2088              		.loc 13 309 15 is_stmt 0 view .LVU460
 2089 00be 824A     		ldr	r2, .L146
 2090              	.LBB682:
 2091              	.LBB640:
 2092              	.LBB629:
 278:sampleengine.h ****                 break;
 2093              		.loc 13 278 39 view .LVU461
 2094 00c0 864B     		ldr	r3, .L146+20
 2095              	.LBE629:
 2096              	.LBE640:
 2097              	.LBE682:
 309:sampleengine.h **** }
 2098              		.loc 13 309 15 view .LVU462
 2099 00c2 92ED005A 		vldr.32	s10, [r2]	@ int
 2100              	.LVL107:
 2101              	.LBB683:
 2102              	.LBB641:
 2103              	.LBB630:
 278:sampleengine.h ****                 break;
 2104              		.loc 13 278 39 view .LVU463
 2105 00c6 1E60     		str	r6, [r3]
 279:sampleengine.h ****             }
 2106              		.loc 13 279 17 is_stmt 1 view .LVU464
 2107              	.LBE630:
 2108              	.LBE641:
 2109              	.LBE683:
 309:sampleengine.h **** }
 2110              		.loc 13 309 15 is_stmt 0 view .LVU465
ARM GAS  /var/folders/m5/x8wc2gdj7z5cpgcqdsb_gkj40000gn/T//ccGxviRN.s 			page 64


 2111 00c8 B8EE455A 		vcvt.f32.u32	s10, s10
 309:sampleengine.h **** }
 2112              		.loc 13 309 5 is_stmt 1 view .LVU466
 309:sampleengine.h **** }
 2113              		.loc 13 309 15 is_stmt 0 view .LVU467
 2114 00cc 85ED005A 		vstr.32	s10, [r5]
 310:sampleengine.h **** 
 2115              		.loc 13 310 1 view .LVU468
 2116 00d0 03B0     		add	sp, sp, #12
 2117              		.cfi_remember_state
 2118              		.cfi_def_cfa_offset 36
 2119              		@ sp needed
 2120 00d2 BDE8F08F 		pop	{r4, r5, r6, r7, r8, r9, r10, fp, pc}
 2121              	.LVL108:
 2122              	.L142:
 2123              		.cfi_restore_state
 2124              	.LBB684:
 257:sampleengine.h ****     {
 2125              		.loc 13 257 5 view .LVU469
 2126 00d6 F0EE457A 		vmov.f32	s15, s10
 2127 00da 814F     		ldr	r7, .L146+24
 2128              	.LBB642:
 259:sampleengine.h ****         {
 2129              		.loc 13 259 23 view .LVU470
 2130 00dc 0026     		movs	r6, #0
 2131 00de DFF818B2 		ldr	fp, .L146+48
 2132 00e2 DFF818A2 		ldr	r10, .L146+52
 2133 00e6 7B4C     		ldr	r4, .L146+12
 2134 00e8 DFF81492 		ldr	r9, .L146+56
 2135 00ec DFF81482 		ldr	r8, .L146+60
 2136 00f0 03E0     		b	.L119
 2137              	.LVL109:
 2138              	.L116:
 259:sampleengine.h ****         {
 2139              		.loc 13 259 9 discriminator 2 view .LVU471
 2140 00f2 0136     		adds	r6, r6, #1
 2141              	.LVL110:
 259:sampleengine.h ****         {
 2142              		.loc 13 259 32 is_stmt 1 discriminator 2 view .LVU472
 2143 00f4 9E42     		cmp	r6, r3
 2144 00f6 00F0DC80 		beq	.L118
 2145              	.LVL111:
 2146              	.L119:
 261:sampleengine.h ****             AdvanceReadIndex();
 2147              		.loc 13 261 13 view .LVU473
 2148              	.LBB643:
 2149              	.LBI643:
 118:sampleengine.h **** {
 2150              		.loc 13 118 7 view .LVU474
 2151              	.LBB644:
 120:sampleengine.h **** 
 2152              		.loc 13 120 5 view .LVU475
 122:sampleengine.h **** 	readIndexFraction = readIndex - readIndexInt;
 2153              		.loc 13 122 5 view .LVU476
 122:sampleengine.h **** 	readIndexFraction = readIndex - readIndexInt;
 2154              		.loc 13 122 20 is_stmt 0 view .LVU477
 2155 00fa BDEEE77A 		vcvt.s32.f32	s14, s15
ARM GAS  /var/folders/m5/x8wc2gdj7z5cpgcqdsb_gkj40000gn/T//ccGxviRN.s 			page 65


 2156              	.LBE644:
 2157              	.LBE643:
 2158              	.LBB650:
 2159              	.LBB651:
 107:sampleengine.h **** 
 2160              		.loc 13 107 15 view .LVU478
 2161 00fe D9ED004A 		vldr.32	s9, [r9]
 2162              	.LBE651:
 2163              	.LBE650:
 2164              	.LBB658:
 2165              	.LBB645:
 122:sampleengine.h **** 	readIndexFraction = readIndex - readIndexInt;
 2166              		.loc 13 122 20 view .LVU479
 2167 0102 17EE103A 		vmov	r3, s14	@ int
 123:sampleengine.h **** 
 2168              		.loc 13 123 32 view .LVU480
 2169 0106 F8EE476A 		vcvt.f32.u32	s13, s14
 2170              	.LBE645:
 2171              	.LBE658:
 2172              	.LBB659:
 2173              	.LBB652:
 109:sampleengine.h ****     {
 2174              		.loc 13 109 18 view .LVU481
 2175 010a 98ED007A 		vldr.32	s14, [r8]	@ int
 2176              	.LBE652:
 2177              	.LBE659:
 2178              	.LBB660:
 2179              	.LBB646:
 125:sampleengine.h **** 	b = recordingBuffer[readIndexInt + 1]; // next sample
 2180              		.loc 13 125 4 view .LVU482
 2181 010e 04EB8300 		add	r0, r4, r3, lsl #2
 122:sampleengine.h **** 	readIndexFraction = readIndex - readIndexInt;
 2182              		.loc 13 122 18 view .LVU483
 2183 0112 CBF80030 		str	r3, [fp]
 2184              	.LBE646:
 2185              	.LBE660:
 2186              	.LBB661:
 2187              	.LBB653:
 109:sampleengine.h ****     {
 2188              		.loc 13 109 18 view .LVU484
 2189 0116 B8EE476A 		vcvt.f32.u32	s12, s14
 2190              	.LBE653:
 2191              	.LBE661:
 2192              	.LBB662:
 2193              	.LBB647:
 127:sampleengine.h **** 
 2194              		.loc 13 127 15 view .LVU485
 2195 011a D0ED015A 		vldr.32	s11, [r0, #4]
 123:sampleengine.h **** 
 2196              		.loc 13 123 2 is_stmt 1 view .LVU486
 123:sampleengine.h **** 
 2197              		.loc 13 123 32 is_stmt 0 view .LVU487
 2198 011e 77EEE66A 		vsub.f32	s13, s15, s13
 125:sampleengine.h **** 	b = recordingBuffer[readIndexInt + 1]; // next sample
 2199              		.loc 13 125 4 view .LVU488
 2200 0122 90ED007A 		vldr.32	s14, [r0]
 2201              	.LBE647:
ARM GAS  /var/folders/m5/x8wc2gdj7z5cpgcqdsb_gkj40000gn/T//ccGxviRN.s 			page 66


 2202              	.LBE662:
 2203              	.LBB663:
 2204              	.LBB654:
 107:sampleengine.h **** 
 2205              		.loc 13 107 15 view .LVU489
 2206 0126 77EEA47A 		vadd.f32	s15, s15, s9
 2207              	.LBE654:
 2208              	.LBE663:
 2209              	.LBB664:
 2210              	.LBB648:
 127:sampleengine.h **** 
 2211              		.loc 13 127 15 view .LVU490
 2212 012a 75EEC75A 		vsub.f32	s11, s11, s14
 123:sampleengine.h **** 
 2213              		.loc 13 123 20 view .LVU491
 2214 012e CAED006A 		vstr.32	s13, [r10]
 125:sampleengine.h **** 	b = recordingBuffer[readIndexInt + 1]; // next sample
 2215              		.loc 13 125 2 is_stmt 1 view .LVU492
 2216              	.LVL112:
 126:sampleengine.h **** 	out = a + (b - a) * readIndexFraction; // Linear Interpolation
 2217              		.loc 13 126 2 view .LVU493
 127:sampleengine.h **** 
 2218              		.loc 13 127 2 view .LVU494
 2219              	.LBE648:
 2220              	.LBE664:
 2221              	.LBB665:
 2222              	.LBB655:
 109:sampleengine.h ****     {
 2223              		.loc 13 109 5 is_stmt 0 view .LVU495
 2224 0132 F4EEC67A 		vcmpe.f32	s15, s12
 107:sampleengine.h **** 
 2225              		.loc 13 107 15 view .LVU496
 2226 0136 C5ED007A 		vstr.32	s15, [r5]
 2227              	.LBE655:
 2228              	.LBE665:
 2229              	.LBB666:
 2230              	.LBB649:
 127:sampleengine.h **** 
 2231              		.loc 13 127 6 view .LVU497
 2232 013a A6EEA57A 		vfma.f32	s14, s13, s11
 2233              	.LVL113:
 129:sampleengine.h **** }
 2234              		.loc 13 129 5 is_stmt 1 view .LVU498
 129:sampleengine.h **** }
 2235              		.loc 13 129 5 is_stmt 0 view .LVU499
 2236              	.LBE649:
 2237              	.LBE666:
 2238              	.LBB667:
 2239              	.LBB656:
 109:sampleengine.h ****     {
 2240              		.loc 13 109 5 view .LVU500
 2241 013e F1EE10FA 		vmrs	APSR_nzcv, FPSCR
 2242              	.LBE656:
 2243              	.LBE667:
 261:sampleengine.h ****             AdvanceReadIndex();
 2244              		.loc 13 261 32 view .LVU501
 2245 0142 A7EC017A 		vstmia.32	r7!, {s14}
ARM GAS  /var/folders/m5/x8wc2gdj7z5cpgcqdsb_gkj40000gn/T//ccGxviRN.s 			page 67


 262:sampleengine.h ****             if(readIndex == startSample)
 2246              		.loc 13 262 13 is_stmt 1 view .LVU502
 2247              	.LBB668:
 2248              	.LBI650:
 105:sampleengine.h **** {
 2249              		.loc 13 105 6 view .LVU503
 2250              	.LBB657:
 107:sampleengine.h **** 
 2251              		.loc 13 107 5 view .LVU504
 109:sampleengine.h ****     {
 2252              		.loc 13 109 5 view .LVU505
 2253 0146 03DB     		blt	.L114
 2254 0148 FFF7FEFF 		bl	_Z16AdvanceReadIndexv.part.0
 2255              	.LVL114:
 2256              	.LBE657:
 2257              	.LBE668:
 263:sampleengine.h ****             {
 2258              		.loc 13 263 26 is_stmt 0 view .LVU506
 2259 014c D5ED007A 		vldr.32	s15, [r5]
 2260              	.L114:
 263:sampleengine.h ****             {
 2261              		.loc 13 263 13 is_stmt 1 view .LVU507
 259:sampleengine.h ****         {
 2262              		.loc 13 259 9 view .LVU508
 263:sampleengine.h ****             {
 2263              		.loc 13 263 13 is_stmt 0 view .LVU509
 2264 0150 B4EE675A 		vcmp.f32	s10, s15
 259:sampleengine.h ****         {
 2265              		.loc 13 259 32 view .LVU510
 2266 0154 604B     		ldr	r3, .L146+16
 263:sampleengine.h ****             {
 2267              		.loc 13 263 13 view .LVU511
 2268 0156 F1EE10FA 		vmrs	APSR_nzcv, FPSCR
 2269 015a CAD1     		bne	.L116
 265:sampleengine.h ****                 break;
 2270              		.loc 13 265 17 is_stmt 1 view .LVU512
 2271              	.LBE642:
 2272              	.LBE684:
 309:sampleengine.h **** }
 2273              		.loc 13 309 15 is_stmt 0 view .LVU513
 2274 015c 5A4A     		ldr	r2, .L146
 2275              	.LBB685:
 2276              	.LBB669:
 265:sampleengine.h ****                 break;
 2277              		.loc 13 265 39 view .LVU514
 2278 015e 614B     		ldr	r3, .L146+28
 2279              	.LBE669:
 2280              	.LBE685:
 309:sampleengine.h **** }
 2281              		.loc 13 309 15 view .LVU515
 2282 0160 92ED005A 		vldr.32	s10, [r2]	@ int
 2283              	.LVL115:
 2284              	.LBB686:
 2285              	.LBB670:
 265:sampleengine.h ****                 break;
 2286              		.loc 13 265 39 view .LVU516
 2287 0164 1E60     		str	r6, [r3]
ARM GAS  /var/folders/m5/x8wc2gdj7z5cpgcqdsb_gkj40000gn/T//ccGxviRN.s 			page 68


 266:sampleengine.h ****             }
 2288              		.loc 13 266 17 is_stmt 1 view .LVU517
 2289              	.LBE670:
 2290              	.LBE686:
 309:sampleengine.h **** }
 2291              		.loc 13 309 15 is_stmt 0 view .LVU518
 2292 0166 B8EE455A 		vcvt.f32.u32	s10, s10
 309:sampleengine.h **** }
 2293              		.loc 13 309 5 is_stmt 1 view .LVU519
 309:sampleengine.h **** }
 2294              		.loc 13 309 15 is_stmt 0 view .LVU520
 2295 016a 85ED005A 		vstr.32	s10, [r5]
 310:sampleengine.h **** 
 2296              		.loc 13 310 1 view .LVU521
 2297 016e 03B0     		add	sp, sp, #12
 2298              		.cfi_remember_state
 2299              		.cfi_def_cfa_offset 36
 2300              		@ sp needed
 2301 0170 BDE8F08F 		pop	{r4, r5, r6, r7, r8, r9, r10, fp, pc}
 2302              	.LVL116:
 2303              	.L145:
 2304              		.cfi_restore_state
 2305              	.LBB687:
 2306              	.LBB671:
 2307              	.LBB631:
 2308              	.LBB568:
 296:sampleengine.h ****     {
 2309              		.loc 13 296 10 view .LVU522
 2310 0174 F0EE457A 		vmov.f32	s15, s10
 2311 0178 5B4A     		ldr	r2, .L146+32
 2312              	.LBB542:
 298:sampleengine.h ****         {
 2313              		.loc 13 298 23 view .LVU523
 2314 017a 0026     		movs	r6, #0
 2315 017c DFF878B1 		ldr	fp, .L146+48
 2316 0180 DFF878A1 		ldr	r10, .L146+52
 2317 0184 534C     		ldr	r4, .L146+12
 2318 0186 DFF87891 		ldr	r9, .L146+56
 2319 018a DFF87881 		ldr	r8, .L146+60
 2320 018e 03E0     		b	.L133
 2321              	.LVL117:
 2322              	.L132:
 298:sampleengine.h ****         {
 2323              		.loc 13 298 9 discriminator 2 view .LVU524
 2324 0190 0136     		adds	r6, r6, #1
 2325              	.LVL118:
 298:sampleengine.h ****         {
 2326              		.loc 13 298 32 is_stmt 1 discriminator 2 view .LVU525
 2327 0192 9E42     		cmp	r6, r3
 2328 0194 00F08D80 		beq	.L118
 2329              	.LVL119:
 2330              	.L133:
 300:sampleengine.h ****             AdvanceReadIndex();
 2331              		.loc 13 300 13 view .LVU526
 2332              	.LBB543:
 2333              	.LBI543:
 118:sampleengine.h **** {
ARM GAS  /var/folders/m5/x8wc2gdj7z5cpgcqdsb_gkj40000gn/T//ccGxviRN.s 			page 69


 2334              		.loc 13 118 7 view .LVU527
 2335              	.LBB544:
 120:sampleengine.h **** 
 2336              		.loc 13 120 5 view .LVU528
 122:sampleengine.h **** 	readIndexFraction = readIndex - readIndexInt;
 2337              		.loc 13 122 5 view .LVU529
 122:sampleengine.h **** 	readIndexFraction = readIndex - readIndexInt;
 2338              		.loc 13 122 20 is_stmt 0 view .LVU530
 2339 0198 BDEEE77A 		vcvt.s32.f32	s14, s15
 2340              	.LBE544:
 2341              	.LBE543:
 2342              	.LBB549:
 2343              	.LBB550:
 109:sampleengine.h ****     {
 2344              		.loc 13 109 18 view .LVU531
 2345 019c 98ED006A 		vldr.32	s12, [r8]	@ int
 2346 01a0 B8EE466A 		vcvt.f32.u32	s12, s12
 2347              	.LBE550:
 2348              	.LBE549:
 2349              	.LBB556:
 2350              	.LBB545:
 122:sampleengine.h **** 	readIndexFraction = readIndex - readIndexInt;
 2351              		.loc 13 122 20 view .LVU532
 2352 01a4 17EE103A 		vmov	r3, s14	@ int
 2353              	.LBE545:
 2354              	.LBE556:
 2355              	.LBB557:
 2356              	.LBB551:
 107:sampleengine.h **** 
 2357              		.loc 13 107 15 view .LVU533
 2358 01a8 99ED007A 		vldr.32	s14, [r9]
 2359              	.LBE551:
 2360              	.LBE557:
 2361              	.LBB558:
 2362              	.LBB546:
 123:sampleengine.h **** 
 2363              		.loc 13 123 32 view .LVU534
 2364 01ac 06EE903A 		vmov	s13, r3	@ int
 125:sampleengine.h **** 	b = recordingBuffer[readIndexInt + 1]; // next sample
 2365              		.loc 13 125 4 view .LVU535
 2366 01b0 04EB8301 		add	r1, r4, r3, lsl #2
 122:sampleengine.h **** 	readIndexFraction = readIndex - readIndexInt;
 2367              		.loc 13 122 18 view .LVU536
 2368 01b4 CBF80030 		str	r3, [fp]
 123:sampleengine.h **** 
 2369              		.loc 13 123 2 is_stmt 1 view .LVU537
 123:sampleengine.h **** 
 2370              		.loc 13 123 32 is_stmt 0 view .LVU538
 2371 01b8 F8EE666A 		vcvt.f32.u32	s13, s13
 127:sampleengine.h **** 
 2372              		.loc 13 127 15 view .LVU539
 2373 01bc D1ED015A 		vldr.32	s11, [r1, #4]
 123:sampleengine.h **** 
 2374              		.loc 13 123 32 view .LVU540
 2375 01c0 77EEE66A 		vsub.f32	s13, s15, s13
 2376              	.LBE546:
 2377              	.LBE558:
ARM GAS  /var/folders/m5/x8wc2gdj7z5cpgcqdsb_gkj40000gn/T//ccGxviRN.s 			page 70


 2378              	.LBB559:
 2379              	.LBB552:
 107:sampleengine.h **** 
 2380              		.loc 13 107 15 view .LVU541
 2381 01c4 77EE877A 		vadd.f32	s15, s15, s14
 2382              	.LBE552:
 2383              	.LBE559:
 2384              	.LBB560:
 2385              	.LBB547:
 125:sampleengine.h **** 	b = recordingBuffer[readIndexInt + 1]; // next sample
 2386              		.loc 13 125 4 view .LVU542
 2387 01c8 91ED007A 		vldr.32	s14, [r1]
 127:sampleengine.h **** 
 2388              		.loc 13 127 15 view .LVU543
 2389 01cc 75EEC75A 		vsub.f32	s11, s11, s14
 123:sampleengine.h **** 
 2390              		.loc 13 123 20 view .LVU544
 2391 01d0 CAED006A 		vstr.32	s13, [r10]
 125:sampleengine.h **** 	b = recordingBuffer[readIndexInt + 1]; // next sample
 2392              		.loc 13 125 2 is_stmt 1 view .LVU545
 2393              	.LBE547:
 2394              	.LBE560:
 2395              	.LBB561:
 2396              	.LBB553:
 109:sampleengine.h ****     {
 2397              		.loc 13 109 5 is_stmt 0 view .LVU546
 2398 01d4 F4EEC67A 		vcmpe.f32	s15, s12
 107:sampleengine.h **** 
 2399              		.loc 13 107 15 view .LVU547
 2400 01d8 C5ED007A 		vstr.32	s15, [r5]
 2401              	.LVL120:
 107:sampleengine.h **** 
 2402              		.loc 13 107 15 view .LVU548
 2403              	.LBE553:
 2404              	.LBE561:
 2405              	.LBB562:
 2406              	.LBB548:
 126:sampleengine.h **** 	out = a + (b - a) * readIndexFraction; // Linear Interpolation
 2407              		.loc 13 126 2 is_stmt 1 view .LVU549
 127:sampleengine.h **** 
 2408              		.loc 13 127 2 view .LVU550
 127:sampleengine.h **** 
 2409              		.loc 13 127 6 is_stmt 0 view .LVU551
 2410 01dc A6EEA57A 		vfma.f32	s14, s13, s11
 2411              	.LVL121:
 129:sampleengine.h **** }
 2412              		.loc 13 129 5 is_stmt 1 view .LVU552
 129:sampleengine.h **** }
 2413              		.loc 13 129 5 is_stmt 0 view .LVU553
 2414              	.LBE548:
 2415              	.LBE562:
 2416              	.LBB563:
 2417              	.LBB554:
 109:sampleengine.h ****     {
 2418              		.loc 13 109 5 view .LVU554
 2419 01e0 F1EE10FA 		vmrs	APSR_nzcv, FPSCR
 2420              	.LBE554:
ARM GAS  /var/folders/m5/x8wc2gdj7z5cpgcqdsb_gkj40000gn/T//ccGxviRN.s 			page 71


 2421              	.LBE563:
 300:sampleengine.h ****             AdvanceReadIndex();
 2422              		.loc 13 300 33 view .LVU555
 2423 01e4 A2EC017A 		vstmia.32	r2!, {s14}
 301:sampleengine.h ****             if(readIndex == startSample)
 2424              		.loc 13 301 13 is_stmt 1 view .LVU556
 2425              	.LBB564:
 2426              	.LBI549:
 105:sampleengine.h **** {
 2427              		.loc 13 105 6 view .LVU557
 2428              	.LBB555:
 107:sampleengine.h **** 
 2429              		.loc 13 107 5 view .LVU558
 109:sampleengine.h ****     {
 2430              		.loc 13 109 5 view .LVU559
 2431 01e8 05DB     		blt	.L130
 2432 01ea 0192     		str	r2, [sp, #4]
 2433 01ec FFF7FEFF 		bl	_Z16AdvanceReadIndexv.part.0
 2434              	.LVL122:
 2435              	.LBE555:
 2436              	.LBE564:
 302:sampleengine.h ****             {
 2437              		.loc 13 302 26 is_stmt 0 view .LVU560
 2438 01f0 D5ED007A 		vldr.32	s15, [r5]
 2439 01f4 019A     		ldr	r2, [sp, #4]
 2440              	.L130:
 302:sampleengine.h ****             {
 2441              		.loc 13 302 13 is_stmt 1 view .LVU561
 298:sampleengine.h ****         {
 2442              		.loc 13 298 9 view .LVU562
 302:sampleengine.h ****             {
 2443              		.loc 13 302 13 is_stmt 0 view .LVU563
 2444 01f6 B4EE675A 		vcmp.f32	s10, s15
 298:sampleengine.h ****         {
 2445              		.loc 13 298 32 view .LVU564
 2446 01fa 374B     		ldr	r3, .L146+16
 302:sampleengine.h ****             {
 2447              		.loc 13 302 13 view .LVU565
 2448 01fc F1EE10FA 		vmrs	APSR_nzcv, FPSCR
 2449 0200 C6D1     		bne	.L132
 304:sampleengine.h ****                 break;
 2450              		.loc 13 304 17 is_stmt 1 view .LVU566
 2451              	.LBE542:
 2452              	.LBE568:
 2453              	.LBE631:
 2454              	.LBE671:
 2455              	.LBE687:
 309:sampleengine.h **** }
 2456              		.loc 13 309 15 is_stmt 0 view .LVU567
 2457 0202 314A     		ldr	r2, .L146
 2458              	.LBB688:
 2459              	.LBB672:
 2460              	.LBB632:
 2461              	.LBB569:
 2462              	.LBB565:
 304:sampleengine.h ****                 break;
 2463              		.loc 13 304 40 view .LVU568
ARM GAS  /var/folders/m5/x8wc2gdj7z5cpgcqdsb_gkj40000gn/T//ccGxviRN.s 			page 72


 2464 0204 394B     		ldr	r3, .L146+36
 2465              	.LBE565:
 2466              	.LBE569:
 2467              	.LBE632:
 2468              	.LBE672:
 2469              	.LBE688:
 309:sampleengine.h **** }
 2470              		.loc 13 309 15 view .LVU569
 2471 0206 92ED005A 		vldr.32	s10, [r2]	@ int
 2472              	.LVL123:
 2473              	.LBB689:
 2474              	.LBB673:
 2475              	.LBB633:
 2476              	.LBB570:
 2477              	.LBB566:
 304:sampleengine.h ****                 break;
 2478              		.loc 13 304 40 view .LVU570
 2479 020a 1E60     		str	r6, [r3]
 305:sampleengine.h ****             }
 2480              		.loc 13 305 17 is_stmt 1 view .LVU571
 2481              	.LBE566:
 2482              	.LBE570:
 2483              	.LBE633:
 2484              	.LBE673:
 2485              	.LBE689:
 309:sampleengine.h **** }
 2486              		.loc 13 309 15 is_stmt 0 view .LVU572
 2487 020c B8EE455A 		vcvt.f32.u32	s10, s10
 2488              	.LBB690:
 2489              	.LBB674:
 2490              	.LBB634:
 2491              	.LBB571:
 2492              	.LBB567:
 305:sampleengine.h ****             }
 2493              		.loc 13 305 17 view .LVU573
 2494 0210 0BE7     		b	.L117
 2495              	.LVL124:
 2496              	.L144:
 305:sampleengine.h ****             }
 2497              		.loc 13 305 17 view .LVU574
 2498              	.LBE567:
 2499              	.LBE571:
 283:sampleengine.h ****     {
 2500              		.loc 13 283 10 view .LVU575
 2501 0212 F0EE457A 		vmov.f32	s15, s10
 2502 0216 364A     		ldr	r2, .L146+40
 2503              	.LBB572:
 285:sampleengine.h ****         {
 2504              		.loc 13 285 23 view .LVU576
 2505 0218 0026     		movs	r6, #0
 2506 021a DFF8DCB0 		ldr	fp, .L146+48
 2507 021e DFF8DCA0 		ldr	r10, .L146+52
 2508 0222 2C4C     		ldr	r4, .L146+12
 2509 0224 DFF8D890 		ldr	r9, .L146+56
 2510 0228 DFF8D880 		ldr	r8, .L146+60
 2511 022c 02E0     		b	.L129
 2512              	.LVL125:
ARM GAS  /var/folders/m5/x8wc2gdj7z5cpgcqdsb_gkj40000gn/T//ccGxviRN.s 			page 73


 2513              	.L128:
 285:sampleengine.h ****         {
 2514              		.loc 13 285 9 discriminator 2 view .LVU577
 2515 022e 0136     		adds	r6, r6, #1
 2516              	.LVL126:
 285:sampleengine.h ****         {
 2517              		.loc 13 285 32 is_stmt 1 discriminator 2 view .LVU578
 2518 0230 9E42     		cmp	r6, r3
 2519 0232 3ED0     		beq	.L118
 2520              	.LVL127:
 2521              	.L129:
 287:sampleengine.h ****             AdvanceReadIndex();
 2522              		.loc 13 287 13 view .LVU579
 2523              	.LBB573:
 2524              	.LBI573:
 118:sampleengine.h **** {
 2525              		.loc 13 118 7 view .LVU580
 2526              	.LBB574:
 120:sampleengine.h **** 
 2527              		.loc 13 120 5 view .LVU581
 122:sampleengine.h **** 	readIndexFraction = readIndex - readIndexInt;
 2528              		.loc 13 122 5 view .LVU582
 122:sampleengine.h **** 	readIndexFraction = readIndex - readIndexInt;
 2529              		.loc 13 122 20 is_stmt 0 view .LVU583
 2530 0234 BDEEE77A 		vcvt.s32.f32	s14, s15
 2531              	.LBE574:
 2532              	.LBE573:
 2533              	.LBB580:
 2534              	.LBB581:
 107:sampleengine.h **** 
 2535              		.loc 13 107 15 view .LVU584
 2536 0238 D9ED005A 		vldr.32	s11, [r9]
 2537              	.LBE581:
 2538              	.LBE580:
 2539              	.LBB588:
 2540              	.LBB575:
 122:sampleengine.h **** 	readIndexFraction = readIndex - readIndexInt;
 2541              		.loc 13 122 20 view .LVU585
 2542 023c 17EE103A 		vmov	r3, s14	@ int
 123:sampleengine.h **** 
 2543              		.loc 13 123 32 view .LVU586
 2544 0240 F8EE476A 		vcvt.f32.u32	s13, s14
 2545              	.LBE575:
 2546              	.LBE588:
 2547              	.LBB589:
 2548              	.LBB582:
 109:sampleengine.h ****     {
 2549              		.loc 13 109 18 view .LVU587
 2550 0244 98ED007A 		vldr.32	s14, [r8]	@ int
 2551              	.LBE582:
 2552              	.LBE589:
 2553              	.LBB590:
 2554              	.LBB576:
 125:sampleengine.h **** 	b = recordingBuffer[readIndexInt + 1]; // next sample
 2555              		.loc 13 125 4 view .LVU588
 2556 0248 04EB8301 		add	r1, r4, r3, lsl #2
 122:sampleengine.h **** 	readIndexFraction = readIndex - readIndexInt;
ARM GAS  /var/folders/m5/x8wc2gdj7z5cpgcqdsb_gkj40000gn/T//ccGxviRN.s 			page 74


 2557              		.loc 13 122 18 view .LVU589
 2558 024c CBF80030 		str	r3, [fp]
 123:sampleengine.h **** 
 2559              		.loc 13 123 32 view .LVU590
 2560 0250 77EEE66A 		vsub.f32	s13, s15, s13
 2561              	.LBE576:
 2562              	.LBE590:
 2563              	.LBB591:
 2564              	.LBB583:
 109:sampleengine.h ****     {
 2565              		.loc 13 109 18 view .LVU591
 2566 0254 B8EE476A 		vcvt.f32.u32	s12, s14
 2567              	.LBE583:
 2568              	.LBE591:
 2569              	.LBB592:
 2570              	.LBB577:
 123:sampleengine.h **** 
 2571              		.loc 13 123 2 is_stmt 1 view .LVU592
 125:sampleengine.h **** 	b = recordingBuffer[readIndexInt + 1]; // next sample
 2572              		.loc 13 125 4 is_stmt 0 view .LVU593
 2573 0258 91ED007A 		vldr.32	s14, [r1]
 2574              	.LBE577:
 2575              	.LBE592:
 2576              	.LBB593:
 2577              	.LBB584:
 107:sampleengine.h **** 
 2578              		.loc 13 107 15 view .LVU594
 2579 025c 77EEA57A 		vadd.f32	s15, s15, s11
 2580              	.LBE584:
 2581              	.LBE593:
 2582              	.LBB594:
 2583              	.LBB578:
 127:sampleengine.h **** 
 2584              		.loc 13 127 15 view .LVU595
 2585 0260 D1ED015A 		vldr.32	s11, [r1, #4]
 123:sampleengine.h **** 
 2586              		.loc 13 123 20 view .LVU596
 2587 0264 CAED006A 		vstr.32	s13, [r10]
 125:sampleengine.h **** 	b = recordingBuffer[readIndexInt + 1]; // next sample
 2588              		.loc 13 125 2 is_stmt 1 view .LVU597
 2589              	.LVL128:
 126:sampleengine.h **** 	out = a + (b - a) * readIndexFraction; // Linear Interpolation
 2590              		.loc 13 126 2 view .LVU598
 127:sampleengine.h **** 
 2591              		.loc 13 127 2 view .LVU599
 127:sampleengine.h **** 
 2592              		.loc 13 127 15 is_stmt 0 view .LVU600
 2593 0268 75EEC75A 		vsub.f32	s11, s11, s14
 2594              	.LBE578:
 2595              	.LBE594:
 2596              	.LBB595:
 2597              	.LBB585:
 109:sampleengine.h ****     {
 2598              		.loc 13 109 5 view .LVU601
 2599 026c F4EEC67A 		vcmpe.f32	s15, s12
 107:sampleengine.h **** 
 2600              		.loc 13 107 15 view .LVU602
ARM GAS  /var/folders/m5/x8wc2gdj7z5cpgcqdsb_gkj40000gn/T//ccGxviRN.s 			page 75


 2601 0270 C5ED007A 		vstr.32	s15, [r5]
 2602              	.LBE585:
 2603              	.LBE595:
 2604              	.LBB596:
 2605              	.LBB579:
 127:sampleengine.h **** 
 2606              		.loc 13 127 6 view .LVU603
 2607 0274 A6EEA57A 		vfma.f32	s14, s13, s11
 2608              	.LVL129:
 129:sampleengine.h **** }
 2609              		.loc 13 129 5 is_stmt 1 view .LVU604
 129:sampleengine.h **** }
 2610              		.loc 13 129 5 is_stmt 0 view .LVU605
 2611              	.LBE579:
 2612              	.LBE596:
 2613              	.LBB597:
 2614              	.LBB586:
 109:sampleengine.h ****     {
 2615              		.loc 13 109 5 view .LVU606
 2616 0278 F1EE10FA 		vmrs	APSR_nzcv, FPSCR
 2617              	.LBE586:
 2618              	.LBE597:
 287:sampleengine.h ****             AdvanceReadIndex();
 2619              		.loc 13 287 34 view .LVU607
 2620 027c A2EC017A 		vstmia.32	r2!, {s14}
 288:sampleengine.h ****             if(readIndex == startSample)
 2621              		.loc 13 288 13 is_stmt 1 view .LVU608
 2622              	.LBB598:
 2623              	.LBI580:
 105:sampleengine.h **** {
 2624              		.loc 13 105 6 view .LVU609
 2625              	.LBB587:
 107:sampleengine.h **** 
 2626              		.loc 13 107 5 view .LVU610
 109:sampleengine.h ****     {
 2627              		.loc 13 109 5 view .LVU611
 2628 0280 05DB     		blt	.L126
 2629 0282 0192     		str	r2, [sp, #4]
 2630 0284 FFF7FEFF 		bl	_Z16AdvanceReadIndexv.part.0
 2631              	.LVL130:
 2632              	.LBE587:
 2633              	.LBE598:
 289:sampleengine.h ****             {
 2634              		.loc 13 289 26 is_stmt 0 view .LVU612
 2635 0288 D5ED007A 		vldr.32	s15, [r5]
 2636 028c 019A     		ldr	r2, [sp, #4]
 2637              	.L126:
 289:sampleengine.h ****             {
 2638              		.loc 13 289 13 is_stmt 1 view .LVU613
 285:sampleengine.h ****         {
 2639              		.loc 13 285 9 view .LVU614
 289:sampleengine.h ****             {
 2640              		.loc 13 289 13 is_stmt 0 view .LVU615
 2641 028e B4EE675A 		vcmp.f32	s10, s15
 285:sampleengine.h ****         {
 2642              		.loc 13 285 32 view .LVU616
 2643 0292 114B     		ldr	r3, .L146+16
ARM GAS  /var/folders/m5/x8wc2gdj7z5cpgcqdsb_gkj40000gn/T//ccGxviRN.s 			page 76


 289:sampleengine.h ****             {
 2644              		.loc 13 289 13 view .LVU617
