ARM GAS  /var/folders/m5/x8wc2gdj7z5cpgcqdsb_gkj40000gn/T//ccGxviRN.s 			page 1


   1              		.cpu cortex-m7
   2              		.arch armv7e-m
   3              		.fpu fpv5-d16
   4              		.eabi_attribute 28, 1
   5              		.eabi_attribute 20, 1
   6              		.eabi_attribute 21, 1
   7              		.eabi_attribute 23, 3
   8              		.eabi_attribute 24, 1
   9              		.eabi_attribute 25, 1
  10              		.eabi_attribute 26, 1
  11              		.eabi_attribute 30, 2
  12              		.eabi_attribute 34, 1
  13              		.eabi_attribute 18, 4
  14              		.file	"sardinia.cpp"
  15              		.text
  16              	.Ltext0:
  17              		.cfi_sections	.debug_frame
  18              		.section	.text._ZN5daisy7EncoderD2Ev,"axG",%progbits,_ZN5daisy7EncoderD5Ev,comdat
  19              		.align	1
  20              		.p2align 2,,3
  21              		.weak	_ZN5daisy7EncoderD2Ev
  22              		.syntax unified
  23              		.thumb
  24              		.thumb_func
  26              	_ZN5daisy7EncoderD2Ev:
  27              	.LVL0:
  28              	.LFB1652:
  29              		.file 1 "/Users/dominicfrugoli/Desktop/ProgrammingCode/DaisyCode/DaisyExamples/libDaisy/src/hid/en
   1:/Users/dominicfrugoli/Desktop/ProgrammingCode/DaisyCode/DaisyExamples/libDaisy/src/hid/encoder.h **** #pragma once
   2:/Users/dominicfrugoli/Desktop/ProgrammingCode/DaisyCode/DaisyExamples/libDaisy/src/hid/encoder.h **** #ifndef DSY_ENCODER_H
   3:/Users/dominicfrugoli/Desktop/ProgrammingCode/DaisyCode/DaisyExamples/libDaisy/src/hid/encoder.h **** #define DSY_ENCODER_H
   4:/Users/dominicfrugoli/Desktop/ProgrammingCode/DaisyCode/DaisyExamples/libDaisy/src/hid/encoder.h **** #include "daisy_core.h"
   5:/Users/dominicfrugoli/Desktop/ProgrammingCode/DaisyCode/DaisyExamples/libDaisy/src/hid/encoder.h **** #include "per/gpio.h"
   6:/Users/dominicfrugoli/Desktop/ProgrammingCode/DaisyCode/DaisyExamples/libDaisy/src/hid/encoder.h **** #include "hid/switch.h"
   7:/Users/dominicfrugoli/Desktop/ProgrammingCode/DaisyCode/DaisyExamples/libDaisy/src/hid/encoder.h **** 
   8:/Users/dominicfrugoli/Desktop/ProgrammingCode/DaisyCode/DaisyExamples/libDaisy/src/hid/encoder.h **** namespace daisy
   9:/Users/dominicfrugoli/Desktop/ProgrammingCode/DaisyCode/DaisyExamples/libDaisy/src/hid/encoder.h **** {
  10:/Users/dominicfrugoli/Desktop/ProgrammingCode/DaisyCode/DaisyExamples/libDaisy/src/hid/encoder.h **** /** 
  11:/Users/dominicfrugoli/Desktop/ProgrammingCode/DaisyCode/DaisyExamples/libDaisy/src/hid/encoder.h ****     @brief Generic Class for handling Quadrature Encoders \n 
  12:/Users/dominicfrugoli/Desktop/ProgrammingCode/DaisyCode/DaisyExamples/libDaisy/src/hid/encoder.h ****     Inspired/influenced by Mutable Instruments (pichenettes) Encoder classes
  13:/Users/dominicfrugoli/Desktop/ProgrammingCode/DaisyCode/DaisyExamples/libDaisy/src/hid/encoder.h ****     @author Stephen Hensley
  14:/Users/dominicfrugoli/Desktop/ProgrammingCode/DaisyCode/DaisyExamples/libDaisy/src/hid/encoder.h ****     @date December 2019
  15:/Users/dominicfrugoli/Desktop/ProgrammingCode/DaisyCode/DaisyExamples/libDaisy/src/hid/encoder.h ****     @ingroup controls
  16:/Users/dominicfrugoli/Desktop/ProgrammingCode/DaisyCode/DaisyExamples/libDaisy/src/hid/encoder.h **** */
  17:/Users/dominicfrugoli/Desktop/ProgrammingCode/DaisyCode/DaisyExamples/libDaisy/src/hid/encoder.h **** class Encoder
  18:/Users/dominicfrugoli/Desktop/ProgrammingCode/DaisyCode/DaisyExamples/libDaisy/src/hid/encoder.h **** {
  19:/Users/dominicfrugoli/Desktop/ProgrammingCode/DaisyCode/DaisyExamples/libDaisy/src/hid/encoder.h ****   public:
  20:/Users/dominicfrugoli/Desktop/ProgrammingCode/DaisyCode/DaisyExamples/libDaisy/src/hid/encoder.h ****     Encoder() {}
  21:/Users/dominicfrugoli/Desktop/ProgrammingCode/DaisyCode/DaisyExamples/libDaisy/src/hid/encoder.h ****     ~Encoder() {}
  30              		.loc 1 21 5 view -0
  31              		.cfi_startproc
  32              		@ args = 0, pretend = 0, frame = 0
  33              		@ frame_needed = 0, uses_anonymous_args = 0
  34              		@ link register save eliminated.
  35              	.LBB401:
  36              	.LBI401:
  37              		.file 2 "/Users/dominicfrugoli/Desktop/ProgrammingCode/DaisyCode/DaisyExamples/libDaisy/src/hid/sw
ARM GAS  /var/folders/m5/x8wc2gdj7z5cpgcqdsb_gkj40000gn/T//ccGxviRN.s 			page 2


   1:/Users/dominicfrugoli/Desktop/ProgrammingCode/DaisyCode/DaisyExamples/libDaisy/src/hid/switch.h **** #pragma once
   2:/Users/dominicfrugoli/Desktop/ProgrammingCode/DaisyCode/DaisyExamples/libDaisy/src/hid/switch.h **** #ifndef DSY_SWITCH_H
   3:/Users/dominicfrugoli/Desktop/ProgrammingCode/DaisyCode/DaisyExamples/libDaisy/src/hid/switch.h **** #define DSY_SWITCH_H
   4:/Users/dominicfrugoli/Desktop/ProgrammingCode/DaisyCode/DaisyExamples/libDaisy/src/hid/switch.h **** #include "daisy_core.h"
   5:/Users/dominicfrugoli/Desktop/ProgrammingCode/DaisyCode/DaisyExamples/libDaisy/src/hid/switch.h **** #include "per/gpio.h"
   6:/Users/dominicfrugoli/Desktop/ProgrammingCode/DaisyCode/DaisyExamples/libDaisy/src/hid/switch.h **** #include "sys/system.h"
   7:/Users/dominicfrugoli/Desktop/ProgrammingCode/DaisyCode/DaisyExamples/libDaisy/src/hid/switch.h **** 
   8:/Users/dominicfrugoli/Desktop/ProgrammingCode/DaisyCode/DaisyExamples/libDaisy/src/hid/switch.h **** namespace daisy
   9:/Users/dominicfrugoli/Desktop/ProgrammingCode/DaisyCode/DaisyExamples/libDaisy/src/hid/switch.h **** {
  10:/Users/dominicfrugoli/Desktop/ProgrammingCode/DaisyCode/DaisyExamples/libDaisy/src/hid/switch.h **** /** 
  11:/Users/dominicfrugoli/Desktop/ProgrammingCode/DaisyCode/DaisyExamples/libDaisy/src/hid/switch.h ****     Generic Class for handling momentary/latching switches \n 
  12:/Users/dominicfrugoli/Desktop/ProgrammingCode/DaisyCode/DaisyExamples/libDaisy/src/hid/switch.h ****     Inspired/influenced by Mutable Instruments (pichenettes) Switch classes
  13:/Users/dominicfrugoli/Desktop/ProgrammingCode/DaisyCode/DaisyExamples/libDaisy/src/hid/switch.h ****     @author Stephen Hensley
  14:/Users/dominicfrugoli/Desktop/ProgrammingCode/DaisyCode/DaisyExamples/libDaisy/src/hid/switch.h ****     @date December 2019
  15:/Users/dominicfrugoli/Desktop/ProgrammingCode/DaisyCode/DaisyExamples/libDaisy/src/hid/switch.h ****     @ingroup controls
  16:/Users/dominicfrugoli/Desktop/ProgrammingCode/DaisyCode/DaisyExamples/libDaisy/src/hid/switch.h **** */
  17:/Users/dominicfrugoli/Desktop/ProgrammingCode/DaisyCode/DaisyExamples/libDaisy/src/hid/switch.h **** class Switch
  18:/Users/dominicfrugoli/Desktop/ProgrammingCode/DaisyCode/DaisyExamples/libDaisy/src/hid/switch.h **** {
  19:/Users/dominicfrugoli/Desktop/ProgrammingCode/DaisyCode/DaisyExamples/libDaisy/src/hid/switch.h ****   public:
  20:/Users/dominicfrugoli/Desktop/ProgrammingCode/DaisyCode/DaisyExamples/libDaisy/src/hid/switch.h ****     /** Specifies the expected behavior of the switch */
  21:/Users/dominicfrugoli/Desktop/ProgrammingCode/DaisyCode/DaisyExamples/libDaisy/src/hid/switch.h ****     enum Type
  22:/Users/dominicfrugoli/Desktop/ProgrammingCode/DaisyCode/DaisyExamples/libDaisy/src/hid/switch.h ****     {
  23:/Users/dominicfrugoli/Desktop/ProgrammingCode/DaisyCode/DaisyExamples/libDaisy/src/hid/switch.h ****         TYPE_TOGGLE,    /**< & */
  24:/Users/dominicfrugoli/Desktop/ProgrammingCode/DaisyCode/DaisyExamples/libDaisy/src/hid/switch.h ****         TYPE_MOMENTARY, /**< & */
  25:/Users/dominicfrugoli/Desktop/ProgrammingCode/DaisyCode/DaisyExamples/libDaisy/src/hid/switch.h ****     };
  26:/Users/dominicfrugoli/Desktop/ProgrammingCode/DaisyCode/DaisyExamples/libDaisy/src/hid/switch.h ****     /** Specifies whether the pressed is HIGH or LOW. */
  27:/Users/dominicfrugoli/Desktop/ProgrammingCode/DaisyCode/DaisyExamples/libDaisy/src/hid/switch.h ****     enum Polarity
  28:/Users/dominicfrugoli/Desktop/ProgrammingCode/DaisyCode/DaisyExamples/libDaisy/src/hid/switch.h ****     {
  29:/Users/dominicfrugoli/Desktop/ProgrammingCode/DaisyCode/DaisyExamples/libDaisy/src/hid/switch.h ****         POLARITY_NORMAL,   /**< & */
  30:/Users/dominicfrugoli/Desktop/ProgrammingCode/DaisyCode/DaisyExamples/libDaisy/src/hid/switch.h ****         POLARITY_INVERTED, /**< & */
  31:/Users/dominicfrugoli/Desktop/ProgrammingCode/DaisyCode/DaisyExamples/libDaisy/src/hid/switch.h ****     };
  32:/Users/dominicfrugoli/Desktop/ProgrammingCode/DaisyCode/DaisyExamples/libDaisy/src/hid/switch.h **** 
  33:/Users/dominicfrugoli/Desktop/ProgrammingCode/DaisyCode/DaisyExamples/libDaisy/src/hid/switch.h ****     /** Specifies whether to use built-in Pull Up/Down resistors to hold button at a given state wh
  34:/Users/dominicfrugoli/Desktop/ProgrammingCode/DaisyCode/DaisyExamples/libDaisy/src/hid/switch.h ****     enum Pull
  35:/Users/dominicfrugoli/Desktop/ProgrammingCode/DaisyCode/DaisyExamples/libDaisy/src/hid/switch.h ****     {
  36:/Users/dominicfrugoli/Desktop/ProgrammingCode/DaisyCode/DaisyExamples/libDaisy/src/hid/switch.h ****         PULL_UP,   /**< & */
  37:/Users/dominicfrugoli/Desktop/ProgrammingCode/DaisyCode/DaisyExamples/libDaisy/src/hid/switch.h ****         PULL_DOWN, /**< & */
  38:/Users/dominicfrugoli/Desktop/ProgrammingCode/DaisyCode/DaisyExamples/libDaisy/src/hid/switch.h ****         PULL_NONE, /**< & */
  39:/Users/dominicfrugoli/Desktop/ProgrammingCode/DaisyCode/DaisyExamples/libDaisy/src/hid/switch.h ****     };
  40:/Users/dominicfrugoli/Desktop/ProgrammingCode/DaisyCode/DaisyExamples/libDaisy/src/hid/switch.h **** 
  41:/Users/dominicfrugoli/Desktop/ProgrammingCode/DaisyCode/DaisyExamples/libDaisy/src/hid/switch.h ****     Switch() {}
  42:/Users/dominicfrugoli/Desktop/ProgrammingCode/DaisyCode/DaisyExamples/libDaisy/src/hid/switch.h ****     ~Switch() {}
  38              		.loc 2 42 5 view .LVU1
  39              		.loc 2 42 5 is_stmt 0 view .LVU2
  40              	.LBE401:
  41              		.loc 1 21 17 view .LVU3
  42 0000 7047     		bx	lr
  43              		.cfi_endproc
  44              	.LFE1652:
  46              		.weak	_ZN5daisy7EncoderD1Ev
  47              		.thumb_set _ZN5daisy7EncoderD1Ev,_ZN5daisy7EncoderD2Ev
  48 0002 00BF     		.section	.text._ZN5daisy10LcdHD44780D2Ev,"axG",%progbits,_ZN5daisy10LcdHD44780D5Ev,comdat
  49              		.align	1
  50              		.p2align 2,,3
  51              		.weak	_ZN5daisy10LcdHD44780D2Ev
  52              		.syntax unified
  53              		.thumb
ARM GAS  /var/folders/m5/x8wc2gdj7z5cpgcqdsb_gkj40000gn/T//ccGxviRN.s 			page 3


  54              		.thumb_func
  56              	_ZN5daisy10LcdHD44780D2Ev:
  57              	.LVL1:
  58              	.LFB2017:
  59              		.file 3 "/Users/dominicfrugoli/Desktop/ProgrammingCode/DaisyCode/DaisyExamples/libDaisy/src/dev/lc
   1:/Users/dominicfrugoli/Desktop/ProgrammingCode/DaisyCode/DaisyExamples/libDaisy/src/dev/lcd_hd44780.h **** #pragma once
   2:/Users/dominicfrugoli/Desktop/ProgrammingCode/DaisyCode/DaisyExamples/libDaisy/src/dev/lcd_hd44780.h **** #ifndef DSY_LCD_HD44780_H
   3:/Users/dominicfrugoli/Desktop/ProgrammingCode/DaisyCode/DaisyExamples/libDaisy/src/dev/lcd_hd44780.h **** #define DSY_LCD_HD44780_H
   4:/Users/dominicfrugoli/Desktop/ProgrammingCode/DaisyCode/DaisyExamples/libDaisy/src/dev/lcd_hd44780.h **** 
   5:/Users/dominicfrugoli/Desktop/ProgrammingCode/DaisyCode/DaisyExamples/libDaisy/src/dev/lcd_hd44780.h **** #include "daisy_core.h"
   6:/Users/dominicfrugoli/Desktop/ProgrammingCode/DaisyCode/DaisyExamples/libDaisy/src/dev/lcd_hd44780.h **** #include "per/gpio.h"
   7:/Users/dominicfrugoli/Desktop/ProgrammingCode/DaisyCode/DaisyExamples/libDaisy/src/dev/lcd_hd44780.h **** 
   8:/Users/dominicfrugoli/Desktop/ProgrammingCode/DaisyCode/DaisyExamples/libDaisy/src/dev/lcd_hd44780.h **** 
   9:/Users/dominicfrugoli/Desktop/ProgrammingCode/DaisyCode/DaisyExamples/libDaisy/src/dev/lcd_hd44780.h **** namespace daisy
  10:/Users/dominicfrugoli/Desktop/ProgrammingCode/DaisyCode/DaisyExamples/libDaisy/src/dev/lcd_hd44780.h **** {
  11:/Users/dominicfrugoli/Desktop/ProgrammingCode/DaisyCode/DaisyExamples/libDaisy/src/dev/lcd_hd44780.h **** /**
  12:/Users/dominicfrugoli/Desktop/ProgrammingCode/DaisyCode/DaisyExamples/libDaisy/src/dev/lcd_hd44780.h ****    @brief Device Driver for 16x2 LCD panel. \n 
  13:/Users/dominicfrugoli/Desktop/ProgrammingCode/DaisyCode/DaisyExamples/libDaisy/src/dev/lcd_hd44780.h ****    HD44780 with 4 data lines. \n
  14:/Users/dominicfrugoli/Desktop/ProgrammingCode/DaisyCode/DaisyExamples/libDaisy/src/dev/lcd_hd44780.h ****    Example product: https://www.adafruit.com/product/181
  15:/Users/dominicfrugoli/Desktop/ProgrammingCode/DaisyCode/DaisyExamples/libDaisy/src/dev/lcd_hd44780.h ****    @author StaffanMelin
  16:/Users/dominicfrugoli/Desktop/ProgrammingCode/DaisyCode/DaisyExamples/libDaisy/src/dev/lcd_hd44780.h ****    @date March 2021
  17:/Users/dominicfrugoli/Desktop/ProgrammingCode/DaisyCode/DaisyExamples/libDaisy/src/dev/lcd_hd44780.h ****    @ingroup device
  18:/Users/dominicfrugoli/Desktop/ProgrammingCode/DaisyCode/DaisyExamples/libDaisy/src/dev/lcd_hd44780.h **** */
  19:/Users/dominicfrugoli/Desktop/ProgrammingCode/DaisyCode/DaisyExamples/libDaisy/src/dev/lcd_hd44780.h **** class LcdHD44780
  20:/Users/dominicfrugoli/Desktop/ProgrammingCode/DaisyCode/DaisyExamples/libDaisy/src/dev/lcd_hd44780.h **** {
  21:/Users/dominicfrugoli/Desktop/ProgrammingCode/DaisyCode/DaisyExamples/libDaisy/src/dev/lcd_hd44780.h ****   public:
  22:/Users/dominicfrugoli/Desktop/ProgrammingCode/DaisyCode/DaisyExamples/libDaisy/src/dev/lcd_hd44780.h ****     LcdHD44780() {}
  23:/Users/dominicfrugoli/Desktop/ProgrammingCode/DaisyCode/DaisyExamples/libDaisy/src/dev/lcd_hd44780.h ****     ~LcdHD44780() {}
  60              		.loc 3 23 5 is_stmt 1 view -0
  61              		.cfi_startproc
  62              		@ args = 0, pretend = 0, frame = 0
  63              		@ frame_needed = 0, uses_anonymous_args = 0
  64              		@ link register save eliminated.
  65              		.loc 3 23 20 is_stmt 0 view .LVU5
  66 0000 7047     		bx	lr
  67              		.cfi_endproc
  68              	.LFE2017:
  70              		.weak	_ZN5daisy10LcdHD44780D1Ev
  71              		.thumb_set _ZN5daisy10LcdHD44780D1Ev,_ZN5daisy10LcdHD44780D2Ev
  72 0002 00BF     		.section	.text._ZN5daisy9DaisySeedD2Ev,"axG",%progbits,_ZN5daisy9DaisySeedD5Ev,comdat
  73              		.align	1
  74              		.p2align 2,,3
  75              		.weak	_ZN5daisy9DaisySeedD2Ev
  76              		.syntax unified
  77              		.thumb
  78              		.thumb_func
  80              	_ZN5daisy9DaisySeedD2Ev:
  81              	.LVL2:
  82              	.LFB2556:
  83              		.file 4 "/Users/dominicfrugoli/Desktop/ProgrammingCode/DaisyCode/DaisyExamples/libDaisy/src/daisy_
   1:/Users/dominicfrugoli/Desktop/ProgrammingCode/DaisyCode/DaisyExamples/libDaisy/src/daisy_seed.h **** #pragma once
   2:/Users/dominicfrugoli/Desktop/ProgrammingCode/DaisyCode/DaisyExamples/libDaisy/src/daisy_seed.h **** #ifndef DSY_SEED_H
   3:/Users/dominicfrugoli/Desktop/ProgrammingCode/DaisyCode/DaisyExamples/libDaisy/src/daisy_seed.h **** #define DSY_SEED_H
   4:/Users/dominicfrugoli/Desktop/ProgrammingCode/DaisyCode/DaisyExamples/libDaisy/src/daisy_seed.h **** 
   5:/Users/dominicfrugoli/Desktop/ProgrammingCode/DaisyCode/DaisyExamples/libDaisy/src/daisy_seed.h **** #include "daisy.h"
   6:/Users/dominicfrugoli/Desktop/ProgrammingCode/DaisyCode/DaisyExamples/libDaisy/src/daisy_seed.h **** 
   7:/Users/dominicfrugoli/Desktop/ProgrammingCode/DaisyCode/DaisyExamples/libDaisy/src/daisy_seed.h **** //Uncomment this out if you're still using the rev2 hardware
ARM GAS  /var/folders/m5/x8wc2gdj7z5cpgcqdsb_gkj40000gn/T//ccGxviRN.s 			page 4


   8:/Users/dominicfrugoli/Desktop/ProgrammingCode/DaisyCode/DaisyExamples/libDaisy/src/daisy_seed.h **** //#define SEED_REV2
   9:/Users/dominicfrugoli/Desktop/ProgrammingCode/DaisyCode/DaisyExamples/libDaisy/src/daisy_seed.h **** 
  10:/Users/dominicfrugoli/Desktop/ProgrammingCode/DaisyCode/DaisyExamples/libDaisy/src/daisy_seed.h **** namespace daisy
  11:/Users/dominicfrugoli/Desktop/ProgrammingCode/DaisyCode/DaisyExamples/libDaisy/src/daisy_seed.h **** {
  12:/Users/dominicfrugoli/Desktop/ProgrammingCode/DaisyCode/DaisyExamples/libDaisy/src/daisy_seed.h **** /**
  13:/Users/dominicfrugoli/Desktop/ProgrammingCode/DaisyCode/DaisyExamples/libDaisy/src/daisy_seed.h ****    @brief This is the higher-level interface for the Daisy board. \n 
  14:/Users/dominicfrugoli/Desktop/ProgrammingCode/DaisyCode/DaisyExamples/libDaisy/src/daisy_seed.h ****     All basic peripheral configuration/initialization is setup here. \n
  15:/Users/dominicfrugoli/Desktop/ProgrammingCode/DaisyCode/DaisyExamples/libDaisy/src/daisy_seed.h **** 
  16:/Users/dominicfrugoli/Desktop/ProgrammingCode/DaisyCode/DaisyExamples/libDaisy/src/daisy_seed.h ****    @ingroup boards
  17:/Users/dominicfrugoli/Desktop/ProgrammingCode/DaisyCode/DaisyExamples/libDaisy/src/daisy_seed.h **** */
  18:/Users/dominicfrugoli/Desktop/ProgrammingCode/DaisyCode/DaisyExamples/libDaisy/src/daisy_seed.h **** class DaisySeed
  19:/Users/dominicfrugoli/Desktop/ProgrammingCode/DaisyCode/DaisyExamples/libDaisy/src/daisy_seed.h **** {
  20:/Users/dominicfrugoli/Desktop/ProgrammingCode/DaisyCode/DaisyExamples/libDaisy/src/daisy_seed.h ****   public:
  21:/Users/dominicfrugoli/Desktop/ProgrammingCode/DaisyCode/DaisyExamples/libDaisy/src/daisy_seed.h ****     DaisySeed() {}
  22:/Users/dominicfrugoli/Desktop/ProgrammingCode/DaisyCode/DaisyExamples/libDaisy/src/daisy_seed.h ****     ~DaisySeed() {}
  84              		.loc 4 22 5 is_stmt 1 view -0
  85              		.cfi_startproc
  86              		@ args = 0, pretend = 0, frame = 0
  87              		@ frame_needed = 0, uses_anonymous_args = 0
  88              		@ link register save eliminated.
  89              	.LBB402:
  90              	.LBI402:
  91              		.file 5 "/Users/dominicfrugoli/Desktop/ProgrammingCode/DaisyCode/DaisyExamples/libDaisy/src/sys/sy
   1:/Users/dominicfrugoli/Desktop/ProgrammingCode/DaisyCode/DaisyExamples/libDaisy/src/sys/system.h **** #ifndef DSY_SYSTEM_H
   2:/Users/dominicfrugoli/Desktop/ProgrammingCode/DaisyCode/DaisyExamples/libDaisy/src/sys/system.h **** #define DSY_SYSTEM_H
   3:/Users/dominicfrugoli/Desktop/ProgrammingCode/DaisyCode/DaisyExamples/libDaisy/src/sys/system.h **** 
   4:/Users/dominicfrugoli/Desktop/ProgrammingCode/DaisyCode/DaisyExamples/libDaisy/src/sys/system.h **** #ifndef UNIT_TEST // for unit tests, a dummy implementation is provided below
   5:/Users/dominicfrugoli/Desktop/ProgrammingCode/DaisyCode/DaisyExamples/libDaisy/src/sys/system.h **** 
   6:/Users/dominicfrugoli/Desktop/ProgrammingCode/DaisyCode/DaisyExamples/libDaisy/src/sys/system.h **** #include <cstdint>
   7:/Users/dominicfrugoli/Desktop/ProgrammingCode/DaisyCode/DaisyExamples/libDaisy/src/sys/system.h **** #include "per/tim.h"
   8:/Users/dominicfrugoli/Desktop/ProgrammingCode/DaisyCode/DaisyExamples/libDaisy/src/sys/system.h **** 
   9:/Users/dominicfrugoli/Desktop/ProgrammingCode/DaisyCode/DaisyExamples/libDaisy/src/sys/system.h **** namespace daisy
  10:/Users/dominicfrugoli/Desktop/ProgrammingCode/DaisyCode/DaisyExamples/libDaisy/src/sys/system.h **** {
  11:/Users/dominicfrugoli/Desktop/ProgrammingCode/DaisyCode/DaisyExamples/libDaisy/src/sys/system.h **** /** A handle for interacting with the Core System.
  12:/Users/dominicfrugoli/Desktop/ProgrammingCode/DaisyCode/DaisyExamples/libDaisy/src/sys/system.h ****  ** This includes the Clock tree, MPU, global DMA initialization,
  13:/Users/dominicfrugoli/Desktop/ProgrammingCode/DaisyCode/DaisyExamples/libDaisy/src/sys/system.h ****  ** cache handling, and any other necessary global initiailzation
  14:/Users/dominicfrugoli/Desktop/ProgrammingCode/DaisyCode/DaisyExamples/libDaisy/src/sys/system.h ****  **
  15:/Users/dominicfrugoli/Desktop/ProgrammingCode/DaisyCode/DaisyExamples/libDaisy/src/sys/system.h ****  ** @author shensley
  16:/Users/dominicfrugoli/Desktop/ProgrammingCode/DaisyCode/DaisyExamples/libDaisy/src/sys/system.h ****  ** @ingroup system
  17:/Users/dominicfrugoli/Desktop/ProgrammingCode/DaisyCode/DaisyExamples/libDaisy/src/sys/system.h ****  */
  18:/Users/dominicfrugoli/Desktop/ProgrammingCode/DaisyCode/DaisyExamples/libDaisy/src/sys/system.h **** class System
  19:/Users/dominicfrugoli/Desktop/ProgrammingCode/DaisyCode/DaisyExamples/libDaisy/src/sys/system.h **** {
  20:/Users/dominicfrugoli/Desktop/ProgrammingCode/DaisyCode/DaisyExamples/libDaisy/src/sys/system.h ****   public:
  21:/Users/dominicfrugoli/Desktop/ProgrammingCode/DaisyCode/DaisyExamples/libDaisy/src/sys/system.h ****     /** Contains settings for initializing the System */
  22:/Users/dominicfrugoli/Desktop/ProgrammingCode/DaisyCode/DaisyExamples/libDaisy/src/sys/system.h ****     struct Config
  23:/Users/dominicfrugoli/Desktop/ProgrammingCode/DaisyCode/DaisyExamples/libDaisy/src/sys/system.h ****     {
  24:/Users/dominicfrugoli/Desktop/ProgrammingCode/DaisyCode/DaisyExamples/libDaisy/src/sys/system.h ****         /** Specifies the system clock frequency that feeds APB/AHB clocks, etc. */
  25:/Users/dominicfrugoli/Desktop/ProgrammingCode/DaisyCode/DaisyExamples/libDaisy/src/sys/system.h ****         enum class SysClkFreq
  26:/Users/dominicfrugoli/Desktop/ProgrammingCode/DaisyCode/DaisyExamples/libDaisy/src/sys/system.h ****         {
  27:/Users/dominicfrugoli/Desktop/ProgrammingCode/DaisyCode/DaisyExamples/libDaisy/src/sys/system.h ****             FREQ_400MHZ,
  28:/Users/dominicfrugoli/Desktop/ProgrammingCode/DaisyCode/DaisyExamples/libDaisy/src/sys/system.h ****             FREQ_480MHZ,
  29:/Users/dominicfrugoli/Desktop/ProgrammingCode/DaisyCode/DaisyExamples/libDaisy/src/sys/system.h ****         };
  30:/Users/dominicfrugoli/Desktop/ProgrammingCode/DaisyCode/DaisyExamples/libDaisy/src/sys/system.h **** 
  31:/Users/dominicfrugoli/Desktop/ProgrammingCode/DaisyCode/DaisyExamples/libDaisy/src/sys/system.h ****         /** Method to call on the struct to set to defaults
  32:/Users/dominicfrugoli/Desktop/ProgrammingCode/DaisyCode/DaisyExamples/libDaisy/src/sys/system.h ****          ** CPU Freq set to 400MHz
  33:/Users/dominicfrugoli/Desktop/ProgrammingCode/DaisyCode/DaisyExamples/libDaisy/src/sys/system.h ****          ** Cache Enabled
  34:/Users/dominicfrugoli/Desktop/ProgrammingCode/DaisyCode/DaisyExamples/libDaisy/src/sys/system.h ****          ** */
ARM GAS  /var/folders/m5/x8wc2gdj7z5cpgcqdsb_gkj40000gn/T//ccGxviRN.s 			page 5


  35:/Users/dominicfrugoli/Desktop/ProgrammingCode/DaisyCode/DaisyExamples/libDaisy/src/sys/system.h ****         void Defaults()
  36:/Users/dominicfrugoli/Desktop/ProgrammingCode/DaisyCode/DaisyExamples/libDaisy/src/sys/system.h ****         {
  37:/Users/dominicfrugoli/Desktop/ProgrammingCode/DaisyCode/DaisyExamples/libDaisy/src/sys/system.h ****             cpu_freq    = SysClkFreq::FREQ_400MHZ;
  38:/Users/dominicfrugoli/Desktop/ProgrammingCode/DaisyCode/DaisyExamples/libDaisy/src/sys/system.h ****             use_dcache  = true;
  39:/Users/dominicfrugoli/Desktop/ProgrammingCode/DaisyCode/DaisyExamples/libDaisy/src/sys/system.h ****             use_icache  = true;
  40:/Users/dominicfrugoli/Desktop/ProgrammingCode/DaisyCode/DaisyExamples/libDaisy/src/sys/system.h ****             skip_clocks = false;
  41:/Users/dominicfrugoli/Desktop/ProgrammingCode/DaisyCode/DaisyExamples/libDaisy/src/sys/system.h ****         }
  42:/Users/dominicfrugoli/Desktop/ProgrammingCode/DaisyCode/DaisyExamples/libDaisy/src/sys/system.h **** 
  43:/Users/dominicfrugoli/Desktop/ProgrammingCode/DaisyCode/DaisyExamples/libDaisy/src/sys/system.h ****         /** Method to call on the struct to set to boost mode:
  44:/Users/dominicfrugoli/Desktop/ProgrammingCode/DaisyCode/DaisyExamples/libDaisy/src/sys/system.h ****          ** CPU Freq set to 480MHz
  45:/Users/dominicfrugoli/Desktop/ProgrammingCode/DaisyCode/DaisyExamples/libDaisy/src/sys/system.h ****          ** Cache Enabled
  46:/Users/dominicfrugoli/Desktop/ProgrammingCode/DaisyCode/DaisyExamples/libDaisy/src/sys/system.h ****          ** */
  47:/Users/dominicfrugoli/Desktop/ProgrammingCode/DaisyCode/DaisyExamples/libDaisy/src/sys/system.h ****         void Boost()
  48:/Users/dominicfrugoli/Desktop/ProgrammingCode/DaisyCode/DaisyExamples/libDaisy/src/sys/system.h ****         {
  49:/Users/dominicfrugoli/Desktop/ProgrammingCode/DaisyCode/DaisyExamples/libDaisy/src/sys/system.h ****             cpu_freq    = SysClkFreq::FREQ_480MHZ;
  50:/Users/dominicfrugoli/Desktop/ProgrammingCode/DaisyCode/DaisyExamples/libDaisy/src/sys/system.h ****             use_dcache  = true;
  51:/Users/dominicfrugoli/Desktop/ProgrammingCode/DaisyCode/DaisyExamples/libDaisy/src/sys/system.h ****             use_icache  = true;
  52:/Users/dominicfrugoli/Desktop/ProgrammingCode/DaisyCode/DaisyExamples/libDaisy/src/sys/system.h ****             skip_clocks = false;
  53:/Users/dominicfrugoli/Desktop/ProgrammingCode/DaisyCode/DaisyExamples/libDaisy/src/sys/system.h ****         }
  54:/Users/dominicfrugoli/Desktop/ProgrammingCode/DaisyCode/DaisyExamples/libDaisy/src/sys/system.h **** 
  55:/Users/dominicfrugoli/Desktop/ProgrammingCode/DaisyCode/DaisyExamples/libDaisy/src/sys/system.h ****         SysClkFreq cpu_freq;
  56:/Users/dominicfrugoli/Desktop/ProgrammingCode/DaisyCode/DaisyExamples/libDaisy/src/sys/system.h ****         bool       use_dcache;
  57:/Users/dominicfrugoli/Desktop/ProgrammingCode/DaisyCode/DaisyExamples/libDaisy/src/sys/system.h ****         bool       use_icache;
  58:/Users/dominicfrugoli/Desktop/ProgrammingCode/DaisyCode/DaisyExamples/libDaisy/src/sys/system.h ****         bool       skip_clocks;
  59:/Users/dominicfrugoli/Desktop/ProgrammingCode/DaisyCode/DaisyExamples/libDaisy/src/sys/system.h ****     };
  60:/Users/dominicfrugoli/Desktop/ProgrammingCode/DaisyCode/DaisyExamples/libDaisy/src/sys/system.h **** 
  61:/Users/dominicfrugoli/Desktop/ProgrammingCode/DaisyCode/DaisyExamples/libDaisy/src/sys/system.h ****     /** Describes the different regions of memory available to the Daisy */
  62:/Users/dominicfrugoli/Desktop/ProgrammingCode/DaisyCode/DaisyExamples/libDaisy/src/sys/system.h ****     enum MemoryRegion
  63:/Users/dominicfrugoli/Desktop/ProgrammingCode/DaisyCode/DaisyExamples/libDaisy/src/sys/system.h ****     {
  64:/Users/dominicfrugoli/Desktop/ProgrammingCode/DaisyCode/DaisyExamples/libDaisy/src/sys/system.h ****         INTERNAL_FLASH = 0,
  65:/Users/dominicfrugoli/Desktop/ProgrammingCode/DaisyCode/DaisyExamples/libDaisy/src/sys/system.h ****         ITCMRAM,
  66:/Users/dominicfrugoli/Desktop/ProgrammingCode/DaisyCode/DaisyExamples/libDaisy/src/sys/system.h ****         DTCMRAM,
  67:/Users/dominicfrugoli/Desktop/ProgrammingCode/DaisyCode/DaisyExamples/libDaisy/src/sys/system.h ****         SRAM_D1,
  68:/Users/dominicfrugoli/Desktop/ProgrammingCode/DaisyCode/DaisyExamples/libDaisy/src/sys/system.h ****         SRAM_D2,
  69:/Users/dominicfrugoli/Desktop/ProgrammingCode/DaisyCode/DaisyExamples/libDaisy/src/sys/system.h ****         SRAM_D3,
  70:/Users/dominicfrugoli/Desktop/ProgrammingCode/DaisyCode/DaisyExamples/libDaisy/src/sys/system.h ****         SDRAM,
  71:/Users/dominicfrugoli/Desktop/ProgrammingCode/DaisyCode/DaisyExamples/libDaisy/src/sys/system.h ****         QSPI,
  72:/Users/dominicfrugoli/Desktop/ProgrammingCode/DaisyCode/DaisyExamples/libDaisy/src/sys/system.h ****         INVALID_ADDRESS,
  73:/Users/dominicfrugoli/Desktop/ProgrammingCode/DaisyCode/DaisyExamples/libDaisy/src/sys/system.h ****     };
  74:/Users/dominicfrugoli/Desktop/ProgrammingCode/DaisyCode/DaisyExamples/libDaisy/src/sys/system.h **** 
  75:/Users/dominicfrugoli/Desktop/ProgrammingCode/DaisyCode/DaisyExamples/libDaisy/src/sys/system.h ****     /** Bootloader struct for controlling bootloading parameters */
  76:/Users/dominicfrugoli/Desktop/ProgrammingCode/DaisyCode/DaisyExamples/libDaisy/src/sys/system.h ****     struct BootInfo
  77:/Users/dominicfrugoli/Desktop/ProgrammingCode/DaisyCode/DaisyExamples/libDaisy/src/sys/system.h ****     {
  78:/Users/dominicfrugoli/Desktop/ProgrammingCode/DaisyCode/DaisyExamples/libDaisy/src/sys/system.h ****         enum class Type : uint32_t
  79:/Users/dominicfrugoli/Desktop/ProgrammingCode/DaisyCode/DaisyExamples/libDaisy/src/sys/system.h ****         {
  80:/Users/dominicfrugoli/Desktop/ProgrammingCode/DaisyCode/DaisyExamples/libDaisy/src/sys/system.h ****             INVALID      = 0x00000000,
  81:/Users/dominicfrugoli/Desktop/ProgrammingCode/DaisyCode/DaisyExamples/libDaisy/src/sys/system.h ****             JUMP         = 0xDEADBEEF,
  82:/Users/dominicfrugoli/Desktop/ProgrammingCode/DaisyCode/DaisyExamples/libDaisy/src/sys/system.h ****             SKIP_TIMEOUT = 0x5AFEB007,
  83:/Users/dominicfrugoli/Desktop/ProgrammingCode/DaisyCode/DaisyExamples/libDaisy/src/sys/system.h ****             INF_TIMEOUT  = 0xB0074EFA,
  84:/Users/dominicfrugoli/Desktop/ProgrammingCode/DaisyCode/DaisyExamples/libDaisy/src/sys/system.h ****         } status;
  85:/Users/dominicfrugoli/Desktop/ProgrammingCode/DaisyCode/DaisyExamples/libDaisy/src/sys/system.h ****         uint32_t data;
  86:/Users/dominicfrugoli/Desktop/ProgrammingCode/DaisyCode/DaisyExamples/libDaisy/src/sys/system.h ****         enum class Version : uint32_t
  87:/Users/dominicfrugoli/Desktop/ProgrammingCode/DaisyCode/DaisyExamples/libDaisy/src/sys/system.h ****         {
  88:/Users/dominicfrugoli/Desktop/ProgrammingCode/DaisyCode/DaisyExamples/libDaisy/src/sys/system.h ****             LT_v6_0 = 0, // Less than v6.0
  89:/Users/dominicfrugoli/Desktop/ProgrammingCode/DaisyCode/DaisyExamples/libDaisy/src/sys/system.h ****             NONE,        // No bootloader present
  90:/Users/dominicfrugoli/Desktop/ProgrammingCode/DaisyCode/DaisyExamples/libDaisy/src/sys/system.h ****             v6_0,        // v6.0
  91:/Users/dominicfrugoli/Desktop/ProgrammingCode/DaisyCode/DaisyExamples/libDaisy/src/sys/system.h ****             v6_1,        // v6.1 or greater
ARM GAS  /var/folders/m5/x8wc2gdj7z5cpgcqdsb_gkj40000gn/T//ccGxviRN.s 			page 6


  92:/Users/dominicfrugoli/Desktop/ProgrammingCode/DaisyCode/DaisyExamples/libDaisy/src/sys/system.h ****             LAST
  93:/Users/dominicfrugoli/Desktop/ProgrammingCode/DaisyCode/DaisyExamples/libDaisy/src/sys/system.h ****         } version;
  94:/Users/dominicfrugoli/Desktop/ProgrammingCode/DaisyCode/DaisyExamples/libDaisy/src/sys/system.h ****     };
  95:/Users/dominicfrugoli/Desktop/ProgrammingCode/DaisyCode/DaisyExamples/libDaisy/src/sys/system.h **** 
  96:/Users/dominicfrugoli/Desktop/ProgrammingCode/DaisyCode/DaisyExamples/libDaisy/src/sys/system.h ****     System() {}
  97:/Users/dominicfrugoli/Desktop/ProgrammingCode/DaisyCode/DaisyExamples/libDaisy/src/sys/system.h ****     ~System() {}
  92              		.loc 5 97 5 view .LVU7
  93              		.loc 5 97 5 is_stmt 0 view .LVU8
  94              	.LBE402:
  95              	.LBB403:
  96              	.LBI403:
  97              		.file 6 "/Users/dominicfrugoli/Desktop/ProgrammingCode/DaisyCode/DaisyExamples/libDaisy/src/hid/us
   1:/Users/dominicfrugoli/Desktop/ProgrammingCode/DaisyCode/DaisyExamples/libDaisy/src/hid/usb.h **** #pragma once
   2:/Users/dominicfrugoli/Desktop/ProgrammingCode/DaisyCode/DaisyExamples/libDaisy/src/hid/usb.h **** #ifndef DSY_HID_USB_H
   3:/Users/dominicfrugoli/Desktop/ProgrammingCode/DaisyCode/DaisyExamples/libDaisy/src/hid/usb.h **** #define DSY_HID_USB_H
   4:/Users/dominicfrugoli/Desktop/ProgrammingCode/DaisyCode/DaisyExamples/libDaisy/src/hid/usb.h **** #include <stdint.h>
   5:/Users/dominicfrugoli/Desktop/ProgrammingCode/DaisyCode/DaisyExamples/libDaisy/src/hid/usb.h **** #include <stdlib.h>
   6:/Users/dominicfrugoli/Desktop/ProgrammingCode/DaisyCode/DaisyExamples/libDaisy/src/hid/usb.h **** 
   7:/Users/dominicfrugoli/Desktop/ProgrammingCode/DaisyCode/DaisyExamples/libDaisy/src/hid/usb.h **** namespace daisy
   8:/Users/dominicfrugoli/Desktop/ProgrammingCode/DaisyCode/DaisyExamples/libDaisy/src/hid/usb.h **** /** @addtogroup human_interface
   9:/Users/dominicfrugoli/Desktop/ProgrammingCode/DaisyCode/DaisyExamples/libDaisy/src/hid/usb.h ****     @{
  10:/Users/dominicfrugoli/Desktop/ProgrammingCode/DaisyCode/DaisyExamples/libDaisy/src/hid/usb.h **** */
  11:/Users/dominicfrugoli/Desktop/ProgrammingCode/DaisyCode/DaisyExamples/libDaisy/src/hid/usb.h **** 
  12:/Users/dominicfrugoli/Desktop/ProgrammingCode/DaisyCode/DaisyExamples/libDaisy/src/hid/usb.h **** {
  13:/Users/dominicfrugoli/Desktop/ProgrammingCode/DaisyCode/DaisyExamples/libDaisy/src/hid/usb.h **** /** 
  14:/Users/dominicfrugoli/Desktop/ProgrammingCode/DaisyCode/DaisyExamples/libDaisy/src/hid/usb.h ****     @brief Interface for initializing and using the USB Peripherals on the daisy
  15:/Users/dominicfrugoli/Desktop/ProgrammingCode/DaisyCode/DaisyExamples/libDaisy/src/hid/usb.h ****     @author Stephen Hensley
  16:/Users/dominicfrugoli/Desktop/ProgrammingCode/DaisyCode/DaisyExamples/libDaisy/src/hid/usb.h ****     @date December 2019
  17:/Users/dominicfrugoli/Desktop/ProgrammingCode/DaisyCode/DaisyExamples/libDaisy/src/hid/usb.h **** */
  18:/Users/dominicfrugoli/Desktop/ProgrammingCode/DaisyCode/DaisyExamples/libDaisy/src/hid/usb.h **** class UsbHandle
  19:/Users/dominicfrugoli/Desktop/ProgrammingCode/DaisyCode/DaisyExamples/libDaisy/src/hid/usb.h **** {
  20:/Users/dominicfrugoli/Desktop/ProgrammingCode/DaisyCode/DaisyExamples/libDaisy/src/hid/usb.h ****   public:
  21:/Users/dominicfrugoli/Desktop/ProgrammingCode/DaisyCode/DaisyExamples/libDaisy/src/hid/usb.h ****     /** Return values for USBHandle Functions */
  22:/Users/dominicfrugoli/Desktop/ProgrammingCode/DaisyCode/DaisyExamples/libDaisy/src/hid/usb.h ****     enum class Result
  23:/Users/dominicfrugoli/Desktop/ProgrammingCode/DaisyCode/DaisyExamples/libDaisy/src/hid/usb.h ****     {
  24:/Users/dominicfrugoli/Desktop/ProgrammingCode/DaisyCode/DaisyExamples/libDaisy/src/hid/usb.h ****         OK,
  25:/Users/dominicfrugoli/Desktop/ProgrammingCode/DaisyCode/DaisyExamples/libDaisy/src/hid/usb.h ****         ERR,
  26:/Users/dominicfrugoli/Desktop/ProgrammingCode/DaisyCode/DaisyExamples/libDaisy/src/hid/usb.h ****     };
  27:/Users/dominicfrugoli/Desktop/ProgrammingCode/DaisyCode/DaisyExamples/libDaisy/src/hid/usb.h **** 
  28:/Users/dominicfrugoli/Desktop/ProgrammingCode/DaisyCode/DaisyExamples/libDaisy/src/hid/usb.h ****     /** Specified which of the two USB Peripherals to initialize. */
  29:/Users/dominicfrugoli/Desktop/ProgrammingCode/DaisyCode/DaisyExamples/libDaisy/src/hid/usb.h ****     enum UsbPeriph
  30:/Users/dominicfrugoli/Desktop/ProgrammingCode/DaisyCode/DaisyExamples/libDaisy/src/hid/usb.h ****     {
  31:/Users/dominicfrugoli/Desktop/ProgrammingCode/DaisyCode/DaisyExamples/libDaisy/src/hid/usb.h ****         FS_INTERNAL, /**< Internal pin */
  32:/Users/dominicfrugoli/Desktop/ProgrammingCode/DaisyCode/DaisyExamples/libDaisy/src/hid/usb.h ****         FS_EXTERNAL, /**< FS External D+ pin is Pin 38 (GPIO32). FS External D- pin is Pin 37 (GPIO
  33:/Users/dominicfrugoli/Desktop/ProgrammingCode/DaisyCode/DaisyExamples/libDaisy/src/hid/usb.h ****         FS_BOTH,     /**< Both */
  34:/Users/dominicfrugoli/Desktop/ProgrammingCode/DaisyCode/DaisyExamples/libDaisy/src/hid/usb.h ****     };
  35:/Users/dominicfrugoli/Desktop/ProgrammingCode/DaisyCode/DaisyExamples/libDaisy/src/hid/usb.h **** 
  36:/Users/dominicfrugoli/Desktop/ProgrammingCode/DaisyCode/DaisyExamples/libDaisy/src/hid/usb.h **** 
  37:/Users/dominicfrugoli/Desktop/ProgrammingCode/DaisyCode/DaisyExamples/libDaisy/src/hid/usb.h ****     /** Function called upon reception of a buffer */
  38:/Users/dominicfrugoli/Desktop/ProgrammingCode/DaisyCode/DaisyExamples/libDaisy/src/hid/usb.h ****     typedef void (*ReceiveCallback)(uint8_t* buff, uint32_t* len);
  39:/Users/dominicfrugoli/Desktop/ProgrammingCode/DaisyCode/DaisyExamples/libDaisy/src/hid/usb.h **** 
  40:/Users/dominicfrugoli/Desktop/ProgrammingCode/DaisyCode/DaisyExamples/libDaisy/src/hid/usb.h ****     UsbHandle() {}
  41:/Users/dominicfrugoli/Desktop/ProgrammingCode/DaisyCode/DaisyExamples/libDaisy/src/hid/usb.h **** 
  42:/Users/dominicfrugoli/Desktop/ProgrammingCode/DaisyCode/DaisyExamples/libDaisy/src/hid/usb.h ****     ~UsbHandle() {}
  98              		.loc 6 42 5 is_stmt 1 view .LVU9
  99              		.loc 6 42 5 is_stmt 0 view .LVU10
 100              	.LBE403:
ARM GAS  /var/folders/m5/x8wc2gdj7z5cpgcqdsb_gkj40000gn/T//ccGxviRN.s 			page 7


 101              	.LBB404:
 102              	.LBI404:
 103              		.file 7 "/Users/dominicfrugoli/Desktop/ProgrammingCode/DaisyCode/DaisyExamples/libDaisy/src/per/ad
   1:/Users/dominicfrugoli/Desktop/ProgrammingCode/DaisyCode/DaisyExamples/libDaisy/src/per/adc.h **** #pragma once
   2:/Users/dominicfrugoli/Desktop/ProgrammingCode/DaisyCode/DaisyExamples/libDaisy/src/per/adc.h **** #ifndef DSY_ADC_H
   3:/Users/dominicfrugoli/Desktop/ProgrammingCode/DaisyCode/DaisyExamples/libDaisy/src/per/adc.h **** #define DSY_ADC_H /**< Macro */
   4:/Users/dominicfrugoli/Desktop/ProgrammingCode/DaisyCode/DaisyExamples/libDaisy/src/per/adc.h **** #include <stdint.h>
   5:/Users/dominicfrugoli/Desktop/ProgrammingCode/DaisyCode/DaisyExamples/libDaisy/src/per/adc.h **** #include <stdlib.h>
   6:/Users/dominicfrugoli/Desktop/ProgrammingCode/DaisyCode/DaisyExamples/libDaisy/src/per/adc.h **** #include "daisy_core.h"
   7:/Users/dominicfrugoli/Desktop/ProgrammingCode/DaisyCode/DaisyExamples/libDaisy/src/per/adc.h **** #include "per/gpio.h"
   8:/Users/dominicfrugoli/Desktop/ProgrammingCode/DaisyCode/DaisyExamples/libDaisy/src/per/adc.h **** 
   9:/Users/dominicfrugoli/Desktop/ProgrammingCode/DaisyCode/DaisyExamples/libDaisy/src/per/adc.h **** #define DSY_ADC_MAX_CHANNELS 16 /**< Maximum number of ADC channels */
  10:/Users/dominicfrugoli/Desktop/ProgrammingCode/DaisyCode/DaisyExamples/libDaisy/src/per/adc.h **** 
  11:/Users/dominicfrugoli/Desktop/ProgrammingCode/DaisyCode/DaisyExamples/libDaisy/src/per/adc.h **** namespace daisy
  12:/Users/dominicfrugoli/Desktop/ProgrammingCode/DaisyCode/DaisyExamples/libDaisy/src/per/adc.h **** {
  13:/Users/dominicfrugoli/Desktop/ProgrammingCode/DaisyCode/DaisyExamples/libDaisy/src/per/adc.h **** /** @addtogroup per_analog
  14:/Users/dominicfrugoli/Desktop/ProgrammingCode/DaisyCode/DaisyExamples/libDaisy/src/per/adc.h ****     @{
  15:/Users/dominicfrugoli/Desktop/ProgrammingCode/DaisyCode/DaisyExamples/libDaisy/src/per/adc.h **** */
  16:/Users/dominicfrugoli/Desktop/ProgrammingCode/DaisyCode/DaisyExamples/libDaisy/src/per/adc.h **** 
  17:/Users/dominicfrugoli/Desktop/ProgrammingCode/DaisyCode/DaisyExamples/libDaisy/src/per/adc.h **** /* While there may not be many configuration options here,
  18:/Users/dominicfrugoli/Desktop/ProgrammingCode/DaisyCode/DaisyExamples/libDaisy/src/per/adc.h **** using a struct like this allows us to add more configuration
  19:/Users/dominicfrugoli/Desktop/ProgrammingCode/DaisyCode/DaisyExamples/libDaisy/src/per/adc.h **** later without breaking existing functionality.
  20:/Users/dominicfrugoli/Desktop/ProgrammingCode/DaisyCode/DaisyExamples/libDaisy/src/per/adc.h **** */
  21:/Users/dominicfrugoli/Desktop/ProgrammingCode/DaisyCode/DaisyExamples/libDaisy/src/per/adc.h **** 
  22:/Users/dominicfrugoli/Desktop/ProgrammingCode/DaisyCode/DaisyExamples/libDaisy/src/per/adc.h **** /** @brief   Configuration Structure for an ADC Channel 
  23:/Users/dominicfrugoli/Desktop/ProgrammingCode/DaisyCode/DaisyExamples/libDaisy/src/per/adc.h ****  *  @details This can be used to configure a a single input, 
  24:/Users/dominicfrugoli/Desktop/ProgrammingCode/DaisyCode/DaisyExamples/libDaisy/src/per/adc.h ****  *           or a multiplexed input, allowing up to 8 inputs on 
  25:/Users/dominicfrugoli/Desktop/ProgrammingCode/DaisyCode/DaisyExamples/libDaisy/src/per/adc.h ****  *           one channel.
  26:/Users/dominicfrugoli/Desktop/ProgrammingCode/DaisyCode/DaisyExamples/libDaisy/src/per/adc.h ****  *  @note    Sharing data lines to multiple muxes _is_ possible, but
  27:/Users/dominicfrugoli/Desktop/ProgrammingCode/DaisyCode/DaisyExamples/libDaisy/src/per/adc.h ****  *           each channel sharing data lines must be set to the maximum
  28:/Users/dominicfrugoli/Desktop/ProgrammingCode/DaisyCode/DaisyExamples/libDaisy/src/per/adc.h ****  *           number of channels, even if some multiplexers have fewer
  29:/Users/dominicfrugoli/Desktop/ProgrammingCode/DaisyCode/DaisyExamples/libDaisy/src/per/adc.h ****  *           inputs connected.
  30:/Users/dominicfrugoli/Desktop/ProgrammingCode/DaisyCode/DaisyExamples/libDaisy/src/per/adc.h **** */
  31:/Users/dominicfrugoli/Desktop/ProgrammingCode/DaisyCode/DaisyExamples/libDaisy/src/per/adc.h **** struct AdcChannelConfig
  32:/Users/dominicfrugoli/Desktop/ProgrammingCode/DaisyCode/DaisyExamples/libDaisy/src/per/adc.h **** {
  33:/Users/dominicfrugoli/Desktop/ProgrammingCode/DaisyCode/DaisyExamples/libDaisy/src/per/adc.h ****     /** Which pin to use for multiplexing */
  34:/Users/dominicfrugoli/Desktop/ProgrammingCode/DaisyCode/DaisyExamples/libDaisy/src/per/adc.h ****     enum MuxPin
  35:/Users/dominicfrugoli/Desktop/ProgrammingCode/DaisyCode/DaisyExamples/libDaisy/src/per/adc.h ****     {
  36:/Users/dominicfrugoli/Desktop/ProgrammingCode/DaisyCode/DaisyExamples/libDaisy/src/per/adc.h ****         MUX_SEL_0,    /**< & */
  37:/Users/dominicfrugoli/Desktop/ProgrammingCode/DaisyCode/DaisyExamples/libDaisy/src/per/adc.h ****         MUX_SEL_1,    /**< & */
  38:/Users/dominicfrugoli/Desktop/ProgrammingCode/DaisyCode/DaisyExamples/libDaisy/src/per/adc.h ****         MUX_SEL_2,    /**< & */
  39:/Users/dominicfrugoli/Desktop/ProgrammingCode/DaisyCode/DaisyExamples/libDaisy/src/per/adc.h ****         MUX_SEL_LAST, /**< & */
  40:/Users/dominicfrugoli/Desktop/ProgrammingCode/DaisyCode/DaisyExamples/libDaisy/src/per/adc.h ****     };
  41:/Users/dominicfrugoli/Desktop/ProgrammingCode/DaisyCode/DaisyExamples/libDaisy/src/per/adc.h **** 
  42:/Users/dominicfrugoli/Desktop/ProgrammingCode/DaisyCode/DaisyExamples/libDaisy/src/per/adc.h ****     /** \brief per channel conversion speed added to fixed time based on bitdepth, etc. */
  43:/Users/dominicfrugoli/Desktop/ProgrammingCode/DaisyCode/DaisyExamples/libDaisy/src/per/adc.h ****     enum ConversionSpeed
  44:/Users/dominicfrugoli/Desktop/ProgrammingCode/DaisyCode/DaisyExamples/libDaisy/src/per/adc.h ****     {
  45:/Users/dominicfrugoli/Desktop/ProgrammingCode/DaisyCode/DaisyExamples/libDaisy/src/per/adc.h ****         SPEED_1CYCLES_5,
  46:/Users/dominicfrugoli/Desktop/ProgrammingCode/DaisyCode/DaisyExamples/libDaisy/src/per/adc.h ****         SPEED_2CYCLES_5,
  47:/Users/dominicfrugoli/Desktop/ProgrammingCode/DaisyCode/DaisyExamples/libDaisy/src/per/adc.h ****         SPEED_8CYCLES_5,
  48:/Users/dominicfrugoli/Desktop/ProgrammingCode/DaisyCode/DaisyExamples/libDaisy/src/per/adc.h ****         SPEED_16CYCLES_5,
  49:/Users/dominicfrugoli/Desktop/ProgrammingCode/DaisyCode/DaisyExamples/libDaisy/src/per/adc.h ****         SPEED_32CYCLES_5,
  50:/Users/dominicfrugoli/Desktop/ProgrammingCode/DaisyCode/DaisyExamples/libDaisy/src/per/adc.h ****         SPEED_64CYCLES_5,
  51:/Users/dominicfrugoli/Desktop/ProgrammingCode/DaisyCode/DaisyExamples/libDaisy/src/per/adc.h ****         SPEED_387CYCLES_5,
  52:/Users/dominicfrugoli/Desktop/ProgrammingCode/DaisyCode/DaisyExamples/libDaisy/src/per/adc.h ****         SPEED_810CYCLES_5,
  53:/Users/dominicfrugoli/Desktop/ProgrammingCode/DaisyCode/DaisyExamples/libDaisy/src/per/adc.h ****     };
  54:/Users/dominicfrugoli/Desktop/ProgrammingCode/DaisyCode/DaisyExamples/libDaisy/src/per/adc.h **** 
ARM GAS  /var/folders/m5/x8wc2gdj7z5cpgcqdsb_gkj40000gn/T//ccGxviRN.s 			page 8


  55:/Users/dominicfrugoli/Desktop/ProgrammingCode/DaisyCode/DaisyExamples/libDaisy/src/per/adc.h ****     /** Initializes a single ADC pin as an ADC. 
  56:/Users/dominicfrugoli/Desktop/ProgrammingCode/DaisyCode/DaisyExamples/libDaisy/src/per/adc.h ****     \param pin Pin to init.
  57:/Users/dominicfrugoli/Desktop/ProgrammingCode/DaisyCode/DaisyExamples/libDaisy/src/per/adc.h ****     \param speed conversion speed for this pin defaults to 8.5 cycles
  58:/Users/dominicfrugoli/Desktop/ProgrammingCode/DaisyCode/DaisyExamples/libDaisy/src/per/adc.h ****      */
  59:/Users/dominicfrugoli/Desktop/ProgrammingCode/DaisyCode/DaisyExamples/libDaisy/src/per/adc.h ****     void InitSingle(dsy_gpio_pin pin, ConversionSpeed speed = SPEED_8CYCLES_5);
  60:/Users/dominicfrugoli/Desktop/ProgrammingCode/DaisyCode/DaisyExamples/libDaisy/src/per/adc.h **** 
  61:/Users/dominicfrugoli/Desktop/ProgrammingCode/DaisyCode/DaisyExamples/libDaisy/src/per/adc.h ****     /** 
  62:/Users/dominicfrugoli/Desktop/ProgrammingCode/DaisyCode/DaisyExamples/libDaisy/src/per/adc.h ****     Initializes a single ADC pin as a Multiplexed ADC.
  63:/Users/dominicfrugoli/Desktop/ProgrammingCode/DaisyCode/DaisyExamples/libDaisy/src/per/adc.h ****     Requires a CD405X Multiplexer connected to the pin.
  64:/Users/dominicfrugoli/Desktop/ProgrammingCode/DaisyCode/DaisyExamples/libDaisy/src/per/adc.h ****     You only need to supply the mux pins that are required,
  65:/Users/dominicfrugoli/Desktop/ProgrammingCode/DaisyCode/DaisyExamples/libDaisy/src/per/adc.h ****     e.g. a 4052 mux would only require mux_0 and mux_1.
  66:/Users/dominicfrugoli/Desktop/ProgrammingCode/DaisyCode/DaisyExamples/libDaisy/src/per/adc.h ****     Internal Callbacks handle the pin addressing.
  67:/Users/dominicfrugoli/Desktop/ProgrammingCode/DaisyCode/DaisyExamples/libDaisy/src/per/adc.h ****     \param adc_pin &
  68:/Users/dominicfrugoli/Desktop/ProgrammingCode/DaisyCode/DaisyExamples/libDaisy/src/per/adc.h ****     \param mux_channels must be 1-8
  69:/Users/dominicfrugoli/Desktop/ProgrammingCode/DaisyCode/DaisyExamples/libDaisy/src/per/adc.h ****     \param mux_0 First mux pin
  70:/Users/dominicfrugoli/Desktop/ProgrammingCode/DaisyCode/DaisyExamples/libDaisy/src/per/adc.h ****     \param mux_1 Second mux pin
  71:/Users/dominicfrugoli/Desktop/ProgrammingCode/DaisyCode/DaisyExamples/libDaisy/src/per/adc.h ****     \param mux_2 Third mux pin
  72:/Users/dominicfrugoli/Desktop/ProgrammingCode/DaisyCode/DaisyExamples/libDaisy/src/per/adc.h ****     \param speed conversion speed for this pin defaults to 8.5 cycles
  73:/Users/dominicfrugoli/Desktop/ProgrammingCode/DaisyCode/DaisyExamples/libDaisy/src/per/adc.h ****     */
  74:/Users/dominicfrugoli/Desktop/ProgrammingCode/DaisyCode/DaisyExamples/libDaisy/src/per/adc.h ****     void InitMux(dsy_gpio_pin    adc_pin,
  75:/Users/dominicfrugoli/Desktop/ProgrammingCode/DaisyCode/DaisyExamples/libDaisy/src/per/adc.h ****                  size_t          mux_channels,
  76:/Users/dominicfrugoli/Desktop/ProgrammingCode/DaisyCode/DaisyExamples/libDaisy/src/per/adc.h ****                  dsy_gpio_pin    mux_0,
  77:/Users/dominicfrugoli/Desktop/ProgrammingCode/DaisyCode/DaisyExamples/libDaisy/src/per/adc.h ****                  dsy_gpio_pin    mux_1 = {DSY_GPIOX, 0},
  78:/Users/dominicfrugoli/Desktop/ProgrammingCode/DaisyCode/DaisyExamples/libDaisy/src/per/adc.h ****                  dsy_gpio_pin    mux_2 = {DSY_GPIOX, 0},
  79:/Users/dominicfrugoli/Desktop/ProgrammingCode/DaisyCode/DaisyExamples/libDaisy/src/per/adc.h ****                  ConversionSpeed speed = SPEED_8CYCLES_5);
  80:/Users/dominicfrugoli/Desktop/ProgrammingCode/DaisyCode/DaisyExamples/libDaisy/src/per/adc.h **** 
  81:/Users/dominicfrugoli/Desktop/ProgrammingCode/DaisyCode/DaisyExamples/libDaisy/src/per/adc.h ****     dsy_gpio        pin_;                   /**< & */
  82:/Users/dominicfrugoli/Desktop/ProgrammingCode/DaisyCode/DaisyExamples/libDaisy/src/per/adc.h ****     dsy_gpio        mux_pin_[MUX_SEL_LAST]; /**< & */
  83:/Users/dominicfrugoli/Desktop/ProgrammingCode/DaisyCode/DaisyExamples/libDaisy/src/per/adc.h ****     uint8_t         mux_channels_;          /**< & */
  84:/Users/dominicfrugoli/Desktop/ProgrammingCode/DaisyCode/DaisyExamples/libDaisy/src/per/adc.h ****     ConversionSpeed speed_;
  85:/Users/dominicfrugoli/Desktop/ProgrammingCode/DaisyCode/DaisyExamples/libDaisy/src/per/adc.h **** };
  86:/Users/dominicfrugoli/Desktop/ProgrammingCode/DaisyCode/DaisyExamples/libDaisy/src/per/adc.h **** 
  87:/Users/dominicfrugoli/Desktop/ProgrammingCode/DaisyCode/DaisyExamples/libDaisy/src/per/adc.h **** /**
  88:/Users/dominicfrugoli/Desktop/ProgrammingCode/DaisyCode/DaisyExamples/libDaisy/src/per/adc.h ****    @brief Handler for analog to digital conversion
  89:/Users/dominicfrugoli/Desktop/ProgrammingCode/DaisyCode/DaisyExamples/libDaisy/src/per/adc.h **** */
  90:/Users/dominicfrugoli/Desktop/ProgrammingCode/DaisyCode/DaisyExamples/libDaisy/src/per/adc.h **** class AdcHandle
  91:/Users/dominicfrugoli/Desktop/ProgrammingCode/DaisyCode/DaisyExamples/libDaisy/src/per/adc.h **** {
  92:/Users/dominicfrugoli/Desktop/ProgrammingCode/DaisyCode/DaisyExamples/libDaisy/src/per/adc.h ****   public:
  93:/Users/dominicfrugoli/Desktop/ProgrammingCode/DaisyCode/DaisyExamples/libDaisy/src/per/adc.h ****     /** Supported oversampling amounts */
  94:/Users/dominicfrugoli/Desktop/ProgrammingCode/DaisyCode/DaisyExamples/libDaisy/src/per/adc.h ****     enum OverSampling
  95:/Users/dominicfrugoli/Desktop/ProgrammingCode/DaisyCode/DaisyExamples/libDaisy/src/per/adc.h ****     {
  96:/Users/dominicfrugoli/Desktop/ProgrammingCode/DaisyCode/DaisyExamples/libDaisy/src/per/adc.h ****         OVS_NONE, /**< & */
  97:/Users/dominicfrugoli/Desktop/ProgrammingCode/DaisyCode/DaisyExamples/libDaisy/src/per/adc.h ****         OVS_4,    /**< & */
  98:/Users/dominicfrugoli/Desktop/ProgrammingCode/DaisyCode/DaisyExamples/libDaisy/src/per/adc.h ****         OVS_8,    /**< & */
  99:/Users/dominicfrugoli/Desktop/ProgrammingCode/DaisyCode/DaisyExamples/libDaisy/src/per/adc.h ****         OVS_16,   /**< & */
 100:/Users/dominicfrugoli/Desktop/ProgrammingCode/DaisyCode/DaisyExamples/libDaisy/src/per/adc.h ****         OVS_32,   /**< & */
 101:/Users/dominicfrugoli/Desktop/ProgrammingCode/DaisyCode/DaisyExamples/libDaisy/src/per/adc.h ****         OVS_64,   /**< & */
 102:/Users/dominicfrugoli/Desktop/ProgrammingCode/DaisyCode/DaisyExamples/libDaisy/src/per/adc.h ****         OVS_128,  /**< & */
 103:/Users/dominicfrugoli/Desktop/ProgrammingCode/DaisyCode/DaisyExamples/libDaisy/src/per/adc.h ****         OVS_256,  /**< & */
 104:/Users/dominicfrugoli/Desktop/ProgrammingCode/DaisyCode/DaisyExamples/libDaisy/src/per/adc.h ****         OVS_512,  /**< & */
 105:/Users/dominicfrugoli/Desktop/ProgrammingCode/DaisyCode/DaisyExamples/libDaisy/src/per/adc.h ****         OVS_1024, /**< & */
 106:/Users/dominicfrugoli/Desktop/ProgrammingCode/DaisyCode/DaisyExamples/libDaisy/src/per/adc.h ****         OVS_LAST, /**< & */
 107:/Users/dominicfrugoli/Desktop/ProgrammingCode/DaisyCode/DaisyExamples/libDaisy/src/per/adc.h ****     };
 108:/Users/dominicfrugoli/Desktop/ProgrammingCode/DaisyCode/DaisyExamples/libDaisy/src/per/adc.h **** 
 109:/Users/dominicfrugoli/Desktop/ProgrammingCode/DaisyCode/DaisyExamples/libDaisy/src/per/adc.h ****     AdcHandle() {}
 110:/Users/dominicfrugoli/Desktop/ProgrammingCode/DaisyCode/DaisyExamples/libDaisy/src/per/adc.h ****     ~AdcHandle() {}
 104              		.loc 7 110 5 is_stmt 1 view .LVU11
ARM GAS  /var/folders/m5/x8wc2gdj7z5cpgcqdsb_gkj40000gn/T//ccGxviRN.s 			page 9


 105              		.loc 7 110 5 is_stmt 0 view .LVU12
 106              	.LBE404:
 107              	.LBB405:
 108              	.LBI405:
 109              		.file 8 "/Users/dominicfrugoli/Desktop/ProgrammingCode/DaisyCode/DaisyExamples/libDaisy/src/hid/au
   1:/Users/dominicfrugoli/Desktop/ProgrammingCode/DaisyCode/DaisyExamples/libDaisy/src/hid/audio.h **** #ifndef DSY_AUDIO_H
   2:/Users/dominicfrugoli/Desktop/ProgrammingCode/DaisyCode/DaisyExamples/libDaisy/src/hid/audio.h **** #define DSY_AUDIO_H /**< & */
   3:/Users/dominicfrugoli/Desktop/ProgrammingCode/DaisyCode/DaisyExamples/libDaisy/src/hid/audio.h **** 
   4:/Users/dominicfrugoli/Desktop/ProgrammingCode/DaisyCode/DaisyExamples/libDaisy/src/hid/audio.h **** #include "per/sai.h"
   5:/Users/dominicfrugoli/Desktop/ProgrammingCode/DaisyCode/DaisyExamples/libDaisy/src/hid/audio.h **** 
   6:/Users/dominicfrugoli/Desktop/ProgrammingCode/DaisyCode/DaisyExamples/libDaisy/src/hid/audio.h **** namespace daisy
   7:/Users/dominicfrugoli/Desktop/ProgrammingCode/DaisyCode/DaisyExamples/libDaisy/src/hid/audio.h **** {
   8:/Users/dominicfrugoli/Desktop/ProgrammingCode/DaisyCode/DaisyExamples/libDaisy/src/hid/audio.h **** /** @brief Audio Engine Handle
   9:/Users/dominicfrugoli/Desktop/ProgrammingCode/DaisyCode/DaisyExamples/libDaisy/src/hid/audio.h ****  *  @ingroup audio 
  10:/Users/dominicfrugoli/Desktop/ProgrammingCode/DaisyCode/DaisyExamples/libDaisy/src/hid/audio.h ****  *  @details This class allows for higher level access to an audio engine.
  11:/Users/dominicfrugoli/Desktop/ProgrammingCode/DaisyCode/DaisyExamples/libDaisy/src/hid/audio.h ****  *           If you're using a SOM like the DaisySeed or DaisyPatchSM (or any 
  12:/Users/dominicfrugoli/Desktop/ProgrammingCode/DaisyCode/DaisyExamples/libDaisy/src/hid/audio.h ****  *            board that includes one of those objects) then the intialization
  13:/Users/dominicfrugoli/Desktop/ProgrammingCode/DaisyCode/DaisyExamples/libDaisy/src/hid/audio.h ****  *            is already taken  care of.
  14:/Users/dominicfrugoli/Desktop/ProgrammingCode/DaisyCode/DaisyExamples/libDaisy/src/hid/audio.h ****  *           If you're setting up your own custom hardware, or need to make changes
  15:/Users/dominicfrugoli/Desktop/ProgrammingCode/DaisyCode/DaisyExamples/libDaisy/src/hid/audio.h ****  *           you will have to take the following steps:
  16:/Users/dominicfrugoli/Desktop/ProgrammingCode/DaisyCode/DaisyExamples/libDaisy/src/hid/audio.h ****  *             1. Create and Initialize an SaiHandle or two depending on your requirements
  17:/Users/dominicfrugoli/Desktop/ProgrammingCode/DaisyCode/DaisyExamples/libDaisy/src/hid/audio.h ****  *             2. Initialize the Audio Handle with the desired settings and the Initialized SaiHand
  18:/Users/dominicfrugoli/Desktop/ProgrammingCode/DaisyCode/DaisyExamples/libDaisy/src/hid/audio.h ****  *             3. If the connected codec requires special configuration or initialization, do so
  19:/Users/dominicfrugoli/Desktop/ProgrammingCode/DaisyCode/DaisyExamples/libDaisy/src/hid/audio.h ****  *             4. Write a callback method using either the AudioCallback or the InterleavingAudioCa
  20:/Users/dominicfrugoli/Desktop/ProgrammingCode/DaisyCode/DaisyExamples/libDaisy/src/hid/audio.h ****  *             5. Start the Audio using one of the StartAudio function
  21:/Users/dominicfrugoli/Desktop/ProgrammingCode/DaisyCode/DaisyExamples/libDaisy/src/hid/audio.h ****  */
  22:/Users/dominicfrugoli/Desktop/ProgrammingCode/DaisyCode/DaisyExamples/libDaisy/src/hid/audio.h **** class AudioHandle
  23:/Users/dominicfrugoli/Desktop/ProgrammingCode/DaisyCode/DaisyExamples/libDaisy/src/hid/audio.h **** {
  24:/Users/dominicfrugoli/Desktop/ProgrammingCode/DaisyCode/DaisyExamples/libDaisy/src/hid/audio.h ****   public:
  25:/Users/dominicfrugoli/Desktop/ProgrammingCode/DaisyCode/DaisyExamples/libDaisy/src/hid/audio.h ****     /** Manually configurable details about the Audio Engine */
  26:/Users/dominicfrugoli/Desktop/ProgrammingCode/DaisyCode/DaisyExamples/libDaisy/src/hid/audio.h ****     /** TODO: Figure out how to get samplerate in here. */
  27:/Users/dominicfrugoli/Desktop/ProgrammingCode/DaisyCode/DaisyExamples/libDaisy/src/hid/audio.h ****     struct Config
  28:/Users/dominicfrugoli/Desktop/ProgrammingCode/DaisyCode/DaisyExamples/libDaisy/src/hid/audio.h ****     {
  29:/Users/dominicfrugoli/Desktop/ProgrammingCode/DaisyCode/DaisyExamples/libDaisy/src/hid/audio.h ****         /** number of samples to process per callback */
  30:/Users/dominicfrugoli/Desktop/ProgrammingCode/DaisyCode/DaisyExamples/libDaisy/src/hid/audio.h ****         size_t blocksize;
  31:/Users/dominicfrugoli/Desktop/ProgrammingCode/DaisyCode/DaisyExamples/libDaisy/src/hid/audio.h **** 
  32:/Users/dominicfrugoli/Desktop/ProgrammingCode/DaisyCode/DaisyExamples/libDaisy/src/hid/audio.h ****         /**< Sample rate of audio */
  33:/Users/dominicfrugoli/Desktop/ProgrammingCode/DaisyCode/DaisyExamples/libDaisy/src/hid/audio.h ****         SaiHandle::Config::SampleRate samplerate;
  34:/Users/dominicfrugoli/Desktop/ProgrammingCode/DaisyCode/DaisyExamples/libDaisy/src/hid/audio.h **** 
  35:/Users/dominicfrugoli/Desktop/ProgrammingCode/DaisyCode/DaisyExamples/libDaisy/src/hid/audio.h ****         /** factor for adjustment before and after callback for hardware that may have extra headro
  36:/Users/dominicfrugoli/Desktop/ProgrammingCode/DaisyCode/DaisyExamples/libDaisy/src/hid/audio.h ****         float postgain;
  37:/Users/dominicfrugoli/Desktop/ProgrammingCode/DaisyCode/DaisyExamples/libDaisy/src/hid/audio.h **** 
  38:/Users/dominicfrugoli/Desktop/ProgrammingCode/DaisyCode/DaisyExamples/libDaisy/src/hid/audio.h ****         /** factor for additional one-sided compensation to audio path for hardware that may
  39:/Users/dominicfrugoli/Desktop/ProgrammingCode/DaisyCode/DaisyExamples/libDaisy/src/hid/audio.h ****          *  have unequal input/output ranges
  40:/Users/dominicfrugoli/Desktop/ProgrammingCode/DaisyCode/DaisyExamples/libDaisy/src/hid/audio.h ****          */
  41:/Users/dominicfrugoli/Desktop/ProgrammingCode/DaisyCode/DaisyExamples/libDaisy/src/hid/audio.h ****         float output_compensation;
  42:/Users/dominicfrugoli/Desktop/ProgrammingCode/DaisyCode/DaisyExamples/libDaisy/src/hid/audio.h **** 
  43:/Users/dominicfrugoli/Desktop/ProgrammingCode/DaisyCode/DaisyExamples/libDaisy/src/hid/audio.h ****         /** Sets default values for config struct */
  44:/Users/dominicfrugoli/Desktop/ProgrammingCode/DaisyCode/DaisyExamples/libDaisy/src/hid/audio.h ****         Config()
  45:/Users/dominicfrugoli/Desktop/ProgrammingCode/DaisyCode/DaisyExamples/libDaisy/src/hid/audio.h ****         : blocksize(48),
  46:/Users/dominicfrugoli/Desktop/ProgrammingCode/DaisyCode/DaisyExamples/libDaisy/src/hid/audio.h ****           samplerate(SaiHandle::Config::SampleRate::SAI_48KHZ),
  47:/Users/dominicfrugoli/Desktop/ProgrammingCode/DaisyCode/DaisyExamples/libDaisy/src/hid/audio.h ****           postgain(1.f),
  48:/Users/dominicfrugoli/Desktop/ProgrammingCode/DaisyCode/DaisyExamples/libDaisy/src/hid/audio.h ****           output_compensation(1.f)
  49:/Users/dominicfrugoli/Desktop/ProgrammingCode/DaisyCode/DaisyExamples/libDaisy/src/hid/audio.h ****         {
  50:/Users/dominicfrugoli/Desktop/ProgrammingCode/DaisyCode/DaisyExamples/libDaisy/src/hid/audio.h ****         }
  51:/Users/dominicfrugoli/Desktop/ProgrammingCode/DaisyCode/DaisyExamples/libDaisy/src/hid/audio.h ****     };
  52:/Users/dominicfrugoli/Desktop/ProgrammingCode/DaisyCode/DaisyExamples/libDaisy/src/hid/audio.h **** 
ARM GAS  /var/folders/m5/x8wc2gdj7z5cpgcqdsb_gkj40000gn/T//ccGxviRN.s 			page 10


  53:/Users/dominicfrugoli/Desktop/ProgrammingCode/DaisyCode/DaisyExamples/libDaisy/src/hid/audio.h ****     enum class Result
  54:/Users/dominicfrugoli/Desktop/ProgrammingCode/DaisyCode/DaisyExamples/libDaisy/src/hid/audio.h ****     {
  55:/Users/dominicfrugoli/Desktop/ProgrammingCode/DaisyCode/DaisyExamples/libDaisy/src/hid/audio.h ****         OK,
  56:/Users/dominicfrugoli/Desktop/ProgrammingCode/DaisyCode/DaisyExamples/libDaisy/src/hid/audio.h ****         ERR,
  57:/Users/dominicfrugoli/Desktop/ProgrammingCode/DaisyCode/DaisyExamples/libDaisy/src/hid/audio.h ****     };
  58:/Users/dominicfrugoli/Desktop/ProgrammingCode/DaisyCode/DaisyExamples/libDaisy/src/hid/audio.h **** 
  59:/Users/dominicfrugoli/Desktop/ProgrammingCode/DaisyCode/DaisyExamples/libDaisy/src/hid/audio.h ****     /** Non-Interleaving input buffer
  60:/Users/dominicfrugoli/Desktop/ProgrammingCode/DaisyCode/DaisyExamples/libDaisy/src/hid/audio.h ****      * Buffer arranged by float[chn][sample] 
  61:/Users/dominicfrugoli/Desktop/ProgrammingCode/DaisyCode/DaisyExamples/libDaisy/src/hid/audio.h ****      * const so that the user can't modify the input
  62:/Users/dominicfrugoli/Desktop/ProgrammingCode/DaisyCode/DaisyExamples/libDaisy/src/hid/audio.h ****      */
  63:/Users/dominicfrugoli/Desktop/ProgrammingCode/DaisyCode/DaisyExamples/libDaisy/src/hid/audio.h ****     typedef const float* const* InputBuffer;
  64:/Users/dominicfrugoli/Desktop/ProgrammingCode/DaisyCode/DaisyExamples/libDaisy/src/hid/audio.h **** 
  65:/Users/dominicfrugoli/Desktop/ProgrammingCode/DaisyCode/DaisyExamples/libDaisy/src/hid/audio.h ****     /** Non-Interleaving output buffer
  66:/Users/dominicfrugoli/Desktop/ProgrammingCode/DaisyCode/DaisyExamples/libDaisy/src/hid/audio.h ****      * Arranged by float[chn][sample] 
  67:/Users/dominicfrugoli/Desktop/ProgrammingCode/DaisyCode/DaisyExamples/libDaisy/src/hid/audio.h ****      */
  68:/Users/dominicfrugoli/Desktop/ProgrammingCode/DaisyCode/DaisyExamples/libDaisy/src/hid/audio.h ****     typedef float** OutputBuffer;
  69:/Users/dominicfrugoli/Desktop/ProgrammingCode/DaisyCode/DaisyExamples/libDaisy/src/hid/audio.h **** 
  70:/Users/dominicfrugoli/Desktop/ProgrammingCode/DaisyCode/DaisyExamples/libDaisy/src/hid/audio.h ****     /** Type for a Non-Interleaving audio callback 
  71:/Users/dominicfrugoli/Desktop/ProgrammingCode/DaisyCode/DaisyExamples/libDaisy/src/hid/audio.h ****      * Non-Interleaving audio callbacks in daisy will be of this type
  72:/Users/dominicfrugoli/Desktop/ProgrammingCode/DaisyCode/DaisyExamples/libDaisy/src/hid/audio.h ****      */
  73:/Users/dominicfrugoli/Desktop/ProgrammingCode/DaisyCode/DaisyExamples/libDaisy/src/hid/audio.h ****     typedef void (*AudioCallback)(InputBuffer  in,
  74:/Users/dominicfrugoli/Desktop/ProgrammingCode/DaisyCode/DaisyExamples/libDaisy/src/hid/audio.h ****                                   OutputBuffer out,
  75:/Users/dominicfrugoli/Desktop/ProgrammingCode/DaisyCode/DaisyExamples/libDaisy/src/hid/audio.h ****                                   size_t       size);
  76:/Users/dominicfrugoli/Desktop/ProgrammingCode/DaisyCode/DaisyExamples/libDaisy/src/hid/audio.h **** 
  77:/Users/dominicfrugoli/Desktop/ProgrammingCode/DaisyCode/DaisyExamples/libDaisy/src/hid/audio.h ****     /** Interleaving Input buffer
  78:/Users/dominicfrugoli/Desktop/ProgrammingCode/DaisyCode/DaisyExamples/libDaisy/src/hid/audio.h ****      ** audio is prepared as { L0, R0, L1, R1, . . . LN, RN }]
  79:/Users/dominicfrugoli/Desktop/ProgrammingCode/DaisyCode/DaisyExamples/libDaisy/src/hid/audio.h ****      ** this is const, as the user shouldn't modify it
  80:/Users/dominicfrugoli/Desktop/ProgrammingCode/DaisyCode/DaisyExamples/libDaisy/src/hid/audio.h ****     */
  81:/Users/dominicfrugoli/Desktop/ProgrammingCode/DaisyCode/DaisyExamples/libDaisy/src/hid/audio.h ****     typedef const float* InterleavingInputBuffer;
  82:/Users/dominicfrugoli/Desktop/ProgrammingCode/DaisyCode/DaisyExamples/libDaisy/src/hid/audio.h **** 
  83:/Users/dominicfrugoli/Desktop/ProgrammingCode/DaisyCode/DaisyExamples/libDaisy/src/hid/audio.h ****     /** Interleaving Output buffer 
  84:/Users/dominicfrugoli/Desktop/ProgrammingCode/DaisyCode/DaisyExamples/libDaisy/src/hid/audio.h ****      ** audio is prepared as { L0, R0, L1, R1, . . . LN, RN }
  85:/Users/dominicfrugoli/Desktop/ProgrammingCode/DaisyCode/DaisyExamples/libDaisy/src/hid/audio.h ****     */
  86:/Users/dominicfrugoli/Desktop/ProgrammingCode/DaisyCode/DaisyExamples/libDaisy/src/hid/audio.h ****     typedef float* InterleavingOutputBuffer;
  87:/Users/dominicfrugoli/Desktop/ProgrammingCode/DaisyCode/DaisyExamples/libDaisy/src/hid/audio.h **** 
  88:/Users/dominicfrugoli/Desktop/ProgrammingCode/DaisyCode/DaisyExamples/libDaisy/src/hid/audio.h ****     /** Interleaving Audio Callback 
  89:/Users/dominicfrugoli/Desktop/ProgrammingCode/DaisyCode/DaisyExamples/libDaisy/src/hid/audio.h ****      * Interleaving audio callbacks in daisy must be of this type
  90:/Users/dominicfrugoli/Desktop/ProgrammingCode/DaisyCode/DaisyExamples/libDaisy/src/hid/audio.h ****      */
  91:/Users/dominicfrugoli/Desktop/ProgrammingCode/DaisyCode/DaisyExamples/libDaisy/src/hid/audio.h ****     typedef void (*InterleavingAudioCallback)(InterleavingInputBuffer  in,
  92:/Users/dominicfrugoli/Desktop/ProgrammingCode/DaisyCode/DaisyExamples/libDaisy/src/hid/audio.h ****                                               InterleavingOutputBuffer out,
  93:/Users/dominicfrugoli/Desktop/ProgrammingCode/DaisyCode/DaisyExamples/libDaisy/src/hid/audio.h ****                                               size_t                   size);
  94:/Users/dominicfrugoli/Desktop/ProgrammingCode/DaisyCode/DaisyExamples/libDaisy/src/hid/audio.h **** 
  95:/Users/dominicfrugoli/Desktop/ProgrammingCode/DaisyCode/DaisyExamples/libDaisy/src/hid/audio.h ****     AudioHandle() : pimpl_(nullptr) {}
  96:/Users/dominicfrugoli/Desktop/ProgrammingCode/DaisyCode/DaisyExamples/libDaisy/src/hid/audio.h ****     ~AudioHandle() {}
 110              		.loc 8 96 5 is_stmt 1 view .LVU13
 111              		.loc 8 96 5 is_stmt 0 view .LVU14
 112              	.LBE405:
 113              		.loc 4 22 19 view .LVU15
 114 0000 7047     		bx	lr
 115              		.cfi_endproc
 116              	.LFE2556:
 118              		.weak	_ZN5daisy9DaisySeedD1Ev
 119              		.thumb_set _ZN5daisy9DaisySeedD1Ev,_ZN5daisy9DaisySeedD2Ev
 120 0002 00BF     		.section	.text._ZN7daisysp3SvfD2Ev,"axG",%progbits,_ZN7daisysp3SvfD5Ev,comdat
 121              		.align	1
 122              		.p2align 2,,3
 123              		.weak	_ZN7daisysp3SvfD2Ev
ARM GAS  /var/folders/m5/x8wc2gdj7z5cpgcqdsb_gkj40000gn/T//ccGxviRN.s 			page 11


 124              		.syntax unified
 125              		.thumb
 126              		.thumb_func
 128              	_ZN7daisysp3SvfD2Ev:
 129              	.LVL3:
 130              	.LFB4258:
 131              		.file 9 "/Users/dominicfrugoli/Desktop/ProgrammingCode/DaisyCode/DaisyExamples/DaisySP/Source/Filt
   1:/Users/dominicfrugoli/Desktop/ProgrammingCode/DaisyCode/DaisyExamples/DaisySP/Source/Filters/svf.h **** /*
   2:/Users/dominicfrugoli/Desktop/ProgrammingCode/DaisyCode/DaisyExamples/DaisySP/Source/Filters/svf.h **** Copyright (c) 2020 Electrosmith, Corp
   3:/Users/dominicfrugoli/Desktop/ProgrammingCode/DaisyCode/DaisyExamples/DaisySP/Source/Filters/svf.h **** 
   4:/Users/dominicfrugoli/Desktop/ProgrammingCode/DaisyCode/DaisyExamples/DaisySP/Source/Filters/svf.h **** Use of this source code is governed by an MIT-style
   5:/Users/dominicfrugoli/Desktop/ProgrammingCode/DaisyCode/DaisyExamples/DaisySP/Source/Filters/svf.h **** license that can be found in the LICENSE file or at
   6:/Users/dominicfrugoli/Desktop/ProgrammingCode/DaisyCode/DaisyExamples/DaisySP/Source/Filters/svf.h **** https://opensource.org/licenses/MIT.
   7:/Users/dominicfrugoli/Desktop/ProgrammingCode/DaisyCode/DaisyExamples/DaisySP/Source/Filters/svf.h **** */
   8:/Users/dominicfrugoli/Desktop/ProgrammingCode/DaisyCode/DaisyExamples/DaisySP/Source/Filters/svf.h **** 
   9:/Users/dominicfrugoli/Desktop/ProgrammingCode/DaisyCode/DaisyExamples/DaisySP/Source/Filters/svf.h **** #pragma once
  10:/Users/dominicfrugoli/Desktop/ProgrammingCode/DaisyCode/DaisyExamples/DaisySP/Source/Filters/svf.h **** #ifndef DSY_SVF_H
  11:/Users/dominicfrugoli/Desktop/ProgrammingCode/DaisyCode/DaisyExamples/DaisySP/Source/Filters/svf.h **** #define DSY_SVF_H
  12:/Users/dominicfrugoli/Desktop/ProgrammingCode/DaisyCode/DaisyExamples/DaisySP/Source/Filters/svf.h **** 
  13:/Users/dominicfrugoli/Desktop/ProgrammingCode/DaisyCode/DaisyExamples/DaisySP/Source/Filters/svf.h **** namespace daisysp
  14:/Users/dominicfrugoli/Desktop/ProgrammingCode/DaisyCode/DaisyExamples/DaisySP/Source/Filters/svf.h **** {
  15:/Users/dominicfrugoli/Desktop/ProgrammingCode/DaisyCode/DaisyExamples/DaisySP/Source/Filters/svf.h **** /**      Double Sampled, Stable State Variable Filter
  16:/Users/dominicfrugoli/Desktop/ProgrammingCode/DaisyCode/DaisyExamples/DaisySP/Source/Filters/svf.h **** 
  17:/Users/dominicfrugoli/Desktop/ProgrammingCode/DaisyCode/DaisyExamples/DaisySP/Source/Filters/svf.h **** Credit to Andrew Simper from musicdsp.org
  18:/Users/dominicfrugoli/Desktop/ProgrammingCode/DaisyCode/DaisyExamples/DaisySP/Source/Filters/svf.h **** 
  19:/Users/dominicfrugoli/Desktop/ProgrammingCode/DaisyCode/DaisyExamples/DaisySP/Source/Filters/svf.h **** This is his "State Variable Filter (Double Sampled, Stable)"
  20:/Users/dominicfrugoli/Desktop/ProgrammingCode/DaisyCode/DaisyExamples/DaisySP/Source/Filters/svf.h **** 
  21:/Users/dominicfrugoli/Desktop/ProgrammingCode/DaisyCode/DaisyExamples/DaisySP/Source/Filters/svf.h **** Additional thanks to Laurent de Soras for stability limit, and 
  22:/Users/dominicfrugoli/Desktop/ProgrammingCode/DaisyCode/DaisyExamples/DaisySP/Source/Filters/svf.h **** Stefan Diedrichsen for the correct notch output
  23:/Users/dominicfrugoli/Desktop/ProgrammingCode/DaisyCode/DaisyExamples/DaisySP/Source/Filters/svf.h **** 
  24:/Users/dominicfrugoli/Desktop/ProgrammingCode/DaisyCode/DaisyExamples/DaisySP/Source/Filters/svf.h **** Ported by: Stephen Hensley
  25:/Users/dominicfrugoli/Desktop/ProgrammingCode/DaisyCode/DaisyExamples/DaisySP/Source/Filters/svf.h **** */
  26:/Users/dominicfrugoli/Desktop/ProgrammingCode/DaisyCode/DaisyExamples/DaisySP/Source/Filters/svf.h **** class Svf
  27:/Users/dominicfrugoli/Desktop/ProgrammingCode/DaisyCode/DaisyExamples/DaisySP/Source/Filters/svf.h **** {
  28:/Users/dominicfrugoli/Desktop/ProgrammingCode/DaisyCode/DaisyExamples/DaisySP/Source/Filters/svf.h ****   public:
  29:/Users/dominicfrugoli/Desktop/ProgrammingCode/DaisyCode/DaisyExamples/DaisySP/Source/Filters/svf.h ****     Svf() {}
  30:/Users/dominicfrugoli/Desktop/ProgrammingCode/DaisyCode/DaisyExamples/DaisySP/Source/Filters/svf.h ****     ~Svf() {}
 132              		.loc 9 30 5 is_stmt 1 view -0
 133              		.cfi_startproc
 134              		@ args = 0, pretend = 0, frame = 0
 135              		@ frame_needed = 0, uses_anonymous_args = 0
 136              		@ link register save eliminated.
 137              		.loc 9 30 13 is_stmt 0 view .LVU17
 138 0000 7047     		bx	lr
 139              		.cfi_endproc
 140              	.LFE4258:
 142              		.weak	_ZN7daisysp3SvfD1Ev
 143              		.thumb_set _ZN7daisysp3SvfD1Ev,_ZN7daisysp3SvfD2Ev
 144 0002 00BF     		.section	.text._ZN7daisysp6ChorusD2Ev,"axG",%progbits,_ZN7daisysp6ChorusD5Ev,comdat
 145              		.align	1
 146              		.p2align 2,,3
 147              		.weak	_ZN7daisysp6ChorusD2Ev
 148              		.syntax unified
 149              		.thumb
 150              		.thumb_func
 152              	_ZN7daisysp6ChorusD2Ev:
 153              	.LVL4:
ARM GAS  /var/folders/m5/x8wc2gdj7z5cpgcqdsb_gkj40000gn/T//ccGxviRN.s 			page 12


 154              	.LFB4375:
 155              		.file 10 "/Users/dominicfrugoli/Desktop/ProgrammingCode/DaisyCode/DaisyExamples/DaisySP/Source/Eff
   1:/Users/dominicfrugoli/Desktop/ProgrammingCode/DaisyCode/DaisyExamples/DaisySP/Source/Effects/chorus.h **** /*
   2:/Users/dominicfrugoli/Desktop/ProgrammingCode/DaisyCode/DaisyExamples/DaisySP/Source/Effects/chorus.h **** Copyright (c) 2020 Electrosmith, Corp
   3:/Users/dominicfrugoli/Desktop/ProgrammingCode/DaisyCode/DaisyExamples/DaisySP/Source/Effects/chorus.h **** 
   4:/Users/dominicfrugoli/Desktop/ProgrammingCode/DaisyCode/DaisyExamples/DaisySP/Source/Effects/chorus.h **** Use of this source code is governed by an MIT-style
   5:/Users/dominicfrugoli/Desktop/ProgrammingCode/DaisyCode/DaisyExamples/DaisySP/Source/Effects/chorus.h **** license that can be found in the LICENSE file or at
   6:/Users/dominicfrugoli/Desktop/ProgrammingCode/DaisyCode/DaisyExamples/DaisySP/Source/Effects/chorus.h **** https://opensource.org/licenses/MIT.
   7:/Users/dominicfrugoli/Desktop/ProgrammingCode/DaisyCode/DaisyExamples/DaisySP/Source/Effects/chorus.h **** */
   8:/Users/dominicfrugoli/Desktop/ProgrammingCode/DaisyCode/DaisyExamples/DaisySP/Source/Effects/chorus.h **** 
   9:/Users/dominicfrugoli/Desktop/ProgrammingCode/DaisyCode/DaisyExamples/DaisySP/Source/Effects/chorus.h **** #pragma once
  10:/Users/dominicfrugoli/Desktop/ProgrammingCode/DaisyCode/DaisyExamples/DaisySP/Source/Effects/chorus.h **** #ifndef DSY_CHORUS_H
  11:/Users/dominicfrugoli/Desktop/ProgrammingCode/DaisyCode/DaisyExamples/DaisySP/Source/Effects/chorus.h **** #define DSY_CHORUS_H
  12:/Users/dominicfrugoli/Desktop/ProgrammingCode/DaisyCode/DaisyExamples/DaisySP/Source/Effects/chorus.h **** #ifdef __cplusplus
  13:/Users/dominicfrugoli/Desktop/ProgrammingCode/DaisyCode/DaisyExamples/DaisySP/Source/Effects/chorus.h **** 
  14:/Users/dominicfrugoli/Desktop/ProgrammingCode/DaisyCode/DaisyExamples/DaisySP/Source/Effects/chorus.h **** #include <stdint.h>
  15:/Users/dominicfrugoli/Desktop/ProgrammingCode/DaisyCode/DaisyExamples/DaisySP/Source/Effects/chorus.h **** #include "Utility/delayline.h"
  16:/Users/dominicfrugoli/Desktop/ProgrammingCode/DaisyCode/DaisyExamples/DaisySP/Source/Effects/chorus.h **** 
  17:/Users/dominicfrugoli/Desktop/ProgrammingCode/DaisyCode/DaisyExamples/DaisySP/Source/Effects/chorus.h **** /** @file chorus.h */
  18:/Users/dominicfrugoli/Desktop/ProgrammingCode/DaisyCode/DaisyExamples/DaisySP/Source/Effects/chorus.h **** 
  19:/Users/dominicfrugoli/Desktop/ProgrammingCode/DaisyCode/DaisyExamples/DaisySP/Source/Effects/chorus.h **** namespace daisysp
  20:/Users/dominicfrugoli/Desktop/ProgrammingCode/DaisyCode/DaisyExamples/DaisySP/Source/Effects/chorus.h **** {
  21:/Users/dominicfrugoli/Desktop/ProgrammingCode/DaisyCode/DaisyExamples/DaisySP/Source/Effects/chorus.h **** /**  
  22:/Users/dominicfrugoli/Desktop/ProgrammingCode/DaisyCode/DaisyExamples/DaisySP/Source/Effects/chorus.h ****     @brief Single Chorus engine. Used in Chorus.
  23:/Users/dominicfrugoli/Desktop/ProgrammingCode/DaisyCode/DaisyExamples/DaisySP/Source/Effects/chorus.h ****     @author Ben Sergentanis
  24:/Users/dominicfrugoli/Desktop/ProgrammingCode/DaisyCode/DaisyExamples/DaisySP/Source/Effects/chorus.h **** */
  25:/Users/dominicfrugoli/Desktop/ProgrammingCode/DaisyCode/DaisyExamples/DaisySP/Source/Effects/chorus.h **** class ChorusEngine
  26:/Users/dominicfrugoli/Desktop/ProgrammingCode/DaisyCode/DaisyExamples/DaisySP/Source/Effects/chorus.h **** {
  27:/Users/dominicfrugoli/Desktop/ProgrammingCode/DaisyCode/DaisyExamples/DaisySP/Source/Effects/chorus.h ****   public:
  28:/Users/dominicfrugoli/Desktop/ProgrammingCode/DaisyCode/DaisyExamples/DaisySP/Source/Effects/chorus.h ****     ChorusEngine() {}
  29:/Users/dominicfrugoli/Desktop/ProgrammingCode/DaisyCode/DaisyExamples/DaisySP/Source/Effects/chorus.h ****     ~ChorusEngine() {}
  30:/Users/dominicfrugoli/Desktop/ProgrammingCode/DaisyCode/DaisyExamples/DaisySP/Source/Effects/chorus.h **** 
  31:/Users/dominicfrugoli/Desktop/ProgrammingCode/DaisyCode/DaisyExamples/DaisySP/Source/Effects/chorus.h ****     /** Initialize the module
  32:/Users/dominicfrugoli/Desktop/ProgrammingCode/DaisyCode/DaisyExamples/DaisySP/Source/Effects/chorus.h ****         \param sample_rate Audio engine sample rate.
  33:/Users/dominicfrugoli/Desktop/ProgrammingCode/DaisyCode/DaisyExamples/DaisySP/Source/Effects/chorus.h ****     */
  34:/Users/dominicfrugoli/Desktop/ProgrammingCode/DaisyCode/DaisyExamples/DaisySP/Source/Effects/chorus.h ****     void Init(float sample_rate);
  35:/Users/dominicfrugoli/Desktop/ProgrammingCode/DaisyCode/DaisyExamples/DaisySP/Source/Effects/chorus.h **** 
  36:/Users/dominicfrugoli/Desktop/ProgrammingCode/DaisyCode/DaisyExamples/DaisySP/Source/Effects/chorus.h ****     /** Get the next sample
  37:/Users/dominicfrugoli/Desktop/ProgrammingCode/DaisyCode/DaisyExamples/DaisySP/Source/Effects/chorus.h ****         \param in Sample to process
  38:/Users/dominicfrugoli/Desktop/ProgrammingCode/DaisyCode/DaisyExamples/DaisySP/Source/Effects/chorus.h ****     */
  39:/Users/dominicfrugoli/Desktop/ProgrammingCode/DaisyCode/DaisyExamples/DaisySP/Source/Effects/chorus.h ****     float Process(float in);
  40:/Users/dominicfrugoli/Desktop/ProgrammingCode/DaisyCode/DaisyExamples/DaisySP/Source/Effects/chorus.h **** 
  41:/Users/dominicfrugoli/Desktop/ProgrammingCode/DaisyCode/DaisyExamples/DaisySP/Source/Effects/chorus.h ****     /** How much to modulate the delay by.
  42:/Users/dominicfrugoli/Desktop/ProgrammingCode/DaisyCode/DaisyExamples/DaisySP/Source/Effects/chorus.h ****         \param depth Works 0-1.
  43:/Users/dominicfrugoli/Desktop/ProgrammingCode/DaisyCode/DaisyExamples/DaisySP/Source/Effects/chorus.h ****     */
  44:/Users/dominicfrugoli/Desktop/ProgrammingCode/DaisyCode/DaisyExamples/DaisySP/Source/Effects/chorus.h ****     void SetLfoDepth(float depth);
  45:/Users/dominicfrugoli/Desktop/ProgrammingCode/DaisyCode/DaisyExamples/DaisySP/Source/Effects/chorus.h **** 
  46:/Users/dominicfrugoli/Desktop/ProgrammingCode/DaisyCode/DaisyExamples/DaisySP/Source/Effects/chorus.h ****     /** Set lfo frequency.
  47:/Users/dominicfrugoli/Desktop/ProgrammingCode/DaisyCode/DaisyExamples/DaisySP/Source/Effects/chorus.h ****         \param freq Frequency in Hz
  48:/Users/dominicfrugoli/Desktop/ProgrammingCode/DaisyCode/DaisyExamples/DaisySP/Source/Effects/chorus.h ****     */
  49:/Users/dominicfrugoli/Desktop/ProgrammingCode/DaisyCode/DaisyExamples/DaisySP/Source/Effects/chorus.h ****     void SetLfoFreq(float freq);
  50:/Users/dominicfrugoli/Desktop/ProgrammingCode/DaisyCode/DaisyExamples/DaisySP/Source/Effects/chorus.h **** 
  51:/Users/dominicfrugoli/Desktop/ProgrammingCode/DaisyCode/DaisyExamples/DaisySP/Source/Effects/chorus.h ****     /** Set the internal delay rate. 
  52:/Users/dominicfrugoli/Desktop/ProgrammingCode/DaisyCode/DaisyExamples/DaisySP/Source/Effects/chorus.h ****         \param delay Tuned for 0-1. Maps to .1 to 50 ms.
  53:/Users/dominicfrugoli/Desktop/ProgrammingCode/DaisyCode/DaisyExamples/DaisySP/Source/Effects/chorus.h ****     */
  54:/Users/dominicfrugoli/Desktop/ProgrammingCode/DaisyCode/DaisyExamples/DaisySP/Source/Effects/chorus.h ****     void SetDelay(float delay);
  55:/Users/dominicfrugoli/Desktop/ProgrammingCode/DaisyCode/DaisyExamples/DaisySP/Source/Effects/chorus.h **** 
ARM GAS  /var/folders/m5/x8wc2gdj7z5cpgcqdsb_gkj40000gn/T//ccGxviRN.s 			page 13


  56:/Users/dominicfrugoli/Desktop/ProgrammingCode/DaisyCode/DaisyExamples/DaisySP/Source/Effects/chorus.h ****     /** Set the delay time in ms.
  57:/Users/dominicfrugoli/Desktop/ProgrammingCode/DaisyCode/DaisyExamples/DaisySP/Source/Effects/chorus.h ****         \param ms Delay time in ms, 0 to 50 ms.
  58:/Users/dominicfrugoli/Desktop/ProgrammingCode/DaisyCode/DaisyExamples/DaisySP/Source/Effects/chorus.h ****     */
  59:/Users/dominicfrugoli/Desktop/ProgrammingCode/DaisyCode/DaisyExamples/DaisySP/Source/Effects/chorus.h ****     void SetDelayMs(float ms);
  60:/Users/dominicfrugoli/Desktop/ProgrammingCode/DaisyCode/DaisyExamples/DaisySP/Source/Effects/chorus.h **** 
  61:/Users/dominicfrugoli/Desktop/ProgrammingCode/DaisyCode/DaisyExamples/DaisySP/Source/Effects/chorus.h ****     /** Set the feedback amount.
  62:/Users/dominicfrugoli/Desktop/ProgrammingCode/DaisyCode/DaisyExamples/DaisySP/Source/Effects/chorus.h ****         \param feedback Amount from 0-1.
  63:/Users/dominicfrugoli/Desktop/ProgrammingCode/DaisyCode/DaisyExamples/DaisySP/Source/Effects/chorus.h ****     */
  64:/Users/dominicfrugoli/Desktop/ProgrammingCode/DaisyCode/DaisyExamples/DaisySP/Source/Effects/chorus.h ****     void SetFeedback(float feedback);
  65:/Users/dominicfrugoli/Desktop/ProgrammingCode/DaisyCode/DaisyExamples/DaisySP/Source/Effects/chorus.h **** 
  66:/Users/dominicfrugoli/Desktop/ProgrammingCode/DaisyCode/DaisyExamples/DaisySP/Source/Effects/chorus.h ****   private:
  67:/Users/dominicfrugoli/Desktop/ProgrammingCode/DaisyCode/DaisyExamples/DaisySP/Source/Effects/chorus.h ****     float                    sample_rate_;
  68:/Users/dominicfrugoli/Desktop/ProgrammingCode/DaisyCode/DaisyExamples/DaisySP/Source/Effects/chorus.h ****     static constexpr int32_t kDelayLength
  69:/Users/dominicfrugoli/Desktop/ProgrammingCode/DaisyCode/DaisyExamples/DaisySP/Source/Effects/chorus.h ****         = 2400; // 50 ms at 48kHz = .05 * 48000
  70:/Users/dominicfrugoli/Desktop/ProgrammingCode/DaisyCode/DaisyExamples/DaisySP/Source/Effects/chorus.h **** 
  71:/Users/dominicfrugoli/Desktop/ProgrammingCode/DaisyCode/DaisyExamples/DaisySP/Source/Effects/chorus.h ****     //triangle lfos
  72:/Users/dominicfrugoli/Desktop/ProgrammingCode/DaisyCode/DaisyExamples/DaisySP/Source/Effects/chorus.h ****     float lfo_phase_;
  73:/Users/dominicfrugoli/Desktop/ProgrammingCode/DaisyCode/DaisyExamples/DaisySP/Source/Effects/chorus.h ****     float lfo_freq_;
  74:/Users/dominicfrugoli/Desktop/ProgrammingCode/DaisyCode/DaisyExamples/DaisySP/Source/Effects/chorus.h ****     float lfo_amp_;
  75:/Users/dominicfrugoli/Desktop/ProgrammingCode/DaisyCode/DaisyExamples/DaisySP/Source/Effects/chorus.h **** 
  76:/Users/dominicfrugoli/Desktop/ProgrammingCode/DaisyCode/DaisyExamples/DaisySP/Source/Effects/chorus.h ****     float feedback_;
  77:/Users/dominicfrugoli/Desktop/ProgrammingCode/DaisyCode/DaisyExamples/DaisySP/Source/Effects/chorus.h **** 
  78:/Users/dominicfrugoli/Desktop/ProgrammingCode/DaisyCode/DaisyExamples/DaisySP/Source/Effects/chorus.h ****     float delay_;
  79:/Users/dominicfrugoli/Desktop/ProgrammingCode/DaisyCode/DaisyExamples/DaisySP/Source/Effects/chorus.h **** 
  80:/Users/dominicfrugoli/Desktop/ProgrammingCode/DaisyCode/DaisyExamples/DaisySP/Source/Effects/chorus.h ****     DelayLine<float, kDelayLength> del_;
  81:/Users/dominicfrugoli/Desktop/ProgrammingCode/DaisyCode/DaisyExamples/DaisySP/Source/Effects/chorus.h **** 
  82:/Users/dominicfrugoli/Desktop/ProgrammingCode/DaisyCode/DaisyExamples/DaisySP/Source/Effects/chorus.h ****     float ProcessLfo();
  83:/Users/dominicfrugoli/Desktop/ProgrammingCode/DaisyCode/DaisyExamples/DaisySP/Source/Effects/chorus.h **** };
  84:/Users/dominicfrugoli/Desktop/ProgrammingCode/DaisyCode/DaisyExamples/DaisySP/Source/Effects/chorus.h **** 
  85:/Users/dominicfrugoli/Desktop/ProgrammingCode/DaisyCode/DaisyExamples/DaisySP/Source/Effects/chorus.h **** //wraps up all of the chorus engines
  86:/Users/dominicfrugoli/Desktop/ProgrammingCode/DaisyCode/DaisyExamples/DaisySP/Source/Effects/chorus.h **** /**  
  87:/Users/dominicfrugoli/Desktop/ProgrammingCode/DaisyCode/DaisyExamples/DaisySP/Source/Effects/chorus.h ****     @brief Chorus Effect.
  88:/Users/dominicfrugoli/Desktop/ProgrammingCode/DaisyCode/DaisyExamples/DaisySP/Source/Effects/chorus.h ****     @author Ben Sergentanis
  89:/Users/dominicfrugoli/Desktop/ProgrammingCode/DaisyCode/DaisyExamples/DaisySP/Source/Effects/chorus.h ****     @date Jan 2021
  90:/Users/dominicfrugoli/Desktop/ProgrammingCode/DaisyCode/DaisyExamples/DaisySP/Source/Effects/chorus.h ****     Based on https://www.izotope.com/en/learn/understanding-chorus-flangers-and-phasers-in-audio-pr
  91:/Users/dominicfrugoli/Desktop/ProgrammingCode/DaisyCode/DaisyExamples/DaisySP/Source/Effects/chorus.h ****     and https://www.researchgate.net/publication/236629475_Implementing_Professional_Audio_Effects_
  92:/Users/dominicfrugoli/Desktop/ProgrammingCode/DaisyCode/DaisyExamples/DaisySP/Source/Effects/chorus.h **** */
  93:/Users/dominicfrugoli/Desktop/ProgrammingCode/DaisyCode/DaisyExamples/DaisySP/Source/Effects/chorus.h **** class Chorus
  94:/Users/dominicfrugoli/Desktop/ProgrammingCode/DaisyCode/DaisyExamples/DaisySP/Source/Effects/chorus.h **** {
  95:/Users/dominicfrugoli/Desktop/ProgrammingCode/DaisyCode/DaisyExamples/DaisySP/Source/Effects/chorus.h ****   public:
  96:/Users/dominicfrugoli/Desktop/ProgrammingCode/DaisyCode/DaisyExamples/DaisySP/Source/Effects/chorus.h ****     Chorus() {}
  97:/Users/dominicfrugoli/Desktop/ProgrammingCode/DaisyCode/DaisyExamples/DaisySP/Source/Effects/chorus.h ****     ~Chorus() {}
 156              		.loc 10 97 5 is_stmt 1 view -0
 157              		.cfi_startproc
 158              		@ args = 0, pretend = 0, frame = 0
 159              		@ frame_needed = 0, uses_anonymous_args = 0
 160              		@ link register save eliminated.
 161              		.loc 10 97 16 is_stmt 0 view .LVU19
 162 0000 7047     		bx	lr
 163              		.cfi_endproc
 164              	.LFE4375:
 166              		.weak	_ZN7daisysp6ChorusD1Ev
 167              		.thumb_set _ZN7daisysp6ChorusD1Ev,_ZN7daisysp6ChorusD2Ev
 168 0002 00BF     		.section	.text._ZN7daisysp9OverdriveD2Ev,"axG",%progbits,_ZN7daisysp9OverdriveD5Ev,comdat
 169              		.align	1
 170              		.p2align 2,,3
 171              		.weak	_ZN7daisysp9OverdriveD2Ev
ARM GAS  /var/folders/m5/x8wc2gdj7z5cpgcqdsb_gkj40000gn/T//ccGxviRN.s 			page 14


 172              		.syntax unified
 173              		.thumb
 174              		.thumb_func
 176              	_ZN7daisysp9OverdriveD2Ev:
 177              	.LVL5:
 178              	.LFB4395:
 179              		.file 11 "/Users/dominicfrugoli/Desktop/ProgrammingCode/DaisyCode/DaisyExamples/DaisySP/Source/Eff
   1:/Users/dominicfrugoli/Desktop/ProgrammingCode/DaisyCode/DaisyExamples/DaisySP/Source/Effects/overdrive.h **** /*
   2:/Users/dominicfrugoli/Desktop/ProgrammingCode/DaisyCode/DaisyExamples/DaisySP/Source/Effects/overdrive.h **** Copyright (c) 2020 Electrosmith, Corp, Emilie Gillet
   3:/Users/dominicfrugoli/Desktop/ProgrammingCode/DaisyCode/DaisyExamples/DaisySP/Source/Effects/overdrive.h **** 
   4:/Users/dominicfrugoli/Desktop/ProgrammingCode/DaisyCode/DaisyExamples/DaisySP/Source/Effects/overdrive.h **** Use of this source code is governed by an MIT-style
   5:/Users/dominicfrugoli/Desktop/ProgrammingCode/DaisyCode/DaisyExamples/DaisySP/Source/Effects/overdrive.h **** license that can be found in the LICENSE file or at
   6:/Users/dominicfrugoli/Desktop/ProgrammingCode/DaisyCode/DaisyExamples/DaisySP/Source/Effects/overdrive.h **** https://opensource.org/licenses/MIT.
   7:/Users/dominicfrugoli/Desktop/ProgrammingCode/DaisyCode/DaisyExamples/DaisySP/Source/Effects/overdrive.h **** */
   8:/Users/dominicfrugoli/Desktop/ProgrammingCode/DaisyCode/DaisyExamples/DaisySP/Source/Effects/overdrive.h **** 
   9:/Users/dominicfrugoli/Desktop/ProgrammingCode/DaisyCode/DaisyExamples/DaisySP/Source/Effects/overdrive.h **** #pragma once
  10:/Users/dominicfrugoli/Desktop/ProgrammingCode/DaisyCode/DaisyExamples/DaisySP/Source/Effects/overdrive.h **** #ifndef DSY_OVERDRIVE_H
  11:/Users/dominicfrugoli/Desktop/ProgrammingCode/DaisyCode/DaisyExamples/DaisySP/Source/Effects/overdrive.h **** #define DSY_OVERDRIVE_H
  12:/Users/dominicfrugoli/Desktop/ProgrammingCode/DaisyCode/DaisyExamples/DaisySP/Source/Effects/overdrive.h **** 
  13:/Users/dominicfrugoli/Desktop/ProgrammingCode/DaisyCode/DaisyExamples/DaisySP/Source/Effects/overdrive.h **** #include <stdint.h>
  14:/Users/dominicfrugoli/Desktop/ProgrammingCode/DaisyCode/DaisyExamples/DaisySP/Source/Effects/overdrive.h **** #ifdef __cplusplus
  15:/Users/dominicfrugoli/Desktop/ProgrammingCode/DaisyCode/DaisyExamples/DaisySP/Source/Effects/overdrive.h **** 
  16:/Users/dominicfrugoli/Desktop/ProgrammingCode/DaisyCode/DaisyExamples/DaisySP/Source/Effects/overdrive.h **** /** @file overdrive.h */
  17:/Users/dominicfrugoli/Desktop/ProgrammingCode/DaisyCode/DaisyExamples/DaisySP/Source/Effects/overdrive.h **** 
  18:/Users/dominicfrugoli/Desktop/ProgrammingCode/DaisyCode/DaisyExamples/DaisySP/Source/Effects/overdrive.h **** namespace daisysp
  19:/Users/dominicfrugoli/Desktop/ProgrammingCode/DaisyCode/DaisyExamples/DaisySP/Source/Effects/overdrive.h **** {
  20:/Users/dominicfrugoli/Desktop/ProgrammingCode/DaisyCode/DaisyExamples/DaisySP/Source/Effects/overdrive.h **** /**  
  21:/Users/dominicfrugoli/Desktop/ProgrammingCode/DaisyCode/DaisyExamples/DaisySP/Source/Effects/overdrive.h ****        @brief Distortion / Overdrive Module
  22:/Users/dominicfrugoli/Desktop/ProgrammingCode/DaisyCode/DaisyExamples/DaisySP/Source/Effects/overdrive.h ****        @author Ported by Ben Sergentanis 
  23:/Users/dominicfrugoli/Desktop/ProgrammingCode/DaisyCode/DaisyExamples/DaisySP/Source/Effects/overdrive.h ****        @date Jan 2021 
  24:/Users/dominicfrugoli/Desktop/ProgrammingCode/DaisyCode/DaisyExamples/DaisySP/Source/Effects/overdrive.h ****        Ported from pichenettes/eurorack/plaits/dsp/fx/overdrive.h \n
  25:/Users/dominicfrugoli/Desktop/ProgrammingCode/DaisyCode/DaisyExamples/DaisySP/Source/Effects/overdrive.h ****        to an independent module. \n
  26:/Users/dominicfrugoli/Desktop/ProgrammingCode/DaisyCode/DaisyExamples/DaisySP/Source/Effects/overdrive.h ****        Original code written by Emilie Gillet in 2014. \n
  27:/Users/dominicfrugoli/Desktop/ProgrammingCode/DaisyCode/DaisyExamples/DaisySP/Source/Effects/overdrive.h **** */
  28:/Users/dominicfrugoli/Desktop/ProgrammingCode/DaisyCode/DaisyExamples/DaisySP/Source/Effects/overdrive.h **** class Overdrive
  29:/Users/dominicfrugoli/Desktop/ProgrammingCode/DaisyCode/DaisyExamples/DaisySP/Source/Effects/overdrive.h **** {
  30:/Users/dominicfrugoli/Desktop/ProgrammingCode/DaisyCode/DaisyExamples/DaisySP/Source/Effects/overdrive.h ****   public:
  31:/Users/dominicfrugoli/Desktop/ProgrammingCode/DaisyCode/DaisyExamples/DaisySP/Source/Effects/overdrive.h ****     Overdrive() {}
  32:/Users/dominicfrugoli/Desktop/ProgrammingCode/DaisyCode/DaisyExamples/DaisySP/Source/Effects/overdrive.h ****     ~Overdrive() {}
 180              		.loc 11 32 5 is_stmt 1 view -0
 181              		.cfi_startproc
 182              		@ args = 0, pretend = 0, frame = 0
 183              		@ frame_needed = 0, uses_anonymous_args = 0
 184              		@ link register save eliminated.
 185              		.loc 11 32 19 is_stmt 0 view .LVU21
 186 0000 7047     		bx	lr
 187              		.cfi_endproc
 188              	.LFE4395:
 190              		.weak	_ZN7daisysp9OverdriveD1Ev
 191              		.thumb_set _ZN7daisysp9OverdriveD1Ev,_ZN7daisysp9OverdriveD2Ev
 192 0002 00BF     		.section	.text._ZN7daisysp7OnePoleD2Ev,"axG",%progbits,_ZN7daisysp7OnePoleD5Ev,comdat
 193              		.align	1
 194              		.p2align 2,,3
 195              		.weak	_ZN7daisysp7OnePoleD2Ev
 196              		.syntax unified
 197              		.thumb
 198              		.thumb_func
ARM GAS  /var/folders/m5/x8wc2gdj7z5cpgcqdsb_gkj40000gn/T//ccGxviRN.s 			page 15


 200              	_ZN7daisysp7OnePoleD2Ev:
 201              	.LVL6:
 202              	.LFB4453:
 203              		.file 12 "/Users/dominicfrugoli/Desktop/ProgrammingCode/DaisyCode/DaisyExamples/DaisySP/Source/Fil
   1:/Users/dominicfrugoli/Desktop/ProgrammingCode/DaisyCode/DaisyExamples/DaisySP/Source/Filters/onepole.h **** /*
   2:/Users/dominicfrugoli/Desktop/ProgrammingCode/DaisyCode/DaisyExamples/DaisySP/Source/Filters/onepole.h **** Copyright (c) 2020 Electrosmith, Corp, Emilie Gillet
   3:/Users/dominicfrugoli/Desktop/ProgrammingCode/DaisyCode/DaisyExamples/DaisySP/Source/Filters/onepole.h **** 
   4:/Users/dominicfrugoli/Desktop/ProgrammingCode/DaisyCode/DaisyExamples/DaisySP/Source/Filters/onepole.h **** Use of this source code is governed by an MIT-style
   5:/Users/dominicfrugoli/Desktop/ProgrammingCode/DaisyCode/DaisyExamples/DaisySP/Source/Filters/onepole.h **** license that can be found in the LICENSE file or at
   6:/Users/dominicfrugoli/Desktop/ProgrammingCode/DaisyCode/DaisyExamples/DaisySP/Source/Filters/onepole.h **** https://opensource.org/licenses/MIT.
   7:/Users/dominicfrugoli/Desktop/ProgrammingCode/DaisyCode/DaisyExamples/DaisySP/Source/Filters/onepole.h **** */
   8:/Users/dominicfrugoli/Desktop/ProgrammingCode/DaisyCode/DaisyExamples/DaisySP/Source/Filters/onepole.h **** 
   9:/Users/dominicfrugoli/Desktop/ProgrammingCode/DaisyCode/DaisyExamples/DaisySP/Source/Filters/onepole.h **** #ifndef DSY_ONEPOLE_H
  10:/Users/dominicfrugoli/Desktop/ProgrammingCode/DaisyCode/DaisyExamples/DaisySP/Source/Filters/onepole.h **** #define DSY_ONEPOLE_H
  11:/Users/dominicfrugoli/Desktop/ProgrammingCode/DaisyCode/DaisyExamples/DaisySP/Source/Filters/onepole.h **** 
  12:/Users/dominicfrugoli/Desktop/ProgrammingCode/DaisyCode/DaisyExamples/DaisySP/Source/Filters/onepole.h **** #include "Utility/dsp.h"
  13:/Users/dominicfrugoli/Desktop/ProgrammingCode/DaisyCode/DaisyExamples/DaisySP/Source/Filters/onepole.h **** #include <cmath>
  14:/Users/dominicfrugoli/Desktop/ProgrammingCode/DaisyCode/DaisyExamples/DaisySP/Source/Filters/onepole.h **** #include <algorithm>
  15:/Users/dominicfrugoli/Desktop/ProgrammingCode/DaisyCode/DaisyExamples/DaisySP/Source/Filters/onepole.h **** 
  16:/Users/dominicfrugoli/Desktop/ProgrammingCode/DaisyCode/DaisyExamples/DaisySP/Source/Filters/onepole.h **** namespace daisysp
  17:/Users/dominicfrugoli/Desktop/ProgrammingCode/DaisyCode/DaisyExamples/DaisySP/Source/Filters/onepole.h **** {
  18:/Users/dominicfrugoli/Desktop/ProgrammingCode/DaisyCode/DaisyExamples/DaisySP/Source/Filters/onepole.h **** /**         
  19:/Users/dominicfrugoli/Desktop/ProgrammingCode/DaisyCode/DaisyExamples/DaisySP/Source/Filters/onepole.h ****     @brief One Pole Lowpass / Highpass Filter
  20:/Users/dominicfrugoli/Desktop/ProgrammingCode/DaisyCode/DaisyExamples/DaisySP/Source/Filters/onepole.h ****     @author beserge
  21:/Users/dominicfrugoli/Desktop/ProgrammingCode/DaisyCode/DaisyExamples/DaisySP/Source/Filters/onepole.h ****     @date Dec 2023 
  22:/Users/dominicfrugoli/Desktop/ProgrammingCode/DaisyCode/DaisyExamples/DaisySP/Source/Filters/onepole.h ****     Ported from pichenettes/stmlib/dsp/filter.h \n 
  23:/Users/dominicfrugoli/Desktop/ProgrammingCode/DaisyCode/DaisyExamples/DaisySP/Source/Filters/onepole.h ****     \n to an independent module. \n
  24:/Users/dominicfrugoli/Desktop/ProgrammingCode/DaisyCode/DaisyExamples/DaisySP/Source/Filters/onepole.h ****     Original code written by Emilie Gillet. \n
  25:/Users/dominicfrugoli/Desktop/ProgrammingCode/DaisyCode/DaisyExamples/DaisySP/Source/Filters/onepole.h **** */
  26:/Users/dominicfrugoli/Desktop/ProgrammingCode/DaisyCode/DaisyExamples/DaisySP/Source/Filters/onepole.h **** class OnePole
  27:/Users/dominicfrugoli/Desktop/ProgrammingCode/DaisyCode/DaisyExamples/DaisySP/Source/Filters/onepole.h **** {
  28:/Users/dominicfrugoli/Desktop/ProgrammingCode/DaisyCode/DaisyExamples/DaisySP/Source/Filters/onepole.h ****   public:
  29:/Users/dominicfrugoli/Desktop/ProgrammingCode/DaisyCode/DaisyExamples/DaisySP/Source/Filters/onepole.h ****     OnePole() {}
  30:/Users/dominicfrugoli/Desktop/ProgrammingCode/DaisyCode/DaisyExamples/DaisySP/Source/Filters/onepole.h ****     ~OnePole() {}
 204              		.loc 12 30 5 is_stmt 1 view -0
 205              		.cfi_startproc
 206              		@ args = 0, pretend = 0, frame = 0
 207              		@ frame_needed = 0, uses_anonymous_args = 0
 208              		@ link register save eliminated.
 209              		.loc 12 30 17 is_stmt 0 view .LVU23
 210 0000 7047     		bx	lr
 211              		.cfi_endproc
 212              	.LFE4453:
 214              		.weak	_ZN7daisysp7OnePoleD1Ev
 215              		.thumb_set _ZN7daisysp7OnePoleD1Ev,_ZN7daisysp7OnePoleD2Ev
 216 0002 00BF     		.section	.text._Z16AdvanceReadIndexv.part.0,"ax",%progbits
 217              		.align	1
 218              		.p2align 2,,3
 219              		.syntax unified
 220              		.thumb
 221              		.thumb_func
 223              	_Z16AdvanceReadIndexv.part.0:
 224              	.LFB5284:
 225              		.file 13 "sampleengine.h"
   1:sampleengine.h **** // ================================
   2:sampleengine.h **** // COMPANY: Feni Design
   3:sampleengine.h **** // AUTHOR: Dominic Frugoli
ARM GAS  /var/folders/m5/x8wc2gdj7z5cpgcqdsb_gkj40000gn/T//ccGxviRN.s 			page 16


   4:sampleengine.h **** // CREATE DATE: 9/15/2024
   5:sampleengine.h **** // PROJECT: Fall 2024 Independent Project
   6:sampleengine.h **** // HEADER FILE FOR USE WITH: "sardinia.cpp"
   7:sampleengine.h **** // SPECIAL NOTES: Code is meant for Electrosmith Daisy microcontroller
   8:sampleengine.h **** // ================================
   9:sampleengine.h **** 
  10:sampleengine.h **** 
  11:sampleengine.h **** using namespace daisy;
  12:sampleengine.h **** using namespace daisy::seed;
  13:sampleengine.h **** using namespace daisysp;
  14:sampleengine.h **** 
  15:sampleengine.h **** 
  16:sampleengine.h **** // |Audio Objects|---------------------------------------------------------------------------------
  17:sampleengine.h **** 
  18:sampleengine.h **** #define MAX_RECORD_SIZE (48000 * 120) // 60 seconds of floats at 48 khz
  19:sampleengine.h **** #define MAX_SPLICE_SIZE (48000 * 20) // 5 seconds of floats at 48 khz
  20:sampleengine.h **** float DSY_SDRAM_BSS recordingBuffer[MAX_RECORD_SIZE];
  21:sampleengine.h **** float DSY_SDRAM_BSS spliceBufferOne[MAX_SPLICE_SIZE];
  22:sampleengine.h **** float DSY_SDRAM_BSS spliceBufferTwo[MAX_SPLICE_SIZE];
  23:sampleengine.h **** float DSY_SDRAM_BSS spliceBufferThree[MAX_SPLICE_SIZE];
  24:sampleengine.h **** float DSY_SDRAM_BSS spliceBufferFour[MAX_SPLICE_SIZE];
  25:sampleengine.h **** 
  26:sampleengine.h **** float readIndex = 0; // index for reading buffer
  27:sampleengine.h **** uint32_t readIndexInt;
  28:sampleengine.h **** float readIndexFraction;
  29:sampleengine.h **** float readFactor = 1; // playback speed
  30:sampleengine.h **** float readPitch;
  31:sampleengine.h **** uint32_t writeIndex = 0; // index for writing into buffer
  32:sampleengine.h **** uint32_t recordingLength = MAX_RECORD_SIZE; // tracks size of sample recording
  33:sampleengine.h **** uint32_t lengthTrack = 0; // for tracking recording size while recording
  34:sampleengine.h **** 
  35:sampleengine.h **** float fullSampleReadIndex = 0.0f;
  36:sampleengine.h **** uint32_t fullSampleReadIndexInt;
  37:sampleengine.h **** float fullSampleReadIndexFraction;
  38:sampleengine.h **** 
  39:sampleengine.h **** uint32_t keyStartIndex[numKeyPads];
  40:sampleengine.h **** uint32_t keyStopIndex[numKeyPads];
  41:sampleengine.h **** bool keyStates[numKeyPads];
  42:sampleengine.h **** uint32_t startPoint = 0;
  43:sampleengine.h **** uint32_t stopPoint = MAX_RECORD_SIZE;
  44:sampleengine.h **** int currentKey = 0;
  45:sampleengine.h **** int noteKey = 0;
  46:sampleengine.h **** 
  47:sampleengine.h **** bool isRecording = false;
  48:sampleengine.h **** bool isPlaying = false;
  49:sampleengine.h **** 
  50:sampleengine.h **** float baseFreq = 440.0f;
  51:sampleengine.h **** int currentSpliceBuffer = 1; // Which splice buffer we are currently playing
  52:sampleengine.h **** 
  53:sampleengine.h **** bool SpliceBufferIsPlaying = false;
  54:sampleengine.h **** float spliceBufferReadIndex = 0.0f;
  55:sampleengine.h **** uint32_t spliceBufferReadIndexInt;
  56:sampleengine.h **** float spliceBufferReadIndexFraction;
  57:sampleengine.h **** uint32_t spliceBufferOneLength = MAX_SPLICE_SIZE;
  58:sampleengine.h **** uint32_t spliceBufferTwoLength = MAX_SPLICE_SIZE;
  59:sampleengine.h **** uint32_t spliceBufferThreeLength = MAX_SPLICE_SIZE;
  60:sampleengine.h **** uint32_t spliceBufferFourLength = MAX_SPLICE_SIZE;
ARM GAS  /var/folders/m5/x8wc2gdj7z5cpgcqdsb_gkj40000gn/T//ccGxviRN.s 			page 17


  61:sampleengine.h **** 
  62:sampleengine.h **** 
  63:sampleengine.h **** // |Init Functions|--------------------------------------------------------------------------------
  64:sampleengine.h **** 
  65:sampleengine.h **** void InitBuffer();
  66:sampleengine.h **** int FindNextPressedKey(int key);
  67:sampleengine.h **** void RecordSample(float sample);
  68:sampleengine.h **** void ResetReadIndex();
  69:sampleengine.h **** void AdvanceReadIndex();
  70:sampleengine.h **** float GetSample();
  71:sampleengine.h **** float FullSampleGetSample();
  72:sampleengine.h **** void StoreSpliceBuffer(int bufferNum);
  73:sampleengine.h **** bool AnyKeyIsPressed();
  74:sampleengine.h **** void SetKeyIndexs();
  75:sampleengine.h **** uint32_t GetStartPoint();
  76:sampleengine.h **** uint32_t GetStopPoint();
  77:sampleengine.h **** 
  78:sampleengine.h **** void InitBuffer()
  79:sampleengine.h **** {
  80:sampleengine.h ****     readIndex = 0.0f;
  81:sampleengine.h ****     for(uint32_t i = 0; i < MAX_RECORD_SIZE; i++) // initializes buffer to all 0s
  82:sampleengine.h ****     {
  83:sampleengine.h ****         recordingBuffer[i] = 0.0f;
  84:sampleengine.h ****     }
  85:sampleengine.h ****     for (uint32_t i = 0; i < MAX_SPLICE_SIZE; i++)
  86:sampleengine.h ****     {
  87:sampleengine.h ****         spliceBufferOne[i] = 0.0f;
  88:sampleengine.h ****         spliceBufferTwo[i] = 0.0f;
  89:sampleengine.h ****         spliceBufferThree[i] = 0.0f;
  90:sampleengine.h ****         spliceBufferFour[i] = 0.0f;
  91:sampleengine.h ****     }
  92:sampleengine.h **** }
  93:sampleengine.h **** 
  94:sampleengine.h **** void RecordSample(float sample) // Records sample from argument and moves forward write index
  95:sampleengine.h **** {
  96:sampleengine.h ****     recordingBuffer[writeIndex] = sample;
  97:sampleengine.h ****     writeIndex++;
  98:sampleengine.h **** }
  99:sampleengine.h **** 
 100:sampleengine.h **** void ResetReadIndex()
 101:sampleengine.h **** {
 102:sampleengine.h ****     readIndex = startPoint;
 103:sampleengine.h **** }
 104:sampleengine.h **** 
 105:sampleengine.h **** void AdvanceReadIndex()
 226              		.loc 13 105 6 is_stmt 1 view -0
 227              		.cfi_startproc
 228              		@ args = 0, pretend = 0, frame = 0
 229              		@ frame_needed = 0, uses_anonymous_args = 0
 230              		@ link register save eliminated.
 106:sampleengine.h **** {
 107:sampleengine.h ****     readIndex += readFactor;
 108:sampleengine.h **** 
 109:sampleengine.h ****     if(readIndex >= stopPoint)
 110:sampleengine.h ****     {
 111:sampleengine.h ****         currentKey = FindNextPressedKey(currentKey);
 231              		.loc 13 111 9 view .LVU25
ARM GAS  /var/folders/m5/x8wc2gdj7z5cpgcqdsb_gkj40000gn/T//ccGxviRN.s 			page 18


 105:sampleengine.h **** {
 232              		.loc 13 105 6 is_stmt 0 view .LVU26
 233 0000 30B4     		push	{r4, r5}
 234              		.cfi_def_cfa_offset 8
 235              		.cfi_offset 4, -8
 236              		.cfi_offset 5, -4
 237              		.loc 13 111 40 view .LVU27
 238 0002 114C     		ldr	r4, .L16
 239 0004 2022     		movs	r2, #32
 240 0006 1148     		ldr	r0, .L16+4
 241 0008 2368     		ldr	r3, [r4]
 242              	.LVL7:
 243              	.LBB411:
 244              	.LBI411:
 112:sampleengine.h ****         startPoint = keyStartIndex[currentKey];
 113:sampleengine.h ****         stopPoint = keyStopIndex[currentKey];
 114:sampleengine.h ****         ResetReadIndex();
 115:sampleengine.h ****     }
 116:sampleengine.h **** }
 117:sampleengine.h **** 
 118:sampleengine.h **** float GetSample()
 119:sampleengine.h **** {
 120:sampleengine.h ****     float a, b, out;
 121:sampleengine.h **** 
 122:sampleengine.h ****     readIndexInt = static_cast<int32_t>(readIndex);
 123:sampleengine.h **** 	readIndexFraction = readIndex - readIndexInt;
 124:sampleengine.h **** 
 125:sampleengine.h **** 	a = recordingBuffer[readIndexInt]; // current sample
 126:sampleengine.h **** 	b = recordingBuffer[readIndexInt + 1]; // next sample
 127:sampleengine.h **** 	out = a + (b - a) * readIndexFraction; // Linear Interpolation
 128:sampleengine.h **** 
 129:sampleengine.h ****     return out;
 130:sampleengine.h **** }
 131:sampleengine.h **** 
 132:sampleengine.h **** float FullSampleGetSample()
 133:sampleengine.h **** {
 134:sampleengine.h ****     fullSampleReadIndex += readFactor;
 135:sampleengine.h ****     if(fullSampleReadIndex > recordingLength) 
 136:sampleengine.h ****     {
 137:sampleengine.h ****         fullSampleReadIndex = 0;
 138:sampleengine.h ****     }
 139:sampleengine.h **** 
 140:sampleengine.h ****     float a, b, out;
 141:sampleengine.h ****     fullSampleReadIndexInt = static_cast<int32_t>(fullSampleReadIndex);
 142:sampleengine.h ****     fullSampleReadIndexFraction = fullSampleReadIndex - fullSampleReadIndexInt;
 143:sampleengine.h ****     a = recordingBuffer[fullSampleReadIndexInt]; // current sample
 144:sampleengine.h ****     b = recordingBuffer[fullSampleReadIndexInt + 1]; // next sample
 145:sampleengine.h ****     out = a + (b - a) * fullSampleReadIndexFraction; // Linear Interpolation
 146:sampleengine.h **** 
 147:sampleengine.h ****     return out;
 148:sampleengine.h **** }
 149:sampleengine.h **** 
 150:sampleengine.h **** float SpliceBufferGetSample(int currentBuffer, int mode, int keynum)
 151:sampleengine.h **** {
 152:sampleengine.h ****     float a, b, out = 0;
 153:sampleengine.h ****     if(currentBuffer == 1)
 154:sampleengine.h ****     {
ARM GAS  /var/folders/m5/x8wc2gdj7z5cpgcqdsb_gkj40000gn/T//ccGxviRN.s 			page 19


 155:sampleengine.h ****         if(mode == 0)
 156:sampleengine.h ****         {
 157:sampleengine.h ****             spliceBufferReadIndex += readFactor;
 158:sampleengine.h ****         }
 159:sampleengine.h ****         else if(mode == 1)
 160:sampleengine.h ****         {
 161:sampleengine.h ****             float playFreq = baseFreq * powf(2.0f, static_cast<float>((keynum-12) / 12.0f));
 162:sampleengine.h ****             float readFactorPitch = playFreq / baseFreq;
 163:sampleengine.h ****             spliceBufferReadIndex += readFactorPitch;
 164:sampleengine.h ****         }
 165:sampleengine.h **** 
 166:sampleengine.h ****         if(spliceBufferReadIndex > spliceBufferOneLength) 
 167:sampleengine.h ****         {
 168:sampleengine.h ****             spliceBufferReadIndex = 0;
 169:sampleengine.h ****         }
 170:sampleengine.h **** 
 171:sampleengine.h ****         spliceBufferReadIndexInt = static_cast<int32_t>(spliceBufferReadIndex);
 172:sampleengine.h ****         spliceBufferReadIndexFraction = spliceBufferReadIndex - spliceBufferReadIndexInt;
 173:sampleengine.h ****         a = spliceBufferOne[spliceBufferReadIndexInt]; // current sample
 174:sampleengine.h ****         b = spliceBufferOne[spliceBufferReadIndexInt + 1]; // next sample
 175:sampleengine.h ****         out = a + (b - a) * spliceBufferReadIndexFraction; // Linear Interpolation
 176:sampleengine.h ****     }
 177:sampleengine.h ****     else if(currentBuffer == 2)
 178:sampleengine.h ****     {
 179:sampleengine.h ****         if(mode == 0)
 180:sampleengine.h ****         {
 181:sampleengine.h ****             spliceBufferReadIndex += readFactor;
 182:sampleengine.h ****         }
 183:sampleengine.h ****         else if(mode == 1)
 184:sampleengine.h ****         {
 185:sampleengine.h ****             float playFreq = baseFreq * powf(2.0f, static_cast<float>(keynum / 12.0f));
 186:sampleengine.h ****             float readFactorPitch = playFreq / baseFreq;
 187:sampleengine.h ****             spliceBufferReadIndex += readFactorPitch;
 188:sampleengine.h ****         }
 189:sampleengine.h **** 
 190:sampleengine.h ****         if(spliceBufferReadIndex > spliceBufferTwoLength) 
 191:sampleengine.h ****         {
 192:sampleengine.h ****             spliceBufferReadIndex = 0;
 193:sampleengine.h ****         }
 194:sampleengine.h **** 
 195:sampleengine.h ****         spliceBufferReadIndexInt = static_cast<int32_t>(spliceBufferReadIndex);
 196:sampleengine.h ****         spliceBufferReadIndexFraction = spliceBufferReadIndex - spliceBufferReadIndexInt;
 197:sampleengine.h ****         a = spliceBufferTwo[spliceBufferReadIndexInt]; // current sample
 198:sampleengine.h ****         b = spliceBufferTwo[spliceBufferReadIndexInt + 1]; // next sample
 199:sampleengine.h ****         out = a + (b - a) * spliceBufferReadIndexFraction; // Linear Interpolation
 200:sampleengine.h ****     }
 201:sampleengine.h ****     else if(currentBuffer == 3)
 202:sampleengine.h ****     {
 203:sampleengine.h ****         if(mode == 0)
 204:sampleengine.h ****         {
 205:sampleengine.h ****             spliceBufferReadIndex += readFactor;
 206:sampleengine.h ****         }
 207:sampleengine.h ****         else if(mode == 1)
 208:sampleengine.h ****         {
 209:sampleengine.h ****             float playFreq = baseFreq * powf(2.0f, static_cast<float>(keynum / 12.0f));
 210:sampleengine.h ****             float readFactorPitch = playFreq / baseFreq;
 211:sampleengine.h ****             spliceBufferReadIndex += readFactorPitch;
ARM GAS  /var/folders/m5/x8wc2gdj7z5cpgcqdsb_gkj40000gn/T//ccGxviRN.s 			page 20


 212:sampleengine.h ****         }
 213:sampleengine.h **** 
 214:sampleengine.h ****         if(spliceBufferReadIndex > spliceBufferThreeLength) 
 215:sampleengine.h ****         {
 216:sampleengine.h ****             spliceBufferReadIndex = 0;
 217:sampleengine.h ****         }
 218:sampleengine.h **** 
 219:sampleengine.h ****         spliceBufferReadIndexInt = static_cast<int32_t>(spliceBufferReadIndex);
 220:sampleengine.h ****         spliceBufferReadIndexFraction = spliceBufferReadIndex - spliceBufferReadIndexInt;
 221:sampleengine.h ****         a = spliceBufferThree[spliceBufferReadIndexInt]; // current sample
 222:sampleengine.h ****         b = spliceBufferThree[spliceBufferReadIndexInt + 1]; // next sample
 223:sampleengine.h ****         out = a + (b - a) * spliceBufferReadIndexFraction; // Linear Interpolation
 224:sampleengine.h ****     }
 225:sampleengine.h ****     else if(currentBuffer == 4)
 226:sampleengine.h ****     {
 227:sampleengine.h ****         if(mode == 0)
 228:sampleengine.h ****         {
 229:sampleengine.h ****             spliceBufferReadIndex += readFactor;
 230:sampleengine.h ****         }
 231:sampleengine.h ****         else if(mode == 1)
 232:sampleengine.h ****         {
 233:sampleengine.h ****             float playFreq = baseFreq * powf(2.0f, static_cast<float>(keynum / 12.0f));
 234:sampleengine.h ****             float readFactorPitch = playFreq / baseFreq;
 235:sampleengine.h ****             spliceBufferReadIndex += readFactorPitch;
 236:sampleengine.h ****         }
 237:sampleengine.h **** 
 238:sampleengine.h ****         if(spliceBufferReadIndex > spliceBufferFourLength) 
 239:sampleengine.h ****         {
 240:sampleengine.h ****             spliceBufferReadIndex = 0;
 241:sampleengine.h ****         }
 242:sampleengine.h **** 
 243:sampleengine.h ****         spliceBufferReadIndexInt = static_cast<int32_t>(spliceBufferReadIndex);
 244:sampleengine.h ****         spliceBufferReadIndexFraction = spliceBufferReadIndex - spliceBufferReadIndexInt;
 245:sampleengine.h ****         a = spliceBufferFour[spliceBufferReadIndexInt]; // current sample
 246:sampleengine.h ****         b = spliceBufferFour[spliceBufferReadIndexInt + 1]; // next sample
 247:sampleengine.h ****         out = a + (b - a) * spliceBufferReadIndexFraction; // Linear Interpolation
 248:sampleengine.h ****     }
 249:sampleengine.h **** 
 250:sampleengine.h ****     return out;
 251:sampleengine.h **** }
 252:sampleengine.h **** 
 253:sampleengine.h **** void StoreSpliceBuffer(int bufferNum)
 254:sampleengine.h **** {
 255:sampleengine.h ****     readIndex = startPoint;
 256:sampleengine.h ****     float startSample = startPoint;
 257:sampleengine.h ****     if(bufferNum == 1)
 258:sampleengine.h ****     {
 259:sampleengine.h ****         for (uint32_t i = 0; i < MAX_SPLICE_SIZE; i++)
 260:sampleengine.h ****         {
 261:sampleengine.h ****             spliceBufferOne[i] = GetSample();
 262:sampleengine.h ****             AdvanceReadIndex();
 263:sampleengine.h ****             if(readIndex == startSample)
 264:sampleengine.h ****             {
 265:sampleengine.h ****                 spliceBufferOneLength = i;
 266:sampleengine.h ****                 break;
 267:sampleengine.h ****             }
 268:sampleengine.h ****         }
ARM GAS  /var/folders/m5/x8wc2gdj7z5cpgcqdsb_gkj40000gn/T//ccGxviRN.s 			page 21


 269:sampleengine.h ****     }
 270:sampleengine.h ****     else if(bufferNum == 2)
 271:sampleengine.h ****     {
 272:sampleengine.h ****         for (uint32_t i = 0; i < MAX_SPLICE_SIZE; i++)
 273:sampleengine.h ****         {
 274:sampleengine.h ****             spliceBufferTwo[i] = GetSample();
 275:sampleengine.h ****             AdvanceReadIndex();
 276:sampleengine.h ****             if(readIndex == startSample)
 277:sampleengine.h ****             {
 278:sampleengine.h ****                 spliceBufferTwoLength = i;
 279:sampleengine.h ****                 break;
 280:sampleengine.h ****             }
 281:sampleengine.h ****         }
 282:sampleengine.h ****     }
 283:sampleengine.h ****     else if(bufferNum == 3)
 284:sampleengine.h ****     {
 285:sampleengine.h ****         for (uint32_t i = 0; i < MAX_SPLICE_SIZE; i++)
 286:sampleengine.h ****         {
 287:sampleengine.h ****             spliceBufferThree[i] = GetSample();
 288:sampleengine.h ****             AdvanceReadIndex();
 289:sampleengine.h ****             if(readIndex == startSample)
 290:sampleengine.h ****             {
 291:sampleengine.h ****                 spliceBufferThreeLength = i;
 292:sampleengine.h ****                 break;
 293:sampleengine.h ****             }
 294:sampleengine.h ****         }
 295:sampleengine.h ****     }
 296:sampleengine.h ****     else if(bufferNum == 4)
 297:sampleengine.h ****     {
 298:sampleengine.h ****         for (uint32_t i = 0; i < MAX_SPLICE_SIZE; i++)
 299:sampleengine.h ****         {
 300:sampleengine.h ****             spliceBufferFour[i] = GetSample();
 301:sampleengine.h ****             AdvanceReadIndex();
 302:sampleengine.h ****             if(readIndex == startSample)
 303:sampleengine.h ****             {
 304:sampleengine.h ****                 spliceBufferFourLength = i;
 305:sampleengine.h ****                 break;
 306:sampleengine.h ****             }
 307:sampleengine.h ****         }
 308:sampleengine.h ****     }
 309:sampleengine.h ****     readIndex = startPoint;
 310:sampleengine.h **** }
 311:sampleengine.h **** 
 312:sampleengine.h **** bool AnyKeyIsPressed()
 313:sampleengine.h **** {
 314:sampleengine.h ****     for(int i = 0; i < numKeyPads; i++)
 315:sampleengine.h ****     {
 316:sampleengine.h ****         if(keyStates[i])
 317:sampleengine.h ****         {
 318:sampleengine.h ****             return true;
 319:sampleengine.h ****         }
 320:sampleengine.h ****     }
 321:sampleengine.h ****     return false;
 322:sampleengine.h **** }
 323:sampleengine.h **** 
 324:sampleengine.h **** int FindNextPressedKey(int key)
 245              		.loc 13 324 5 is_stmt 1 view .LVU28
ARM GAS  /var/folders/m5/x8wc2gdj7z5cpgcqdsb_gkj40000gn/T//ccGxviRN.s 			page 22


 246              	.LBB412:
 247              	.LBB413:
 325:sampleengine.h **** {
 326:sampleengine.h ****     int nextKey = key;
 327:sampleengine.h ****     for(int i = 0; i < numKeyPads; i++)
 248              		.loc 13 327 22 view .LVU29
 249 000a 01E0     		b	.L12
 250              	.LVL8:
 251              	.L15:
 252              		.loc 13 327 22 is_stmt 0 view .LVU30
 253 000c 013A     		subs	r2, r2, #1
 254              	.LVL9:
 255              		.loc 13 327 22 view .LVU31
 256 000e 06D0     		beq	.L11
 257              	.LVL10:
 258              	.L12:
 328:sampleengine.h ****     {
 329:sampleengine.h ****         nextKey++;
 259              		.loc 13 329 9 is_stmt 1 view .LVU32
 327:sampleengine.h ****     {
 260              		.loc 13 327 5 view .LVU33
 261              		.loc 13 329 16 is_stmt 0 view .LVU34
 262 0010 0133     		adds	r3, r3, #1
 263              	.LVL11:
 330:sampleengine.h ****         if(nextKey >= numKeyPads)
 264              		.loc 13 330 9 is_stmt 1 view .LVU35
 331:sampleengine.h ****         {
 332:sampleengine.h ****             nextKey = 0;
 265              		.loc 13 332 21 is_stmt 0 view .LVU36
 266 0012 202B     		cmp	r3, #32
 267 0014 A8BF     		it	ge
 268 0016 0023     		movge	r3, #0
 269              	.LVL12:
 333:sampleengine.h ****         }
 334:sampleengine.h ****         if(keyStates[nextKey])
 270              		.loc 13 334 9 is_stmt 1 view .LVU37
 327:sampleengine.h ****     {
 271              		.loc 13 327 22 view .LVU38
 272              		.loc 13 334 9 is_stmt 0 view .LVU39
 273 0018 C15C     		ldrb	r1, [r0, r3]	@ zero_extendqisi2
 274 001a 0029     		cmp	r1, #0
 275 001c F6D0     		beq	.L15
 276              	.LVL13:
 277              	.L11:
 278              		.loc 13 334 9 view .LVU40
 279              	.LBE413:
 335:sampleengine.h ****         {
 336:sampleengine.h ****             break;
 337:sampleengine.h ****         }
 338:sampleengine.h ****     }
 339:sampleengine.h ****     return nextKey;
 280              		.loc 13 339 5 is_stmt 1 view .LVU41
 281              		.loc 13 339 5 is_stmt 0 view .LVU42
 282              	.LBE412:
 283              	.LBE411:
 112:sampleengine.h ****         stopPoint = keyStopIndex[currentKey];
 284              		.loc 13 112 46 view .LVU43
ARM GAS  /var/folders/m5/x8wc2gdj7z5cpgcqdsb_gkj40000gn/T//ccGxviRN.s 			page 23


 285 001e 0C4A     		ldr	r2, .L16+8
 113:sampleengine.h ****         ResetReadIndex();
 286              		.loc 13 113 44 view .LVU44
 287 0020 0C48     		ldr	r0, .L16+12
 112:sampleengine.h ****         stopPoint = keyStopIndex[currentKey];
 288              		.loc 13 112 46 view .LVU45
 289 0022 52F82320 		ldr	r2, [r2, r3, lsl #2]
 112:sampleengine.h ****         stopPoint = keyStopIndex[currentKey];
 290              		.loc 13 112 20 view .LVU46
 291 0026 0C4D     		ldr	r5, .L16+16
 292              	.LBB414:
 293              	.LBB415:
 102:sampleengine.h **** }
 294              		.loc 13 102 15 view .LVU47
 295 0028 07EE902A 		vmov	s15, r2	@ int
 296              	.LBE415:
 297              	.LBE414:
 113:sampleengine.h ****         ResetReadIndex();
 298              		.loc 13 113 19 view .LVU48
 299 002c 50F82300 		ldr	r0, [r0, r3, lsl #2]
 111:sampleengine.h ****         startPoint = keyStartIndex[currentKey];
 300              		.loc 13 111 20 view .LVU49
 301 0030 2360     		str	r3, [r4]
 112:sampleengine.h ****         stopPoint = keyStopIndex[currentKey];
 302              		.loc 13 112 9 is_stmt 1 view .LVU50
 303              	.LBB419:
 304              	.LBB416:
 102:sampleengine.h **** }
 305              		.loc 13 102 15 is_stmt 0 view .LVU51
 306 0032 F8EE677A 		vcvt.f32.u32	s15, s15
 307              	.LBE416:
 308              	.LBE419:
 113:sampleengine.h ****         ResetReadIndex();
 309              		.loc 13 113 19 view .LVU52
 310 0036 0949     		ldr	r1, .L16+20
 311              	.LBB420:
 312              	.LBB417:
 102:sampleengine.h **** }
 313              		.loc 13 102 15 view .LVU53
 314 0038 094B     		ldr	r3, .L16+24
 315              	.LBE417:
 316              	.LBE420:
 112:sampleengine.h ****         stopPoint = keyStopIndex[currentKey];
 317              		.loc 13 112 20 view .LVU54
 318 003a 2A60     		str	r2, [r5]
 113:sampleengine.h ****         ResetReadIndex();
 319              		.loc 13 113 9 is_stmt 1 view .LVU55
 113:sampleengine.h ****         ResetReadIndex();
 320              		.loc 13 113 19 is_stmt 0 view .LVU56
 321 003c 0860     		str	r0, [r1]
 114:sampleengine.h ****     }
 322              		.loc 13 114 9 is_stmt 1 view .LVU57
 323              	.LBB421:
 324              	.LBI414:
 100:sampleengine.h **** {
 325              		.loc 13 100 6 view .LVU58
 326              	.LBB418:
ARM GAS  /var/folders/m5/x8wc2gdj7z5cpgcqdsb_gkj40000gn/T//ccGxviRN.s 			page 24


 102:sampleengine.h **** }
 327              		.loc 13 102 5 view .LVU59
 102:sampleengine.h **** }
 328              		.loc 13 102 15 is_stmt 0 view .LVU60
 329 003e C3ED007A 		vstr.32	s15, [r3]
 330              	.LBE418:
 331              	.LBE421:
 116:sampleengine.h **** 
 332              		.loc 13 116 1 view .LVU61
 333 0042 30BC     		pop	{r4, r5}
 334              		.cfi_restore 5
 335              		.cfi_restore 4
 336              		.cfi_def_cfa_offset 0
 337 0044 7047     		bx	lr
 338              	.L17:
 339 0046 00BF     		.align	2
 340              	.L16:
 341 0048 00000000 		.word	.LANCHOR0
 342 004c 00000000 		.word	.LANCHOR1
 343 0050 00000000 		.word	.LANCHOR2
 344 0054 00000000 		.word	.LANCHOR5
 345 0058 00000000 		.word	.LANCHOR3
 346 005c 00000000 		.word	.LANCHOR4
 347 0060 00000000 		.word	.LANCHOR6
 348              		.cfi_endproc
 349              	.LFE5284:
 351              		.section	.text._Z12InitControlsv,"ax",%progbits
 352              		.align	1
 353              		.p2align 2,,3
 354              		.global	_Z12InitControlsv
 355              		.syntax unified
 356              		.thumb
 357              		.thumb_func
 359              	_Z12InitControlsv:
 360              	.LFB4682:
 361              		.file 14 "hardware.h"
   1:hardware.h    **** // ================================
   2:hardware.h    **** // COMPANY: Feni Design
   3:hardware.h    **** // AUTHOR: Dominic Frugoli
   4:hardware.h    **** // CREATE DATE: 8/25/2024
   5:hardware.h    **** // PROJECT: Fall 2024 Independent Project
   6:hardware.h    **** // HEADER FILE FOR USE WITH: "sardinia.cpp"
   7:hardware.h    **** // SPECIAL NOTES: Code is meant for Electrosmith Daisy microcontroller
   8:hardware.h    **** // ================================
   9:hardware.h    **** 
  10:hardware.h    **** 
  11:hardware.h    **** using namespace daisy;
  12:hardware.h    **** using namespace daisy::seed;
  13:hardware.h    **** 
  14:hardware.h    **** 
  15:hardware.h    **** // |Pin Declarations|------------------------------------------------------------------------------
  16:hardware.h    **** // Setting up pin locations for all hardware
  17:hardware.h    **** 
  18:hardware.h    **** #define numKeyPads 32
  19:hardware.h    **** 
  20:hardware.h    **** #define knobMuxPin A0
  21:hardware.h    **** #define keypadMuxPin_Row1 A1
ARM GAS  /var/folders/m5/x8wc2gdj7z5cpgcqdsb_gkj40000gn/T//ccGxviRN.s 			page 25


  22:hardware.h    **** #define keypadMuxPin_Row2 A2
  23:hardware.h    **** #define keypadMuxPin_Row3 A3
  24:hardware.h    **** #define keypadMuxPin_Row4 A4
  25:hardware.h    **** #define buttonMuxPin A5 // 0: play, 1: record, 2: ???, 3: ???, 4: ModeOne, 5: ModeTwo, 6: ModeThree
  26:hardware.h    **** 
  27:hardware.h    **** #define muxConPin1 D1
  28:hardware.h    **** #define muxConPin2 D2
  29:hardware.h    **** #define muxConPin3 D3
  30:hardware.h    **** 
  31:hardware.h    **** #define encoderPinA D11
  32:hardware.h    **** #define encoderPinB D10
  33:hardware.h    **** #define encoderPinClick D12
  34:hardware.h    **** 
  35:hardware.h    **** 
  36:hardware.h    **** // |ADC Config Setup|------------------------------------------------------------------------------
  37:hardware.h    **** // Setting up ADC system for Daisy
  38:hardware.h    **** 
  39:hardware.h    **** enum AdcChannel // Just add knobs before last NUM_ADC_CHANNELS as needed
  40:hardware.h    **** {
  41:hardware.h    **** 	knobMux,
  42:hardware.h    **** 	keypadMuxOne,
  43:hardware.h    **** 	keypadMuxTwo,
  44:hardware.h    **** 	keypadMuxThree,
  45:hardware.h    **** 	keypadMuxFour,
  46:hardware.h    **** 	buttonMux,
  47:hardware.h    **** 	NUM_ADC_CHANNELS // Enum allows for auto tracking the amount
  48:hardware.h    **** };
  49:hardware.h    **** 
  50:hardware.h    **** 
  51:hardware.h    **** // |Hardware Object Instantiations|----------------------------------------------------------------
  52:hardware.h    **** // Instantiating objects for hardware control classes
  53:hardware.h    **** 
  54:hardware.h    **** AdcChannelConfig adcConfig[NUM_ADC_CHANNELS]; // array size for number of ADC channels you need
  55:hardware.h    **** 
  56:hardware.h    **** 
  57:hardware.h    **** Encoder encoder;
  58:hardware.h    **** 
  59:hardware.h    **** 
  60:hardware.h    **** // |Variable Declarations|-------------------------------------------------------------------------
  61:hardware.h    **** // Variables for all values that need to be stored
  62:hardware.h    **** 
  63:hardware.h    **** 
  64:hardware.h    **** int encoderTurnVal;
  65:hardware.h    **** 
  66:hardware.h    **** // 0: play, 1: record, 2: ???, 3: ???, 4: ModeOne, 5: ModeTwo, 6: ModeThree, 7: ModeFour
  67:hardware.h    **** bool controlButtonStates[8] = {false, false, false, false, false, false, false, false};
  68:hardware.h    **** bool prevControlButtonStates[8] = {false, false, false, false, false, false, false, false};
  69:hardware.h    **** 
  70:hardware.h    **** bool playButtonOverrule; // For when the playing sample off of play button pressed (overrules keypa
  71:hardware.h    **** 
  72:hardware.h    **** 
  73:hardware.h    **** // |Function Declarations|-------------------------------------------------------------------------
  74:hardware.h    **** // Function declarations for any functions needed
  75:hardware.h    **** 
  76:hardware.h    **** void ProcessControlsKR(); // For controls that only need to be processed every audio block
  77:hardware.h    **** void ProcessControlsAR(); // For controls that need to process every sample
  78:hardware.h    **** 
ARM GAS  /var/folders/m5/x8wc2gdj7z5cpgcqdsb_gkj40000gn/T//ccGxviRN.s 			page 26


  79:hardware.h    **** void InitControls()
  80:hardware.h    **** {
 362              		.loc 14 80 1 is_stmt 1 view -0
 363              		.cfi_startproc
 364              		@ args = 0, pretend = 0, frame = 112
 365              		@ frame_needed = 0, uses_anonymous_args = 0
  81:hardware.h    **** 	adcConfig[knobMux].InitMux(knobMuxPin, 8, muxConPin1, muxConPin2, muxConPin3);
 366              		.loc 14 81 2 view .LVU63
  80:hardware.h    **** 	adcConfig[knobMux].InitMux(knobMuxPin, 8, muxConPin1, muxConPin2, muxConPin3);
 367              		.loc 14 80 1 is_stmt 0 view .LVU64
 368 0000 2DE9F047 		push	{r4, r5, r6, r7, r8, r9, r10, lr}
 369              		.cfi_def_cfa_offset 32
 370              		.cfi_offset 4, -32
 371              		.cfi_offset 5, -28
 372              		.cfi_offset 6, -24
 373              		.cfi_offset 7, -20
 374              		.cfi_offset 8, -16
 375              		.cfi_offset 9, -12
 376              		.cfi_offset 10, -8
 377              		.cfi_offset 14, -4
 378              		.loc 14 81 28 view .LVU65
 379 0004 0224     		movs	r4, #2
  80:hardware.h    **** 	adcConfig[knobMux].InitMux(knobMuxPin, 8, muxConPin1, muxConPin2, muxConPin3);
 380              		.loc 14 80 1 view .LVU66
 381 0006 A0B0     		sub	sp, sp, #128
 382              		.cfi_def_cfa_offset 160
 383              		.loc 14 81 28 view .LVU67
 384 0008 0925     		movs	r5, #9
 385 000a 4FF00A09 		mov	r9, #10
 386 000e 8DF82040 		strb	r4, [sp, #32]
 387 0012 4FF00B08 		mov	r8, #11
 388 0016 8DF82150 		strb	r5, [sp, #33]
 389 001a 4FF0000A 		mov	r10, #0
 390 001e BDF82030 		ldrh	r3, [sp, #32]
 391 0022 0822     		movs	r2, #8
 392 0024 6A4F     		ldr	r7, .L20
  82:hardware.h    **** 	adcConfig[keypadMuxOne].InitMux(keypadMuxPin_Row1, 8, muxConPin1, muxConPin2, muxConPin3);
  83:hardware.h    **** 	adcConfig[keypadMuxTwo].InitMux(keypadMuxPin_Row2, 8, muxConPin1, muxConPin2, muxConPin3);
 393              		.loc 14 83 33 view .LVU68
 394 0026 0126     		movs	r6, #1
  81:hardware.h    **** 	adcConfig[keypadMuxOne].InitMux(keypadMuxPin_Row1, 8, muxConPin1, muxConPin2, muxConPin3);
 395              		.loc 14 81 28 view .LVU69
 396 0028 8DF81C40 		strb	r4, [sp, #28]
 397 002c 8DF81D90 		strb	r9, [sp, #29]
 398 0030 3846     		mov	r0, r7
 399 0032 ADF80430 		strh	r3, [sp, #4]	@ movhi
 400 0036 BDF81C30 		ldrh	r3, [sp, #28]
 401 003a 8DF81440 		strb	r4, [sp, #20]
 402 003e 8DF815A0 		strb	r10, [sp, #21]
 403 0042 8DF81840 		strb	r4, [sp, #24]
 404 0046 8DF81980 		strb	r8, [sp, #25]
 405 004a 0599     		ldr	r1, [sp, #20]
 406 004c ADF80030 		strh	r3, [sp]	@ movhi
 407 0050 0294     		str	r4, [sp, #8]
 408 0052 069B     		ldr	r3, [sp, #24]
 409 0054 FFF7FEFF 		bl	_ZN5daisy16AdcChannelConfig7InitMuxE12dsy_gpio_pinjS1_S1_S1_NS0_15ConversionSpeedE
 410              	.LVL14:
ARM GAS  /var/folders/m5/x8wc2gdj7z5cpgcqdsb_gkj40000gn/T//ccGxviRN.s 			page 27


  82:hardware.h    **** 	adcConfig[keypadMuxOne].InitMux(keypadMuxPin_Row1, 8, muxConPin1, muxConPin2, muxConPin3);
 411              		.loc 14 82 2 is_stmt 1 view .LVU70
  82:hardware.h    **** 	adcConfig[keypadMuxOne].InitMux(keypadMuxPin_Row1, 8, muxConPin1, muxConPin2, muxConPin3);
 412              		.loc 14 82 33 is_stmt 0 view .LVU71
 413 0058 0323     		movs	r3, #3
 414 005a 8DF83040 		strb	r4, [sp, #48]
 415 005e 07F11200 		add	r0, r7, #18
 416 0062 8DF82530 		strb	r3, [sp, #37]
 417 0066 0822     		movs	r2, #8
 418 0068 8DF83150 		strb	r5, [sp, #49]
 419 006c BDF83030 		ldrh	r3, [sp, #48]
 420 0070 8DF82C40 		strb	r4, [sp, #44]
 421 0074 8DF82D90 		strb	r9, [sp, #45]
 422 0078 ADF80430 		strh	r3, [sp, #4]	@ movhi
 423 007c BDF82C30 		ldrh	r3, [sp, #44]
 424 0080 8DF824A0 		strb	r10, [sp, #36]
 425 0084 8DF82840 		strb	r4, [sp, #40]
 426 0088 8DF82980 		strb	r8, [sp, #41]
 427 008c 0999     		ldr	r1, [sp, #36]
 428 008e ADF80030 		strh	r3, [sp]	@ movhi
 429 0092 0294     		str	r4, [sp, #8]
 430 0094 0A9B     		ldr	r3, [sp, #40]
 431 0096 FFF7FEFF 		bl	_ZN5daisy16AdcChannelConfig7InitMuxE12dsy_gpio_pinjS1_S1_S1_NS0_15ConversionSpeedE
 432              	.LVL15:
 433              		.loc 14 83 2 is_stmt 1 view .LVU72
 434              		.loc 14 83 33 is_stmt 0 view .LVU73
 435 009a 8DF84040 		strb	r4, [sp, #64]
 436 009e 8DF84150 		strb	r5, [sp, #65]
 437 00a2 07F12400 		add	r0, r7, #36
 438 00a6 BDF84030 		ldrh	r3, [sp, #64]
 439 00aa 0822     		movs	r2, #8
 440 00ac 8DF83C40 		strb	r4, [sp, #60]
 441 00b0 8DF83D90 		strb	r9, [sp, #61]
 442 00b4 ADF80430 		strh	r3, [sp, #4]	@ movhi
 443 00b8 BDF83C30 		ldrh	r3, [sp, #60]
 444 00bc 8DF83840 		strb	r4, [sp, #56]
 445 00c0 8DF83980 		strb	r8, [sp, #57]
 446 00c4 8DF83460 		strb	r6, [sp, #52]
 447 00c8 8DF83560 		strb	r6, [sp, #53]
 448 00cc 0D99     		ldr	r1, [sp, #52]
 449 00ce ADF80030 		strh	r3, [sp]	@ movhi
 450 00d2 0294     		str	r4, [sp, #8]
 451 00d4 0E9B     		ldr	r3, [sp, #56]
 452 00d6 FFF7FEFF 		bl	_ZN5daisy16AdcChannelConfig7InitMuxE12dsy_gpio_pinjS1_S1_S1_NS0_15ConversionSpeedE
 453              	.LVL16:
  84:hardware.h    **** 	adcConfig[keypadMuxThree].InitMux(keypadMuxPin_Row3, 8, muxConPin1, muxConPin2, muxConPin3);
 454              		.loc 14 84 2 is_stmt 1 view .LVU74
 455              		.loc 14 84 35 is_stmt 0 view .LVU75
 456 00da 0723     		movs	r3, #7
 457 00dc 8DF85040 		strb	r4, [sp, #80]
 458 00e0 07F13600 		add	r0, r7, #54
 459 00e4 8DF84530 		strb	r3, [sp, #69]
 460 00e8 0822     		movs	r2, #8
 461 00ea 8DF85150 		strb	r5, [sp, #81]
 462 00ee BDF85030 		ldrh	r3, [sp, #80]
 463 00f2 8DF84C40 		strb	r4, [sp, #76]
 464 00f6 8DF84D90 		strb	r9, [sp, #77]
ARM GAS  /var/folders/m5/x8wc2gdj7z5cpgcqdsb_gkj40000gn/T//ccGxviRN.s 			page 28


 465 00fa ADF80430 		strh	r3, [sp, #4]	@ movhi
 466 00fe BDF84C30 		ldrh	r3, [sp, #76]
 467 0102 8DF844A0 		strb	r10, [sp, #68]
 468 0106 8DF84840 		strb	r4, [sp, #72]
 469 010a 8DF84980 		strb	r8, [sp, #73]
 470 010e 1199     		ldr	r1, [sp, #68]
 471 0110 ADF80030 		strh	r3, [sp]	@ movhi
 472 0114 0294     		str	r4, [sp, #8]
 473 0116 129B     		ldr	r3, [sp, #72]
 474 0118 FFF7FEFF 		bl	_ZN5daisy16AdcChannelConfig7InitMuxE12dsy_gpio_pinjS1_S1_S1_NS0_15ConversionSpeedE
 475              	.LVL17:
  85:hardware.h    **** 	adcConfig[keypadMuxFour].InitMux(keypadMuxPin_Row4, 8, muxConPin1, muxConPin2, muxConPin3);
 476              		.loc 14 85 2 is_stmt 1 view .LVU76
 477              		.loc 14 85 34 is_stmt 0 view .LVU77
 478 011c 0623     		movs	r3, #6
 479 011e 8DF86040 		strb	r4, [sp, #96]
 480 0122 07F14800 		add	r0, r7, #72
 481 0126 8DF85530 		strb	r3, [sp, #85]
 482 012a 0822     		movs	r2, #8
 483 012c 8DF86150 		strb	r5, [sp, #97]
 484 0130 BDF86030 		ldrh	r3, [sp, #96]
 485 0134 8DF85C40 		strb	r4, [sp, #92]
 486 0138 8DF85D90 		strb	r9, [sp, #93]
 487 013c ADF80430 		strh	r3, [sp, #4]	@ movhi
 488 0140 BDF85C30 		ldrh	r3, [sp, #92]
 489 0144 8DF854A0 		strb	r10, [sp, #84]
 490 0148 8DF85840 		strb	r4, [sp, #88]
 491 014c 8DF85980 		strb	r8, [sp, #89]
 492 0150 1599     		ldr	r1, [sp, #84]
 493 0152 ADF80030 		strh	r3, [sp]	@ movhi
 494 0156 0294     		str	r4, [sp, #8]
 495 0158 169B     		ldr	r3, [sp, #88]
 496 015a FFF7FEFF 		bl	_ZN5daisy16AdcChannelConfig7InitMuxE12dsy_gpio_pinjS1_S1_S1_NS0_15ConversionSpeedE
 497              	.LVL18:
  86:hardware.h    **** 	adcConfig[buttonMux].InitMux(buttonMuxPin, 8, muxConPin1, muxConPin2, muxConPin3);
 498              		.loc 14 86 2 is_stmt 1 view .LVU78
 499              		.loc 14 86 30 is_stmt 0 view .LVU79
 500 015e 8DF86D90 		strb	r9, [sp, #109]
 501 0162 8DF86C40 		strb	r4, [sp, #108]
 502 0166 07F15A00 		add	r0, r7, #90
 503 016a BDF86C20 		ldrh	r2, [sp, #108]
 504 016e 8DF87040 		strb	r4, [sp, #112]
 505 0172 8DF87150 		strb	r5, [sp, #113]
 506 0176 BDF87030 		ldrh	r3, [sp, #112]
 507 017a 8DF86980 		strb	r8, [sp, #105]
 508 017e 8DF86440 		strb	r4, [sp, #100]
 509 0182 8DF86560 		strb	r6, [sp, #101]
 510 0186 8DF86840 		strb	r4, [sp, #104]
 511 018a 1999     		ldr	r1, [sp, #100]
 512 018c ADF80430 		strh	r3, [sp, #4]	@ movhi
 513 0190 ADF80020 		strh	r2, [sp]	@ movhi
 514 0194 0822     		movs	r2, #8
 515 0196 1A9B     		ldr	r3, [sp, #104]
 516 0198 0294     		str	r4, [sp, #8]
 517 019a FFF7FEFF 		bl	_ZN5daisy16AdcChannelConfig7InitMuxE12dsy_gpio_pinjS1_S1_S1_NS0_15ConversionSpeedE
 518              	.LVL19:
  87:hardware.h    **** 
ARM GAS  /var/folders/m5/x8wc2gdj7z5cpgcqdsb_gkj40000gn/T//ccGxviRN.s 			page 29


  88:hardware.h    **** 	encoder.Init(encoderPinA, encoderPinB, encoderPinClick);
 519              		.loc 14 88 2 is_stmt 1 view .LVU80
 520              		.loc 14 88 14 is_stmt 0 view .LVU81
 521 019e 0822     		movs	r2, #8
 522 01a0 0523     		movs	r3, #5
 523 01a2 8DF87460 		strb	r6, [sp, #116]
 524 01a6 8DF87520 		strb	r2, [sp, #117]
 525 01aa 8DF87860 		strb	r6, [sp, #120]
 526 01ae 8DF87930 		strb	r3, [sp, #121]
 527 01b2 8DF87C60 		strb	r6, [sp, #124]
 528 01b6 8DF87D50 		strb	r5, [sp, #125]
 529 01ba 9FED060A 		vldr.32	s0, .L20+4
 530 01be 1D99     		ldr	r1, [sp, #116]
 531 01c0 0548     		ldr	r0, .L20+8
 532 01c2 DDE91E23 		ldrd	r2, r3, [sp, #120]
  89:hardware.h    **** }
 533              		.loc 14 89 1 view .LVU82
 534 01c6 20B0     		add	sp, sp, #128
 535              		.cfi_def_cfa_offset 32
 536              		@ sp needed
 537 01c8 BDE8F047 		pop	{r4, r5, r6, r7, r8, r9, r10, lr}
 538              		.cfi_restore 14
 539              		.cfi_restore 10
 540              		.cfi_restore 9
 541              		.cfi_restore 8
 542              		.cfi_restore 7
 543              		.cfi_restore 6
 544              		.cfi_restore 5
 545              		.cfi_restore 4
 546              		.cfi_def_cfa_offset 0
  88:hardware.h    **** }
 547              		.loc 14 88 14 view .LVU83
 548 01cc FFF7FEBF 		b	_ZN5daisy7Encoder4InitE12dsy_gpio_pinS1_S1_f
 549              	.LVL20:
 550              	.L21:
 551              		.align	2
 552              	.L20:
 553 01d0 00000000 		.word	.LANCHOR7
 554 01d4 00000000 		.word	0
 555 01d8 00000000 		.word	.LANCHOR8
 556              		.cfi_endproc
 557              	.LFE4682:
 559              		.section	.text._Z10RisingEdgebb,"ax",%progbits
 560              		.align	1
 561              		.p2align 2,,3
 562              		.global	_Z10RisingEdgebb
 563              		.syntax unified
 564              		.thumb
 565              		.thumb_func
 567              	_Z10RisingEdgebb:
 568              	.LVL21:
 569              	.LFB4683:
  90:hardware.h    **** 
  91:hardware.h    **** bool RisingEdge(bool buttonState, bool previousButtonState)
  92:hardware.h    **** {
 570              		.loc 14 92 1 is_stmt 1 view -0
 571              		.cfi_startproc
ARM GAS  /var/folders/m5/x8wc2gdj7z5cpgcqdsb_gkj40000gn/T//ccGxviRN.s 			page 30


 572              		@ args = 0, pretend = 0, frame = 0
 573              		@ frame_needed = 0, uses_anonymous_args = 0
 574              		@ link register save eliminated.
  93:hardware.h    **** 	if(buttonState == true && previousButtonState == false)
 575              		.loc 14 93 2 view .LVU85
 576              		.loc 14 93 25 is_stmt 0 view .LVU86
 577 0000 81F00101 		eor	r1, r1, #1
 578              	.LVL22:
  94:hardware.h    **** 	{
  95:hardware.h    **** 		return true;
  96:hardware.h    **** 	}
  97:hardware.h    **** 	else
  98:hardware.h    **** 	{
  99:hardware.h    **** 		return false;
 100:hardware.h    **** 	}
 101:hardware.h    **** }
 579              		.loc 14 101 1 view .LVU87
 580 0004 0840     		ands	r0, r0, r1
 581              	.LVL23:
 582              		.loc 14 101 1 view .LVU88
 583 0006 7047     		bx	lr
 584              		.cfi_endproc
 585              	.LFE4683:
 587              		.section	.text._Z11FallingEdgebb,"ax",%progbits
 588              		.align	1
 589              		.p2align 2,,3
 590              		.global	_Z11FallingEdgebb
 591              		.syntax unified
 592              		.thumb
 593              		.thumb_func
 595              	_Z11FallingEdgebb:
 596              	.LVL24:
 597              	.LFB4684:
 102:hardware.h    **** 
 103:hardware.h    **** bool FallingEdge(bool buttonState, bool previousButtonState)
 104:hardware.h    **** {
 598              		.loc 14 104 1 is_stmt 1 view -0
 599              		.cfi_startproc
 600              		@ args = 0, pretend = 0, frame = 0
 601              		@ frame_needed = 0, uses_anonymous_args = 0
 602              		@ link register save eliminated.
 105:hardware.h    **** 	if(buttonState == false && previousButtonState == true)
 603              		.loc 14 105 2 view .LVU90
 604 0000 80F00100 		eor	r0, r0, #1
 605              	.LVL25:
 106:hardware.h    **** 	{
 107:hardware.h    **** 		return true;
 108:hardware.h    **** 	}
 109:hardware.h    **** 	else
 110:hardware.h    **** 	{
 111:hardware.h    **** 		return false;
 112:hardware.h    **** 	}
 113:hardware.h    **** }
 606              		.loc 14 113 1 is_stmt 0 view .LVU91
 607 0004 0840     		ands	r0, r0, r1
 608 0006 7047     		bx	lr
 609              		.cfi_endproc
ARM GAS  /var/folders/m5/x8wc2gdj7z5cpgcqdsb_gkj40000gn/T//ccGxviRN.s 			page 31


 610              	.LFE4684:
 612              		.section	.text._Z25RisingEdge_ControlButtonsi,"ax",%progbits
 613              		.align	1
 614              		.p2align 2,,3
 615              		.global	_Z25RisingEdge_ControlButtonsi
 616              		.syntax unified
 617              		.thumb
 618              		.thumb_func
 620              	_Z25RisingEdge_ControlButtonsi:
 621              	.LVL26:
 622              	.LFB4685:
 114:hardware.h    **** 
 115:hardware.h    **** bool RisingEdge_ControlButtons(int buttonNum)
 116:hardware.h    **** {
 623              		.loc 14 116 1 is_stmt 1 view -0
 624              		.cfi_startproc
 625              		@ args = 0, pretend = 0, frame = 0
 626              		@ frame_needed = 0, uses_anonymous_args = 0
 627              		@ link register save eliminated.
 117:hardware.h    **** 	if(controlButtonStates[buttonNum] == true && prevControlButtonStates[buttonNum] == false)
 628              		.loc 14 117 2 view .LVU93
 629              		.loc 14 117 34 is_stmt 0 view .LVU94
 630 0000 044A     		ldr	r2, .L29
 116:hardware.h    **** 	if(controlButtonStates[buttonNum] == true && prevControlButtonStates[buttonNum] == false)
 631              		.loc 14 116 1 view .LVU95
 632 0002 0346     		mov	r3, r0
 633              		.loc 14 117 34 view .LVU96
 634 0004 105C     		ldrb	r0, [r2, r0]	@ zero_extendqisi2
 635              	.LVL27:
 636              		.loc 14 117 2 view .LVU97
 637 0006 18B1     		cbz	r0, .L25
 638              		.loc 14 117 80 discriminator 1 view .LVU98
 639 0008 034A     		ldr	r2, .L29+4
 640              		.loc 14 117 44 discriminator 1 view .LVU99
 641 000a D05C     		ldrb	r0, [r2, r3]	@ zero_extendqisi2
 642 000c 80F00100 		eor	r0, r0, #1
 643              	.L25:
 118:hardware.h    **** 	{
 119:hardware.h    **** 		return true;
 120:hardware.h    **** 	}
 121:hardware.h    **** 	else
 122:hardware.h    **** 	{
 123:hardware.h    **** 		return false;
 124:hardware.h    **** 	}
 125:hardware.h    **** }
 644              		.loc 14 125 1 view .LVU100
 645 0010 7047     		bx	lr
 646              	.L30:
 647 0012 00BF     		.align	2
 648              	.L29:
 649 0014 00000000 		.word	.LANCHOR9
 650 0018 00000000 		.word	.LANCHOR10
 651              		.cfi_endproc
 652              	.LFE4685:
 654              		.section	.text._Z26FallingEdge_ControlButtonsi,"ax",%progbits
 655              		.align	1
 656              		.p2align 2,,3
ARM GAS  /var/folders/m5/x8wc2gdj7z5cpgcqdsb_gkj40000gn/T//ccGxviRN.s 			page 32


 657              		.global	_Z26FallingEdge_ControlButtonsi
 658              		.syntax unified
 659              		.thumb
 660              		.thumb_func
 662              	_Z26FallingEdge_ControlButtonsi:
 663              	.LVL28:
 664              	.LFB4686:
 126:hardware.h    **** 
 127:hardware.h    **** bool FallingEdge_ControlButtons(int buttonNum)
 128:hardware.h    **** {
 665              		.loc 14 128 1 is_stmt 1 view -0
 666              		.cfi_startproc
 667              		@ args = 0, pretend = 0, frame = 0
 668              		@ frame_needed = 0, uses_anonymous_args = 0
 669              		@ link register save eliminated.
 129:hardware.h    **** 	if(controlButtonStates[buttonNum] == false && prevControlButtonStates[buttonNum] == true)
 670              		.loc 14 129 2 view .LVU102
 671              		.loc 14 129 34 is_stmt 0 view .LVU103
 672 0000 034B     		ldr	r3, .L34
 673              		.loc 14 129 2 view .LVU104
 674 0002 1B5C     		ldrb	r3, [r3, r0]	@ zero_extendqisi2
 675 0004 13B9     		cbnz	r3, .L33
 676              		.loc 14 129 81 discriminator 1 view .LVU105
 677 0006 034B     		ldr	r3, .L34+4
 678 0008 185C     		ldrb	r0, [r3, r0]	@ zero_extendqisi2
 679              	.LVL29:
 680              		.loc 14 129 81 discriminator 1 view .LVU106
 681 000a 7047     		bx	lr
 682              	.LVL30:
 683              	.L33:
 130:hardware.h    **** 	{
 131:hardware.h    **** 		return true;
 132:hardware.h    **** 	}
 133:hardware.h    **** 	else
 134:hardware.h    **** 	{
 135:hardware.h    **** 		return false;
 684              		.loc 14 135 10 view .LVU107
 685 000c 0020     		movs	r0, #0
 686              	.LVL31:
 136:hardware.h    **** 	}
 137:hardware.h    **** }
 687              		.loc 14 137 1 view .LVU108
 688 000e 7047     		bx	lr
 689              	.L35:
 690              		.align	2
 691              	.L34:
 692 0010 00000000 		.word	.LANCHOR9
 693 0014 00000000 		.word	.LANCHOR10
 694              		.cfi_endproc
 695              	.LFE4686:
 697              		.section	.text._Z13EncoderTurnedv,"ax",%progbits
 698              		.align	1
 699              		.p2align 2,,3
 700              		.global	_Z13EncoderTurnedv
 701              		.syntax unified
 702              		.thumb
 703              		.thumb_func
ARM GAS  /var/folders/m5/x8wc2gdj7z5cpgcqdsb_gkj40000gn/T//ccGxviRN.s 			page 33


 705              	_Z13EncoderTurnedv:
 706              	.LFB4687:
 138:hardware.h    **** 
 139:hardware.h    **** bool EncoderTurned()
 140:hardware.h    **** {
 707              		.loc 14 140 1 is_stmt 1 view -0
 708              		.cfi_startproc
 709              		@ args = 0, pretend = 0, frame = 0
 710              		@ frame_needed = 0, uses_anonymous_args = 0
 711              		@ link register save eliminated.
 141:hardware.h    **** 	float encoderInc = encoder.Increment();
 712              		.loc 14 141 2 view .LVU110
 713              	.LVL32:
 714              	.LBB422:
 715              	.LBI422:
  22:/Users/dominicfrugoli/Desktop/ProgrammingCode/DaisyCode/DaisyExamples/libDaisy/src/hid/encoder.h **** 
  23:/Users/dominicfrugoli/Desktop/ProgrammingCode/DaisyCode/DaisyExamples/libDaisy/src/hid/encoder.h ****     /** Initializes the encoder with the specified hardware pins.
  24:/Users/dominicfrugoli/Desktop/ProgrammingCode/DaisyCode/DaisyExamples/libDaisy/src/hid/encoder.h ****      * Update rate is to be deprecated in a future release
  25:/Users/dominicfrugoli/Desktop/ProgrammingCode/DaisyCode/DaisyExamples/libDaisy/src/hid/encoder.h ****      */
  26:/Users/dominicfrugoli/Desktop/ProgrammingCode/DaisyCode/DaisyExamples/libDaisy/src/hid/encoder.h ****     void Init(dsy_gpio_pin a,
  27:/Users/dominicfrugoli/Desktop/ProgrammingCode/DaisyCode/DaisyExamples/libDaisy/src/hid/encoder.h ****               dsy_gpio_pin b,
  28:/Users/dominicfrugoli/Desktop/ProgrammingCode/DaisyCode/DaisyExamples/libDaisy/src/hid/encoder.h ****               dsy_gpio_pin click,
  29:/Users/dominicfrugoli/Desktop/ProgrammingCode/DaisyCode/DaisyExamples/libDaisy/src/hid/encoder.h ****               float        update_rate = 0.f);
  30:/Users/dominicfrugoli/Desktop/ProgrammingCode/DaisyCode/DaisyExamples/libDaisy/src/hid/encoder.h ****     /** Called at update_rate to debounce and handle timing for the switch.
  31:/Users/dominicfrugoli/Desktop/ProgrammingCode/DaisyCode/DaisyExamples/libDaisy/src/hid/encoder.h ****      * In order for events not to be missed, its important that the Edge/Pressed checks be made at 
  32:/Users/dominicfrugoli/Desktop/ProgrammingCode/DaisyCode/DaisyExamples/libDaisy/src/hid/encoder.h ****      */
  33:/Users/dominicfrugoli/Desktop/ProgrammingCode/DaisyCode/DaisyExamples/libDaisy/src/hid/encoder.h ****     void Debounce();
  34:/Users/dominicfrugoli/Desktop/ProgrammingCode/DaisyCode/DaisyExamples/libDaisy/src/hid/encoder.h **** 
  35:/Users/dominicfrugoli/Desktop/ProgrammingCode/DaisyCode/DaisyExamples/libDaisy/src/hid/encoder.h ****     /** Returns +1 if the encoder was turned clockwise, -1 if it was turned counter-clockwise, or 0
  36:/Users/dominicfrugoli/Desktop/ProgrammingCode/DaisyCode/DaisyExamples/libDaisy/src/hid/encoder.h ****     inline int32_t Increment() const { return updated_ ? inc_ : 0; }
 716              		.loc 1 36 20 view .LVU111
 717              	.LBB423:
 718              		.loc 1 36 40 view .LVU112
 719              		.loc 1 36 47 is_stmt 0 view .LVU113
 720 0000 074B     		ldr	r3, .L41
 721 0002 1879     		ldrb	r0, [r3, #4]	@ zero_extendqisi2
 722              		.loc 1 36 56 view .LVU114
 723 0004 50B1     		cbz	r0, .L37
 724              	.LVL33:
 725              		.loc 1 36 56 view .LVU115
 726              	.LBE423:
 727              	.LBE422:
 142:hardware.h    **** 	if(encoderInc != 0)
 728              		.loc 14 142 2 is_stmt 1 view .LVU116
 141:hardware.h    **** 	float encoderInc = encoder.Increment();
 729              		.loc 14 141 39 is_stmt 0 view .LVU117
 730 0006 D3ED097A 		vldr.32	s15, [r3, #36]	@ int
 731 000a F8EEE77A 		vcvt.f32.s32	s15, s15
 732              	.LVL34:
 733              		.loc 14 142 2 view .LVU118
 734 000e F5EE407A 		vcmp.f32	s15, #0
 735 0012 F1EE10FA 		vmrs	APSR_nzcv, FPSCR
 736 0016 14BF     		ite	ne
 737 0018 0120     		movne	r0, #1
 738 001a 0020     		moveq	r0, #0
 739              	.LVL35:
 740              	.L37:
ARM GAS  /var/folders/m5/x8wc2gdj7z5cpgcqdsb_gkj40000gn/T//ccGxviRN.s 			page 34


 143:hardware.h    **** 	{
 144:hardware.h    **** 		return true;
 145:hardware.h    **** 	}
 146:hardware.h    **** 	else
 147:hardware.h    **** 	{
 148:hardware.h    **** 		return false;
 149:hardware.h    **** 	}
 150:hardware.h    **** }
 741              		.loc 14 150 1 view .LVU119
 742 001c 7047     		bx	lr
 743              	.L42:
 744 001e 00BF     		.align	2
 745              	.L41:
 746 0020 00000000 		.word	.LANCHOR8
 747              		.cfi_endproc
 748              	.LFE4687:
 750              		.section	.text._Z13EncoderTurnedN5daisy7EncoderE,"ax",%progbits
 751              		.align	1
 752              		.p2align 2,,3
 753              		.global	_Z13EncoderTurnedN5daisy7EncoderE
 754              		.syntax unified
 755              		.thumb
 756              		.thumb_func
 758              	_Z13EncoderTurnedN5daisy7EncoderE:
 759              	.LVL36:
 760              	.LFB4688:
 151:hardware.h    **** 
 152:hardware.h    **** bool EncoderTurned(Encoder enc)
 153:hardware.h    **** {
 761              		.loc 14 153 1 is_stmt 1 view -0
 762              		.cfi_startproc
 763              		@ args = 0, pretend = 0, frame = 0
 764              		@ frame_needed = 0, uses_anonymous_args = 0
 765              		@ link register save eliminated.
 154:hardware.h    **** 	float encoderInc = enc.Increment();
 766              		.loc 14 154 2 view .LVU121
 767              	.LBB424:
 768              	.LBI424:
 769              		.loc 1 36 20 view .LVU122
 770              	.LBB425:
 771              		.loc 1 36 40 view .LVU123
 772              		.loc 1 36 47 is_stmt 0 view .LVU124
 773 0000 0379     		ldrb	r3, [r0, #4]	@ zero_extendqisi2
 774              		.loc 1 36 56 view .LVU125
 775 0002 53B1     		cbz	r3, .L44
 776              	.LVL37:
 777              		.loc 1 36 56 view .LVU126
 778              	.LBE425:
 779              	.LBE424:
 155:hardware.h    **** 	if(encoderInc != 0)
 780              		.loc 14 155 2 is_stmt 1 view .LVU127
 154:hardware.h    **** 	float encoderInc = enc.Increment();
 781              		.loc 14 154 35 is_stmt 0 view .LVU128
 782 0004 D0ED097A 		vldr.32	s15, [r0, #36]	@ int
 783 0008 F8EEE77A 		vcvt.f32.s32	s15, s15
 784              	.LVL38:
 785              		.loc 14 155 2 view .LVU129
ARM GAS  /var/folders/m5/x8wc2gdj7z5cpgcqdsb_gkj40000gn/T//ccGxviRN.s 			page 35


 786 000c F5EE407A 		vcmp.f32	s15, #0
 787 0010 F1EE10FA 		vmrs	APSR_nzcv, FPSCR
 788 0014 14BF     		ite	ne
 789 0016 0123     		movne	r3, #1
 790 0018 0023     		moveq	r3, #0
 791              	.LVL39:
 792              	.L44:
 156:hardware.h    **** 	{
 157:hardware.h    **** 		encoderInc = 0;
 158:hardware.h    **** 		return true;
 159:hardware.h    **** 	}
 160:hardware.h    **** 	else
 161:hardware.h    **** 	{
 162:hardware.h    **** 		encoderInc = 0;
 163:hardware.h    **** 		return false;
 164:hardware.h    **** 	}
 165:hardware.h    **** }...
 793              		.loc 14 165 1 view .LVU130
 794 001a 1846     		mov	r0, r3
 795              	.LVL40:
 796              		.loc 14 165 1 view .LVU131
 797 001c 7047     		bx	lr
 798              		.cfi_endproc
 799              	.LFE4688:
 801 001e 00BF     		.section	.text._Z10InitBufferv,"ax",%progbits
 802              		.align	1
 803              		.p2align 2,,3
 804              		.global	_Z10InitBufferv
 805              		.syntax unified
 806              		.thumb
 807              		.thumb_func
 809              	_Z10InitBufferv:
 810              	.LFB4689:
  79:sampleengine.h ****     readIndex = 0.0f;
 811              		.loc 13 79 1 is_stmt 1 view -0
 812              		.cfi_startproc
 813              		@ args = 0, pretend = 0, frame = 0
 814              		@ frame_needed = 0, uses_anonymous_args = 0
  80:sampleengine.h ****     for(uint32_t i = 0; i < MAX_RECORD_SIZE; i++) // initializes buffer to all 0s
 815              		.loc 13 80 5 view .LVU133
  80:sampleengine.h ****     for(uint32_t i = 0; i < MAX_RECORD_SIZE; i++) // initializes buffer to all 0s
 816              		.loc 13 80 15 is_stmt 0 view .LVU134
 817 0000 0F4B     		ldr	r3, .L50
 818 0002 0020     		movs	r0, #0
 819              	.LBB426:
  83:sampleengine.h ****     }
 820              		.loc 13 83 28 view .LVU135
 821 0004 0F4A     		ldr	r2, .L50+4
 822 0006 0021     		movs	r1, #0
 823              	.LBE426:
  79:sampleengine.h ****     readIndex = 0.0f;
 824              		.loc 13 79 1 view .LVU136
 825 0008 10B5     		push	{r4, lr}
 826              		.cfi_def_cfa_offset 8
 827              		.cfi_offset 4, -8
 828              		.cfi_offset 14, -4
 829              	.LBB427:
ARM GAS  /var/folders/m5/x8wc2gdj7z5cpgcqdsb_gkj40000gn/T//ccGxviRN.s 			page 36


  87:sampleengine.h ****         spliceBufferTwo[i] = 0.0f;
 830              		.loc 13 87 28 view .LVU137
 831 000a 0F4C     		ldr	r4, .L50+8
 832              	.LBE427:
  80:sampleengine.h ****     for(uint32_t i = 0; i < MAX_RECORD_SIZE; i++) // initializes buffer to all 0s
 833              		.loc 13 80 15 view .LVU138
 834 000c 1860     		str	r0, [r3]	@ float
  81:sampleengine.h ****     {
 835              		.loc 13 81 5 is_stmt 1 view .LVU139
 836              	.LVL41:
 837              	.LBB428:
  81:sampleengine.h ****     {
 838              		.loc 13 81 27 view .LVU140
  83:sampleengine.h ****     }
 839              		.loc 13 83 28 is_stmt 0 view .LVU141
 840 000e 0F48     		ldr	r0, .L50+12
 841 0010 FFF7FEFF 		bl	memset
 842              	.LVL42:
  83:sampleengine.h ****     }
 843              		.loc 13 83 28 view .LVU142
 844              	.LBE428:
 845              	.LBB429:
  87:sampleengine.h ****         spliceBufferTwo[i] = 0.0f;
 846              		.loc 13 87 28 view .LVU143
 847 0014 2246     		mov	r2, r4
 848 0016 0021     		movs	r1, #0
 849 0018 0D48     		ldr	r0, .L50+16
 850 001a FFF7FEFF 		bl	memset
 851              	.LVL43:
  88:sampleengine.h ****         spliceBufferThree[i] = 0.0f;
 852              		.loc 13 88 28 view .LVU144
 853 001e 2246     		mov	r2, r4
 854 0020 0021     		movs	r1, #0
 855 0022 0C48     		ldr	r0, .L50+20
 856 0024 FFF7FEFF 		bl	memset
 857              	.LVL44:
  89:sampleengine.h ****         spliceBufferFour[i] = 0.0f;
 858              		.loc 13 89 30 view .LVU145
 859 0028 2246     		mov	r2, r4
 860 002a 0021     		movs	r1, #0
 861 002c 0A48     		ldr	r0, .L50+24
 862 002e FFF7FEFF 		bl	memset
 863              	.LVL45:
  90:sampleengine.h ****     }
 864              		.loc 13 90 29 view .LVU146
 865 0032 2246     		mov	r2, r4
 866 0034 0021     		movs	r1, #0
 867 0036 0948     		ldr	r0, .L50+28
 868              	.LBE429:
  92:sampleengine.h **** 
 869              		.loc 13 92 1 view .LVU147
 870 0038 BDE81040 		pop	{r4, lr}
 871              		.cfi_restore 14
 872              		.cfi_restore 4
 873              		.cfi_def_cfa_offset 0
 874              	.LBB430:
  90:sampleengine.h ****     }
ARM GAS  /var/folders/m5/x8wc2gdj7z5cpgcqdsb_gkj40000gn/T//ccGxviRN.s 			page 37


 875              		.loc 13 90 29 view .LVU148
 876 003c FFF7FEBF 		b	memset
 877              	.LVL46:
 878              	.L51:
 879              		.align	2
 880              	.L50:
 881 0040 00000000 		.word	.LANCHOR6
 882 0044 00905F01 		.word	23040000
 883 0048 00983A00 		.word	3840000
 884 004c 00000000 		.word	recordingBuffer
 885 0050 00000000 		.word	spliceBufferOne
 886 0054 00000000 		.word	spliceBufferTwo
 887 0058 00000000 		.word	spliceBufferThree
 888 005c 00000000 		.word	spliceBufferFour
 889              	.LBE430:
 890              		.cfi_endproc
 891              	.LFE4689:
 893              		.section	.text._Z12RecordSamplef,"ax",%progbits
 894              		.align	1
 895              		.p2align 2,,3
 896              		.global	_Z12RecordSamplef
 897              		.syntax unified
 898              		.thumb
 899              		.thumb_func
 901              	_Z12RecordSamplef:
 902              	.LVL47:
 903              	.LFB4690:
  95:sampleengine.h ****     recordingBuffer[writeIndex] = sample;
 904              		.loc 13 95 1 is_stmt 1 view -0
 905              		.cfi_startproc
 906              		@ args = 0, pretend = 0, frame = 0
 907              		@ frame_needed = 0, uses_anonymous_args = 0
 908              		@ link register save eliminated.
  96:sampleengine.h ****     writeIndex++;
 909              		.loc 13 96 5 view .LVU150
  96:sampleengine.h ****     writeIndex++;
 910              		.loc 13 96 31 is_stmt 0 view .LVU151
 911 0000 0449     		ldr	r1, .L53
  96:sampleengine.h ****     writeIndex++;
 912              		.loc 13 96 33 view .LVU152
 913 0002 054A     		ldr	r2, .L53+4
  96:sampleengine.h ****     writeIndex++;
 914              		.loc 13 96 31 view .LVU153
 915 0004 0B68     		ldr	r3, [r1]
  96:sampleengine.h ****     writeIndex++;
 916              		.loc 13 96 33 view .LVU154
 917 0006 02EB8302 		add	r2, r2, r3, lsl #2
  97:sampleengine.h **** }
 918              		.loc 13 97 15 view .LVU155
 919 000a 0133     		adds	r3, r3, #1
  96:sampleengine.h ****     writeIndex++;
 920              		.loc 13 96 33 view .LVU156
 921 000c 82ED000A 		vstr.32	s0, [r2]
  97:sampleengine.h **** }
 922              		.loc 13 97 5 is_stmt 1 view .LVU157
  97:sampleengine.h **** }
 923              		.loc 13 97 15 is_stmt 0 view .LVU158
ARM GAS  /var/folders/m5/x8wc2gdj7z5cpgcqdsb_gkj40000gn/T//ccGxviRN.s 			page 38


 924 0010 0B60     		str	r3, [r1]
  98:sampleengine.h **** 
 925              		.loc 13 98 1 view .LVU159
 926 0012 7047     		bx	lr
 927              	.L54:
 928              		.align	2
 929              	.L53:
 930 0014 00000000 		.word	.LANCHOR11
 931 0018 00000000 		.word	recordingBuffer
 932              		.cfi_endproc
 933              	.LFE4690:
 935              		.section	.text._Z14ResetReadIndexv,"ax",%progbits
 936              		.align	1
 937              		.p2align 2,,3
 938              		.global	_Z14ResetReadIndexv
 939              		.syntax unified
 940              		.thumb
 941              		.thumb_func
 943              	_Z14ResetReadIndexv:
 944              	.LFB4691:
 101:sampleengine.h ****     readIndex = startPoint;
 945              		.loc 13 101 1 is_stmt 1 view -0
 946              		.cfi_startproc
 947              		@ args = 0, pretend = 0, frame = 0
 948              		@ frame_needed = 0, uses_anonymous_args = 0
 949              		@ link register save eliminated.
 102:sampleengine.h **** }
 950              		.loc 13 102 5 view .LVU161
 102:sampleengine.h **** }
 951              		.loc 13 102 15 is_stmt 0 view .LVU162
 952 0000 044A     		ldr	r2, .L56
 953 0002 054B     		ldr	r3, .L56+4
 954 0004 D2ED007A 		vldr.32	s15, [r2]	@ int
 955 0008 F8EE677A 		vcvt.f32.u32	s15, s15
 956 000c C3ED007A 		vstr.32	s15, [r3]
 103:sampleengine.h **** 
 957              		.loc 13 103 1 view .LVU163
 958 0010 7047     		bx	lr
 959              	.L57:
 960 0012 00BF     		.align	2
 961              	.L56:
 962 0014 00000000 		.word	.LANCHOR3
 963 0018 00000000 		.word	.LANCHOR6
 964              		.cfi_endproc
 965              	.LFE4691:
 967              		.section	.text._Z16AdvanceReadIndexv,"ax",%progbits
 968              		.align	1
 969              		.p2align 2,,3
 970              		.global	_Z16AdvanceReadIndexv
 971              		.syntax unified
 972              		.thumb
 973              		.thumb_func
 975              	_Z16AdvanceReadIndexv:
 976              	.LFB4692:
 106:sampleengine.h ****     readIndex += readFactor;
 977              		.loc 13 106 1 is_stmt 1 view -0
 978              		.cfi_startproc
ARM GAS  /var/folders/m5/x8wc2gdj7z5cpgcqdsb_gkj40000gn/T//ccGxviRN.s 			page 39


 979              		@ args = 0, pretend = 0, frame = 0
 980              		@ frame_needed = 0, uses_anonymous_args = 0
 981              		@ link register save eliminated.
 107:sampleengine.h **** 
 982              		.loc 13 107 5 view .LVU165
 107:sampleengine.h **** 
 983              		.loc 13 107 15 is_stmt 0 view .LVU166
 984 0000 0B4B     		ldr	r3, .L63
 985 0002 0C49     		ldr	r1, .L63+4
 109:sampleengine.h ****     {
 986              		.loc 13 109 18 view .LVU167
 987 0004 0C4A     		ldr	r2, .L63+8
 107:sampleengine.h **** 
 988              		.loc 13 107 15 view .LVU168
 989 0006 D3ED007A 		vldr.32	s15, [r3]
 990 000a D1ED006A 		vldr.32	s13, [r1]
 109:sampleengine.h ****     {
 991              		.loc 13 109 18 view .LVU169
 992 000e 92ED007A 		vldr.32	s14, [r2]	@ int
 107:sampleengine.h **** 
 993              		.loc 13 107 15 view .LVU170
 994 0012 77EEA67A 		vadd.f32	s15, s15, s13
 109:sampleengine.h ****     {
 995              		.loc 13 109 18 view .LVU171
 996 0016 B8EE477A 		vcvt.f32.u32	s14, s14
 107:sampleengine.h **** 
 997              		.loc 13 107 15 view .LVU172
 998 001a C3ED007A 		vstr.32	s15, [r3]
 109:sampleengine.h ****     {
 999              		.loc 13 109 5 is_stmt 1 view .LVU173
 1000 001e F4EEC77A 		vcmpe.f32	s15, s14
 1001 0022 F1EE10FA 		vmrs	APSR_nzcv, FPSCR
 1002 0026 01DB     		blt	.L62
 1003 0028 FFF7FEBF 		b	_Z16AdvanceReadIndexv.part.0
 1004              	.LVL48:
 1005              	.L62:
 116:sampleengine.h **** 
 1006              		.loc 13 116 1 is_stmt 0 view .LVU174
 1007 002c 7047     		bx	lr
 1008              	.L64:
 1009 002e 00BF     		.align	2
 1010              	.L63:
 1011 0030 00000000 		.word	.LANCHOR6
 1012 0034 00000000 		.word	.LANCHOR12
 1013 0038 00000000 		.word	.LANCHOR4
 1014              		.cfi_endproc
 1015              	.LFE4692:
 1017              		.section	.text._Z9GetSamplev,"ax",%progbits
 1018              		.align	1
 1019              		.p2align 2,,3
 1020              		.global	_Z9GetSamplev
 1021              		.syntax unified
 1022              		.thumb
 1023              		.thumb_func
 1025              	_Z9GetSamplev:
 1026              	.LFB4693:
 119:sampleengine.h ****     float a, b, out;
ARM GAS  /var/folders/m5/x8wc2gdj7z5cpgcqdsb_gkj40000gn/T//ccGxviRN.s 			page 40


 1027              		.loc 13 119 1 is_stmt 1 view -0
 1028              		.cfi_startproc
 1029              		@ args = 0, pretend = 0, frame = 0
 1030              		@ frame_needed = 0, uses_anonymous_args = 0
 1031              		@ link register save eliminated.
 120:sampleengine.h **** 
 1032              		.loc 13 120 5 view .LVU176
 122:sampleengine.h **** 	readIndexFraction = readIndex - readIndexInt;
 1033              		.loc 13 122 5 view .LVU177
 122:sampleengine.h **** 	readIndexFraction = readIndex - readIndexInt;
 1034              		.loc 13 122 20 is_stmt 0 view .LVU178
 1035 0000 0F4A     		ldr	r2, .L67
 125:sampleengine.h **** 	b = recordingBuffer[readIndexInt + 1]; // next sample
 1036              		.loc 13 125 4 view .LVU179
 1037 0002 104B     		ldr	r3, .L67+4
 122:sampleengine.h **** 	readIndexFraction = readIndex - readIndexInt;
 1038              		.loc 13 122 20 view .LVU180
 1039 0004 D2ED007A 		vldr.32	s15, [r2]
 123:sampleengine.h **** 
 1040              		.loc 13 123 20 view .LVU181
 1041 0008 0F49     		ldr	r1, .L67+8
 122:sampleengine.h **** 	readIndexFraction = readIndex - readIndexInt;
 1042              		.loc 13 122 20 view .LVU182
 1043 000a BDEEE77A 		vcvt.s32.f32	s14, s15
 119:sampleengine.h ****     float a, b, out;
 1044              		.loc 13 119 1 view .LVU183
 1045 000e 10B4     		push	{r4}
 1046              		.cfi_def_cfa_offset 4
 1047              		.cfi_offset 4, -4
 122:sampleengine.h **** 	readIndexFraction = readIndex - readIndexInt;
 1048              		.loc 13 122 20 view .LVU184
 1049 0010 17EE102A 		vmov	r2, s14	@ int
 122:sampleengine.h **** 	readIndexFraction = readIndex - readIndexInt;
 1050              		.loc 13 122 18 view .LVU185
 1051 0014 0D4C     		ldr	r4, .L67+12
 123:sampleengine.h **** 
 1052              		.loc 13 123 32 view .LVU186
 1053 0016 F8EE476A 		vcvt.f32.u32	s13, s14
 125:sampleengine.h **** 	b = recordingBuffer[readIndexInt + 1]; // next sample
 1054              		.loc 13 125 4 view .LVU187
 1055 001a 03EB8200 		add	r0, r3, r2, lsl #2
 122:sampleengine.h **** 	readIndexFraction = readIndex - readIndexInt;
 1056              		.loc 13 122 18 view .LVU188
 1057 001e 84ED007A 		vstr.32	s14, [r4]	@ int
 123:sampleengine.h **** 
 1058              		.loc 13 123 2 is_stmt 1 view .LVU189
 130:sampleengine.h **** 
 1059              		.loc 13 130 1 is_stmt 0 view .LVU190
 1060 0022 5DF8044B 		ldr	r4, [sp], #4
 1061              		.cfi_restore 4
 1062              		.cfi_def_cfa_offset 0
 125:sampleengine.h **** 	b = recordingBuffer[readIndexInt + 1]; // next sample
 1063              		.loc 13 125 4 view .LVU191
 1064 0026 90ED000A 		vldr.32	s0, [r0]
 123:sampleengine.h **** 
 1065              		.loc 13 123 32 view .LVU192
 1066 002a 77EEE67A 		vsub.f32	s15, s15, s13
ARM GAS  /var/folders/m5/x8wc2gdj7z5cpgcqdsb_gkj40000gn/T//ccGxviRN.s 			page 41


 127:sampleengine.h **** 
 1067              		.loc 13 127 15 view .LVU193
 1068 002e 90ED017A 		vldr.32	s14, [r0, #4]
 1069 0032 37EE407A 		vsub.f32	s14, s14, s0
 123:sampleengine.h **** 
 1070              		.loc 13 123 20 view .LVU194
 1071 0036 C1ED007A 		vstr.32	s15, [r1]
 125:sampleengine.h **** 	b = recordingBuffer[readIndexInt + 1]; // next sample
 1072              		.loc 13 125 2 is_stmt 1 view .LVU195
 1073              	.LVL49:
 126:sampleengine.h **** 	out = a + (b - a) * readIndexFraction; // Linear Interpolation
 1074              		.loc 13 126 2 view .LVU196
 127:sampleengine.h **** 
 1075              		.loc 13 127 2 view .LVU197
 129:sampleengine.h **** }
 1076              		.loc 13 129 5 view .LVU198
 130:sampleengine.h **** 
 1077              		.loc 13 130 1 is_stmt 0 view .LVU199
 1078 003a A7EE870A 		vfma.f32	s0, s15, s14
 1079              	.LVL50:
 130:sampleengine.h **** 
 1080              		.loc 13 130 1 view .LVU200
 1081 003e 7047     		bx	lr
 1082              	.L68:
 1083              		.align	2
 1084              	.L67:
 1085 0040 00000000 		.word	.LANCHOR6
 1086 0044 00000000 		.word	recordingBuffer
 1087 0048 00000000 		.word	.LANCHOR14
 1088 004c 00000000 		.word	.LANCHOR13
 1089              		.cfi_endproc
 1090              	.LFE4693:
 1092              		.section	.text._Z19FullSampleGetSamplev,"ax",%progbits
 1093              		.align	1
 1094              		.p2align 2,,3
 1095              		.global	_Z19FullSampleGetSamplev
 1096              		.syntax unified
 1097              		.thumb
 1098              		.thumb_func
 1100              	_Z19FullSampleGetSamplev:
 1101              	.LFB4694:
 133:sampleengine.h ****     fullSampleReadIndex += readFactor;
 1102              		.loc 13 133 1 is_stmt 1 view -0
 1103              		.cfi_startproc
 1104              		@ args = 0, pretend = 0, frame = 0
 1105              		@ frame_needed = 0, uses_anonymous_args = 0
 1106              		@ link register save eliminated.
 134:sampleengine.h ****     if(fullSampleReadIndex > recordingLength) 
 1107              		.loc 13 134 5 view .LVU202
 134:sampleengine.h ****     if(fullSampleReadIndex > recordingLength) 
 1108              		.loc 13 134 25 is_stmt 0 view .LVU203
 1109 0000 1D4B     		ldr	r3, .L73
 1110 0002 1E49     		ldr	r1, .L73+4
 135:sampleengine.h ****     {
 1111              		.loc 13 135 28 view .LVU204
 1112 0004 1E4A     		ldr	r2, .L73+8
 134:sampleengine.h ****     if(fullSampleReadIndex > recordingLength) 
ARM GAS  /var/folders/m5/x8wc2gdj7z5cpgcqdsb_gkj40000gn/T//ccGxviRN.s 			page 42


 1113              		.loc 13 134 25 view .LVU205
 1114 0006 D3ED007A 		vldr.32	s15, [r3]
 1115 000a D1ED006A 		vldr.32	s13, [r1]
 135:sampleengine.h ****     {
 1116              		.loc 13 135 28 view .LVU206
 1117 000e 92ED007A 		vldr.32	s14, [r2]	@ int
 134:sampleengine.h ****     if(fullSampleReadIndex > recordingLength) 
 1118              		.loc 13 134 25 view .LVU207
 1119 0012 77EEA67A 		vadd.f32	s15, s15, s13
 135:sampleengine.h ****     {
 1120              		.loc 13 135 28 view .LVU208
 1121 0016 B8EE477A 		vcvt.f32.u32	s14, s14
 133:sampleengine.h ****     fullSampleReadIndex += readFactor;
 1122              		.loc 13 133 1 view .LVU209
 1123 001a 10B4     		push	{r4}
 1124              		.cfi_def_cfa_offset 4
 1125              		.cfi_offset 4, -4
 135:sampleengine.h ****     {
 1126              		.loc 13 135 5 view .LVU210
 1127 001c F4EEC77A 		vcmpe.f32	s15, s14
 134:sampleengine.h ****     if(fullSampleReadIndex > recordingLength) 
 1128              		.loc 13 134 25 view .LVU211
 1129 0020 C3ED007A 		vstr.32	s15, [r3]
 135:sampleengine.h ****     {
 1130              		.loc 13 135 5 is_stmt 1 view .LVU212
 1131 0024 F1EE10FA 		vmrs	APSR_nzcv, FPSCR
 1132 0028 1DDC     		bgt	.L70
 141:sampleengine.h ****     fullSampleReadIndexFraction = fullSampleReadIndex - fullSampleReadIndexInt;
 1133              		.loc 13 141 30 is_stmt 0 view .LVU213
 1134 002a BDEEE77A 		vcvt.s32.f32	s14, s15
 1135 002e 17EE101A 		vmov	r1, s14	@ int
 142:sampleengine.h ****     a = recordingBuffer[fullSampleReadIndexInt]; // current sample
 1136              		.loc 13 142 55 view .LVU214
 1137 0032 B8EE477A 		vcvt.f32.u32	s14, s14
 144:sampleengine.h ****     out = a + (b - a) * fullSampleReadIndexFraction; // Linear Interpolation
 1138              		.loc 13 144 48 view .LVU215
 1139 0036 4A1C     		adds	r2, r1, #1
 142:sampleengine.h ****     a = recordingBuffer[fullSampleReadIndexInt]; // current sample
 1140              		.loc 13 142 55 view .LVU216
 1141 0038 77EEC77A 		vsub.f32	s15, s15, s14
 1142              	.L71:
 140:sampleengine.h ****     fullSampleReadIndexInt = static_cast<int32_t>(fullSampleReadIndex);
 1143              		.loc 13 140 5 is_stmt 1 view .LVU217
 141:sampleengine.h ****     fullSampleReadIndexFraction = fullSampleReadIndex - fullSampleReadIndexInt;
 1144              		.loc 13 141 5 view .LVU218
 143:sampleengine.h ****     b = recordingBuffer[fullSampleReadIndexInt + 1]; // next sample
 1145              		.loc 13 143 7 is_stmt 0 view .LVU219
 1146 003c 114B     		ldr	r3, .L73+12
 141:sampleengine.h ****     fullSampleReadIndexFraction = fullSampleReadIndex - fullSampleReadIndexInt;
 1147              		.loc 13 141 28 view .LVU220
 1148 003e 124C     		ldr	r4, .L73+16
 144:sampleengine.h ****     out = a + (b - a) * fullSampleReadIndexFraction; // Linear Interpolation
 1149              		.loc 13 144 7 view .LVU221
 1150 0040 03EB8202 		add	r2, r3, r2, lsl #2
 142:sampleengine.h ****     a = recordingBuffer[fullSampleReadIndexInt]; // current sample
 1151              		.loc 13 142 33 view .LVU222
 1152 0044 1148     		ldr	r0, .L73+20
ARM GAS  /var/folders/m5/x8wc2gdj7z5cpgcqdsb_gkj40000gn/T//ccGxviRN.s 			page 43


 143:sampleengine.h ****     b = recordingBuffer[fullSampleReadIndexInt + 1]; // next sample
 1153              		.loc 13 143 7 view .LVU223
 1154 0046 03EB8103 		add	r3, r3, r1, lsl #2
 141:sampleengine.h ****     fullSampleReadIndexFraction = fullSampleReadIndex - fullSampleReadIndexInt;
 1155              		.loc 13 141 28 view .LVU224
 1156 004a 2160     		str	r1, [r4]
 142:sampleengine.h ****     a = recordingBuffer[fullSampleReadIndexInt]; // current sample
 1157              		.loc 13 142 5 is_stmt 1 view .LVU225
 145:sampleengine.h **** 
 1158              		.loc 13 145 18 is_stmt 0 view .LVU226
 1159 004c 92ED007A 		vldr.32	s14, [r2]
 143:sampleengine.h ****     b = recordingBuffer[fullSampleReadIndexInt + 1]; // next sample
 1160              		.loc 13 143 7 view .LVU227
 1161 0050 93ED000A 		vldr.32	s0, [r3]
 148:sampleengine.h **** 
 1162              		.loc 13 148 1 view .LVU228
 1163 0054 5DF8044B 		ldr	r4, [sp], #4
 1164              		.cfi_remember_state
 1165              		.cfi_restore 4
 1166              		.cfi_def_cfa_offset 0
 145:sampleengine.h **** 
 1167              		.loc 13 145 18 view .LVU229
 1168 0058 37EE407A 		vsub.f32	s14, s14, s0
 142:sampleengine.h ****     a = recordingBuffer[fullSampleReadIndexInt]; // current sample
 1169              		.loc 13 142 33 view .LVU230
 1170 005c C0ED007A 		vstr.32	s15, [r0]
 143:sampleengine.h ****     b = recordingBuffer[fullSampleReadIndexInt + 1]; // next sample
 1171              		.loc 13 143 5 is_stmt 1 view .LVU231
 1172              	.LVL51:
 144:sampleengine.h ****     out = a + (b - a) * fullSampleReadIndexFraction; // Linear Interpolation
 1173              		.loc 13 144 5 view .LVU232
 145:sampleengine.h **** 
 1174              		.loc 13 145 5 view .LVU233
 147:sampleengine.h **** }
 1175              		.loc 13 147 5 view .LVU234
 148:sampleengine.h **** 
 1176              		.loc 13 148 1 is_stmt 0 view .LVU235
 1177 0060 A7EE270A 		vfma.f32	s0, s14, s15
 1178              	.LVL52:
 148:sampleengine.h **** 
 1179              		.loc 13 148 1 view .LVU236
 1180 0064 7047     		bx	lr
 1181              	.LVL53:
 1182              	.L70:
 1183              		.cfi_restore_state
 137:sampleengine.h ****     }
 1184              		.loc 13 137 9 is_stmt 1 view .LVU237
 137:sampleengine.h ****     }
 1185              		.loc 13 137 29 is_stmt 0 view .LVU238
 1186 0066 9FED0A7A 		vldr.32	s14, .L73+24
 1187 006a 0122     		movs	r2, #1
 1188 006c 0021     		movs	r1, #0
 1189 006e F0EE477A 		vmov.f32	s15, s14
 1190 0072 83ED007A 		vstr.32	s14, [r3]
 1191 0076 E1E7     		b	.L71
 1192              	.L74:
 1193              		.align	2
ARM GAS  /var/folders/m5/x8wc2gdj7z5cpgcqdsb_gkj40000gn/T//ccGxviRN.s 			page 44


 1194              	.L73:
 1195 0078 00000000 		.word	.LANCHOR15
 1196 007c 00000000 		.word	.LANCHOR12
 1197 0080 00000000 		.word	.LANCHOR16
 1198 0084 00000000 		.word	recordingBuffer
 1199 0088 00000000 		.word	.LANCHOR17
 1200 008c 00000000 		.word	.LANCHOR18
 1201 0090 00000000 		.word	0
 1202              		.cfi_endproc
 1203              	.LFE4694:
 1205              		.section	.text._Z21SpliceBufferGetSampleiii,"ax",%progbits
 1206              		.align	1
 1207              		.p2align 2,,3
 1208              		.global	_Z21SpliceBufferGetSampleiii
 1209              		.syntax unified
 1210              		.thumb
 1211              		.thumb_func
 1213              	_Z21SpliceBufferGetSampleiii:
 1214              	.LVL54:
 1215              	.LFB4695:
 151:sampleengine.h ****     float a, b, out = 0;
 1216              		.loc 13 151 1 is_stmt 1 view -0
 1217              		.cfi_startproc
 1218              		@ args = 0, pretend = 0, frame = 0
 1219              		@ frame_needed = 0, uses_anonymous_args = 0
 152:sampleengine.h ****     if(currentBuffer == 1)
 1220              		.loc 13 152 5 view .LVU240
 153:sampleengine.h ****     {
 1221              		.loc 13 153 5 view .LVU241
 1222              	.LBB431:
 1223 0000 0128     		cmp	r0, #1
 1224              	.LBE431:
 151:sampleengine.h ****     float a, b, out = 0;
 1225              		.loc 13 151 1 is_stmt 0 view .LVU242
 1226 0002 10B5     		push	{r4, lr}
 1227              		.cfi_def_cfa_offset 8
 1228              		.cfi_offset 4, -8
 1229              		.cfi_offset 14, -4
 1230              	.LBB504:
 153:sampleengine.h ****     {
 1231              		.loc 13 153 5 view .LVU243
 1232 0004 27D0     		beq	.L103
 1233              	.LBE504:
 177:sampleengine.h ****     {
 1234              		.loc 13 177 10 is_stmt 1 view .LVU244
 1235              	.LBB505:
 1236              	.LBB432:
 1237 0006 0228     		cmp	r0, #2
 1238 0008 07D0     		beq	.L104
 1239              	.LBE432:
 1240              	.LBE505:
 201:sampleengine.h ****     {
 1241              		.loc 13 201 10 view .LVU245
 1242              	.LBB506:
 1243              	.LBB482:
 1244              	.LBB433:
 1245 000a 0328     		cmp	r0, #3
ARM GAS  /var/folders/m5/x8wc2gdj7z5cpgcqdsb_gkj40000gn/T//ccGxviRN.s 			page 45


 1246 000c 00F08C80 		beq	.L105
 1247              	.LBE433:
 1248              	.LBE482:
 1249              	.LBE506:
 225:sampleengine.h ****     {
 1250              		.loc 13 225 10 view .LVU246
 1251              	.LBB507:
 1252              	.LBB483:
 1253              	.LBB462:
 1254              	.LBB434:
 1255 0010 0428     		cmp	r0, #4
 1256 0012 63D0     		beq	.L106
 1257              	.LBE434:
 1258              	.LBE462:
 1259              	.LBE483:
 1260              	.LBE507:
 152:sampleengine.h ****     if(currentBuffer == 1)
 1261              		.loc 13 152 17 is_stmt 0 view .LVU247
 1262 0014 9FEDA10A 		vldr.32	s0, .L110
 250:sampleengine.h **** }
 1263              		.loc 13 250 5 is_stmt 1 view .LVU248
 251:sampleengine.h **** 
 1264              		.loc 13 251 1 is_stmt 0 view .LVU249
 1265 0018 10BD     		pop	{r4, pc}
 1266              	.L104:
 1267              	.LBB508:
 1268              	.LBB484:
 1269              	.LBB463:
 179:sampleengine.h ****         {
 1270              		.loc 13 179 9 is_stmt 1 view .LVU250
 1271              	.LBB464:
 1272 001a 0029     		cmp	r1, #0
 1273 001c 53D0     		beq	.L107
 1274              	.LBE464:
 1275              	.LBE463:
 1276              	.LBE484:
 1277              	.LBE508:
 183:sampleengine.h ****         {
 1278              		.loc 13 183 14 view .LVU251
 1279              	.LBB509:
 1280              	.LBB485:
 1281              	.LBB471:
 1282              	.LBB468:
 1283              	.LBB465:
 1284 001e 0129     		cmp	r1, #1
 1285 0020 00F0EA80 		beq	.L86
 1286              	.LBE465:
 1287              	.LBE468:
 190:sampleengine.h ****         {
 1288              		.loc 13 190 34 is_stmt 0 view .LVU252
 1289 0024 9E4B     		ldr	r3, .L110+4
 1290 0026 D3ED007A 		vldr.32	s15, [r3]
 1291              	.LVL55:
 1292              	.L85:
 190:sampleengine.h ****         {
 1293              		.loc 13 190 9 is_stmt 1 view .LVU253
 190:sampleengine.h ****         {
ARM GAS  /var/folders/m5/x8wc2gdj7z5cpgcqdsb_gkj40000gn/T//ccGxviRN.s 			page 46


 1294              		.loc 13 190 34 is_stmt 0 view .LVU254
 1295 002a 9E4A     		ldr	r2, .L110+8
 1296 002c 92ED007A 		vldr.32	s14, [r2]	@ int
 1297 0030 B8EE477A 		vcvt.f32.u32	s14, s14
 190:sampleengine.h ****         {
 1298              		.loc 13 190 9 view .LVU255
 1299 0034 B4EEE77A 		vcmpe.f32	s14, s15
 1300 0038 F1EE10FA 		vmrs	APSR_nzcv, FPSCR
 1301 003c 00F19480 		bmi	.L87
 195:sampleengine.h ****         spliceBufferReadIndexFraction = spliceBufferReadIndex - spliceBufferReadIndexInt;
 1302              		.loc 13 195 36 view .LVU256
 1303 0040 BDEEE77A 		vcvt.s32.f32	s14, s15
 1304 0044 17EE101A 		vmov	r1, s14	@ int
 196:sampleengine.h ****         a = spliceBufferTwo[spliceBufferReadIndexInt]; // current sample
 1305              		.loc 13 196 63 view .LVU257
 1306 0048 B8EE477A 		vcvt.f32.u32	s14, s14
 198:sampleengine.h ****         out = a + (b - a) * spliceBufferReadIndexFraction; // Linear Interpolation
 1307              		.loc 13 198 54 view .LVU258
 1308 004c 4A1C     		adds	r2, r1, #1
 196:sampleengine.h ****         a = spliceBufferTwo[spliceBufferReadIndexInt]; // current sample
 1309              		.loc 13 196 63 view .LVU259
 1310 004e 77EEC77A 		vsub.f32	s15, s15, s14
 1311              	.L88:
 195:sampleengine.h ****         spliceBufferReadIndexFraction = spliceBufferReadIndex - spliceBufferReadIndexInt;
 1312              		.loc 13 195 9 is_stmt 1 view .LVU260
 197:sampleengine.h ****         b = spliceBufferTwo[spliceBufferReadIndexInt + 1]; // next sample
 1313              		.loc 13 197 11 is_stmt 0 view .LVU261
 1314 0052 954B     		ldr	r3, .L110+12
 1315 0054 1AE0     		b	.L102
 1316              	.LVL56:
 1317              	.L103:
 197:sampleengine.h ****         b = spliceBufferTwo[spliceBufferReadIndexInt + 1]; // next sample
 1318              		.loc 13 197 11 view .LVU262
 1319              	.LBE471:
 1320              	.LBE485:
 1321              	.LBB486:
 155:sampleengine.h ****         {
 1322              		.loc 13 155 9 is_stmt 1 view .LVU263
 1323              	.LBB487:
 1324 0056 59B3     		cbz	r1, .L108
 1325              	.LBE487:
 1326              	.LBE486:
 1327              	.LBE509:
 159:sampleengine.h ****         {
 1328              		.loc 13 159 14 view .LVU264
 1329              	.LBB510:
 1330              	.LBB494:
 1331              	.LBB491:
 1332              	.LBB488:
 1333 0058 0129     		cmp	r1, #1
 1334 005a 00F0B180 		beq	.L79
 1335              	.LBE488:
 1336              	.LBE491:
 166:sampleengine.h ****         {
 1337              		.loc 13 166 34 is_stmt 0 view .LVU265
 1338 005e 904B     		ldr	r3, .L110+4
 1339 0060 D3ED007A 		vldr.32	s15, [r3]
ARM GAS  /var/folders/m5/x8wc2gdj7z5cpgcqdsb_gkj40000gn/T//ccGxviRN.s 			page 47


 1340              	.LVL57:
 1341              	.L78:
 166:sampleengine.h ****         {
 1342              		.loc 13 166 9 is_stmt 1 view .LVU266
 166:sampleengine.h ****         {
 1343              		.loc 13 166 34 is_stmt 0 view .LVU267
 1344 0064 914A     		ldr	r2, .L110+16
 1345 0066 92ED007A 		vldr.32	s14, [r2]	@ int
 1346 006a B8EE477A 		vcvt.f32.u32	s14, s14
 166:sampleengine.h ****         {
 1347              		.loc 13 166 9 view .LVU268
 1348 006e B4EEE77A 		vcmpe.f32	s14, s15
 1349 0072 F1EE10FA 		vmrs	APSR_nzcv, FPSCR
 1350 0076 4ED4     		bmi	.L80
 171:sampleengine.h ****         spliceBufferReadIndexFraction = spliceBufferReadIndex - spliceBufferReadIndexInt;
 1351              		.loc 13 171 36 view .LVU269
 1352 0078 BDEEE77A 		vcvt.s32.f32	s14, s15
 1353 007c 17EE101A 		vmov	r1, s14	@ int
 172:sampleengine.h ****         a = spliceBufferOne[spliceBufferReadIndexInt]; // current sample
 1354              		.loc 13 172 63 view .LVU270
 1355 0080 B8EE477A 		vcvt.f32.u32	s14, s14
 174:sampleengine.h ****         out = a + (b - a) * spliceBufferReadIndexFraction; // Linear Interpolation
 1356              		.loc 13 174 54 view .LVU271
 1357 0084 4A1C     		adds	r2, r1, #1
 172:sampleengine.h ****         a = spliceBufferOne[spliceBufferReadIndexInt]; // current sample
 1358              		.loc 13 172 63 view .LVU272
 1359 0086 77EEC77A 		vsub.f32	s15, s15, s14
 1360              	.L81:
 171:sampleengine.h ****         spliceBufferReadIndexFraction = spliceBufferReadIndex - spliceBufferReadIndexInt;
 1361              		.loc 13 171 9 is_stmt 1 view .LVU273
 173:sampleengine.h ****         b = spliceBufferOne[spliceBufferReadIndexInt + 1]; // next sample
 1362              		.loc 13 173 11 is_stmt 0 view .LVU274
 1363 008a 894B     		ldr	r3, .L110+20
 1364              	.L102:
 1365              	.LBE494:
 1366              	.LBB495:
 1367              	.LBB472:
 1368              	.LBB447:
 1369              	.LBB435:
 246:sampleengine.h ****         out = a + (b - a) * spliceBufferReadIndexFraction; // Linear Interpolation
 1370              		.loc 13 246 11 view .LVU275
 1371 008c 03EB8202 		add	r2, r3, r2, lsl #2
 244:sampleengine.h ****         a = spliceBufferFour[spliceBufferReadIndexInt]; // current sample
 1372              		.loc 13 244 39 view .LVU276
 1373 0090 8848     		ldr	r0, .L110+24
 245:sampleengine.h ****         b = spliceBufferFour[spliceBufferReadIndexInt + 1]; // next sample
 1374              		.loc 13 245 11 view .LVU277
 1375 0092 03EB8103 		add	r3, r3, r1, lsl #2
 243:sampleengine.h ****         spliceBufferReadIndexFraction = spliceBufferReadIndex - spliceBufferReadIndexInt;
 1376              		.loc 13 243 34 view .LVU278
 1377 0096 884C     		ldr	r4, .L110+28
 244:sampleengine.h ****         a = spliceBufferFour[spliceBufferReadIndexInt]; // current sample
 1378              		.loc 13 244 39 view .LVU279
 1379 0098 C0ED007A 		vstr.32	s15, [r0]
 245:sampleengine.h ****         b = spliceBufferFour[spliceBufferReadIndexInt + 1]; // next sample
 1380              		.loc 13 245 11 view .LVU280
 1381 009c 93ED000A 		vldr.32	s0, [r3]
ARM GAS  /var/folders/m5/x8wc2gdj7z5cpgcqdsb_gkj40000gn/T//ccGxviRN.s 			page 48


 247:sampleengine.h ****     }
 1382              		.loc 13 247 22 view .LVU281
 1383 00a0 92ED007A 		vldr.32	s14, [r2]
 243:sampleengine.h ****         spliceBufferReadIndexFraction = spliceBufferReadIndex - spliceBufferReadIndexInt;
 1384              		.loc 13 243 34 view .LVU282
 1385 00a4 2160     		str	r1, [r4]
 244:sampleengine.h ****         a = spliceBufferFour[spliceBufferReadIndexInt]; // current sample
 1386              		.loc 13 244 9 is_stmt 1 view .LVU283
 245:sampleengine.h ****         b = spliceBufferFour[spliceBufferReadIndexInt + 1]; // next sample
 1387              		.loc 13 245 9 view .LVU284
 1388              	.LVL58:
 246:sampleengine.h ****         out = a + (b - a) * spliceBufferReadIndexFraction; // Linear Interpolation
 1389              		.loc 13 246 9 view .LVU285
 247:sampleengine.h ****     }
 1390              		.loc 13 247 9 view .LVU286
 247:sampleengine.h ****     }
 1391              		.loc 13 247 22 is_stmt 0 view .LVU287
 1392 00a6 37EE407A 		vsub.f32	s14, s14, s0
 247:sampleengine.h ****     }
 1393              		.loc 13 247 13 view .LVU288
 1394 00aa A7EE270A 		vfma.f32	s0, s14, s15
 1395              	.LVL59:
 247:sampleengine.h ****     }
 1396              		.loc 13 247 13 view .LVU289
 1397              	.LBE435:
 1398              	.LBE447:
 1399              	.LBE472:
 1400              	.LBE495:
 1401              	.LBE510:
 251:sampleengine.h **** 
 1402              		.loc 13 251 1 view .LVU290
 1403 00ae 10BD     		pop	{r4, pc}
 1404              	.LVL60:
 1405              	.L108:
 1406              	.LBB511:
 1407              	.LBB496:
 1408              	.LBB492:
 157:sampleengine.h ****         }
 1409              		.loc 13 157 13 is_stmt 1 view .LVU291
 157:sampleengine.h ****         }
 1410              		.loc 13 157 35 is_stmt 0 view .LVU292
 1411 00b0 7B4B     		ldr	r3, .L110+4
 1412 00b2 824A     		ldr	r2, .L110+32
 1413              	.LVL61:
 157:sampleengine.h ****         }
 1414              		.loc 13 157 35 view .LVU293
 1415 00b4 D3ED007A 		vldr.32	s15, [r3]
 1416 00b8 92ED007A 		vldr.32	s14, [r2]
 1417 00bc 77EE877A 		vadd.f32	s15, s15, s14
 1418 00c0 C3ED007A 		vstr.32	s15, [r3]
 1419 00c4 CEE7     		b	.L78
 1420              	.LVL62:
 1421              	.L107:
 157:sampleengine.h ****         }
 1422              		.loc 13 157 35 view .LVU294
 1423              	.LBE492:
 1424              	.LBE496:
ARM GAS  /var/folders/m5/x8wc2gdj7z5cpgcqdsb_gkj40000gn/T//ccGxviRN.s 			page 49


 1425              	.LBB497:
 1426              	.LBB473:
 1427              	.LBB469:
 181:sampleengine.h ****         }
 1428              		.loc 13 181 13 is_stmt 1 view .LVU295
 181:sampleengine.h ****         }
 1429              		.loc 13 181 35 is_stmt 0 view .LVU296
 1430 00c6 764B     		ldr	r3, .L110+4
 1431 00c8 7C4A     		ldr	r2, .L110+32
 1432              	.LVL63:
 181:sampleengine.h ****         }
 1433              		.loc 13 181 35 view .LVU297
 1434 00ca D3ED007A 		vldr.32	s15, [r3]
 1435 00ce 92ED007A 		vldr.32	s14, [r2]
 1436 00d2 77EE877A 		vadd.f32	s15, s15, s14
 1437 00d6 C3ED007A 		vstr.32	s15, [r3]
 1438 00da A6E7     		b	.L85
 1439              	.LVL64:
 1440              	.L106:
 181:sampleengine.h ****         }
 1441              		.loc 13 181 35 view .LVU298
 1442              	.LBE469:
 1443              	.LBE473:
 1444              	.LBB474:
 1445              	.LBB448:
 1446              	.LBB443:
 227:sampleengine.h ****         {
 1447              		.loc 13 227 9 is_stmt 1 view .LVU299
 1448              	.LBB436:
 1449 00dc 0029     		cmp	r1, #0
 1450 00de 5BD0     		beq	.L109
 1451              	.LBE436:
 1452              	.LBE443:
 1453              	.LBE448:
 1454              	.LBE474:
 1455              	.LBE497:
 1456              	.LBE511:
 231:sampleengine.h ****         {
 1457              		.loc 13 231 14 view .LVU300
 1458              	.LBB512:
 1459              	.LBB498:
 1460              	.LBB475:
 1461              	.LBB449:
 1462              	.LBB444:
 1463              	.LBB440:
 1464              	.LBB437:
 1465 00e0 0129     		cmp	r1, #1
 1466 00e2 00F0BF80 		beq	.L97
 1467              	.LBE437:
 1468              	.LBE440:
 238:sampleengine.h ****         {
 1469              		.loc 13 238 34 is_stmt 0 view .LVU301
 1470 00e6 6E4B     		ldr	r3, .L110+4
 1471 00e8 D3ED007A 		vldr.32	s15, [r3]
 1472              	.LVL65:
 1473              	.L96:
 238:sampleengine.h ****         {
ARM GAS  /var/folders/m5/x8wc2gdj7z5cpgcqdsb_gkj40000gn/T//ccGxviRN.s 			page 50


 1474              		.loc 13 238 9 is_stmt 1 view .LVU302
 238:sampleengine.h ****         {
 1475              		.loc 13 238 34 is_stmt 0 view .LVU303
 1476 00ec 744A     		ldr	r2, .L110+36
 1477 00ee 92ED007A 		vldr.32	s14, [r2]	@ int
 1478 00f2 B8EE477A 		vcvt.f32.u32	s14, s14
 238:sampleengine.h ****         {
 1479              		.loc 13 238 9 view .LVU304
 1480 00f6 B4EEE77A 		vcmpe.f32	s14, s15
 1481 00fa F1EE10FA 		vmrs	APSR_nzcv, FPSCR
 1482 00fe 56D4     		bmi	.L98
 243:sampleengine.h ****         spliceBufferReadIndexFraction = spliceBufferReadIndex - spliceBufferReadIndexInt;
 1483              		.loc 13 243 36 view .LVU305
 1484 0100 BDEEE77A 		vcvt.s32.f32	s14, s15
 1485 0104 17EE101A 		vmov	r1, s14	@ int
 244:sampleengine.h ****         a = spliceBufferFour[spliceBufferReadIndexInt]; // current sample
 1486              		.loc 13 244 63 view .LVU306
 1487 0108 B8EE477A 		vcvt.f32.u32	s14, s14
 246:sampleengine.h ****         out = a + (b - a) * spliceBufferReadIndexFraction; // Linear Interpolation
 1488              		.loc 13 246 55 view .LVU307
 1489 010c 4A1C     		adds	r2, r1, #1
 244:sampleengine.h ****         a = spliceBufferFour[spliceBufferReadIndexInt]; // current sample
 1490              		.loc 13 244 63 view .LVU308
 1491 010e 77EEC77A 		vsub.f32	s15, s15, s14
 1492              	.L99:
 243:sampleengine.h ****         spliceBufferReadIndexFraction = spliceBufferReadIndex - spliceBufferReadIndexInt;
 1493              		.loc 13 243 9 is_stmt 1 view .LVU309
 245:sampleengine.h ****         b = spliceBufferFour[spliceBufferReadIndexInt + 1]; // next sample
 1494              		.loc 13 245 11 is_stmt 0 view .LVU310
 1495 0112 6C4B     		ldr	r3, .L110+40
 1496 0114 BAE7     		b	.L102
 1497              	.L80:
 1498              	.LBE444:
 1499              	.LBE449:
 1500              	.LBE475:
 1501              	.LBE498:
 1502              	.LBB499:
 168:sampleengine.h ****         }
 1503              		.loc 13 168 13 is_stmt 1 view .LVU311
 168:sampleengine.h ****         }
 1504              		.loc 13 168 35 is_stmt 0 view .LVU312
 1505 0116 9FED617A 		vldr.32	s14, .L110
 1506 011a 0122     		movs	r2, #1
 1507 011c 0021     		movs	r1, #0
 1508 011e F0EE477A 		vmov.f32	s15, s14
 1509 0122 83ED007A 		vstr.32	s14, [r3]
 1510 0126 B0E7     		b	.L81
 1511              	.LVL66:
 1512              	.L105:
 168:sampleengine.h ****         }
 1513              		.loc 13 168 35 view .LVU313
 1514              	.LBE499:
 1515              	.LBB500:
 1516              	.LBB476:
 1517              	.LBB450:
 203:sampleengine.h ****         {
 1518              		.loc 13 203 9 is_stmt 1 view .LVU314
ARM GAS  /var/folders/m5/x8wc2gdj7z5cpgcqdsb_gkj40000gn/T//ccGxviRN.s 			page 51


 1519              	.LBB451:
 1520 0128 81BB     		cbnz	r1, .L90
 205:sampleengine.h ****         }
 1521              		.loc 13 205 13 view .LVU315
 205:sampleengine.h ****         }
 1522              		.loc 13 205 35 is_stmt 0 view .LVU316
 1523 012a 5D4B     		ldr	r3, .L110+4
 1524 012c 634A     		ldr	r2, .L110+32
 1525              	.LVL67:
 205:sampleengine.h ****         }
 1526              		.loc 13 205 35 view .LVU317
 1527 012e D3ED007A 		vldr.32	s15, [r3]
 1528 0132 92ED007A 		vldr.32	s14, [r2]
 1529 0136 77EE877A 		vadd.f32	s15, s15, s14
 1530 013a C3ED007A 		vstr.32	s15, [r3]
 1531              	.LVL68:
 1532              	.L91:
 205:sampleengine.h ****         }
 1533              		.loc 13 205 35 view .LVU318
 1534              	.LBE451:
 214:sampleengine.h ****         {
 1535              		.loc 13 214 9 is_stmt 1 view .LVU319
 214:sampleengine.h ****         {
 1536              		.loc 13 214 34 is_stmt 0 view .LVU320
 1537 013e 624A     		ldr	r2, .L110+44
 1538 0140 92ED007A 		vldr.32	s14, [r2]	@ int
 1539 0144 B8EE477A 		vcvt.f32.u32	s14, s14
 214:sampleengine.h ****         {
 1540              		.loc 13 214 9 view .LVU321
 1541 0148 B4EEE77A 		vcmpe.f32	s14, s15
 1542 014c F1EE10FA 		vmrs	APSR_nzcv, FPSCR
 1543 0150 13D4     		bmi	.L93
 219:sampleengine.h ****         spliceBufferReadIndexFraction = spliceBufferReadIndex - spliceBufferReadIndexInt;
 1544              		.loc 13 219 36 view .LVU322
 1545 0152 BDEEE77A 		vcvt.s32.f32	s14, s15
 1546 0156 17EE101A 		vmov	r1, s14	@ int
 220:sampleengine.h ****         a = spliceBufferThree[spliceBufferReadIndexInt]; // current sample
 1547              		.loc 13 220 63 view .LVU323
 1548 015a B8EE477A 		vcvt.f32.u32	s14, s14
 222:sampleengine.h ****         out = a + (b - a) * spliceBufferReadIndexFraction; // Linear Interpolation
 1549              		.loc 13 222 56 view .LVU324
 1550 015e 4A1C     		adds	r2, r1, #1
 220:sampleengine.h ****         a = spliceBufferThree[spliceBufferReadIndexInt]; // current sample
 1551              		.loc 13 220 63 view .LVU325
 1552 0160 77EEC77A 		vsub.f32	s15, s15, s14
 1553              	.L94:
 219:sampleengine.h ****         spliceBufferReadIndexFraction = spliceBufferReadIndex - spliceBufferReadIndexInt;
 1554              		.loc 13 219 9 is_stmt 1 view .LVU326
 221:sampleengine.h ****         b = spliceBufferThree[spliceBufferReadIndexInt + 1]; // next sample
 1555              		.loc 13 221 11 is_stmt 0 view .LVU327
 1556 0164 594B     		ldr	r3, .L110+48
 1557 0166 91E7     		b	.L102
 1558              	.L87:
 1559              	.LBE450:
 1560              	.LBE476:
 1561              	.LBB477:
 192:sampleengine.h ****         }
ARM GAS  /var/folders/m5/x8wc2gdj7z5cpgcqdsb_gkj40000gn/T//ccGxviRN.s 			page 52


 1562              		.loc 13 192 13 is_stmt 1 view .LVU328
 192:sampleengine.h ****         }
 1563              		.loc 13 192 35 is_stmt 0 view .LVU329
 1564 0168 9FED4C7A 		vldr.32	s14, .L110
 1565 016c 0122     		movs	r2, #1
 1566 016e 0021     		movs	r1, #0
 1567 0170 F0EE477A 		vmov.f32	s15, s14
 1568 0174 83ED007A 		vstr.32	s14, [r3]
 1569 0178 6BE7     		b	.L88
 1570              	.L93:
 1571              	.LBE477:
 1572              	.LBB478:
 1573              	.LBB457:
 216:sampleengine.h ****         }
 1574              		.loc 13 216 13 is_stmt 1 view .LVU330
 216:sampleengine.h ****         }
 1575              		.loc 13 216 35 is_stmt 0 view .LVU331
 1576 017a 9FED487A 		vldr.32	s14, .L110
 1577 017e 0122     		movs	r2, #1
 1578 0180 0021     		movs	r1, #0
 1579 0182 F0EE477A 		vmov.f32	s15, s14
 1580 0186 83ED007A 		vstr.32	s14, [r3]
 1581 018a EBE7     		b	.L94
 1582              	.LVL69:
 1583              	.L90:
 216:sampleengine.h ****         }
 1584              		.loc 13 216 35 view .LVU332
 1585              	.LBE457:
 1586              	.LBE478:
 1587              	.LBE500:
 1588              	.LBE512:
 207:sampleengine.h ****         {
 1589              		.loc 13 207 14 is_stmt 1 view .LVU333
 1590              	.LBB513:
 1591              	.LBB501:
 1592              	.LBB479:
 1593              	.LBB458:
 1594              	.LBB455:
 1595              	.LBB452:
 1596 018c 0129     		cmp	r1, #1
 1597 018e 4ED0     		beq	.L92
 1598              	.LBE452:
 1599              	.LBE455:
 214:sampleengine.h ****         {
 1600              		.loc 13 214 34 is_stmt 0 view .LVU334
 1601 0190 434B     		ldr	r3, .L110+4
 1602 0192 D3ED007A 		vldr.32	s15, [r3]
 1603 0196 D2E7     		b	.L91
 1604              	.L109:
 214:sampleengine.h ****         {
 1605              		.loc 13 214 34 view .LVU335
 1606              	.LBE458:
 1607              	.LBB459:
 1608              	.LBB445:
 1609              	.LBB441:
 229:sampleengine.h ****         }
 1610              		.loc 13 229 13 is_stmt 1 view .LVU336
ARM GAS  /var/folders/m5/x8wc2gdj7z5cpgcqdsb_gkj40000gn/T//ccGxviRN.s 			page 53


 229:sampleengine.h ****         }
 1611              		.loc 13 229 35 is_stmt 0 view .LVU337
 1612 0198 414B     		ldr	r3, .L110+4
 1613 019a 484A     		ldr	r2, .L110+32
 1614              	.LVL70:
 229:sampleengine.h ****         }
 1615              		.loc 13 229 35 view .LVU338
 1616 019c D3ED007A 		vldr.32	s15, [r3]
 1617 01a0 92ED007A 		vldr.32	s14, [r2]
 1618 01a4 77EE877A 		vadd.f32	s15, s15, s14
 1619 01a8 C3ED007A 		vstr.32	s15, [r3]
 1620 01ac 9EE7     		b	.L96
 1621              	.LVL71:
 1622              	.L98:
 229:sampleengine.h ****         }
 1623              		.loc 13 229 35 view .LVU339
 1624              	.LBE441:
 240:sampleengine.h ****         }
 1625              		.loc 13 240 13 is_stmt 1 view .LVU340
 240:sampleengine.h ****         }
 1626              		.loc 13 240 35 is_stmt 0 view .LVU341
 1627 01ae 9FED3B7A 		vldr.32	s14, .L110
 1628 01b2 0122     		movs	r2, #1
 1629 01b4 0021     		movs	r1, #0
 1630 01b6 F0EE477A 		vmov.f32	s15, s14
 1631 01ba 83ED007A 		vstr.32	s14, [r3]
 1632 01be A8E7     		b	.L99
 1633              	.LVL72:
 1634              	.L79:
 240:sampleengine.h ****         }
 1635              		.loc 13 240 35 view .LVU342
 1636              	.LBE445:
 1637              	.LBE459:
 1638              	.LBE479:
 1639              	.LBE501:
 1640              	.LBB502:
 1641              	.LBB493:
 1642              	.LBB490:
 1643              	.LBB489:
 161:sampleengine.h ****             float readFactorPitch = playFreq / baseFreq;
 1644              		.loc 13 161 13 is_stmt 1 view .LVU343
 161:sampleengine.h ****             float readFactorPitch = playFreq / baseFreq;
 1645              		.loc 13 161 78 is_stmt 0 view .LVU344
 1646 01c0 0C3A     		subs	r2, r2, #12
 1647              	.LVL73:
 161:sampleengine.h ****             float readFactorPitch = playFreq / baseFreq;
 1648              		.loc 13 161 45 view .LVU345
 1649 01c2 F2EE080A 		vmov.f32	s1, #1.2e+1
 1650 01c6 B0EE000A 		vmov.f32	s0, #2.0e+0
 1651 01ca 07EE902A 		vmov	s15, r2	@ int
 1652 01ce F8EEE77A 		vcvt.f32.s32	s15, s15
 1653 01d2 C7EEA00A 		vdiv.f32	s1, s15, s1
 1654 01d6 FFF7FEFF 		bl	powf
 1655              	.LVL74:
 161:sampleengine.h ****             float readFactorPitch = playFreq / baseFreq;
 1656              		.loc 13 161 39 view .LVU346
 1657 01da 3D4A     		ldr	r2, .L110+52
ARM GAS  /var/folders/m5/x8wc2gdj7z5cpgcqdsb_gkj40000gn/T//ccGxviRN.s 			page 54


 163:sampleengine.h ****         }
 1658              		.loc 13 163 35 view .LVU347
 1659 01dc 304B     		ldr	r3, .L110+4
 161:sampleengine.h ****             float readFactorPitch = playFreq / baseFreq;
 1660              		.loc 13 161 39 view .LVU348
 1661 01de 92ED007A 		vldr.32	s14, [r2]
 1662              	.LVL75:
 162:sampleengine.h ****             spliceBufferReadIndex += readFactorPitch;
 1663              		.loc 13 162 13 is_stmt 1 view .LVU349
 163:sampleengine.h ****         }
 1664              		.loc 13 163 13 view .LVU350
 163:sampleengine.h ****         }
 1665              		.loc 13 163 35 is_stmt 0 view .LVU351
 1666 01e2 D3ED006A 		vldr.32	s13, [r3]
 161:sampleengine.h ****             float readFactorPitch = playFreq / baseFreq;
 1667              		.loc 13 161 91 view .LVU352
 1668 01e6 20EE070A 		vmul.f32	s0, s0, s14
 1669              	.LVL76:
 162:sampleengine.h ****             spliceBufferReadIndex += readFactorPitch;
 1670              		.loc 13 162 19 view .LVU353
 1671 01ea C0EE077A 		vdiv.f32	s15, s0, s14
 1672              	.LVL77:
 163:sampleengine.h ****         }
 1673              		.loc 13 163 35 view .LVU354
 1674 01ee 77EEA67A 		vadd.f32	s15, s15, s13
 1675              	.LVL78:
 163:sampleengine.h ****         }
 1676              		.loc 13 163 35 view .LVU355
 1677 01f2 C3ED007A 		vstr.32	s15, [r3]
 1678              	.LBE489:
 1679 01f6 35E7     		b	.L78
 1680              	.LVL79:
 1681              	.L86:
 163:sampleengine.h ****         }
 1682              		.loc 13 163 35 view .LVU356
 1683              	.LBE490:
 1684              	.LBE493:
 1685              	.LBE502:
 1686              	.LBB503:
 1687              	.LBB480:
 1688              	.LBB470:
 1689              	.LBB467:
 1690              	.LBB466:
 185:sampleengine.h ****             float readFactorPitch = playFreq / baseFreq;
 1691              		.loc 13 185 13 is_stmt 1 view .LVU357
 185:sampleengine.h ****             float readFactorPitch = playFreq / baseFreq;
 1692              		.loc 13 185 45 is_stmt 0 view .LVU358
 1693 01f8 07EE902A 		vmov	s15, r2	@ int
 1694 01fc F2EE080A 		vmov.f32	s1, #1.2e+1
 1695 0200 B0EE000A 		vmov.f32	s0, #2.0e+0
 1696 0204 F8EEE77A 		vcvt.f32.s32	s15, s15
 1697 0208 C7EEA00A 		vdiv.f32	s1, s15, s1
 1698 020c FFF7FEFF 		bl	powf
 1699              	.LVL80:
 185:sampleengine.h ****             float readFactorPitch = playFreq / baseFreq;
 1700              		.loc 13 185 39 view .LVU359
 1701 0210 2F4A     		ldr	r2, .L110+52
ARM GAS  /var/folders/m5/x8wc2gdj7z5cpgcqdsb_gkj40000gn/T//ccGxviRN.s 			page 55


 187:sampleengine.h ****         }
 1702              		.loc 13 187 35 view .LVU360
 1703 0212 234B     		ldr	r3, .L110+4
 185:sampleengine.h ****             float readFactorPitch = playFreq / baseFreq;
 1704              		.loc 13 185 39 view .LVU361
 1705 0214 92ED007A 		vldr.32	s14, [r2]
 1706              	.LVL81:
 186:sampleengine.h ****             spliceBufferReadIndex += readFactorPitch;
 1707              		.loc 13 186 13 is_stmt 1 view .LVU362
 187:sampleengine.h ****         }
 1708              		.loc 13 187 13 view .LVU363
 187:sampleengine.h ****         }
 1709              		.loc 13 187 35 is_stmt 0 view .LVU364
 1710 0218 D3ED006A 		vldr.32	s13, [r3]
 185:sampleengine.h ****             float readFactorPitch = playFreq / baseFreq;
 1711              		.loc 13 185 86 view .LVU365
 1712 021c 20EE070A 		vmul.f32	s0, s0, s14
 1713              	.LVL82:
 186:sampleengine.h ****             spliceBufferReadIndex += readFactorPitch;
 1714              		.loc 13 186 19 view .LVU366
 1715 0220 C0EE077A 		vdiv.f32	s15, s0, s14
 1716              	.LVL83:
 187:sampleengine.h ****         }
 1717              		.loc 13 187 35 view .LVU367
 1718 0224 77EEA67A 		vadd.f32	s15, s15, s13
 1719              	.LVL84:
 187:sampleengine.h ****         }
 1720              		.loc 13 187 35 view .LVU368
 1721 0228 C3ED007A 		vstr.32	s15, [r3]
 1722              	.LBE466:
 1723 022c FDE6     		b	.L85
 1724              	.LVL85:
 1725              	.L92:
 187:sampleengine.h ****         }
 1726              		.loc 13 187 35 view .LVU369
 1727              	.LBE467:
 1728              	.LBE470:
 1729              	.LBE480:
 1730              	.LBB481:
 1731              	.LBB460:
 1732              	.LBB456:
 1733              	.LBB454:
 1734              	.LBB453:
 209:sampleengine.h ****             float readFactorPitch = playFreq / baseFreq;
 1735              		.loc 13 209 13 is_stmt 1 view .LVU370
 209:sampleengine.h ****             float readFactorPitch = playFreq / baseFreq;
 1736              		.loc 13 209 45 is_stmt 0 view .LVU371
 1737 022e 07EE902A 		vmov	s15, r2	@ int
 1738 0232 F2EE080A 		vmov.f32	s1, #1.2e+1
 1739 0236 B0EE000A 		vmov.f32	s0, #2.0e+0
 1740 023a F8EEE77A 		vcvt.f32.s32	s15, s15
 1741 023e C7EEA00A 		vdiv.f32	s1, s15, s1
 1742 0242 FFF7FEFF 		bl	powf
 1743              	.LVL86:
 209:sampleengine.h ****             float readFactorPitch = playFreq / baseFreq;
 1744              		.loc 13 209 39 view .LVU372
 1745 0246 224A     		ldr	r2, .L110+52
ARM GAS  /var/folders/m5/x8wc2gdj7z5cpgcqdsb_gkj40000gn/T//ccGxviRN.s 			page 56


 211:sampleengine.h ****         }
 1746              		.loc 13 211 35 view .LVU373
 1747 0248 154B     		ldr	r3, .L110+4
 209:sampleengine.h ****             float readFactorPitch = playFreq / baseFreq;
 1748              		.loc 13 209 39 view .LVU374
 1749 024a 92ED007A 		vldr.32	s14, [r2]
 1750              	.LVL87:
 210:sampleengine.h ****             spliceBufferReadIndex += readFactorPitch;
 1751              		.loc 13 210 13 is_stmt 1 view .LVU375
 211:sampleengine.h ****         }
 1752              		.loc 13 211 13 view .LVU376
 211:sampleengine.h ****         }
 1753              		.loc 13 211 35 is_stmt 0 view .LVU377
 1754 024e D3ED006A 		vldr.32	s13, [r3]
 209:sampleengine.h ****             float readFactorPitch = playFreq / baseFreq;
 1755              		.loc 13 209 86 view .LVU378
 1756 0252 20EE070A 		vmul.f32	s0, s0, s14
 1757              	.LVL88:
 210:sampleengine.h ****             spliceBufferReadIndex += readFactorPitch;
 1758              		.loc 13 210 19 view .LVU379
 1759 0256 C0EE077A 		vdiv.f32	s15, s0, s14
 1760              	.LVL89:
 211:sampleengine.h ****         }
 1761              		.loc 13 211 35 view .LVU380
 1762 025a 77EEA67A 		vadd.f32	s15, s15, s13
 1763              	.LVL90:
 211:sampleengine.h ****         }
 1764              		.loc 13 211 35 view .LVU381
 1765 025e C3ED007A 		vstr.32	s15, [r3]
 1766              	.LBE453:
 1767 0262 6CE7     		b	.L91
 1768              	.LVL91:
 1769              	.L97:
 211:sampleengine.h ****         }
 1770              		.loc 13 211 35 view .LVU382
 1771              	.LBE454:
 1772              	.LBE456:
 1773              	.LBE460:
 1774              	.LBB461:
 1775              	.LBB446:
 1776              	.LBB442:
 1777              	.LBB439:
 1778              	.LBB438:
 233:sampleengine.h ****             float readFactorPitch = playFreq / baseFreq;
 1779              		.loc 13 233 13 is_stmt 1 view .LVU383
 233:sampleengine.h ****             float readFactorPitch = playFreq / baseFreq;
 1780              		.loc 13 233 45 is_stmt 0 view .LVU384
 1781 0264 07EE902A 		vmov	s15, r2	@ int
 1782 0268 F2EE080A 		vmov.f32	s1, #1.2e+1
 1783 026c B0EE000A 		vmov.f32	s0, #2.0e+0
 1784 0270 F8EEE77A 		vcvt.f32.s32	s15, s15
 1785 0274 C7EEA00A 		vdiv.f32	s1, s15, s1
 1786 0278 FFF7FEFF 		bl	powf
 1787              	.LVL92:
 233:sampleengine.h ****             float readFactorPitch = playFreq / baseFreq;
 1788              		.loc 13 233 39 view .LVU385
 1789 027c 144A     		ldr	r2, .L110+52
ARM GAS  /var/folders/m5/x8wc2gdj7z5cpgcqdsb_gkj40000gn/T//ccGxviRN.s 			page 57


 235:sampleengine.h ****         }
 1790              		.loc 13 235 35 view .LVU386
 1791 027e 084B     		ldr	r3, .L110+4
 233:sampleengine.h ****             float readFactorPitch = playFreq / baseFreq;
 1792              		.loc 13 233 39 view .LVU387
 1793 0280 92ED007A 		vldr.32	s14, [r2]
 1794              	.LVL93:
 234:sampleengine.h ****             spliceBufferReadIndex += readFactorPitch;
 1795              		.loc 13 234 13 is_stmt 1 view .LVU388
 235:sampleengine.h ****         }
 1796              		.loc 13 235 13 view .LVU389
 235:sampleengine.h ****         }
 1797              		.loc 13 235 35 is_stmt 0 view .LVU390
 1798 0284 D3ED006A 		vldr.32	s13, [r3]
 233:sampleengine.h ****             float readFactorPitch = playFreq / baseFreq;
 1799              		.loc 13 233 86 view .LVU391
 1800 0288 20EE070A 		vmul.f32	s0, s0, s14
 1801              	.LVL94:
 234:sampleengine.h ****             spliceBufferReadIndex += readFactorPitch;
 1802              		.loc 13 234 19 view .LVU392
 1803 028c C0EE077A 		vdiv.f32	s15, s0, s14
 1804              	.LVL95:
 235:sampleengine.h ****         }
 1805              		.loc 13 235 35 view .LVU393
 1806 0290 77EEA67A 		vadd.f32	s15, s15, s13
 1807              	.LVL96:
 235:sampleengine.h ****         }
 1808              		.loc 13 235 35 view .LVU394
 1809 0294 C3ED007A 		vstr.32	s15, [r3]
 1810              	.LBE438:
 1811 0298 28E7     		b	.L96
 1812              	.L111:
 1813 029a 00BF     		.align	2
 1814              	.L110:
 1815 029c 00000000 		.word	0
 1816 02a0 00000000 		.word	.LANCHOR19
 1817 02a4 00000000 		.word	.LANCHOR24
 1818 02a8 00000000 		.word	spliceBufferTwo
 1819 02ac 00000000 		.word	.LANCHOR21
 1820 02b0 00000000 		.word	spliceBufferOne
 1821 02b4 00000000 		.word	.LANCHOR23
 1822 02b8 00000000 		.word	.LANCHOR22
 1823 02bc 00000000 		.word	.LANCHOR12
 1824 02c0 00000000 		.word	.LANCHOR26
 1825 02c4 00000000 		.word	spliceBufferFour
 1826 02c8 00000000 		.word	.LANCHOR25
 1827 02cc 00000000 		.word	spliceBufferThree
 1828 02d0 00000000 		.word	.LANCHOR20
 1829              	.LBE439:
 1830              	.LBE442:
 1831              	.LBE446:
 1832              	.LBE461:
 1833              	.LBE481:
 1834              	.LBE503:
 1835              	.LBE513:
 1836              		.cfi_endproc
 1837              	.LFE4695:
ARM GAS  /var/folders/m5/x8wc2gdj7z5cpgcqdsb_gkj40000gn/T//ccGxviRN.s 			page 58


 1839              		.section	.text._Z17StoreSpliceBufferi,"ax",%progbits
 1840              		.align	1
 1841              		.p2align 2,,3
 1842              		.global	_Z17StoreSpliceBufferi
 1843              		.syntax unified
 1844              		.thumb
 1845              		.thumb_func
 1847              	_Z17StoreSpliceBufferi:
 1848              	.LVL97:
 1849              	.LFB4696:
 254:sampleengine.h ****     readIndex = startPoint;
 1850              		.loc 13 254 1 is_stmt 1 view -0
 1851              		.cfi_startproc
 1852              		@ args = 0, pretend = 0, frame = 8
 1853              		@ frame_needed = 0, uses_anonymous_args = 0
 255:sampleengine.h ****     float startSample = startPoint;
 1854              		.loc 13 255 5 view .LVU396
 255:sampleengine.h ****     float startSample = startPoint;
 1855              		.loc 13 255 15 is_stmt 0 view .LVU397
 1856 0000 B14B     		ldr	r3, .L146
 1857              	.LBB538:
 257:sampleengine.h ****     {
 1858              		.loc 13 257 5 view .LVU398
 1859 0002 0128     		cmp	r0, #1
 1860              	.LBE538:
 255:sampleengine.h ****     float startSample = startPoint;
 1861              		.loc 13 255 15 view .LVU399
 1862 0004 1B68     		ldr	r3, [r3]
 254:sampleengine.h ****     readIndex = startPoint;
 1863              		.loc 13 254 1 view .LVU400
 1864 0006 2DE9F04F 		push	{r4, r5, r6, r7, r8, r9, r10, fp, lr}
 1865              		.cfi_def_cfa_offset 36
 1866              		.cfi_offset 4, -36
 1867              		.cfi_offset 5, -32
 1868              		.cfi_offset 6, -28
 1869              		.cfi_offset 7, -24
 1870              		.cfi_offset 8, -20
 1871              		.cfi_offset 9, -16
 1872              		.cfi_offset 10, -12
 1873              		.cfi_offset 11, -8
 1874              		.cfi_offset 14, -4
 255:sampleengine.h ****     float startSample = startPoint;
 1875              		.loc 13 255 15 view .LVU401
 1876 000a 07EE903A 		vmov	s15, r3	@ int
 254:sampleengine.h ****     readIndex = startPoint;
 1877              		.loc 13 254 1 view .LVU402
 1878 000e 83B0     		sub	sp, sp, #12
 1879              		.cfi_def_cfa_offset 48
 255:sampleengine.h ****     float startSample = startPoint;
 1880              		.loc 13 255 15 view .LVU403
 1881 0010 AE4D     		ldr	r5, .L146+4
 256:sampleengine.h ****     if(bufferNum == 1)
 1882              		.loc 13 256 5 is_stmt 1 view .LVU404
 255:sampleengine.h ****     float startSample = startPoint;
 1883              		.loc 13 255 15 is_stmt 0 view .LVU405
 1884 0012 B8EE675A 		vcvt.f32.u32	s10, s15
 1885              	.LVL98:
ARM GAS  /var/folders/m5/x8wc2gdj7z5cpgcqdsb_gkj40000gn/T//ccGxviRN.s 			page 59


 257:sampleengine.h ****     {
 1886              		.loc 13 257 5 is_stmt 1 view .LVU406
 255:sampleengine.h ****     float startSample = startPoint;
 1887              		.loc 13 255 15 is_stmt 0 view .LVU407
 1888 0016 0193     		str	r3, [sp, #4]
 1889              	.LBB677:
 257:sampleengine.h ****     {
 1890              		.loc 13 257 5 view .LVU408
 1891 0018 5DD0     		beq	.L142
 1892              	.LBE677:
 270:sampleengine.h ****     {
 1893              		.loc 13 270 10 is_stmt 1 view .LVU409
 1894              	.LBB678:
 1895              	.LBB539:
 1896 001a 0228     		cmp	r0, #2
 1897 001c 0AD0     		beq	.L143
 1898              	.LBE539:
 1899              	.LBE678:
 283:sampleengine.h ****     {
 1900              		.loc 13 283 10 view .LVU410
 1901              	.LBB679:
 1902              	.LBB637:
 1903              	.LBB540:
 1904 001e 0328     		cmp	r0, #3
 1905 0020 00F0F780 		beq	.L144
 1906              	.LBE540:
 1907              	.LBE637:
 1908              	.LBE679:
 296:sampleengine.h ****     {
 1909              		.loc 13 296 10 view .LVU411
 1910              	.LBB680:
 1911              	.LBB638:
 1912              	.LBB601:
 1913              	.LBB541:
 1914 0024 0428     		cmp	r0, #4
 1915 0026 00F0A580 		beq	.L145
 1916              	.LVL99:
 1917              	.L117:
 296:sampleengine.h ****     {
 1918              		.loc 13 296 10 is_stmt 0 view .LVU412
 1919              	.LBE541:
 1920              	.LBE601:
 1921              	.LBE638:
 1922              	.LBE680:
 309:sampleengine.h **** }
 1923              		.loc 13 309 5 is_stmt 1 view .LVU413
 309:sampleengine.h **** }
 1924              		.loc 13 309 15 is_stmt 0 view .LVU414
 1925 002a 85ED005A 		vstr.32	s10, [r5]
 310:sampleengine.h **** 
 1926              		.loc 13 310 1 view .LVU415
 1927 002e 03B0     		add	sp, sp, #12
 1928              		.cfi_remember_state
 1929              		.cfi_def_cfa_offset 36
 1930              		@ sp needed
 1931 0030 BDE8F08F 		pop	{r4, r5, r6, r7, r8, r9, r10, fp, pc}
 1932              	.LVL100:
ARM GAS  /var/folders/m5/x8wc2gdj7z5cpgcqdsb_gkj40000gn/T//ccGxviRN.s 			page 60


 1933              	.L143:
 1934              		.cfi_restore_state
 1935              	.LBB681:
 1936              	.LBB639:
 270:sampleengine.h ****     {
 1937              		.loc 13 270 10 view .LVU416
 1938 0034 F0EE457A 		vmov.f32	s15, s10
 1939 0038 A54A     		ldr	r2, .L146+8
 1940              	.LBB602:
 272:sampleengine.h ****         {
 1941              		.loc 13 272 23 view .LVU417
 1942 003a 0026     		movs	r6, #0
 1943 003c DFF8B8B2 		ldr	fp, .L146+48
 1944 0040 DFF8B8A2 		ldr	r10, .L146+52
 1945 0044 A34C     		ldr	r4, .L146+12
 1946 0046 DFF8B892 		ldr	r9, .L146+56
 1947 004a DFF8B882 		ldr	r8, .L146+60
 1948 004e 03E0     		b	.L124
 1949              	.LVL101:
 1950              	.L123:
 272:sampleengine.h ****         {
 1951              		.loc 13 272 9 discriminator 2 view .LVU418
 1952 0050 0136     		adds	r6, r6, #1
 1953              	.LVL102:
 272:sampleengine.h ****         {
 1954              		.loc 13 272 32 is_stmt 1 discriminator 2 view .LVU419
 1955 0052 9E42     		cmp	r6, r3
 1956 0054 00F02D81 		beq	.L118
 1957              	.LVL103:
 1958              	.L124:
 274:sampleengine.h ****             AdvanceReadIndex();
 1959              		.loc 13 274 13 view .LVU420
 1960              	.LBB603:
 1961              	.LBI603:
 118:sampleengine.h **** {
 1962              		.loc 13 118 7 view .LVU421
 1963              	.LBB604:
 120:sampleengine.h **** 
 1964              		.loc 13 120 5 view .LVU422
 122:sampleengine.h **** 	readIndexFraction = readIndex - readIndexInt;
 1965              		.loc 13 122 5 view .LVU423
 122:sampleengine.h **** 	readIndexFraction = readIndex - readIndexInt;
 1966              		.loc 13 122 20 is_stmt 0 view .LVU424
 1967 0058 BDEEE77A 		vcvt.s32.f32	s14, s15
 1968              	.LBE604:
 1969              	.LBE603:
 1970              	.LBB610:
 1971              	.LBB611:
 107:sampleengine.h **** 
 1972              		.loc 13 107 15 view .LVU425
 1973 005c D9ED004A 		vldr.32	s9, [r9]
 1974              	.LBE611:
 1975              	.LBE610:
 1976              	.LBB618:
 1977              	.LBB605:
 122:sampleengine.h **** 	readIndexFraction = readIndex - readIndexInt;
 1978              		.loc 13 122 20 view .LVU426
ARM GAS  /var/folders/m5/x8wc2gdj7z5cpgcqdsb_gkj40000gn/T//ccGxviRN.s 			page 61


 1979 0060 17EE103A 		vmov	r3, s14	@ int
 123:sampleengine.h **** 
 1980              		.loc 13 123 32 view .LVU427
 1981 0064 F8EE476A 		vcvt.f32.u32	s13, s14
 1982              	.LBE605:
 1983              	.LBE618:
 1984              	.LBB619:
 1985              	.LBB612:
 109:sampleengine.h ****     {
 1986              		.loc 13 109 18 view .LVU428
 1987 0068 98ED007A 		vldr.32	s14, [r8]	@ int
 1988              	.LBE612:
 1989              	.LBE619:
 1990              	.LBB620:
 1991              	.LBB606:
 125:sampleengine.h **** 	b = recordingBuffer[readIndexInt + 1]; // next sample
 1992              		.loc 13 125 4 view .LVU429
 1993 006c 04EB8300 		add	r0, r4, r3, lsl #2
 122:sampleengine.h **** 	readIndexFraction = readIndex - readIndexInt;
 1994              		.loc 13 122 18 view .LVU430
 1995 0070 CBF80030 		str	r3, [fp]
 1996              	.LBE606:
 1997              	.LBE620:
 1998              	.LBB621:
 1999              	.LBB613:
 109:sampleengine.h ****     {
 2000              		.loc 13 109 18 view .LVU431
 2001 0074 B8EE476A 		vcvt.f32.u32	s12, s14
 2002              	.LBE613:
 2003              	.LBE621:
 2004              	.LBB622:
 2005              	.LBB607:
 127:sampleengine.h **** 
 2006              		.loc 13 127 15 view .LVU432
 2007 0078 D0ED015A 		vldr.32	s11, [r0, #4]
 123:sampleengine.h **** 
 2008              		.loc 13 123 2 is_stmt 1 view .LVU433
 123:sampleengine.h **** 
 2009              		.loc 13 123 32 is_stmt 0 view .LVU434
 2010 007c 77EEE66A 		vsub.f32	s13, s15, s13
 125:sampleengine.h **** 	b = recordingBuffer[readIndexInt + 1]; // next sample
 2011              		.loc 13 125 4 view .LVU435
 2012 0080 90ED007A 		vldr.32	s14, [r0]
 2013              	.LBE607:
 2014              	.LBE622:
 2015              	.LBB623:
 2016              	.LBB614:
 107:sampleengine.h **** 
 2017              		.loc 13 107 15 view .LVU436
 2018 0084 77EEA47A 		vadd.f32	s15, s15, s9
 2019              	.LBE614:
 2020              	.LBE623:
 2021              	.LBB624:
 2022              	.LBB608:
 127:sampleengine.h **** 
 2023              		.loc 13 127 15 view .LVU437
 2024 0088 75EEC75A 		vsub.f32	s11, s11, s14
ARM GAS  /var/folders/m5/x8wc2gdj7z5cpgcqdsb_gkj40000gn/T//ccGxviRN.s 			page 62


 123:sampleengine.h **** 
 2025              		.loc 13 123 20 view .LVU438
 2026 008c CAED006A 		vstr.32	s13, [r10]
 125:sampleengine.h **** 	b = recordingBuffer[readIndexInt + 1]; // next sample
 2027              		.loc 13 125 2 is_stmt 1 view .LVU439
 2028              	.LVL104:
 126:sampleengine.h **** 	out = a + (b - a) * readIndexFraction; // Linear Interpolation
 2029              		.loc 13 126 2 view .LVU440
 127:sampleengine.h **** 
 2030              		.loc 13 127 2 view .LVU441
 2031              	.LBE608:
 2032              	.LBE624:
 2033              	.LBB625:
 2034              	.LBB615:
 109:sampleengine.h ****     {
 2035              		.loc 13 109 5 is_stmt 0 view .LVU442
 2036 0090 F4EEC67A 		vcmpe.f32	s15, s12
 107:sampleengine.h **** 
 2037              		.loc 13 107 15 view .LVU443
 2038 0094 C5ED007A 		vstr.32	s15, [r5]
 2039              	.LBE615:
 2040              	.LBE625:
 2041              	.LBB626:
 2042              	.LBB609:
 127:sampleengine.h **** 
 2043              		.loc 13 127 6 view .LVU444
 2044 0098 A6EEA57A 		vfma.f32	s14, s13, s11
 2045              	.LVL105:
 129:sampleengine.h **** }
 2046              		.loc 13 129 5 is_stmt 1 view .LVU445
 129:sampleengine.h **** }
 2047              		.loc 13 129 5 is_stmt 0 view .LVU446
 2048              	.LBE609:
 2049              	.LBE626:
 2050              	.LBB627:
 2051              	.LBB616:
 109:sampleengine.h ****     {
 2052              		.loc 13 109 5 view .LVU447
 2053 009c F1EE10FA 		vmrs	APSR_nzcv, FPSCR
 2054              	.LBE616:
 2055              	.LBE627:
 274:sampleengine.h ****             AdvanceReadIndex();
 2056              		.loc 13 274 32 view .LVU448
 2057 00a0 A2EC017A 		vstmia.32	r2!, {s14}
 275:sampleengine.h ****             if(readIndex == startSample)
 2058              		.loc 13 275 13 is_stmt 1 view .LVU449
 2059              	.LBB628:
 2060              	.LBI610:
 105:sampleengine.h **** {
 2061              		.loc 13 105 6 view .LVU450
 2062              	.LBB617:
 107:sampleengine.h **** 
 2063              		.loc 13 107 5 view .LVU451
 109:sampleengine.h ****     {
 2064              		.loc 13 109 5 view .LVU452
 2065 00a4 05DB     		blt	.L121
 2066 00a6 0192     		str	r2, [sp, #4]
ARM GAS  /var/folders/m5/x8wc2gdj7z5cpgcqdsb_gkj40000gn/T//ccGxviRN.s 			page 63


 2067 00a8 FFF7FEFF 		bl	_Z16AdvanceReadIndexv.part.0
 2068              	.LVL106:
 2069              	.LBE617:
 2070              	.LBE628:
 276:sampleengine.h ****             {
 2071              		.loc 13 276 26 is_stmt 0 view .LVU453
 2072 00ac D5ED007A 		vldr.32	s15, [r5]
 2073 00b0 019A     		ldr	r2, [sp, #4]
 2074              	.L121:
 276:sampleengine.h ****             {
 2075              		.loc 13 276 13 is_stmt 1 view .LVU454
 272:sampleengine.h ****         {
 2076              		.loc 13 272 9 view .LVU455
 276:sampleengine.h ****             {
 2077              		.loc 13 276 13 is_stmt 0 view .LVU456
 2078 00b2 B4EE675A 		vcmp.f32	s10, s15
 272:sampleengine.h ****         {
 2079              		.loc 13 272 32 view .LVU457
 2080 00b6 884B     		ldr	r3, .L146+16
 276:sampleengine.h ****             {
 2081              		.loc 13 276 13 view .LVU458
 2082 00b8 F1EE10FA 		vmrs	APSR_nzcv, FPSCR
 2083 00bc C8D1     		bne	.L123
 278:sampleengine.h ****                 break;
 2084              		.loc 13 278 17 is_stmt 1 view .LVU459
 2085              	.LBE602:
 2086              	.LBE639:
 2087              	.LBE681:
 309:sampleengine.h **** }
 2088              		.loc 13 309 15 is_stmt 0 view .LVU460
 2089 00be 824A     		ldr	r2, .L146
 2090              	.LBB682:
 2091              	.LBB640:
 2092              	.LBB629:
 278:sampleengine.h ****                 break;
 2093              		.loc 13 278 39 view .LVU461
 2094 00c0 864B     		ldr	r3, .L146+20
 2095              	.LBE629:
 2096              	.LBE640:
 2097              	.LBE682:
 309:sampleengine.h **** }
 2098              		.loc 13 309 15 view .LVU462
 2099 00c2 92ED005A 		vldr.32	s10, [r2]	@ int
 2100              	.LVL107:
 2101              	.LBB683:
 2102              	.LBB641:
 2103              	.LBB630:
 278:sampleengine.h ****                 break;
 2104              		.loc 13 278 39 view .LVU463
 2105 00c6 1E60     		str	r6, [r3]
 279:sampleengine.h ****             }
 2106              		.loc 13 279 17 is_stmt 1 view .LVU464
 2107              	.LBE630:
 2108              	.LBE641:
 2109              	.LBE683:
 309:sampleengine.h **** }
 2110              		.loc 13 309 15 is_stmt 0 view .LVU465
ARM GAS  /var/folders/m5/x8wc2gdj7z5cpgcqdsb_gkj40000gn/T//ccGxviRN.s 			page 64


 2111 00c8 B8EE455A 		vcvt.f32.u32	s10, s10
 309:sampleengine.h **** }
 2112              		.loc 13 309 5 is_stmt 1 view .LVU466
 309:sampleengine.h **** }
 2113              		.loc 13 309 15 is_stmt 0 view .LVU467
 2114 00cc 85ED005A 		vstr.32	s10, [r5]
 310:sampleengine.h **** 
 2115              		.loc 13 310 1 view .LVU468
 2116 00d0 03B0     		add	sp, sp, #12
 2117              		.cfi_remember_state
 2118              		.cfi_def_cfa_offset 36
 2119              		@ sp needed
 2120 00d2 BDE8F08F 		pop	{r4, r5, r6, r7, r8, r9, r10, fp, pc}
 2121              	.LVL108:
 2122              	.L142:
 2123              		.cfi_restore_state
 2124              	.LBB684:
 257:sampleengine.h ****     {
 2125              		.loc 13 257 5 view .LVU469
 2126 00d6 F0EE457A 		vmov.f32	s15, s10
 2127 00da 814F     		ldr	r7, .L146+24
 2128              	.LBB642:
 259:sampleengine.h ****         {
 2129              		.loc 13 259 23 view .LVU470
 2130 00dc 0026     		movs	r6, #0
 2131 00de DFF818B2 		ldr	fp, .L146+48
 2132 00e2 DFF818A2 		ldr	r10, .L146+52
 2133 00e6 7B4C     		ldr	r4, .L146+12
 2134 00e8 DFF81492 		ldr	r9, .L146+56
 2135 00ec DFF81482 		ldr	r8, .L146+60
 2136 00f0 03E0     		b	.L119
 2137              	.LVL109:
 2138              	.L116:
 259:sampleengine.h ****         {
 2139              		.loc 13 259 9 discriminator 2 view .LVU471
 2140 00f2 0136     		adds	r6, r6, #1
 2141              	.LVL110:
 259:sampleengine.h ****         {
 2142              		.loc 13 259 32 is_stmt 1 discriminator 2 view .LVU472
 2143 00f4 9E42     		cmp	r6, r3
 2144 00f6 00F0DC80 		beq	.L118
 2145              	.LVL111:
 2146              	.L119:
 261:sampleengine.h ****             AdvanceReadIndex();
 2147              		.loc 13 261 13 view .LVU473
 2148              	.LBB643:
 2149              	.LBI643:
 118:sampleengine.h **** {
 2150              		.loc 13 118 7 view .LVU474
 2151              	.LBB644:
 120:sampleengine.h **** 
 2152              		.loc 13 120 5 view .LVU475
 122:sampleengine.h **** 	readIndexFraction = readIndex - readIndexInt;
 2153              		.loc 13 122 5 view .LVU476
 122:sampleengine.h **** 	readIndexFraction = readIndex - readIndexInt;
 2154              		.loc 13 122 20 is_stmt 0 view .LVU477
 2155 00fa BDEEE77A 		vcvt.s32.f32	s14, s15
ARM GAS  /var/folders/m5/x8wc2gdj7z5cpgcqdsb_gkj40000gn/T//ccGxviRN.s 			page 65


 2156              	.LBE644:
 2157              	.LBE643:
 2158              	.LBB650:
 2159              	.LBB651:
 107:sampleengine.h **** 
 2160              		.loc 13 107 15 view .LVU478
 2161 00fe D9ED004A 		vldr.32	s9, [r9]
 2162              	.LBE651:
 2163              	.LBE650:
 2164              	.LBB658:
 2165              	.LBB645:
 122:sampleengine.h **** 	readIndexFraction = readIndex - readIndexInt;
 2166              		.loc 13 122 20 view .LVU479
 2167 0102 17EE103A 		vmov	r3, s14	@ int
 123:sampleengine.h **** 
 2168              		.loc 13 123 32 view .LVU480
 2169 0106 F8EE476A 		vcvt.f32.u32	s13, s14
 2170              	.LBE645:
 2171              	.LBE658:
 2172              	.LBB659:
 2173              	.LBB652:
 109:sampleengine.h ****     {
 2174              		.loc 13 109 18 view .LVU481
 2175 010a 98ED007A 		vldr.32	s14, [r8]	@ int
 2176              	.LBE652:
 2177              	.LBE659:
 2178              	.LBB660:
 2179              	.LBB646:
 125:sampleengine.h **** 	b = recordingBuffer[readIndexInt + 1]; // next sample
 2180              		.loc 13 125 4 view .LVU482
 2181 010e 04EB8300 		add	r0, r4, r3, lsl #2
 122:sampleengine.h **** 	readIndexFraction = readIndex - readIndexInt;
 2182              		.loc 13 122 18 view .LVU483
 2183 0112 CBF80030 		str	r3, [fp]
 2184              	.LBE646:
 2185              	.LBE660:
 2186              	.LBB661:
 2187              	.LBB653:
 109:sampleengine.h ****     {
 2188              		.loc 13 109 18 view .LVU484
 2189 0116 B8EE476A 		vcvt.f32.u32	s12, s14
 2190              	.LBE653:
 2191              	.LBE661:
 2192              	.LBB662:
 2193              	.LBB647:
 127:sampleengine.h **** 
 2194              		.loc 13 127 15 view .LVU485
 2195 011a D0ED015A 		vldr.32	s11, [r0, #4]
 123:sampleengine.h **** 
 2196              		.loc 13 123 2 is_stmt 1 view .LVU486
 123:sampleengine.h **** 
 2197              		.loc 13 123 32 is_stmt 0 view .LVU487
 2198 011e 77EEE66A 		vsub.f32	s13, s15, s13
 125:sampleengine.h **** 	b = recordingBuffer[readIndexInt + 1]; // next sample
 2199              		.loc 13 125 4 view .LVU488
 2200 0122 90ED007A 		vldr.32	s14, [r0]
 2201              	.LBE647:
ARM GAS  /var/folders/m5/x8wc2gdj7z5cpgcqdsb_gkj40000gn/T//ccGxviRN.s 			page 66


 2202              	.LBE662:
 2203              	.LBB663:
 2204              	.LBB654:
 107:sampleengine.h **** 
 2205              		.loc 13 107 15 view .LVU489
 2206 0126 77EEA47A 		vadd.f32	s15, s15, s9
 2207              	.LBE654:
 2208              	.LBE663:
 2209              	.LBB664:
 2210              	.LBB648:
 127:sampleengine.h **** 
 2211              		.loc 13 127 15 view .LVU490
 2212 012a 75EEC75A 		vsub.f32	s11, s11, s14
 123:sampleengine.h **** 
 2213              		.loc 13 123 20 view .LVU491
 2214 012e CAED006A 		vstr.32	s13, [r10]
 125:sampleengine.h **** 	b = recordingBuffer[readIndexInt + 1]; // next sample
 2215              		.loc 13 125 2 is_stmt 1 view .LVU492
 2216              	.LVL112:
 126:sampleengine.h **** 	out = a + (b - a) * readIndexFraction; // Linear Interpolation
 2217              		.loc 13 126 2 view .LVU493
 127:sampleengine.h **** 
 2218              		.loc 13 127 2 view .LVU494
 2219              	.LBE648:
 2220              	.LBE664:
 2221              	.LBB665:
 2222              	.LBB655:
 109:sampleengine.h ****     {
 2223              		.loc 13 109 5 is_stmt 0 view .LVU495
 2224 0132 F4EEC67A 		vcmpe.f32	s15, s12
 107:sampleengine.h **** 
 2225              		.loc 13 107 15 view .LVU496
 2226 0136 C5ED007A 		vstr.32	s15, [r5]
 2227              	.LBE655:
 2228              	.LBE665:
 2229              	.LBB666:
 2230              	.LBB649:
 127:sampleengine.h **** 
 2231              		.loc 13 127 6 view .LVU497
 2232 013a A6EEA57A 		vfma.f32	s14, s13, s11
 2233              	.LVL113:
 129:sampleengine.h **** }
 2234              		.loc 13 129 5 is_stmt 1 view .LVU498
 129:sampleengine.h **** }
 2235              		.loc 13 129 5 is_stmt 0 view .LVU499
 2236              	.LBE649:
 2237              	.LBE666:
 2238              	.LBB667:
 2239              	.LBB656:
 109:sampleengine.h ****     {
 2240              		.loc 13 109 5 view .LVU500
 2241 013e F1EE10FA 		vmrs	APSR_nzcv, FPSCR
 2242              	.LBE656:
 2243              	.LBE667:
 261:sampleengine.h ****             AdvanceReadIndex();
 2244              		.loc 13 261 32 view .LVU501
 2245 0142 A7EC017A 		vstmia.32	r7!, {s14}
ARM GAS  /var/folders/m5/x8wc2gdj7z5cpgcqdsb_gkj40000gn/T//ccGxviRN.s 			page 67


 262:sampleengine.h ****             if(readIndex == startSample)
 2246              		.loc 13 262 13 is_stmt 1 view .LVU502
 2247              	.LBB668:
 2248              	.LBI650:
 105:sampleengine.h **** {
 2249              		.loc 13 105 6 view .LVU503
 2250              	.LBB657:
 107:sampleengine.h **** 
 2251              		.loc 13 107 5 view .LVU504
 109:sampleengine.h ****     {
 2252              		.loc 13 109 5 view .LVU505
 2253 0146 03DB     		blt	.L114
 2254 0148 FFF7FEFF 		bl	_Z16AdvanceReadIndexv.part.0
 2255              	.LVL114:
 2256              	.LBE657:
 2257              	.LBE668:
 263:sampleengine.h ****             {
 2258              		.loc 13 263 26 is_stmt 0 view .LVU506
 2259 014c D5ED007A 		vldr.32	s15, [r5]
 2260              	.L114:
 263:sampleengine.h ****             {
 2261              		.loc 13 263 13 is_stmt 1 view .LVU507
 259:sampleengine.h ****         {
 2262              		.loc 13 259 9 view .LVU508
 263:sampleengine.h ****             {
 2263              		.loc 13 263 13 is_stmt 0 view .LVU509
 2264 0150 B4EE675A 		vcmp.f32	s10, s15
 259:sampleengine.h ****         {
 2265              		.loc 13 259 32 view .LVU510
 2266 0154 604B     		ldr	r3, .L146+16
 263:sampleengine.h ****             {
 2267              		.loc 13 263 13 view .LVU511
 2268 0156 F1EE10FA 		vmrs	APSR_nzcv, FPSCR
 2269 015a CAD1     		bne	.L116
 265:sampleengine.h ****                 break;
 2270              		.loc 13 265 17 is_stmt 1 view .LVU512
 2271              	.LBE642:
 2272              	.LBE684:
 309:sampleengine.h **** }
 2273              		.loc 13 309 15 is_stmt 0 view .LVU513
 2274 015c 5A4A     		ldr	r2, .L146
 2275              	.LBB685:
 2276              	.LBB669:
 265:sampleengine.h ****                 break;
 2277              		.loc 13 265 39 view .LVU514
 2278 015e 614B     		ldr	r3, .L146+28
 2279              	.LBE669:
 2280              	.LBE685:
 309:sampleengine.h **** }
 2281              		.loc 13 309 15 view .LVU515
 2282 0160 92ED005A 		vldr.32	s10, [r2]	@ int
 2283              	.LVL115:
 2284              	.LBB686:
 2285              	.LBB670:
 265:sampleengine.h ****                 break;
 2286              		.loc 13 265 39 view .LVU516
 2287 0164 1E60     		str	r6, [r3]
ARM GAS  /var/folders/m5/x8wc2gdj7z5cpgcqdsb_gkj40000gn/T//ccGxviRN.s 			page 68


 266:sampleengine.h ****             }
 2288              		.loc 13 266 17 is_stmt 1 view .LVU517
 2289              	.LBE670:
 2290              	.LBE686:
 309:sampleengine.h **** }
 2291              		.loc 13 309 15 is_stmt 0 view .LVU518
 2292 0166 B8EE455A 		vcvt.f32.u32	s10, s10
 309:sampleengine.h **** }
 2293              		.loc 13 309 5 is_stmt 1 view .LVU519
 309:sampleengine.h **** }
 2294              		.loc 13 309 15 is_stmt 0 view .LVU520
 2295 016a 85ED005A 		vstr.32	s10, [r5]
 310:sampleengine.h **** 
 2296              		.loc 13 310 1 view .LVU521
 2297 016e 03B0     		add	sp, sp, #12
 2298              		.cfi_remember_state
 2299              		.cfi_def_cfa_offset 36
 2300              		@ sp needed
 2301 0170 BDE8F08F 		pop	{r4, r5, r6, r7, r8, r9, r10, fp, pc}
 2302              	.LVL116:
 2303              	.L145:
 2304              		.cfi_restore_state
 2305              	.LBB687:
 2306              	.LBB671:
 2307              	.LBB631:
 2308              	.LBB568:
 296:sampleengine.h ****     {
 2309              		.loc 13 296 10 view .LVU522
 2310 0174 F0EE457A 		vmov.f32	s15, s10
 2311 0178 5B4A     		ldr	r2, .L146+32
 2312              	.LBB542:
 298:sampleengine.h ****         {
 2313              		.loc 13 298 23 view .LVU523
 2314 017a 0026     		movs	r6, #0
 2315 017c DFF878B1 		ldr	fp, .L146+48
 2316 0180 DFF878A1 		ldr	r10, .L146+52
 2317 0184 534C     		ldr	r4, .L146+12
 2318 0186 DFF87891 		ldr	r9, .L146+56
 2319 018a DFF87881 		ldr	r8, .L146+60
 2320 018e 03E0     		b	.L133
 2321              	.LVL117:
 2322              	.L132:
 298:sampleengine.h ****         {
 2323              		.loc 13 298 9 discriminator 2 view .LVU524
 2324 0190 0136     		adds	r6, r6, #1
 2325              	.LVL118:
 298:sampleengine.h ****         {
 2326              		.loc 13 298 32 is_stmt 1 discriminator 2 view .LVU525
 2327 0192 9E42     		cmp	r6, r3
 2328 0194 00F08D80 		beq	.L118
 2329              	.LVL119:
 2330              	.L133:
 300:sampleengine.h ****             AdvanceReadIndex();
 2331              		.loc 13 300 13 view .LVU526
 2332              	.LBB543:
 2333              	.LBI543:
 118:sampleengine.h **** {
ARM GAS  /var/folders/m5/x8wc2gdj7z5cpgcqdsb_gkj40000gn/T//ccGxviRN.s 			page 69


 2334              		.loc 13 118 7 view .LVU527
 2335              	.LBB544:
 120:sampleengine.h **** 
 2336              		.loc 13 120 5 view .LVU528
 122:sampleengine.h **** 	readIndexFraction = readIndex - readIndexInt;
 2337              		.loc 13 122 5 view .LVU529
 122:sampleengine.h **** 	readIndexFraction = readIndex - readIndexInt;
 2338              		.loc 13 122 20 is_stmt 0 view .LVU530
 2339 0198 BDEEE77A 		vcvt.s32.f32	s14, s15
 2340              	.LBE544:
 2341              	.LBE543:
 2342              	.LBB549:
 2343              	.LBB550:
 109:sampleengine.h ****     {
 2344              		.loc 13 109 18 view .LVU531
 2345 019c 98ED006A 		vldr.32	s12, [r8]	@ int
 2346 01a0 B8EE466A 		vcvt.f32.u32	s12, s12
 2347              	.LBE550:
 2348              	.LBE549:
 2349              	.LBB556:
 2350              	.LBB545:
 122:sampleengine.h **** 	readIndexFraction = readIndex - readIndexInt;
 2351              		.loc 13 122 20 view .LVU532
 2352 01a4 17EE103A 		vmov	r3, s14	@ int
 2353              	.LBE545:
 2354              	.LBE556:
 2355              	.LBB557:
 2356              	.LBB551:
 107:sampleengine.h **** 
 2357              		.loc 13 107 15 view .LVU533
 2358 01a8 99ED007A 		vldr.32	s14, [r9]
 2359              	.LBE551:
 2360              	.LBE557:
 2361              	.LBB558:
 2362              	.LBB546:
 123:sampleengine.h **** 
 2363              		.loc 13 123 32 view .LVU534
 2364 01ac 06EE903A 		vmov	s13, r3	@ int
 125:sampleengine.h **** 	b = recordingBuffer[readIndexInt + 1]; // next sample
 2365              		.loc 13 125 4 view .LVU535
 2366 01b0 04EB8301 		add	r1, r4, r3, lsl #2
 122:sampleengine.h **** 	readIndexFraction = readIndex - readIndexInt;
 2367              		.loc 13 122 18 view .LVU536
 2368 01b4 CBF80030 		str	r3, [fp]
 123:sampleengine.h **** 
 2369              		.loc 13 123 2 is_stmt 1 view .LVU537
 123:sampleengine.h **** 
 2370              		.loc 13 123 32 is_stmt 0 view .LVU538
 2371 01b8 F8EE666A 		vcvt.f32.u32	s13, s13
 127:sampleengine.h **** 
 2372              		.loc 13 127 15 view .LVU539
 2373 01bc D1ED015A 		vldr.32	s11, [r1, #4]
 123:sampleengine.h **** 
 2374              		.loc 13 123 32 view .LVU540
 2375 01c0 77EEE66A 		vsub.f32	s13, s15, s13
 2376              	.LBE546:
 2377              	.LBE558:
ARM GAS  /var/folders/m5/x8wc2gdj7z5cpgcqdsb_gkj40000gn/T//ccGxviRN.s 			page 70


 2378              	.LBB559:
 2379              	.LBB552:
 107:sampleengine.h **** 
 2380              		.loc 13 107 15 view .LVU541
 2381 01c4 77EE877A 		vadd.f32	s15, s15, s14
 2382              	.LBE552:
 2383              	.LBE559:
 2384              	.LBB560:
 2385              	.LBB547:
 125:sampleengine.h **** 	b = recordingBuffer[readIndexInt + 1]; // next sample
 2386              		.loc 13 125 4 view .LVU542
 2387 01c8 91ED007A 		vldr.32	s14, [r1]
 127:sampleengine.h **** 
 2388              		.loc 13 127 15 view .LVU543
 2389 01cc 75EEC75A 		vsub.f32	s11, s11, s14
 123:sampleengine.h **** 
 2390              		.loc 13 123 20 view .LVU544
 2391 01d0 CAED006A 		vstr.32	s13, [r10]
 125:sampleengine.h **** 	b = recordingBuffer[readIndexInt + 1]; // next sample
 2392              		.loc 13 125 2 is_stmt 1 view .LVU545
 2393              	.LBE547:
 2394              	.LBE560:
 2395              	.LBB561:
 2396              	.LBB553:
 109:sampleengine.h ****     {
 2397              		.loc 13 109 5 is_stmt 0 view .LVU546
 2398 01d4 F4EEC67A 		vcmpe.f32	s15, s12
 107:sampleengine.h **** 
 2399              		.loc 13 107 15 view .LVU547
 2400 01d8 C5ED007A 		vstr.32	s15, [r5]
 2401              	.LVL120:
 107:sampleengine.h **** 
 2402              		.loc 13 107 15 view .LVU548
 2403              	.LBE553:
 2404              	.LBE561:
 2405              	.LBB562:
 2406              	.LBB548:
 126:sampleengine.h **** 	out = a + (b - a) * readIndexFraction; // Linear Interpolation
 2407              		.loc 13 126 2 is_stmt 1 view .LVU549
 127:sampleengine.h **** 
 2408              		.loc 13 127 2 view .LVU550
 127:sampleengine.h **** 
 2409              		.loc 13 127 6 is_stmt 0 view .LVU551
 2410 01dc A6EEA57A 		vfma.f32	s14, s13, s11
 2411              	.LVL121:
 129:sampleengine.h **** }
 2412              		.loc 13 129 5 is_stmt 1 view .LVU552
 129:sampleengine.h **** }
 2413              		.loc 13 129 5 is_stmt 0 view .LVU553
 2414              	.LBE548:
 2415              	.LBE562:
 2416              	.LBB563:
 2417              	.LBB554:
 109:sampleengine.h ****     {
 2418              		.loc 13 109 5 view .LVU554
 2419 01e0 F1EE10FA 		vmrs	APSR_nzcv, FPSCR
 2420              	.LBE554:
ARM GAS  /var/folders/m5/x8wc2gdj7z5cpgcqdsb_gkj40000gn/T//ccGxviRN.s 			page 71


 2421              	.LBE563:
 300:sampleengine.h ****             AdvanceReadIndex();
 2422              		.loc 13 300 33 view .LVU555
 2423 01e4 A2EC017A 		vstmia.32	r2!, {s14}
 301:sampleengine.h ****             if(readIndex == startSample)
 2424              		.loc 13 301 13 is_stmt 1 view .LVU556
 2425              	.LBB564:
 2426              	.LBI549:
 105:sampleengine.h **** {
 2427              		.loc 13 105 6 view .LVU557
 2428              	.LBB555:
 107:sampleengine.h **** 
 2429              		.loc 13 107 5 view .LVU558
 109:sampleengine.h ****     {
 2430              		.loc 13 109 5 view .LVU559
 2431 01e8 05DB     		blt	.L130
 2432 01ea 0192     		str	r2, [sp, #4]
 2433 01ec FFF7FEFF 		bl	_Z16AdvanceReadIndexv.part.0
 2434              	.LVL122:
 2435              	.LBE555:
 2436              	.LBE564:
 302:sampleengine.h ****             {
 2437              		.loc 13 302 26 is_stmt 0 view .LVU560
 2438 01f0 D5ED007A 		vldr.32	s15, [r5]
 2439 01f4 019A     		ldr	r2, [sp, #4]
 2440              	.L130:
 302:sampleengine.h ****             {
 2441              		.loc 13 302 13 is_stmt 1 view .LVU561
 298:sampleengine.h ****         {
 2442              		.loc 13 298 9 view .LVU562
 302:sampleengine.h ****             {
 2443              		.loc 13 302 13 is_stmt 0 view .LVU563
 2444 01f6 B4EE675A 		vcmp.f32	s10, s15
 298:sampleengine.h ****         {
 2445              		.loc 13 298 32 view .LVU564
 2446 01fa 374B     		ldr	r3, .L146+16
 302:sampleengine.h ****             {
 2447              		.loc 13 302 13 view .LVU565
 2448 01fc F1EE10FA 		vmrs	APSR_nzcv, FPSCR
 2449 0200 C6D1     		bne	.L132
 304:sampleengine.h ****                 break;
 2450              		.loc 13 304 17 is_stmt 1 view .LVU566
 2451              	.LBE542:
 2452              	.LBE568:
 2453              	.LBE631:
 2454              	.LBE671:
 2455              	.LBE687:
 309:sampleengine.h **** }
 2456              		.loc 13 309 15 is_stmt 0 view .LVU567
 2457 0202 314A     		ldr	r2, .L146
 2458              	.LBB688:
 2459              	.LBB672:
 2460              	.LBB632:
 2461              	.LBB569:
 2462              	.LBB565:
 304:sampleengine.h ****                 break;
 2463              		.loc 13 304 40 view .LVU568
ARM GAS  /var/folders/m5/x8wc2gdj7z5cpgcqdsb_gkj40000gn/T//ccGxviRN.s 			page 72


 2464 0204 394B     		ldr	r3, .L146+36
 2465              	.LBE565:
 2466              	.LBE569:
 2467              	.LBE632:
 2468              	.LBE672:
 2469              	.LBE688:
 309:sampleengine.h **** }
 2470              		.loc 13 309 15 view .LVU569
 2471 0206 92ED005A 		vldr.32	s10, [r2]	@ int
 2472              	.LVL123:
 2473              	.LBB689:
 2474              	.LBB673:
 2475              	.LBB633:
 2476              	.LBB570:
 2477              	.LBB566:
 304:sampleengine.h ****                 break;
 2478              		.loc 13 304 40 view .LVU570
 2479 020a 1E60     		str	r6, [r3]
 305:sampleengine.h ****             }
 2480              		.loc 13 305 17 is_stmt 1 view .LVU571
 2481              	.LBE566:
 2482              	.LBE570:
 2483              	.LBE633:
 2484              	.LBE673:
 2485              	.LBE689:
 309:sampleengine.h **** }
 2486              		.loc 13 309 15 is_stmt 0 view .LVU572
 2487 020c B8EE455A 		vcvt.f32.u32	s10, s10
 2488              	.LBB690:
 2489              	.LBB674:
 2490              	.LBB634:
 2491              	.LBB571:
 2492              	.LBB567:
 305:sampleengine.h ****             }
 2493              		.loc 13 305 17 view .LVU573
 2494 0210 0BE7     		b	.L117
 2495              	.LVL124:
 2496              	.L144:
 305:sampleengine.h ****             }
 2497              		.loc 13 305 17 view .LVU574
 2498              	.LBE567:
 2499              	.LBE571:
 283:sampleengine.h ****     {
 2500              		.loc 13 283 10 view .LVU575
 2501 0212 F0EE457A 		vmov.f32	s15, s10
 2502 0216 364A     		ldr	r2, .L146+40
 2503              	.LBB572:
 285:sampleengine.h ****         {
 2504              		.loc 13 285 23 view .LVU576
 2505 0218 0026     		movs	r6, #0
 2506 021a DFF8DCB0 		ldr	fp, .L146+48
 2507 021e DFF8DCA0 		ldr	r10, .L146+52
 2508 0222 2C4C     		ldr	r4, .L146+12
 2509 0224 DFF8D890 		ldr	r9, .L146+56
 2510 0228 DFF8D880 		ldr	r8, .L146+60
 2511 022c 02E0     		b	.L129
 2512              	.LVL125:
ARM GAS  /var/folders/m5/x8wc2gdj7z5cpgcqdsb_gkj40000gn/T//ccGxviRN.s 			page 73


 2513              	.L128:
 285:sampleengine.h ****         {
 2514              		.loc 13 285 9 discriminator 2 view .LVU577
 2515 022e 0136     		adds	r6, r6, #1
 2516              	.LVL126:
 285:sampleengine.h ****         {
 2517              		.loc 13 285 32 is_stmt 1 discriminator 2 view .LVU578
 2518 0230 9E42     		cmp	r6, r3
 2519 0232 3ED0     		beq	.L118
 2520              	.LVL127:
 2521              	.L129:
 287:sampleengine.h ****             AdvanceReadIndex();
 2522              		.loc 13 287 13 view .LVU579
 2523              	.LBB573:
 2524              	.LBI573:
 118:sampleengine.h **** {
 2525              		.loc 13 118 7 view .LVU580
 2526              	.LBB574:
 120:sampleengine.h **** 
 2527              		.loc 13 120 5 view .LVU581
 122:sampleengine.h **** 	readIndexFraction = readIndex - readIndexInt;
 2528              		.loc 13 122 5 view .LVU582
 122:sampleengine.h **** 	readIndexFraction = readIndex - readIndexInt;
 2529              		.loc 13 122 20 is_stmt 0 view .LVU583
 2530 0234 BDEEE77A 		vcvt.s32.f32	s14, s15
 2531              	.LBE574:
 2532              	.LBE573:
 2533              	.LBB580:
 2534              	.LBB581:
 107:sampleengine.h **** 
 2535              		.loc 13 107 15 view .LVU584
 2536 0238 D9ED005A 		vldr.32	s11, [r9]
 2537              	.LBE581:
 2538              	.LBE580:
 2539              	.LBB588:
 2540              	.LBB575:
 122:sampleengine.h **** 	readIndexFraction = readIndex - readIndexInt;
 2541              		.loc 13 122 20 view .LVU585
 2542 023c 17EE103A 		vmov	r3, s14	@ int
 123:sampleengine.h **** 
 2543              		.loc 13 123 32 view .LVU586
 2544 0240 F8EE476A 		vcvt.f32.u32	s13, s14
 2545              	.LBE575:
 2546              	.LBE588:
 2547              	.LBB589:
 2548              	.LBB582:
 109:sampleengine.h ****     {
 2549              		.loc 13 109 18 view .LVU587
 2550 0244 98ED007A 		vldr.32	s14, [r8]	@ int
 2551              	.LBE582:
 2552              	.LBE589:
 2553              	.LBB590:
 2554              	.LBB576:
 125:sampleengine.h **** 	b = recordingBuffer[readIndexInt + 1]; // next sample
 2555              		.loc 13 125 4 view .LVU588
 2556 0248 04EB8301 		add	r1, r4, r3, lsl #2
 122:sampleengine.h **** 	readIndexFraction = readIndex - readIndexInt;
ARM GAS  /var/folders/m5/x8wc2gdj7z5cpgcqdsb_gkj40000gn/T//ccGxviRN.s 			page 74


 2557              		.loc 13 122 18 view .LVU589
 2558 024c CBF80030 		str	r3, [fp]
 123:sampleengine.h **** 
 2559              		.loc 13 123 32 view .LVU590
 2560 0250 77EEE66A 		vsub.f32	s13, s15, s13
 2561              	.LBE576:
 2562              	.LBE590:
 2563              	.LBB591:
 2564              	.LBB583:
 109:sampleengine.h ****     {
 2565              		.loc 13 109 18 view .LVU591
 2566 0254 B8EE476A 		vcvt.f32.u32	s12, s14
 2567              	.LBE583:
 2568              	.LBE591:
 2569              	.LBB592:
 2570              	.LBB577:
 123:sampleengine.h **** 
 2571              		.loc 13 123 2 is_stmt 1 view .LVU592
 125:sampleengine.h **** 	b = recordingBuffer[readIndexInt + 1]; // next sample
 2572              		.loc 13 125 4 is_stmt 0 view .LVU593
 2573 0258 91ED007A 		vldr.32	s14, [r1]
 2574              	.LBE577:
 2575              	.LBE592:
 2576              	.LBB593:
 2577              	.LBB584:
 107:sampleengine.h **** 
 2578              		.loc 13 107 15 view .LVU594
 2579 025c 77EEA57A 		vadd.f32	s15, s15, s11
 2580              	.LBE584:
 2581              	.LBE593:
 2582              	.LBB594:
 2583              	.LBB578:
 127:sampleengine.h **** 
 2584              		.loc 13 127 15 view .LVU595
 2585 0260 D1ED015A 		vldr.32	s11, [r1, #4]
 123:sampleengine.h **** 
 2586              		.loc 13 123 20 view .LVU596
 2587 0264 CAED006A 		vstr.32	s13, [r10]
 125:sampleengine.h **** 	b = recordingBuffer[readIndexInt + 1]; // next sample
 2588              		.loc 13 125 2 is_stmt 1 view .LVU597
 2589              	.LVL128:
 126:sampleengine.h **** 	out = a + (b - a) * readIndexFraction; // Linear Interpolation
 2590              		.loc 13 126 2 view .LVU598
 127:sampleengine.h **** 
 2591              		.loc 13 127 2 view .LVU599
 127:sampleengine.h **** 
 2592              		.loc 13 127 15 is_stmt 0 view .LVU600
 2593 0268 75EEC75A 		vsub.f32	s11, s11, s14
 2594              	.LBE578:
 2595              	.LBE594:
 2596              	.LBB595:
 2597              	.LBB585:
 109:sampleengine.h ****     {
 2598              		.loc 13 109 5 view .LVU601
 2599 026c F4EEC67A 		vcmpe.f32	s15, s12
 107:sampleengine.h **** 
 2600              		.loc 13 107 15 view .LVU602
ARM GAS  /var/folders/m5/x8wc2gdj7z5cpgcqdsb_gkj40000gn/T//ccGxviRN.s 			page 75


 2601 0270 C5ED007A 		vstr.32	s15, [r5]
 2602              	.LBE585:
 2603              	.LBE595:
 2604              	.LBB596:
 2605              	.LBB579:
 127:sampleengine.h **** 
 2606              		.loc 13 127 6 view .LVU603
 2607 0274 A6EEA57A 		vfma.f32	s14, s13, s11
 2608              	.LVL129:
 129:sampleengine.h **** }
 2609              		.loc 13 129 5 is_stmt 1 view .LVU604
 129:sampleengine.h **** }
 2610              		.loc 13 129 5 is_stmt 0 view .LVU605
 2611              	.LBE579:
 2612              	.LBE596:
 2613              	.LBB597:
 2614              	.LBB586:
 109:sampleengine.h ****     {
 2615              		.loc 13 109 5 view .LVU606
 2616 0278 F1EE10FA 		vmrs	APSR_nzcv, FPSCR
 2617              	.LBE586:
 2618              	.LBE597:
 287:sampleengine.h ****             AdvanceReadIndex();
 2619              		.loc 13 287 34 view .LVU607
 2620 027c A2EC017A 		vstmia.32	r2!, {s14}
 288:sampleengine.h ****             if(readIndex == startSample)
 2621              		.loc 13 288 13 is_stmt 1 view .LVU608
 2622              	.LBB598:
 2623              	.LBI580:
 105:sampleengine.h **** {
 2624              		.loc 13 105 6 view .LVU609
 2625              	.LBB587:
 107:sampleengine.h **** 
 2626              		.loc 13 107 5 view .LVU610
 109:sampleengine.h ****     {
 2627              		.loc 13 109 5 view .LVU611
 2628 0280 05DB     		blt	.L126
 2629 0282 0192     		str	r2, [sp, #4]
 2630 0284 FFF7FEFF 		bl	_Z16AdvanceReadIndexv.part.0
 2631              	.LVL130:
 2632              	.LBE587:
 2633              	.LBE598:
 289:sampleengine.h ****             {
 2634              		.loc 13 289 26 is_stmt 0 view .LVU612
 2635 0288 D5ED007A 		vldr.32	s15, [r5]
 2636 028c 019A     		ldr	r2, [sp, #4]
 2637              	.L126:
 289:sampleengine.h ****             {
 2638              		.loc 13 289 13 is_stmt 1 view .LVU613
 285:sampleengine.h ****         {
 2639              		.loc 13 285 9 view .LVU614
 289:sampleengine.h ****             {
 2640              		.loc 13 289 13 is_stmt 0 view .LVU615
 2641 028e B4EE675A 		vcmp.f32	s10, s15
 285:sampleengine.h ****         {
 2642              		.loc 13 285 32 view .LVU616
 2643 0292 114B     		ldr	r3, .L146+16
ARM GAS  /var/folders/m5/x8wc2gdj7z5cpgcqdsb_gkj40000gn/T//ccGxviRN.s 			page 76


 289:sampleengine.h ****             {
 2644              		.loc 13 289 13 view .LVU617
 2645 0294 F1EE10FA 		vmrs	APSR_nzcv, FPSCR
 2646 0298 C9D1     		bne	.L128
 291:sampleengine.h ****                 break;
 2647              		.loc 13 291 17 is_stmt 1 view .LVU618
 2648              	.LBE572:
 2649              	.LBE634:
 2650              	.LBE674:
 2651              	.LBE690:
 309:sampleengine.h **** }
 2652              		.loc 13 309 15 is_stmt 0 view .LVU619
 2653 029a 0B4A     		ldr	r2, .L146
 2654              	.LBB691:
 2655              	.LBB675:
 2656              	.LBB635:
 2657              	.LBB599:
 291:sampleengine.h ****                 break;
 2658              		.loc 13 291 41 view .LVU620
 2659 029c 154B     		ldr	r3, .L146+44
 2660              	.LBE599:
 2661              	.LBE635:
 2662              	.LBE675:
 2663              	.LBE691:
 309:sampleengine.h **** }
 2664              		.loc 13 309 15 view .LVU621
 2665 029e 92ED005A 		vldr.32	s10, [r2]	@ int
 2666              	.LVL131:
 2667              	.LBB692:
 2668              	.LBB676:
 2669              	.LBB636:
 2670              	.LBB600:
 291:sampleengine.h ****                 break;
 2671              		.loc 13 291 41 view .LVU622
 2672 02a2 1E60     		str	r6, [r3]
 292:sampleengine.h ****             }
 2673              		.loc 13 292 17 is_stmt 1 view .LVU623
 2674              	.LBE600:
 2675              	.LBE636:
 2676              	.LBE676:
 2677              	.LBE692:
 309:sampleengine.h **** }
 2678              		.loc 13 309 15 is_stmt 0 view .LVU624
 2679 02a4 B8EE455A 		vcvt.f32.u32	s10, s10
 309:sampleengine.h **** }
 2680              		.loc 13 309 5 is_stmt 1 view .LVU625
 309:sampleengine.h **** }
 2681              		.loc 13 309 15 is_stmt 0 view .LVU626
 2682 02a8 85ED005A 		vstr.32	s10, [r5]
 310:sampleengine.h **** 
 2683              		.loc 13 310 1 view .LVU627
 2684 02ac 03B0     		add	sp, sp, #12
 2685              		.cfi_remember_state
 2686              		.cfi_def_cfa_offset 36
 2687              		@ sp needed
 2688 02ae BDE8F08F 		pop	{r4, r5, r6, r7, r8, r9, r10, fp, pc}
 2689              	.LVL132:
ARM GAS  /var/folders/m5/x8wc2gdj7z5cpgcqdsb_gkj40000gn/T//ccGxviRN.s 			page 77


 2690              	.L118:
 2691              		.cfi_restore_state
 309:sampleengine.h **** }
 2692              		.loc 13 309 15 view .LVU628
 2693 02b2 054B     		ldr	r3, .L146
 2694 02b4 93ED005A 		vldr.32	s10, [r3]	@ int
 2695              	.LVL133:
 309:sampleengine.h **** }
 2696              		.loc 13 309 15 view .LVU629
 2697 02b8 B8EE455A 		vcvt.f32.u32	s10, s10
 309:sampleengine.h **** }
 2698              		.loc 13 309 5 is_stmt 1 view .LVU630
 309:sampleengine.h **** }
 2699              		.loc 13 309 15 is_stmt 0 view .LVU631
 2700 02bc 85ED005A 		vstr.32	s10, [r5]
 310:sampleengine.h **** 
 2701              		.loc 13 310 1 view .LVU632
 2702 02c0 03B0     		add	sp, sp, #12
 2703              		.cfi_def_cfa_offset 36
 2704              		@ sp needed
 2705 02c2 BDE8F08F 		pop	{r4, r5, r6, r7, r8, r9, r10, fp, pc}
 2706              	.L147:
 2707 02c6 00BF     		.align	2
 2708              	.L146:
 2709 02c8 00000000 		.word	.LANCHOR3
 2710 02cc 00000000 		.word	.LANCHOR6
 2711 02d0 00000000 		.word	spliceBufferTwo
 2712 02d4 00000000 		.word	recordingBuffer
 2713 02d8 00A60E00 		.word	960000
 2714 02dc 00000000 		.word	.LANCHOR24
 2715 02e0 00000000 		.word	spliceBufferOne
 2716 02e4 00000000 		.word	.LANCHOR21
 2717 02e8 00000000 		.word	spliceBufferFour
 2718 02ec 00000000 		.word	.LANCHOR26
 2719 02f0 00000000 		.word	spliceBufferThree
 2720 02f4 00000000 		.word	.LANCHOR25
 2721 02f8 00000000 		.word	.LANCHOR13
 2722 02fc 00000000 		.word	.LANCHOR14
 2723 0300 00000000 		.word	.LANCHOR12
 2724 0304 00000000 		.word	.LANCHOR4
 2725              		.cfi_endproc
 2726              	.LFE4696:
 2728              		.section	.text._Z15AnyKeyIsPressedv,"ax",%progbits
 2729              		.align	1
 2730              		.p2align 2,,3
 2731              		.global	_Z15AnyKeyIsPressedv
 2732              		.syntax unified
 2733              		.thumb
 2734              		.thumb_func
 2736              	_Z15AnyKeyIsPressedv:
 2737              	.LFB4697:
 313:sampleengine.h ****     for(int i = 0; i < numKeyPads; i++)
 2738              		.loc 13 313 1 is_stmt 1 view -0
 2739              		.cfi_startproc
 2740              		@ args = 0, pretend = 0, frame = 0
 2741              		@ frame_needed = 0, uses_anonymous_args = 0
 2742              		@ link register save eliminated.
ARM GAS  /var/folders/m5/x8wc2gdj7z5cpgcqdsb_gkj40000gn/T//ccGxviRN.s 			page 78


 314:sampleengine.h ****     {
 2743              		.loc 13 314 5 view .LVU634
 2744              	.LVL134:
 2745              	.LBB693:
 314:sampleengine.h ****     {
 2746              		.loc 13 314 22 view .LVU635
 2747 0000 054B     		ldr	r3, .L153
 2748 0002 03F12002 		add	r2, r3, #32
 2749 0006 01E0     		b	.L150
 2750              	.LVL135:
 2751              	.L152:
 314:sampleengine.h ****     {
 2752              		.loc 13 314 22 is_stmt 0 discriminator 2 view .LVU636
 2753 0008 9342     		cmp	r3, r2
 2754 000a 03D0     		beq	.L149
 2755              	.LVL136:
 2756              	.L150:
 316:sampleengine.h ****         {
 2757              		.loc 13 316 9 is_stmt 1 view .LVU637
 314:sampleengine.h ****     {
 2758              		.loc 13 314 5 view .LVU638
 316:sampleengine.h ****         {
 2759              		.loc 13 316 23 is_stmt 0 view .LVU639
 2760 000c 13F8010B 		ldrb	r0, [r3], #1	@ zero_extendqisi2
 2761              	.LVL137:
 314:sampleengine.h ****     {
 2762              		.loc 13 314 22 is_stmt 1 view .LVU640
 316:sampleengine.h ****         {
 2763              		.loc 13 316 9 is_stmt 0 view .LVU641
 2764 0010 0028     		cmp	r0, #0
 2765 0012 F9D0     		beq	.L152
 2766              	.L149:
 2767              	.LBE693:
 322:sampleengine.h **** 
 2768              		.loc 13 322 1 view .LVU642
 2769 0014 7047     		bx	lr
 2770              	.L154:
 2771 0016 00BF     		.align	2
 2772              	.L153:
 2773 0018 00000000 		.word	.LANCHOR1
 2774              		.cfi_endproc
 2775              	.LFE4697:
 2777              		.section	.text._Z18FindNextPressedKeyi,"ax",%progbits
 2778              		.align	1
 2779              		.p2align 2,,3
 2780              		.global	_Z18FindNextPressedKeyi
 2781              		.syntax unified
 2782              		.thumb
 2783              		.thumb_func
 2785              	_Z18FindNextPressedKeyi:
 2786              	.LVL138:
 2787              	.LFB4698:
 325:sampleengine.h ****     int nextKey = key;
 2788              		.loc 13 325 1 is_stmt 1 view -0
 2789              		.cfi_startproc
 2790              		@ args = 0, pretend = 0, frame = 0
 2791              		@ frame_needed = 0, uses_anonymous_args = 0
ARM GAS  /var/folders/m5/x8wc2gdj7z5cpgcqdsb_gkj40000gn/T//ccGxviRN.s 			page 79


 2792              		@ link register save eliminated.
 326:sampleengine.h ****     for(int i = 0; i < numKeyPads; i++)
 2793              		.loc 13 326 5 view .LVU644
 325:sampleengine.h ****     int nextKey = key;
 2794              		.loc 13 325 1 is_stmt 0 view .LVU645
 2795 0000 2023     		movs	r3, #32
 2796 0002 0649     		ldr	r1, .L161
 2797              	.LVL139:
 327:sampleengine.h ****     {
 2798              		.loc 13 327 5 is_stmt 1 view .LVU646
 2799              	.LBB695:
 327:sampleengine.h ****     {
 2800              		.loc 13 327 22 view .LVU647
 2801 0004 01E0     		b	.L158
 2802              	.LVL140:
 2803              	.L160:
 327:sampleengine.h ****     {
 2804              		.loc 13 327 22 is_stmt 0 discriminator 2 view .LVU648
 2805 0006 013B     		subs	r3, r3, #1
 2806              	.LVL141:
 327:sampleengine.h ****     {
 2807              		.loc 13 327 22 discriminator 2 view .LVU649
 2808 0008 06D0     		beq	.L157
 2809              	.LVL142:
 2810              	.L158:
 329:sampleengine.h ****         if(nextKey >= numKeyPads)
 2811              		.loc 13 329 9 is_stmt 1 view .LVU650
 327:sampleengine.h ****     {
 2812              		.loc 13 327 5 view .LVU651
 329:sampleengine.h ****         if(nextKey >= numKeyPads)
 2813              		.loc 13 329 16 is_stmt 0 view .LVU652
 2814 000a 0130     		adds	r0, r0, #1
 2815              	.LVL143:
 330:sampleengine.h ****         {
 2816              		.loc 13 330 9 is_stmt 1 view .LVU653
 332:sampleengine.h ****         }
 2817              		.loc 13 332 21 is_stmt 0 view .LVU654
 2818 000c 2028     		cmp	r0, #32
 2819 000e A8BF     		it	ge
 2820 0010 0020     		movge	r0, #0
 2821              	.LVL144:
 334:sampleengine.h ****         {
 2822              		.loc 13 334 9 is_stmt 1 view .LVU655
 327:sampleengine.h ****     {
 2823              		.loc 13 327 22 view .LVU656
 334:sampleengine.h ****         {
 2824              		.loc 13 334 9 is_stmt 0 view .LVU657
 2825 0012 0A5C     		ldrb	r2, [r1, r0]	@ zero_extendqisi2
 2826 0014 002A     		cmp	r2, #0
 2827 0016 F6D0     		beq	.L160
 2828              	.LVL145:
 2829              	.L157:
 334:sampleengine.h ****         {
 2830              		.loc 13 334 9 view .LVU658
 2831              	.LBE695:
 2832              		.loc 13 339 5 is_stmt 1 view .LVU659
 340:sampleengine.h **** }
ARM GAS  /var/folders/m5/x8wc2gdj7z5cpgcqdsb_gkj40000gn/T//ccGxviRN.s 			page 80


 2833              		.loc 13 340 1 is_stmt 0 view .LVU660
 2834 0018 7047     		bx	lr
 2835              	.L162:
 2836 001a 00BF     		.align	2
 2837              	.L161:
 2838 001c 00000000 		.word	.LANCHOR1
 2839              		.cfi_endproc
 2840              	.LFE4698:
 2842              		.section	.text._Z19FindFirstPressedKeyv,"ax",%progbits
 2843              		.align	1
 2844              		.p2align 2,,3
 2845              		.global	_Z19FindFirstPressedKeyv
 2846              		.syntax unified
 2847              		.thumb
 2848              		.thumb_func
 2850              	_Z19FindFirstPressedKeyv:
 2851              	.LFB4699:
 341:sampleengine.h **** 
 342:sampleengine.h **** int FindFirstPressedKey()
 343:sampleengine.h **** {
 2852              		.loc 13 343 1 is_stmt 1 view -0
 2853              		.cfi_startproc
 2854              		@ args = 0, pretend = 0, frame = 0
 2855              		@ frame_needed = 0, uses_anonymous_args = 0
 2856              		@ link register save eliminated.
 344:sampleengine.h ****     for(int i = 0; i < numKeyPads; i++)
 2857              		.loc 13 344 5 view .LVU662
 2858              	.LVL146:
 2859              	.LBB696:
 2860              		.loc 13 344 22 view .LVU663
 2861 0000 064B     		ldr	r3, .L169
 2862              		.loc 13 344 13 is_stmt 0 view .LVU664
 2863 0002 0020     		movs	r0, #0
 2864 0004 02E0     		b	.L165
 2865              	.LVL147:
 2866              	.L168:
 2867              		.loc 13 344 5 discriminator 2 view .LVU665
 2868 0006 0130     		adds	r0, r0, #1
 2869              	.LVL148:
 2870              		.loc 13 344 22 is_stmt 1 discriminator 2 view .LVU666
 2871 0008 2028     		cmp	r0, #32
 2872 000a 04D0     		beq	.L167
 2873              	.LVL149:
 2874              	.L165:
 345:sampleengine.h ****     {
 346:sampleengine.h ****         if(keyStates[i])
 2875              		.loc 13 346 9 view .LVU667
 344:sampleengine.h ****     for(int i = 0; i < numKeyPads; i++)
 2876              		.loc 13 344 5 view .LVU668
 2877              		.loc 13 346 23 is_stmt 0 view .LVU669
 2878 000c 13F8012B 		ldrb	r2, [r3], #1	@ zero_extendqisi2
 2879              		.loc 13 346 9 view .LVU670
 2880 0010 002A     		cmp	r2, #0
 2881 0012 F8D0     		beq	.L168
 2882              	.LBE696:
 347:sampleengine.h ****         {
 348:sampleengine.h ****             return (i);
ARM GAS  /var/folders/m5/x8wc2gdj7z5cpgcqdsb_gkj40000gn/T//ccGxviRN.s 			page 81


 349:sampleengine.h ****         }
 350:sampleengine.h ****     }
 351:sampleengine.h ****     return -1;
 352:sampleengine.h **** }
 2883              		.loc 13 352 1 view .LVU671
 2884 0014 7047     		bx	lr
 2885              	.L167:
 351:sampleengine.h **** }
 2886              		.loc 13 351 13 view .LVU672
 2887 0016 4FF0FF30 		mov	r0, #-1
 2888              	.LVL150:
 2889              		.loc 13 352 1 view .LVU673
 2890 001a 7047     		bx	lr
 2891              	.L170:
 2892              		.align	2
 2893              	.L169:
 2894 001c 00000000 		.word	.LANCHOR1
 2895              		.cfi_endproc
 2896              	.LFE4699:
 2898              		.section	.text._Z12SetKeyIndexsv,"ax",%progbits
 2899              		.align	1
 2900              		.p2align 2,,3
 2901              		.global	_Z12SetKeyIndexsv
 2902              		.syntax unified
 2903              		.thumb
 2904              		.thumb_func
 2906              	_Z12SetKeyIndexsv:
 2907              	.LFB4700:
 353:sampleengine.h **** 
 354:sampleengine.h **** void SetKeyIndexs()
 355:sampleengine.h **** {
 2908              		.loc 13 355 1 is_stmt 1 view -0
 2909              		.cfi_startproc
 2910              		@ args = 0, pretend = 0, frame = 0
 2911              		@ frame_needed = 0, uses_anonymous_args = 0
 2912              		@ link register save eliminated.
 356:sampleengine.h ****     float fraction;
 2913              		.loc 13 356 5 view .LVU675
 357:sampleengine.h ****     auto recordingLengthFloat = static_cast<float>(recordingLength);
 2914              		.loc 13 357 5 view .LVU676
 2915              		.loc 13 357 33 is_stmt 0 view .LVU677
 2916 0000 2648     		ldr	r0, .L180
 2917              	.LBB703:
 358:sampleengine.h ****     for(int i = 0; i < numKeyPads; i++)
 2918              		.loc 13 358 13 view .LVU678
 2919 0002 0023     		movs	r3, #0
 2920 0004 2649     		ldr	r1, .L180+4
 2921              	.LBE703:
 357:sampleengine.h ****     auto recordingLengthFloat = static_cast<float>(recordingLength);
 2922              		.loc 13 357 10 view .LVU679
 2923 0006 90ED006A 		vldr.32	s12, [r0]	@ int
 2924 000a 264A     		ldr	r2, .L180+8
 2925 000c B8EE466A 		vcvt.f32.u32	s12, s12
 2926              	.LVL151:
 2927              		.loc 13 358 5 is_stmt 1 view .LVU680
 2928              	.LBB704:
 2929              		.loc 13 358 22 view .LVU681
ARM GAS  /var/folders/m5/x8wc2gdj7z5cpgcqdsb_gkj40000gn/T//ccGxviRN.s 			page 82


 2930 0010 DFED256A 		vldr.32	s13, .L180+12
 2931              	.LBE704:
 355:sampleengine.h ****     float fraction;
 2932              		.loc 13 355 1 is_stmt 0 view .LVU682
 2933 0014 10B4     		push	{r4}
 2934              		.cfi_def_cfa_offset 4
 2935              		.cfi_offset 4, -4
 2936              	.LVL152:
 2937              	.L172:
 2938              	.LBB705:
 359:sampleengine.h ****     {
 360:sampleengine.h ****         fraction = static_cast<float>(i) / static_cast<float>(numKeyPads);
 2939              		.loc 13 360 9 is_stmt 1 discriminator 2 view .LVU683
 361:sampleengine.h ****         keyStartIndex[i] = static_cast<uint32_t>((recordingLengthFloat * fraction) + 1.0f);
 2940              		.loc 13 361 9 discriminator 2 view .LVU684
 360:sampleengine.h ****         keyStartIndex[i] = static_cast<uint32_t>((recordingLengthFloat * fraction) + 1.0f);
 2941              		.loc 13 360 18 is_stmt 0 discriminator 2 view .LVU685
 2942 0016 DFED257A 		vldr.32	s15, .L180+16
 362:sampleengine.h ****         fraction = static_cast<float>(i + 1) / static_cast<float>(numKeyPads);
 2943              		.loc 13 362 41 discriminator 2 view .LVU686
 2944 001a 0133     		adds	r3, r3, #1
 2945              	.LVL153:
 361:sampleengine.h ****         keyStartIndex[i] = static_cast<uint32_t>((recordingLengthFloat * fraction) + 1.0f);
 2946              		.loc 13 361 84 discriminator 2 view .LVU687
 2947 001c B7EE007A 		vmov.f32	s14, #1.0e+0
 360:sampleengine.h ****         keyStartIndex[i] = static_cast<uint32_t>((recordingLengthFloat * fraction) + 1.0f);
 2948              		.loc 13 360 18 discriminator 2 view .LVU688
 2949 0020 66EEA75A 		vmul.f32	s11, s13, s15
 2950              		.loc 13 362 20 discriminator 2 view .LVU689
 2951 0024 06EE903A 		vmov	s13, r3	@ int
 358:sampleengine.h ****     {
 2952              		.loc 13 358 22 discriminator 2 view .LVU690
 2953 0028 202B     		cmp	r3, #32
 2954              		.loc 13 362 20 discriminator 2 view .LVU691
 2955 002a F8EEE66A 		vcvt.f32.s32	s13, s13
 361:sampleengine.h ****         fraction = static_cast<float>(i + 1) / static_cast<float>(numKeyPads);
 2956              		.loc 13 361 84 discriminator 2 view .LVU692
 2957 002e A6EE257A 		vfma.f32	s14, s12, s11
 2958              		.loc 13 362 18 discriminator 2 view .LVU693
 2959 0032 66EEA77A 		vmul.f32	s15, s13, s15
 363:sampleengine.h ****         keyStopIndex[i] = static_cast<uint32_t>(recordingLengthFloat * fraction);
 2960              		.loc 13 363 70 discriminator 2 view .LVU694
 2961 0036 67EE867A 		vmul.f32	s15, s15, s12
 361:sampleengine.h ****         fraction = static_cast<float>(i + 1) / static_cast<float>(numKeyPads);
 2962              		.loc 13 361 28 discriminator 2 view .LVU695
 2963 003a BCEEC77A 		vcvt.u32.f32	s14, s14
 2964              		.loc 13 363 27 discriminator 2 view .LVU696
 2965 003e FCEEE77A 		vcvt.u32.f32	s15, s15
 361:sampleengine.h ****         fraction = static_cast<float>(i + 1) / static_cast<float>(numKeyPads);
 2966              		.loc 13 361 28 discriminator 2 view .LVU697
 2967 0042 17EE100A 		vmov	r0, s14	@ int
 2968 0046 41F8040F 		str	r0, [r1, #4]!
 362:sampleengine.h ****         keyStopIndex[i] = static_cast<uint32_t>(recordingLengthFloat * fraction);
 2969              		.loc 13 362 9 is_stmt 1 discriminator 2 view .LVU698
 2970              	.LVL154:
 2971              		.loc 13 363 9 discriminator 2 view .LVU699
 2972              		.loc 13 363 27 is_stmt 0 discriminator 2 view .LVU700
ARM GAS  /var/folders/m5/x8wc2gdj7z5cpgcqdsb_gkj40000gn/T//ccGxviRN.s 			page 83


 2973 004a 17EE900A 		vmov	r0, s15	@ int
 2974 004e 42F8040F 		str	r0, [r2, #4]!
 358:sampleengine.h ****     {
 2975              		.loc 13 358 5 is_stmt 1 discriminator 2 view .LVU701
 2976              	.LVL155:
 358:sampleengine.h ****     {
 2977              		.loc 13 358 22 discriminator 2 view .LVU702
 2978 0052 E0D1     		bne	.L172
 2979              	.LBE705:
 2980              	.LBB706:
 2981              	.LBB707:
 326:sampleengine.h ****     for(int i = 0; i < numKeyPads; i++)
 2982              		.loc 13 326 9 is_stmt 0 view .LVU703
 2983 0054 4FF0FF32 		mov	r2, #-1
 2984 0058 1548     		ldr	r0, .L180+20
 2985 005a 01E0     		b	.L175
 2986              	.LVL156:
 2987              	.L179:
 2988              	.LBB708:
 327:sampleengine.h ****     {
 2989              		.loc 13 327 22 view .LVU704
 2990 005c 013B     		subs	r3, r3, #1
 2991 005e 06D0     		beq	.L174
 2992              	.LVL157:
 2993              	.L175:
 329:sampleengine.h ****         if(nextKey >= numKeyPads)
 2994              		.loc 13 329 9 is_stmt 1 view .LVU705
 327:sampleengine.h ****     {
 2995              		.loc 13 327 5 view .LVU706
 329:sampleengine.h ****         if(nextKey >= numKeyPads)
 2996              		.loc 13 329 16 is_stmt 0 view .LVU707
 2997 0060 0132     		adds	r2, r2, #1
 2998              	.LVL158:
 330:sampleengine.h ****         {
 2999              		.loc 13 330 9 is_stmt 1 view .LVU708
 332:sampleengine.h ****         }
 3000              		.loc 13 332 21 is_stmt 0 view .LVU709
 3001 0062 202A     		cmp	r2, #32
 3002 0064 A8BF     		it	ge
 3003 0066 0022     		movge	r2, #0
 3004              	.LVL159:
 334:sampleengine.h ****         {
 3005              		.loc 13 334 9 is_stmt 1 view .LVU710
 327:sampleengine.h ****     {
 3006              		.loc 13 327 22 view .LVU711
 334:sampleengine.h ****         {
 3007              		.loc 13 334 9 is_stmt 0 view .LVU712
 3008 0068 815C     		ldrb	r1, [r0, r2]	@ zero_extendqisi2
 3009 006a 0029     		cmp	r1, #0
 3010 006c F6D0     		beq	.L179
 3011              	.L174:
 334:sampleengine.h ****         {
 3012              		.loc 13 334 9 view .LVU713
 3013              	.LBE708:
 339:sampleengine.h **** }
 3014              		.loc 13 339 5 is_stmt 1 view .LVU714
 3015              	.LVL160:
ARM GAS  /var/folders/m5/x8wc2gdj7z5cpgcqdsb_gkj40000gn/T//ccGxviRN.s 			page 84


 339:sampleengine.h **** }
 3016              		.loc 13 339 5 is_stmt 0 view .LVU715
 3017              	.LBE707:
 3018              	.LBE706:
 364:sampleengine.h ****     }
 365:sampleengine.h ****     currentKey = FindNextPressedKey(-1);
 366:sampleengine.h ****     startPoint = keyStartIndex[currentKey];
 3019              		.loc 13 366 42 view .LVU716
 3020 006e 114B     		ldr	r3, .L180+24
 365:sampleengine.h ****     startPoint = keyStartIndex[currentKey];
 3021              		.loc 13 365 16 view .LVU717
 3022 0070 114C     		ldr	r4, .L180+28
 3023              		.loc 13 366 42 view .LVU718
 3024 0072 53F82230 		ldr	r3, [r3, r2, lsl #2]
 367:sampleengine.h ****     stopPoint = keyStopIndex[currentKey];
 3025              		.loc 13 367 40 view .LVU719
 3026 0076 1149     		ldr	r1, .L180+32
 3027              	.LBB709:
 3028              	.LBB710:
 102:sampleengine.h **** }
 3029              		.loc 13 102 15 view .LVU720
 3030 0078 07EE903A 		vmov	s15, r3	@ int
 3031              	.LBE710:
 3032              	.LBE709:
 366:sampleengine.h ****     stopPoint = keyStopIndex[currentKey];
 3033              		.loc 13 366 16 view .LVU721
 3034 007c 1048     		ldr	r0, .L180+36
 3035              		.loc 13 367 15 view .LVU722
 3036 007e 51F82210 		ldr	r1, [r1, r2, lsl #2]
 3037              	.LBB714:
 3038              	.LBB711:
 102:sampleengine.h **** }
 3039              		.loc 13 102 15 view .LVU723
 3040 0082 F8EE677A 		vcvt.f32.u32	s15, s15
 3041              	.LBE711:
 3042              	.LBE714:
 365:sampleengine.h ****     startPoint = keyStartIndex[currentKey];
 3043              		.loc 13 365 16 view .LVU724
 3044 0086 2260     		str	r2, [r4]
 366:sampleengine.h ****     stopPoint = keyStopIndex[currentKey];
 3045              		.loc 13 366 5 is_stmt 1 view .LVU725
 366:sampleengine.h ****     stopPoint = keyStopIndex[currentKey];
 3046              		.loc 13 366 16 is_stmt 0 view .LVU726
 3047 0088 0360     		str	r3, [r0]
 3048              		.loc 13 367 5 is_stmt 1 view .LVU727
 3049              		.loc 13 367 15 is_stmt 0 view .LVU728
 3050 008a 0E4A     		ldr	r2, .L180+40
 3051              	.LBB715:
 3052              	.LBB712:
 102:sampleengine.h **** }
 3053              		.loc 13 102 15 view .LVU729
 3054 008c 0E4B     		ldr	r3, .L180+44
 3055              	.LBE712:
 3056              	.LBE715:
 368:sampleengine.h ****     ResetReadIndex();
 369:sampleengine.h **** }
 3057              		.loc 13 369 1 view .LVU730
ARM GAS  /var/folders/m5/x8wc2gdj7z5cpgcqdsb_gkj40000gn/T//ccGxviRN.s 			page 85


 3058 008e 5DF8044B 		ldr	r4, [sp], #4
 3059              		.cfi_restore 4
 3060              		.cfi_def_cfa_offset 0
 367:sampleengine.h ****     ResetReadIndex();
 3061              		.loc 13 367 15 view .LVU731
 3062 0092 1160     		str	r1, [r2]
 368:sampleengine.h ****     ResetReadIndex();
 3063              		.loc 13 368 5 is_stmt 1 view .LVU732
 3064              	.LBB716:
 3065              	.LBI709:
 100:sampleengine.h **** {
 3066              		.loc 13 100 6 view .LVU733
 3067              	.LBB713:
 102:sampleengine.h **** }
 3068              		.loc 13 102 5 view .LVU734
 102:sampleengine.h **** }
 3069              		.loc 13 102 15 is_stmt 0 view .LVU735
 3070 0094 C3ED007A 		vstr.32	s15, [r3]
 3071              	.LBE713:
 3072              	.LBE716:
 3073              		.loc 13 369 1 view .LVU736
 3074 0098 7047     		bx	lr
 3075              	.L181:
 3076 009a 00BF     		.align	2
 3077              	.L180:
 3078 009c 00000000 		.word	.LANCHOR16
 3079 00a0 FCFFFFFF 		.word	.LANCHOR2-4
 3080 00a4 FCFFFFFF 		.word	.LANCHOR5-4
 3081 00a8 00000000 		.word	0
 3082 00ac 0000003D 		.word	1023410176
 3083 00b0 00000000 		.word	.LANCHOR1
 3084 00b4 00000000 		.word	.LANCHOR2
 3085 00b8 00000000 		.word	.LANCHOR0
 3086 00bc 00000000 		.word	.LANCHOR5
 3087 00c0 00000000 		.word	.LANCHOR3
 3088 00c4 00000000 		.word	.LANCHOR4
 3089 00c8 00000000 		.word	.LANCHOR6
 3090              		.cfi_endproc
 3091              	.LFE4700:
 3093              		.section	.text._Z13GetStartPointv,"ax",%progbits
 3094              		.align	1
 3095              		.p2align 2,,3
 3096              		.global	_Z13GetStartPointv
 3097              		.syntax unified
 3098              		.thumb
 3099              		.thumb_func
 3101              	_Z13GetStartPointv:
 3102              	.LFB4701:
 370:sampleengine.h **** 
 371:sampleengine.h **** uint32_t GetStartPoint()
 372:sampleengine.h **** {
 3103              		.loc 13 372 1 is_stmt 1 view -0
 3104              		.cfi_startproc
 3105              		@ args = 0, pretend = 0, frame = 0
 3106              		@ frame_needed = 0, uses_anonymous_args = 0
 3107              		@ link register save eliminated.
 373:sampleengine.h ****     return keyStartIndex[1];
ARM GAS  /var/folders/m5/x8wc2gdj7z5cpgcqdsb_gkj40000gn/T//ccGxviRN.s 			page 86


 3108              		.loc 13 373 5 view .LVU738
 3109              		.loc 13 373 27 is_stmt 0 view .LVU739
 3110 0000 014B     		ldr	r3, .L183
 374:sampleengine.h **** }
 3111              		.loc 13 374 1 view .LVU740
 3112 0002 5868     		ldr	r0, [r3, #4]
 3113 0004 7047     		bx	lr
 3114              	.L184:
 3115 0006 00BF     		.align	2
 3116              	.L183:
 3117 0008 00000000 		.word	.LANCHOR2
 3118              		.cfi_endproc
 3119              	.LFE4701:
 3121              		.section	.text._Z12GetStopPointv,"ax",%progbits
 3122              		.align	1
 3123              		.p2align 2,,3
 3124              		.global	_Z12GetStopPointv
 3125              		.syntax unified
 3126              		.thumb
 3127              		.thumb_func
 3129              	_Z12GetStopPointv:
 3130              	.LFB4702:
 375:sampleengine.h **** 
 376:sampleengine.h **** uint32_t GetStopPoint() // check if it works with just one stop point then change it
 377:sampleengine.h **** {
 3131              		.loc 13 377 1 is_stmt 1 view -0
 3132              		.cfi_startproc
 3133              		@ args = 0, pretend = 0, frame = 0
 3134              		@ frame_needed = 0, uses_anonymous_args = 0
 3135              		@ link register save eliminated.
 378:sampleengine.h ****     return keyStopIndex[1];
 3136              		.loc 13 378 5 view .LVU742
 3137              		.loc 13 378 26 is_stmt 0 view .LVU743
 3138 0000 014B     		ldr	r3, .L186
 379:sampleengine.h **** }
 3139              		.loc 13 379 1 view .LVU744
 3140 0002 5868     		ldr	r0, [r3, #4]
 3141 0004 7047     		bx	lr
 3142              	.L187:
 3143 0006 00BF     		.align	2
 3144              	.L186:
 3145 0008 00000000 		.word	.LANCHOR5
 3146              		.cfi_endproc
 3147              	.LFE4702:
 3149              		.section	.text._Z7InitLCDv,"ax",%progbits
 3150              		.align	1
 3151              		.p2align 2,,3
 3152              		.global	_Z7InitLCDv
 3153              		.syntax unified
 3154              		.thumb
 3155              		.thumb_func
 3157              	_Z7InitLCDv:
 3158              	.LFB4703:
 3159              		.file 15 "display.h"
   1:display.h     **** // ================================
   2:display.h     **** // COMPANY: Feni Design
   3:display.h     **** // AUTHOR: Dominic Frugoli
ARM GAS  /var/folders/m5/x8wc2gdj7z5cpgcqdsb_gkj40000gn/T//ccGxviRN.s 			page 87


   4:display.h     **** // CREATE DATE: 10/04/2024
   5:display.h     **** // PROJECT: Fall 2024 Independent Project
   6:display.h     **** // HEADER FILE FOR USE WITH: "sardinia.cpp"
   7:display.h     **** // SPECIAL NOTES: Code is meant for Electrosmith Daisy microcontroller
   8:display.h     **** // ================================
   9:display.h     **** 
  10:display.h     **** 
  11:display.h     **** using namespace daisy;
  12:display.h     **** using namespace daisy::seed;
  13:display.h     **** 
  14:display.h     **** 
  15:display.h     **** // |Pin Declarations|------------------------------------------------------------------------------
  16:display.h     **** 
  17:display.h     **** 
  18:display.h     **** #define PIN_LCD_RS D28 // LCD: pin 8
  19:display.h     **** #define PIN_LCD_EN D27 // LCD: pin 9
  20:display.h     **** #define PIN_LCD_D4 D26 // LCD: D4
  21:display.h     **** #define PIN_LCD_D5 D25 // LCD: D5
  22:display.h     **** #define PIN_LCD_D6 D24 // LCD: D6
  23:display.h     **** #define PIN_LCD_D7 D23 // LCD: D7
  24:display.h     **** 
  25:display.h     **** #define PLAY_MODE 0
  26:display.h     **** #define RECORD_MODE 1
  27:display.h     **** 
  28:display.h     **** 
  29:display.h     **** // |Mode Setup|------------------------------------------------------------------------------------
  30:display.h     **** 
  31:display.h     **** 
  32:display.h     **** enum Mode // Just add knobs before last NUM_ADC_CHANNELS as needed
  33:display.h     **** {
  34:display.h     **** 	record,
  35:display.h     **** 	play
  36:display.h     **** };
  37:display.h     **** 
  38:display.h     **** 
  39:display.h     **** // |Object Instantiations|-------------------------------------------------------------------------
  40:display.h     **** 
  41:display.h     **** 
  42:display.h     **** LcdHD44780 lcd;
  43:display.h     **** enum Mode mode = record;
  44:display.h     **** 
  45:display.h     **** 
  46:display.h     **** // |Function Declarations|-------------------------------------------------------------------------
  47:display.h     **** 
  48:display.h     **** 
  49:display.h     **** void InitLCD()
  50:display.h     **** {
 3160              		.loc 15 50 1 is_stmt 1 view -0
 3161              		.cfi_startproc
 3162              		@ args = 0, pretend = 0, frame = 16
 3163              		@ frame_needed = 0, uses_anonymous_args = 0
  51:display.h     ****     LcdHD44780::Config lcd_config;
 3164              		.loc 15 51 5 view .LVU746
  52:display.h     **** 	lcd_config.cursor_on = false;
 3165              		.loc 15 52 2 view .LVU747
  53:display.h     **** 	lcd_config.cursor_blink = false;
  54:display.h     **** 	lcd_config.rs = PIN_LCD_RS;
ARM GAS  /var/folders/m5/x8wc2gdj7z5cpgcqdsb_gkj40000gn/T//ccGxviRN.s 			page 88


  55:display.h     **** 	lcd_config.en = PIN_LCD_EN;
 3166              		.loc 15 55 16 is_stmt 0 view .LVU748
 3167 0000 164A     		ldr	r2, .L190
  52:display.h     **** 	lcd_config.cursor_on = false;
 3168              		.loc 15 52 23 view .LVU749
 3169 0002 0023     		movs	r3, #0
  56:display.h     **** 	lcd_config.d4 = PIN_LCD_D4;
  57:display.h     **** 	lcd_config.d5 = PIN_LCD_D5;
  58:display.h     **** 	lcd_config.d6 = PIN_LCD_D6;
  59:display.h     **** 	lcd_config.d7 = PIN_LCD_D7;
  60:display.h     **** 	lcd.Init(lcd_config);
 3170              		.loc 15 60 10 view .LVU750
 3171 0004 1648     		ldr	r0, .L190+4
  55:display.h     **** 	lcd_config.d4 = PIN_LCD_D4;
 3172              		.loc 15 55 16 view .LVU751
 3173 0006 1188     		ldrh	r1, [r2]
  56:display.h     **** 	lcd_config.d4 = PIN_LCD_D4;
 3174              		.loc 15 56 16 view .LVU752
 3175 0008 B2F804C0 		ldrh	ip, [r2, #4]
  59:display.h     **** 	lcd.Init(lcd_config);
 3176              		.loc 15 59 16 view .LVU753
 3177 000c 0422     		movs	r2, #4
  50:display.h     ****     LcdHD44780::Config lcd_config;
 3178              		.loc 15 50 1 view .LVU754
 3179 000e 00B5     		push	{lr}
 3180              		.cfi_def_cfa_offset 4
 3181              		.cfi_offset 14, -4
 3182 0010 85B0     		sub	sp, sp, #20
 3183              		.cfi_def_cfa_offset 24
  54:display.h     **** 	lcd_config.en = PIN_LCD_EN;
 3184              		.loc 15 54 16 view .LVU755
 3185 0012 4FF0020E 		mov	lr, #2
  55:display.h     **** 	lcd_config.d4 = PIN_LCD_D4;
 3186              		.loc 15 55 16 view .LVU756
 3187 0016 ADF80410 		strh	r1, [sp, #4]	@ movhi
  58:display.h     **** 	lcd_config.d7 = PIN_LCD_D7;
 3188              		.loc 15 58 16 view .LVU757
 3189 001a 0121     		movs	r1, #1
  52:display.h     **** 	lcd_config.cursor_blink = false;
 3190              		.loc 15 52 23 view .LVU758
 3191 001c 8DF80030 		strb	r3, [sp]
  53:display.h     **** 	lcd_config.rs = PIN_LCD_RS;
 3192              		.loc 15 53 2 is_stmt 1 view .LVU759
  58:display.h     **** 	lcd_config.d7 = PIN_LCD_D7;
 3193              		.loc 15 58 16 is_stmt 0 view .LVU760
 3194 0020 8DF80B10 		strb	r1, [sp, #11]
 3195              		.loc 15 60 10 view .LVU761
 3196 0024 6946     		mov	r1, sp
  53:display.h     **** 	lcd_config.rs = PIN_LCD_RS;
 3197              		.loc 15 53 26 view .LVU762
 3198 0026 8DF80130 		strb	r3, [sp, #1]
  54:display.h     **** 	lcd_config.en = PIN_LCD_EN;
 3199              		.loc 15 54 2 is_stmt 1 view .LVU763
  54:display.h     **** 	lcd_config.en = PIN_LCD_EN;
 3200              		.loc 15 54 16 is_stmt 0 view .LVU764
 3201 002a 8DF80230 		strb	r3, [sp, #2]
 3202 002e 8DF803E0 		strb	lr, [sp, #3]
ARM GAS  /var/folders/m5/x8wc2gdj7z5cpgcqdsb_gkj40000gn/T//ccGxviRN.s 			page 89


  55:display.h     **** 	lcd_config.d4 = PIN_LCD_D4;
 3203              		.loc 15 55 2 is_stmt 1 view .LVU765
  56:display.h     **** 	lcd_config.d5 = PIN_LCD_D5;
 3204              		.loc 15 56 2 view .LVU766
  56:display.h     **** 	lcd_config.d5 = PIN_LCD_D5;
 3205              		.loc 15 56 16 is_stmt 0 view .LVU767
 3206 0032 ADF806C0 		strh	ip, [sp, #6]	@ movhi
  57:display.h     **** 	lcd_config.d6 = PIN_LCD_D6;
 3207              		.loc 15 57 2 is_stmt 1 view .LVU768
  57:display.h     **** 	lcd_config.d6 = PIN_LCD_D6;
 3208              		.loc 15 57 16 is_stmt 0 view .LVU769
 3209 0036 8DF80830 		strb	r3, [sp, #8]
 3210 003a 8DF80930 		strb	r3, [sp, #9]
  58:display.h     **** 	lcd_config.d7 = PIN_LCD_D7;
 3211              		.loc 15 58 2 is_stmt 1 view .LVU770
  59:display.h     **** 	lcd.Init(lcd_config);
 3212              		.loc 15 59 2 view .LVU771
  58:display.h     **** 	lcd_config.d7 = PIN_LCD_D7;
 3213              		.loc 15 58 16 is_stmt 0 view .LVU772
 3214 003e 8DF80A30 		strb	r3, [sp, #10]
  59:display.h     **** 	lcd.Init(lcd_config);
 3215              		.loc 15 59 16 view .LVU773
 3216 0042 8DF80C30 		strb	r3, [sp, #12]
 3217 0046 8DF80D20 		strb	r2, [sp, #13]
 3218              		.loc 15 60 2 is_stmt 1 view .LVU774
 3219              		.loc 15 60 10 is_stmt 0 view .LVU775
 3220 004a FFF7FEFF 		bl	_ZN5daisy10LcdHD447804InitERKNS0_6ConfigE
 3221              	.LVL161:
  61:display.h     **** 	lcd.Clear();
 3222              		.loc 15 61 2 is_stmt 1 view .LVU776
 3223              		.loc 15 61 11 is_stmt 0 view .LVU777
 3224 004e 0448     		ldr	r0, .L190+4
 3225 0050 FFF7FEFF 		bl	_ZN5daisy10LcdHD447805ClearEv
 3226              	.LVL162:
  62:display.h     **** }
 3227              		.loc 15 62 1 view .LVU778
 3228 0054 05B0     		add	sp, sp, #20
 3229              		.cfi_def_cfa_offset 4
 3230              		@ sp needed
 3231 0056 5DF804FB 		ldr	pc, [sp], #4
 3232              	.L191:
 3233 005a 00BF     		.align	2
 3234              	.L190:
 3235 005c 00000000 		.word	.LANCHOR27
 3236 0060 00000000 		.word	.LANCHOR28
 3237              		.cfi_endproc
 3238              	.LFE4703:
 3240              		.section	.rodata._Z9PrintMenufPb.str1.4,"aMS",%progbits,1
 3241              		.align	2
 3242              	.LC10:
 3243 0000 5265636F 		.ascii	"Record Mode     \000"
 3243      7264204D 
 3243      6F646520 
 3243      20202020 
 3243      00
 3244 0011 000000   		.align	2
 3245              	.LC11:
ARM GAS  /var/folders/m5/x8wc2gdj7z5cpgcqdsb_gkj40000gn/T//ccGxviRN.s 			page 90


 3246 0014 506C6179 		.ascii	"Play Mode       \000"
 3246      204D6F64 
 3246      65202020 
 3246      20202020 
 3246      00
 3247 0025 000000   		.align	2
 3248              	.LC12:
 3249 0028 4F766572 		.ascii	"Overdrive:   \000"
 3249      64726976 
 3249      653A2020 
 3249      2000
 3250 0036 0000     		.align	2
 3251              	.LC13:
 3252 0038 204F6E00 		.ascii	" On\000"
 3253              		.align	2
 3254              	.LC14:
 3255 003c 4F666600 		.ascii	"Off\000"
 3256              		.align	2
 3257              	.LC15:
 3258 0040 43686F72 		.ascii	"Chorus:      \000"
 3258      75733A20 
 3258      20202020 
 3258      2000
 3259 004e 0000     		.align	2
 3260              	.LC16:
 3261 0050 4C6F772D 		.ascii	"Low-Pass:    \000"
 3261      50617373 
 3261      3A202020 
 3261      2000
 3262              		.section	.text._Z9PrintMenufPb,"ax",%progbits
 3263              		.align	1
 3264              		.p2align 2,,3
 3265              		.global	_Z9PrintMenufPb
 3266              		.syntax unified
 3267              		.thumb
 3268              		.thumb_func
 3270              	_Z9PrintMenufPb:
 3271              	.LVL163:
 3272              	.LFB4704:
  63:display.h     **** 
  64:display.h     **** void PrintMenu(float currenteffect, bool effectstates[])
  65:display.h     **** {
 3273              		.loc 15 65 1 is_stmt 1 view -0
 3274              		.cfi_startproc
 3275              		@ args = 0, pretend = 0, frame = 0
 3276              		@ frame_needed = 0, uses_anonymous_args = 0
  66:display.h     **** 	//Print Mode Readout
  67:display.h     **** 	lcd.SetCursor(0, 0);
 3277              		.loc 15 67 2 view .LVU780
 3278              		.loc 15 67 15 is_stmt 0 view .LVU781
 3279 0000 0022     		movs	r2, #0
  65:display.h     **** 	//Print Mode Readout
 3280              		.loc 15 65 1 view .LVU782
 3281 0002 10B5     		push	{r4, lr}
 3282              		.cfi_def_cfa_offset 8
 3283              		.cfi_offset 4, -8
 3284              		.cfi_offset 14, -4
ARM GAS  /var/folders/m5/x8wc2gdj7z5cpgcqdsb_gkj40000gn/T//ccGxviRN.s 			page 91


 3285              		.loc 15 67 15 view .LVU783
 3286 0004 1146     		mov	r1, r2
  65:display.h     **** 	//Print Mode Readout
 3287              		.loc 15 65 1 view .LVU784
 3288 0006 0446     		mov	r4, r0
 3289              		.loc 15 67 15 view .LVU785
 3290 0008 2B48     		ldr	r0, .L209
 3291              	.LVL164:
  65:display.h     **** 	//Print Mode Readout
 3292              		.loc 15 65 1 view .LVU786
 3293 000a 2DED028B 		vpush.64	{d8}
 3294              		.cfi_def_cfa_offset 16
 3295              		.cfi_offset 80, -16
 3296              		.cfi_offset 81, -12
  65:display.h     **** 	//Print Mode Readout
 3297              		.loc 15 65 1 view .LVU787
 3298 000e B0EE408A 		vmov.f32	s16, s0
 3299              		.loc 15 67 15 view .LVU788
 3300 0012 FFF7FEFF 		bl	_ZN5daisy10LcdHD447809SetCursorEhh
 3301              	.LVL165:
  68:display.h     **** 	if(mode == record)
 3302              		.loc 15 68 2 is_stmt 1 view .LVU789
 3303              		.loc 15 68 10 is_stmt 0 view .LVU790
 3304 0016 294B     		ldr	r3, .L209+4
 3305 0018 1B78     		ldrb	r3, [r3]	@ zero_extendqisi2
 3306              		.loc 15 68 2 view .LVU791
 3307 001a 002B     		cmp	r3, #0
 3308 001c 39D0     		beq	.L204
  69:display.h     **** 	{
  70:display.h     **** 		lcd.Print("Record Mode     ");
  71:display.h     **** 	}
  72:display.h     **** 	else if(mode == play)
 3309              		.loc 15 72 7 is_stmt 1 view .LVU792
 3310 001e 012B     		cmp	r3, #1
 3311 0020 44D0     		beq	.L205
 3312              	.L194:
  73:display.h     **** 	{
  74:display.h     **** 		lcd.Print("Play Mode       ");
  75:display.h     **** 	}
  76:display.h     **** 
  77:display.h     **** 	// Print Effect Readout
  78:display.h     **** 	lcd.SetCursor(1, 0);
 3313              		.loc 15 78 2 view .LVU793
 3314              		.loc 15 78 15 is_stmt 0 view .LVU794
 3315 0022 0022     		movs	r2, #0
 3316 0024 0121     		movs	r1, #1
 3317 0026 2448     		ldr	r0, .L209
 3318 0028 FFF7FEFF 		bl	_ZN5daisy10LcdHD447809SetCursorEhh
 3319              	.LVL166:
  79:display.h     **** 	if(currenteffect == 0)
 3320              		.loc 15 79 2 is_stmt 1 view .LVU795
 3321 002c B5EE408A 		vcmp.f32	s16, #0
 3322 0030 F1EE10FA 		vmrs	APSR_nzcv, FPSCR
 3323 0034 1ED0     		beq	.L206
  80:display.h     **** 	{
  81:display.h     **** 		lcd.Print("Overdrive:   ");
  82:display.h     **** 		if(effectstates[0])
ARM GAS  /var/folders/m5/x8wc2gdj7z5cpgcqdsb_gkj40000gn/T//ccGxviRN.s 			page 92


  83:display.h     **** 		{
  84:display.h     **** 			lcd.Print(" On");
  85:display.h     **** 		}
  86:display.h     **** 		else
  87:display.h     **** 		{
  88:display.h     **** 			lcd.Print("Off");
  89:display.h     **** 		}
  90:display.h     **** 	}
  91:display.h     **** 	else if(currenteffect == 1)
 3324              		.loc 15 91 7 view .LVU796
 3325 0036 F7EE007A 		vmov.f32	s15, #1.0e+0
 3326 003a B4EE678A 		vcmp.f32	s16, s15
 3327 003e F1EE10FA 		vmrs	APSR_nzcv, FPSCR
 3328 0042 09D0     		beq	.L207
  92:display.h     **** 	{
  93:display.h     **** 		lcd.Print("Chorus:      ");
  94:display.h     **** 		if(effectstates[1])
  95:display.h     **** 		{
  96:display.h     **** 			lcd.Print(" On");
  97:display.h     **** 		}
  98:display.h     **** 		else
  99:display.h     **** 		{
 100:display.h     **** 			lcd.Print("Off");
 101:display.h     **** 		}
 102:display.h     **** 	}
 103:display.h     **** 	else if(currenteffect == 2)
 3329              		.loc 15 103 7 view .LVU797
 3330 0044 F0EE007A 		vmov.f32	s15, #2.0e+0
 3331 0048 B4EE678A 		vcmp.f32	s16, s15
 3332 004c F1EE10FA 		vmrs	APSR_nzcv, FPSCR
 3333 0050 24D0     		beq	.L208
 104:display.h     **** 	{
 105:display.h     **** 		lcd.Print("Low-Pass:    ");
 106:display.h     **** 		if(effectstates[2])
 107:display.h     **** 		{
 108:display.h     **** 			lcd.Print(" On");
 109:display.h     **** 		}
 110:display.h     **** 		else
 111:display.h     **** 		{
 112:display.h     **** 			lcd.Print("Off");
 113:display.h     **** 		}
 114:display.h     **** 	}
 115:display.h     **** 
 116:display.h     **** 	// For Testing Values
 117:display.h     **** 	/*
 118:display.h     **** 	lcd.SetCursor(1, 0);
 119:display.h     **** 	lcd.PrintInt(testValFloat);
 120:display.h     **** 	lcd.SetCursor(1, 8);
 121:display.h     **** 	lcd.PrintInt(testValInt);
 122:display.h     **** 	*/
 123:display.h     **** }
 3334              		.loc 15 123 1 is_stmt 0 view .LVU798
 3335 0052 BDEC028B 		vldm	sp!, {d8}
 3336              		.cfi_remember_state
 3337              		.cfi_restore 80
 3338              		.cfi_restore 81
 3339              		.cfi_def_cfa_offset 8
ARM GAS  /var/folders/m5/x8wc2gdj7z5cpgcqdsb_gkj40000gn/T//ccGxviRN.s 			page 93


 3340              	.LVL167:
 3341              		.loc 15 123 1 view .LVU799
 3342 0056 10BD     		pop	{r4, pc}
 3343              	.LVL168:
 3344              	.L207:
 3345              		.cfi_restore_state
  93:display.h     **** 		if(effectstates[1])
 3346              		.loc 15 93 3 is_stmt 1 view .LVU800
  93:display.h     **** 		if(effectstates[1])
 3347              		.loc 15 93 12 is_stmt 0 view .LVU801
 3348 0058 1949     		ldr	r1, .L209+8
 3349 005a 1748     		ldr	r0, .L209
 3350 005c FFF7FEFF 		bl	_ZN5daisy10LcdHD447805PrintEPKc
 3351              	.LVL169:
  94:display.h     **** 		{
 3352              		.loc 15 94 3 is_stmt 1 view .LVU802
 3353 0060 6378     		ldrb	r3, [r4, #1]	@ zero_extendqisi2
 3354 0062 73B1     		cbz	r3, .L196
 3355              	.L198:
  84:display.h     **** 		}
 3356              		.loc 15 84 4 view .LVU803
  84:display.h     **** 		}
 3357              		.loc 15 84 13 is_stmt 0 view .LVU804
 3358 0064 1749     		ldr	r1, .L209+12
 3359 0066 1448     		ldr	r0, .L209
 3360              		.loc 15 123 1 view .LVU805
 3361 0068 BDEC028B 		vldm	sp!, {d8}
 3362              		.cfi_remember_state
 3363              		.cfi_restore 80
 3364              		.cfi_restore 81
 3365              		.cfi_def_cfa_offset 8
 3366              	.LVL170:
 3367              		.loc 15 123 1 view .LVU806
 3368 006c BDE81040 		pop	{r4, lr}
 3369              		.cfi_restore 14
 3370              		.cfi_restore 4
 3371              		.cfi_def_cfa_offset 0
 3372              	.LVL171:
  84:display.h     **** 		}
 3373              		.loc 15 84 13 view .LVU807
 3374 0070 FFF7FEBF 		b	_ZN5daisy10LcdHD447805PrintEPKc
 3375              	.LVL172:
 3376              	.L206:
 3377              		.cfi_restore_state
  81:display.h     **** 		if(effectstates[0])
 3378              		.loc 15 81 3 is_stmt 1 view .LVU808
  81:display.h     **** 		if(effectstates[0])
 3379              		.loc 15 81 12 is_stmt 0 view .LVU809
 3380 0074 1449     		ldr	r1, .L209+16
 3381 0076 1048     		ldr	r0, .L209
 3382 0078 FFF7FEFF 		bl	_ZN5daisy10LcdHD447805PrintEPKc
 3383              	.LVL173:
  82:display.h     **** 		{
 3384              		.loc 15 82 3 is_stmt 1 view .LVU810
 3385 007c 2378     		ldrb	r3, [r4]	@ zero_extendqisi2
 3386 007e 002B     		cmp	r3, #0
 3387 0080 F0D1     		bne	.L198
ARM GAS  /var/folders/m5/x8wc2gdj7z5cpgcqdsb_gkj40000gn/T//ccGxviRN.s 			page 94


 3388              	.L196:
  88:display.h     **** 		}
 3389              		.loc 15 88 4 view .LVU811
  88:display.h     **** 		}
 3390              		.loc 15 88 13 is_stmt 0 view .LVU812
 3391 0082 1249     		ldr	r1, .L209+20
 3392 0084 0C48     		ldr	r0, .L209
 3393              		.loc 15 123 1 view .LVU813
 3394 0086 BDEC028B 		vldm	sp!, {d8}
 3395              		.cfi_remember_state
 3396              		.cfi_restore 80
 3397              		.cfi_restore 81
 3398              		.cfi_def_cfa_offset 8
 3399              	.LVL174:
 3400              		.loc 15 123 1 view .LVU814
 3401 008a BDE81040 		pop	{r4, lr}
 3402              		.cfi_restore 14
 3403              		.cfi_restore 4
 3404              		.cfi_def_cfa_offset 0
 3405              	.LVL175:
  88:display.h     **** 		}
 3406              		.loc 15 88 13 view .LVU815
 3407 008e FFF7FEBF 		b	_ZN5daisy10LcdHD447805PrintEPKc
 3408              	.LVL176:
 3409              	.L204:
 3410              		.cfi_restore_state
  70:display.h     **** 	}
 3411              		.loc 15 70 3 is_stmt 1 view .LVU816
  70:display.h     **** 	}
 3412              		.loc 15 70 12 is_stmt 0 view .LVU817
 3413 0092 0F49     		ldr	r1, .L209+24
 3414 0094 0848     		ldr	r0, .L209
 3415 0096 FFF7FEFF 		bl	_ZN5daisy10LcdHD447805PrintEPKc
 3416              	.LVL177:
 3417 009a C2E7     		b	.L194
 3418              	.L208:
 105:display.h     **** 		if(effectstates[2])
 3419              		.loc 15 105 3 is_stmt 1 view .LVU818
 105:display.h     **** 		if(effectstates[2])
 3420              		.loc 15 105 12 is_stmt 0 view .LVU819
 3421 009c 0D49     		ldr	r1, .L209+28
 3422 009e 0648     		ldr	r0, .L209
 3423 00a0 FFF7FEFF 		bl	_ZN5daisy10LcdHD447805PrintEPKc
 3424              	.LVL178:
 106:display.h     **** 		{
 3425              		.loc 15 106 3 is_stmt 1 view .LVU820
 3426 00a4 A378     		ldrb	r3, [r4, #2]	@ zero_extendqisi2
 3427 00a6 002B     		cmp	r3, #0
 3428 00a8 DCD1     		bne	.L198
 3429 00aa EAE7     		b	.L196
 3430              	.L205:
  74:display.h     **** 	}
 3431              		.loc 15 74 3 view .LVU821
  74:display.h     **** 	}
 3432              		.loc 15 74 12 is_stmt 0 view .LVU822
 3433 00ac 0A49     		ldr	r1, .L209+32
 3434 00ae 0248     		ldr	r0, .L209
ARM GAS  /var/folders/m5/x8wc2gdj7z5cpgcqdsb_gkj40000gn/T//ccGxviRN.s 			page 95


 3435 00b0 FFF7FEFF 		bl	_ZN5daisy10LcdHD447805PrintEPKc
 3436              	.LVL179:
 3437 00b4 B5E7     		b	.L194
 3438              	.L210:
 3439 00b6 00BF     		.align	2
 3440              	.L209:
 3441 00b8 00000000 		.word	.LANCHOR28
 3442 00bc 00000000 		.word	.LANCHOR29
 3443 00c0 40000000 		.word	.LC15
 3444 00c4 38000000 		.word	.LC13
 3445 00c8 28000000 		.word	.LC12
 3446 00cc 3C000000 		.word	.LC14
 3447 00d0 00000000 		.word	.LC10
 3448 00d4 50000000 		.word	.LC16
 3449 00d8 14000000 		.word	.LC11
 3450              		.cfi_endproc
 3451              	.LFE4704:
 3453              		.section	.text._Z10UpdateModei,"ax",%progbits
 3454              		.align	1
 3455              		.p2align 2,,3
 3456              		.global	_Z10UpdateModei
 3457              		.syntax unified
 3458              		.thumb
 3459              		.thumb_func
 3461              	_Z10UpdateModei:
 3462              	.LVL180:
 3463              	.LFB4705:
 124:display.h     **** 
 125:display.h     **** void UpdateMode(int menuSelect)
 126:display.h     **** {
 3464              		.loc 15 126 1 is_stmt 1 view -0
 3465              		.cfi_startproc
 3466              		@ args = 0, pretend = 0, frame = 0
 3467              		@ frame_needed = 0, uses_anonymous_args = 0
 3468              		@ link register save eliminated.
 127:display.h     **** 	if(menuSelect == 0)
 3469              		.loc 15 127 2 view .LVU824
 3470 0000 10B1     		cbz	r0, .L214
 128:display.h     **** 	{
 129:display.h     **** 		mode = record;
 130:display.h     **** 	}
 131:display.h     **** 	else if(menuSelect == 1)
 3471              		.loc 15 131 7 view .LVU825
 3472 0002 0128     		cmp	r0, #1
 3473 0004 00D0     		beq	.L214
 132:display.h     **** 	{
 133:display.h     **** 		mode = play;
 134:display.h     **** 	}
 135:display.h     **** }
 3474              		.loc 15 135 1 is_stmt 0 view .LVU826
 3475 0006 7047     		bx	lr
 3476              	.L214:
 133:display.h     **** 	}
 3477              		.loc 15 133 3 is_stmt 1 view .LVU827
 133:display.h     **** 	}
 3478              		.loc 15 133 8 is_stmt 0 view .LVU828
 3479 0008 014B     		ldr	r3, .L215
ARM GAS  /var/folders/m5/x8wc2gdj7z5cpgcqdsb_gkj40000gn/T//ccGxviRN.s 			page 96


 3480 000a 1870     		strb	r0, [r3]
 3481              		.loc 15 135 1 view .LVU829
 3482 000c 7047     		bx	lr
 3483              	.L216:
 3484 000e 00BF     		.align	2
 3485              	.L215:
 3486 0010 00000000 		.word	.LANCHOR29
 3487              		.cfi_endproc
 3488              	.LFE4705:
 3490              		.section	.text._Z11InitEffectsf,"ax",%progbits
 3491              		.align	1
 3492              		.p2align 2,,3
 3493              		.global	_Z11InitEffectsf
 3494              		.syntax unified
 3495              		.thumb
 3496              		.thumb_func
 3498              	_Z11InitEffectsf:
 3499              	.LVL181:
 3500              	.LFB4706:
 3501              		.file 16 "effects.h"
   1:effects.h     **** // ================================
   2:effects.h     **** // COMPANY: Feni Design
   3:effects.h     **** // AUTHOR: Dominic Frugoli
   4:effects.h     **** // CREATE DATE: 10/29/2024
   5:effects.h     **** // PROJECT: Fall 2024 Independent Project
   6:effects.h     **** // HEADER FILE FOR USE WITH: "sardinia.cpp"
   7:effects.h     **** // SPECIAL NOTES: Code is meant for Electrosmith Daisy microcontroller
   8:effects.h     **** // ================================
   9:effects.h     **** 
  10:effects.h     **** 
  11:effects.h     **** using namespace daisy;
  12:effects.h     **** using namespace daisy::seed;
  13:effects.h     **** using namespace daisysp;
  14:effects.h     **** 
  15:effects.h     **** 
  16:effects.h     **** // |Audio Objects|---------------------------------------------------------------------------------
  17:effects.h     **** 
  18:effects.h     **** 
  19:effects.h     **** Chorus chorus;
  20:effects.h     **** Overdrive overdrive;
  21:effects.h     **** OnePole odTone;
  22:effects.h     **** Svf lopass;
  23:effects.h     **** 
  24:effects.h     **** 
  25:effects.h     **** // |Audio Variables|-------------------------------------------------------------------------------
  26:effects.h     **** 
  27:effects.h     **** int currentEffect = 0; // 0: overdrive, 1: chorus, 2: LoPass
  28:effects.h     **** bool effectStates[3] = {false, false, false}; // 0: overdrive, 1: chorus, 2: LoPass
  29:effects.h     **** 
  30:effects.h     **** float effectValues[3][2] = {{0.5f, 550.0f}, {0.5f, 1.0f}, {1000.0f, 0.25f}};
  31:effects.h     **** /*
  32:effects.h     ****     {[0][0]: overdrive gain, [0][1] overdrive tone freq}
  33:effects.h     ****     {[1][0]: chorus lfo depth, [1][1] chorus lfo freq}
  34:effects.h     ****     {[2][0]: LoPass cutoff, [2][1] LoPass resonance}
  35:effects.h     **** */
  36:effects.h     **** 
  37:effects.h     **** 
ARM GAS  /var/folders/m5/x8wc2gdj7z5cpgcqdsb_gkj40000gn/T//ccGxviRN.s 			page 97


  38:effects.h     **** // |Init Functions|--------------------------------------------------------------------------------
  39:effects.h     **** 
  40:effects.h     **** 
  41:effects.h     **** void InitEffects(float samplerate)
  42:effects.h     **** {
 3502              		.loc 16 42 1 is_stmt 1 view -0
 3503              		.cfi_startproc
 3504              		@ args = 0, pretend = 0, frame = 0
 3505              		@ frame_needed = 0, uses_anonymous_args = 0
  43:effects.h     ****     // Overdrive
  44:effects.h     ****     overdrive.Init();
 3506              		.loc 16 44 5 view .LVU831
  42:effects.h     ****     // Overdrive
 3507              		.loc 16 42 1 is_stmt 0 view .LVU832
 3508 0000 70B5     		push	{r4, r5, r6, lr}
 3509              		.cfi_def_cfa_offset 16
 3510              		.cfi_offset 4, -16
 3511              		.cfi_offset 5, -12
 3512              		.cfi_offset 6, -8
 3513              		.cfi_offset 14, -4
 3514              		.loc 16 44 19 view .LVU833
 3515 0002 2A48     		ldr	r0, .L224
 3516              	.LBB725:
 3517              	.LBB726:
  31:/Users/dominicfrugoli/Desktop/ProgrammingCode/DaisyCode/DaisyExamples/DaisySP/Source/Filters/onepole.h **** 
  32:/Users/dominicfrugoli/Desktop/ProgrammingCode/DaisyCode/DaisyExamples/DaisySP/Source/Filters/onepole.h ****     /**
  33:/Users/dominicfrugoli/Desktop/ProgrammingCode/DaisyCode/DaisyExamples/DaisySP/Source/Filters/onepole.h ****      * @brief Operational modes of the filter
  34:/Users/dominicfrugoli/Desktop/ProgrammingCode/DaisyCode/DaisyExamples/DaisySP/Source/Filters/onepole.h ****      * - LOW_PASS = cuts out high frequency sound, lets low frequency sound pass through
  35:/Users/dominicfrugoli/Desktop/ProgrammingCode/DaisyCode/DaisyExamples/DaisySP/Source/Filters/onepole.h ****      * - HIGH_PASS = cuts out low frequency sound, lets high frequency sound pass through
  36:/Users/dominicfrugoli/Desktop/ProgrammingCode/DaisyCode/DaisyExamples/DaisySP/Source/Filters/onepole.h ****      */
  37:/Users/dominicfrugoli/Desktop/ProgrammingCode/DaisyCode/DaisyExamples/DaisySP/Source/Filters/onepole.h ****     enum FilterMode
  38:/Users/dominicfrugoli/Desktop/ProgrammingCode/DaisyCode/DaisyExamples/DaisySP/Source/Filters/onepole.h ****     {
  39:/Users/dominicfrugoli/Desktop/ProgrammingCode/DaisyCode/DaisyExamples/DaisySP/Source/Filters/onepole.h ****         FILTER_MODE_LOW_PASS,
  40:/Users/dominicfrugoli/Desktop/ProgrammingCode/DaisyCode/DaisyExamples/DaisySP/Source/Filters/onepole.h ****         FILTER_MODE_HIGH_PASS
  41:/Users/dominicfrugoli/Desktop/ProgrammingCode/DaisyCode/DaisyExamples/DaisySP/Source/Filters/onepole.h ****     };
  42:/Users/dominicfrugoli/Desktop/ProgrammingCode/DaisyCode/DaisyExamples/DaisySP/Source/Filters/onepole.h **** 
  43:/Users/dominicfrugoli/Desktop/ProgrammingCode/DaisyCode/DaisyExamples/DaisySP/Source/Filters/onepole.h ****     /** Initializes the module */
  44:/Users/dominicfrugoli/Desktop/ProgrammingCode/DaisyCode/DaisyExamples/DaisySP/Source/Filters/onepole.h ****     void Init()
  45:/Users/dominicfrugoli/Desktop/ProgrammingCode/DaisyCode/DaisyExamples/DaisySP/Source/Filters/onepole.h ****     {
  46:/Users/dominicfrugoli/Desktop/ProgrammingCode/DaisyCode/DaisyExamples/DaisySP/Source/Filters/onepole.h ****         Reset();
  47:/Users/dominicfrugoli/Desktop/ProgrammingCode/DaisyCode/DaisyExamples/DaisySP/Source/Filters/onepole.h ****         mode_ = FILTER_MODE_LOW_PASS;
 3518              		.loc 12 47 15 view .LVU834
 3519 0004 0026     		movs	r6, #0
 3520              	.LBE726:
 3521              	.LBE725:
  45:effects.h     ****     odTone.Init();
  46:effects.h     ****     overdrive.SetDrive(effectValues[0][0]);
 3522              		.loc 16 46 23 view .LVU835
 3523 0006 2A4C     		ldr	r4, .L224+4
 3524              	.LBB736:
 3525              	.LBB733:
 3526              	.LBB727:
 3527              	.LBB728:
  48:/Users/dominicfrugoli/Desktop/ProgrammingCode/DaisyCode/DaisyExamples/DaisySP/Source/Filters/onepole.h ****     }
  49:/Users/dominicfrugoli/Desktop/ProgrammingCode/DaisyCode/DaisyExamples/DaisySP/Source/Filters/onepole.h **** 
  50:/Users/dominicfrugoli/Desktop/ProgrammingCode/DaisyCode/DaisyExamples/DaisySP/Source/Filters/onepole.h ****     /** Reset the module to its default state */
  51:/Users/dominicfrugoli/Desktop/ProgrammingCode/DaisyCode/DaisyExamples/DaisySP/Source/Filters/onepole.h ****     inline void Reset() { state_ = 0.0f; }
ARM GAS  /var/folders/m5/x8wc2gdj7z5cpgcqdsb_gkj40000gn/T//ccGxviRN.s 			page 98


 3528              		.loc 12 51 34 view .LVU836
 3529 0008 2A4D     		ldr	r5, .L224+8
 3530              	.LBE728:
 3531              	.LBE727:
 3532              	.LBE733:
 3533              	.LBE736:
  42:effects.h     ****     // Overdrive
 3534              		.loc 16 42 1 view .LVU837
 3535 000a 2DED028B 		vpush.64	{d8}
 3536              		.cfi_def_cfa_offset 24
 3537              		.cfi_offset 80, -24
 3538              		.cfi_offset 81, -20
  42:effects.h     ****     // Overdrive
 3539              		.loc 16 42 1 view .LVU838
 3540 000e B0EE408A 		vmov.f32	s16, s0
  44:effects.h     ****     odTone.Init();
 3541              		.loc 16 44 19 view .LVU839
 3542 0012 FFF7FEFF 		bl	_ZN7daisysp9Overdrive4InitEv
 3543              	.LVL182:
  45:effects.h     ****     overdrive.SetDrive(effectValues[0][0]);
 3544              		.loc 16 45 5 is_stmt 1 view .LVU840
 3545              	.LBB737:
 3546              	.LBI725:
  44:/Users/dominicfrugoli/Desktop/ProgrammingCode/DaisyCode/DaisyExamples/DaisySP/Source/Filters/onepole.h ****     {
 3547              		.loc 12 44 10 view .LVU841
 3548              	.LBB734:
  46:/Users/dominicfrugoli/Desktop/ProgrammingCode/DaisyCode/DaisyExamples/DaisySP/Source/Filters/onepole.h ****         mode_ = FILTER_MODE_LOW_PASS;
 3549              		.loc 12 46 9 view .LVU842
 3550              	.LBB731:
 3551              	.LBI727:
 3552              		.loc 12 51 17 view .LVU843
 3553              	.LBB729:
 3554              		.loc 12 51 27 view .LVU844
 3555              		.loc 12 51 34 is_stmt 0 view .LVU845
 3556 0016 0023     		movs	r3, #0
 3557              	.LBE729:
 3558              	.LBE731:
 3559              	.LBE734:
 3560              	.LBE737:
 3561              		.loc 16 46 23 view .LVU846
 3562 0018 94ED000A 		vldr.32	s0, [r4]
 3563 001c 2348     		ldr	r0, .L224
 3564              	.LBB738:
 3565              	.LBB735:
 3566              	.LBB732:
 3567              	.LBB730:
 3568              		.loc 12 51 34 view .LVU847
 3569 001e AB60     		str	r3, [r5, #8]	@ float
 3570              	.LVL183:
 3571              		.loc 12 51 34 view .LVU848
 3572              	.LBE730:
 3573              	.LBE732:
  47:/Users/dominicfrugoli/Desktop/ProgrammingCode/DaisyCode/DaisyExamples/DaisySP/Source/Filters/onepole.h ****     }
 3574              		.loc 12 47 9 is_stmt 1 view .LVU849
  47:/Users/dominicfrugoli/Desktop/ProgrammingCode/DaisyCode/DaisyExamples/DaisySP/Source/Filters/onepole.h ****     }
 3575              		.loc 12 47 15 is_stmt 0 view .LVU850
 3576 0020 2E73     		strb	r6, [r5, #12]
ARM GAS  /var/folders/m5/x8wc2gdj7z5cpgcqdsb_gkj40000gn/T//ccGxviRN.s 			page 99


 3577              	.LVL184:
  47:/Users/dominicfrugoli/Desktop/ProgrammingCode/DaisyCode/DaisyExamples/DaisySP/Source/Filters/onepole.h ****     }
 3578              		.loc 12 47 15 view .LVU851
 3579              	.LBE735:
 3580              	.LBE738:
 3581              		.loc 16 46 5 is_stmt 1 view .LVU852
 3582              		.loc 16 46 23 is_stmt 0 view .LVU853
 3583 0022 FFF7FEFF 		bl	_ZN7daisysp9Overdrive8SetDriveEf
 3584              	.LVL185:
  47:effects.h     ****     odTone.SetFilterMode(OnePole::FILTER_MODE_LOW_PASS);
 3585              		.loc 16 47 5 is_stmt 1 view .LVU854
 3586              	.LBB739:
 3587              	.LBI739:
  52:/Users/dominicfrugoli/Desktop/ProgrammingCode/DaisyCode/DaisyExamples/DaisySP/Source/Filters/onepole.h **** 
  53:/Users/dominicfrugoli/Desktop/ProgrammingCode/DaisyCode/DaisyExamples/DaisySP/Source/Filters/onepole.h ****     /** Set the filter cutoff frequency
  54:/Users/dominicfrugoli/Desktop/ProgrammingCode/DaisyCode/DaisyExamples/DaisySP/Source/Filters/onepole.h ****     *   \param freq Cutoff frequency. Valid range from 0 to .497f
  55:/Users/dominicfrugoli/Desktop/ProgrammingCode/DaisyCode/DaisyExamples/DaisySP/Source/Filters/onepole.h ****     */
  56:/Users/dominicfrugoli/Desktop/ProgrammingCode/DaisyCode/DaisyExamples/DaisySP/Source/Filters/onepole.h ****     inline void SetFrequency(float freq)
  57:/Users/dominicfrugoli/Desktop/ProgrammingCode/DaisyCode/DaisyExamples/DaisySP/Source/Filters/onepole.h ****     {
  58:/Users/dominicfrugoli/Desktop/ProgrammingCode/DaisyCode/DaisyExamples/DaisySP/Source/Filters/onepole.h ****         // Clip coefficient to about 100.
  59:/Users/dominicfrugoli/Desktop/ProgrammingCode/DaisyCode/DaisyExamples/DaisySP/Source/Filters/onepole.h ****         freq = freq < 0.497f ? freq : 0.497f;
  60:/Users/dominicfrugoli/Desktop/ProgrammingCode/DaisyCode/DaisyExamples/DaisySP/Source/Filters/onepole.h **** 
  61:/Users/dominicfrugoli/Desktop/ProgrammingCode/DaisyCode/DaisyExamples/DaisySP/Source/Filters/onepole.h ****         g_  = tanf(PI_F * freq);
  62:/Users/dominicfrugoli/Desktop/ProgrammingCode/DaisyCode/DaisyExamples/DaisySP/Source/Filters/onepole.h ****         gi_ = 1.f / (1.f + g_);
  63:/Users/dominicfrugoli/Desktop/ProgrammingCode/DaisyCode/DaisyExamples/DaisySP/Source/Filters/onepole.h ****     }
  64:/Users/dominicfrugoli/Desktop/ProgrammingCode/DaisyCode/DaisyExamples/DaisySP/Source/Filters/onepole.h **** 
  65:/Users/dominicfrugoli/Desktop/ProgrammingCode/DaisyCode/DaisyExamples/DaisySP/Source/Filters/onepole.h ****     /** Set the filter mode
  66:/Users/dominicfrugoli/Desktop/ProgrammingCode/DaisyCode/DaisyExamples/DaisySP/Source/Filters/onepole.h ****     *   \param mode Filter mode. Can be lowpass or highpass
  67:/Users/dominicfrugoli/Desktop/ProgrammingCode/DaisyCode/DaisyExamples/DaisySP/Source/Filters/onepole.h ****     */
  68:/Users/dominicfrugoli/Desktop/ProgrammingCode/DaisyCode/DaisyExamples/DaisySP/Source/Filters/onepole.h ****     inline void SetFilterMode(FilterMode mode) { mode_ = mode; }
 3588              		.loc 12 68 17 view .LVU855
 3589              	.LBB740:
 3590              		.loc 12 68 50 view .LVU856
 3591              	.LBE740:
 3592              	.LBE739:
  48:effects.h     ****     odTone.SetFrequency(effectValues[0][1]);
 3593              		.loc 16 48 24 is_stmt 0 view .LVU857
 3594 0026 D4ED017A 		vldr.32	s15, [r4, #4]
 3595              	.LBB742:
 3596              	.LBB743:
  59:/Users/dominicfrugoli/Desktop/ProgrammingCode/DaisyCode/DaisyExamples/DaisySP/Source/Filters/onepole.h **** 
 3597              		.loc 12 59 30 view .LVU858
 3598 002a 9FED237A 		vldr.32	s14, .L224+12
 3599              	.LBE743:
 3600              	.LBE742:
 3601              	.LBB747:
 3602              	.LBB741:
 3603              		.loc 12 68 56 view .LVU859
 3604 002e 2E73     		strb	r6, [r5, #12]
 3605              	.LVL186:
 3606              		.loc 12 68 56 view .LVU860
 3607              	.LBE741:
 3608              	.LBE747:
 3609              		.loc 16 48 5 is_stmt 1 view .LVU861
 3610              	.LBB748:
 3611              	.LBI742:
  56:/Users/dominicfrugoli/Desktop/ProgrammingCode/DaisyCode/DaisyExamples/DaisySP/Source/Filters/onepole.h ****     {
ARM GAS  /var/folders/m5/x8wc2gdj7z5cpgcqdsb_gkj40000gn/T//ccGxviRN.s 			page 100


 3612              		.loc 12 56 17 view .LVU862
 3613              	.LBB744:
  59:/Users/dominicfrugoli/Desktop/ProgrammingCode/DaisyCode/DaisyExamples/DaisySP/Source/Filters/onepole.h **** 
 3614              		.loc 12 59 9 view .LVU863
  59:/Users/dominicfrugoli/Desktop/ProgrammingCode/DaisyCode/DaisyExamples/DaisySP/Source/Filters/onepole.h **** 
 3615              		.loc 12 59 30 is_stmt 0 view .LVU864
 3616 0030 F4EEC77A 		vcmpe.f32	s15, s14
 3617 0034 F1EE10FA 		vmrs	APSR_nzcv, FPSCR
 3618 0038 33D5     		bpl	.L222
  61:/Users/dominicfrugoli/Desktop/ProgrammingCode/DaisyCode/DaisyExamples/DaisySP/Source/Filters/onepole.h ****         gi_ = 1.f / (1.f + g_);
 3619              		.loc 12 61 19 view .LVU865
 3620 003a 9FED200A 		vldr.32	s0, .L224+16
 3621 003e 27EE800A 		vmul.f32	s0, s15, s0
 3622 0042 FFF7FEFF 		bl	tanf
 3623              	.LVL187:
  62:/Users/dominicfrugoli/Desktop/ProgrammingCode/DaisyCode/DaisyExamples/DaisySP/Source/Filters/onepole.h ****     }
 3624              		.loc 12 62 26 view .LVU866
 3625 0046 F7EE006A 		vmov.f32	s13, #1.0e+0
  61:/Users/dominicfrugoli/Desktop/ProgrammingCode/DaisyCode/DaisyExamples/DaisySP/Source/Filters/onepole.h ****         gi_ = 1.f / (1.f + g_);
 3626              		.loc 12 61 19 view .LVU867
 3627 004a F0EE407A 		vmov.f32	s15, s0
  62:/Users/dominicfrugoli/Desktop/ProgrammingCode/DaisyCode/DaisyExamples/DaisySP/Source/Filters/onepole.h ****     }
 3628              		.loc 12 62 26 view .LVU868
 3629 004e 30EE266A 		vadd.f32	s12, s0, s13
  62:/Users/dominicfrugoli/Desktop/ProgrammingCode/DaisyCode/DaisyExamples/DaisySP/Source/Filters/onepole.h ****     }
 3630              		.loc 12 62 19 view .LVU869
 3631 0052 86EE867A 		vdiv.f32	s14, s13, s12
 3632              	.L218:
  61:/Users/dominicfrugoli/Desktop/ProgrammingCode/DaisyCode/DaisyExamples/DaisySP/Source/Filters/onepole.h ****         gi_ = 1.f / (1.f + g_);
 3633              		.loc 12 61 9 is_stmt 1 view .LVU870
 3634              	.LBE744:
 3635              	.LBE748:
  49:effects.h     ****     // Chorus
  50:effects.h     ****     chorus.Init(samplerate);
 3636              		.loc 16 50 16 is_stmt 0 view .LVU871
 3637 0056 1A48     		ldr	r0, .L224+20
 3638              	.LBB749:
 3639              	.LBB745:
  61:/Users/dominicfrugoli/Desktop/ProgrammingCode/DaisyCode/DaisyExamples/DaisySP/Source/Filters/onepole.h ****         gi_ = 1.f / (1.f + g_);
 3640              		.loc 12 61 13 view .LVU872
 3641 0058 C5ED007A 		vstr.32	s15, [r5]
  62:/Users/dominicfrugoli/Desktop/ProgrammingCode/DaisyCode/DaisyExamples/DaisySP/Source/Filters/onepole.h ****     }
 3642              		.loc 12 62 9 is_stmt 1 view .LVU873
  62:/Users/dominicfrugoli/Desktop/ProgrammingCode/DaisyCode/DaisyExamples/DaisySP/Source/Filters/onepole.h ****     }
 3643              		.loc 12 62 13 is_stmt 0 view .LVU874
 3644 005c 85ED017A 		vstr.32	s14, [r5, #4]
 3645              	.LVL188:
  62:/Users/dominicfrugoli/Desktop/ProgrammingCode/DaisyCode/DaisyExamples/DaisySP/Source/Filters/onepole.h ****     }
 3646              		.loc 12 62 13 view .LVU875
 3647              	.LBE745:
 3648              	.LBE749:
 3649              		.loc 16 50 5 is_stmt 1 view .LVU876
 3650              		.loc 16 50 16 is_stmt 0 view .LVU877
 3651 0060 B0EE480A 		vmov.f32	s0, s16
 3652 0064 FFF7FEFF 		bl	_ZN7daisysp6Chorus4InitEf
 3653              	.LVL189:
  51:effects.h     ****     chorus.SetLfoDepth(effectValues[1][0]);
ARM GAS  /var/folders/m5/x8wc2gdj7z5cpgcqdsb_gkj40000gn/T//ccGxviRN.s 			page 101


 3654              		.loc 16 51 5 is_stmt 1 view .LVU878
 3655              		.loc 16 51 23 is_stmt 0 view .LVU879
 3656 0068 94ED020A 		vldr.32	s0, [r4, #8]
 3657 006c 1448     		ldr	r0, .L224+20
 3658 006e FFF7FEFF 		bl	_ZN7daisysp6Chorus11SetLfoDepthEf
 3659              	.LVL190:
  52:effects.h     ****     chorus.SetLfoFreq(effectValues[1][1]);
 3660              		.loc 16 52 5 is_stmt 1 view .LVU880
 3661              		.loc 16 52 22 is_stmt 0 view .LVU881
 3662 0072 94ED030A 		vldr.32	s0, [r4, #12]
 3663 0076 1248     		ldr	r0, .L224+20
 3664 0078 FFF7FEFF 		bl	_ZN7daisysp6Chorus10SetLfoFreqEf
 3665              	.LVL191:
  53:effects.h     ****     // LoPass
  54:effects.h     ****     lopass.Init(samplerate);
 3666              		.loc 16 54 5 is_stmt 1 view .LVU882
 3667              		.loc 16 54 16 is_stmt 0 view .LVU883
 3668 007c B0EE480A 		vmov.f32	s0, s16
 3669 0080 1048     		ldr	r0, .L224+24
 3670 0082 FFF7FEFF 		bl	_ZN7daisysp3Svf4InitEf
 3671              	.LVL192:
  55:effects.h     ****     lopass.SetFreq(effectValues[2][0]);
 3672              		.loc 16 55 5 is_stmt 1 view .LVU884
 3673              		.loc 16 55 19 is_stmt 0 view .LVU885
 3674 0086 94ED040A 		vldr.32	s0, [r4, #16]
 3675 008a 0E48     		ldr	r0, .L224+24
 3676 008c FFF7FEFF 		bl	_ZN7daisysp3Svf7SetFreqEf
 3677              	.LVL193:
  56:effects.h     ****     lopass.SetRes(effectValues[2][1]);
 3678              		.loc 16 56 5 is_stmt 1 view .LVU886
 3679              		.loc 16 56 18 is_stmt 0 view .LVU887
 3680 0090 94ED050A 		vldr.32	s0, [r4, #20]
 3681 0094 0B48     		ldr	r0, .L224+24
  57:effects.h     **** }
 3682              		.loc 16 57 1 view .LVU888
 3683 0096 BDEC028B 		vldm	sp!, {d8}
 3684              		.cfi_remember_state
 3685              		.cfi_restore 80
 3686              		.cfi_restore 81
 3687              		.cfi_def_cfa_offset 16
 3688              	.LVL194:
 3689              		.loc 16 57 1 view .LVU889
 3690 009a BDE87040 		pop	{r4, r5, r6, lr}
 3691              		.cfi_restore 14
 3692              		.cfi_restore 6
 3693              		.cfi_restore 5
 3694              		.cfi_restore 4
 3695              		.cfi_def_cfa_offset 0
  56:effects.h     ****     lopass.SetRes(effectValues[2][1]);
 3696              		.loc 16 56 18 view .LVU890
 3697 009e FFF7FEBF 		b	_ZN7daisysp3Svf6SetResEf
 3698              	.LVL195:
 3699              	.L222:
 3700              		.cfi_restore_state
 3701              	.LBB750:
 3702              	.LBB746:
  56:effects.h     ****     lopass.SetRes(effectValues[2][1]);
ARM GAS  /var/folders/m5/x8wc2gdj7z5cpgcqdsb_gkj40000gn/T//ccGxviRN.s 			page 102


 3703              		.loc 16 56 18 view .LVU891
 3704 00a2 9FED097A 		vldr.32	s14, .L224+28
 3705 00a6 DFED097A 		vldr.32	s15, .L224+32
 3706              	.LVL196:
  56:effects.h     ****     lopass.SetRes(effectValues[2][1]);
 3707              		.loc 16 56 18 view .LVU892
 3708 00aa D4E7     		b	.L218
 3709              	.L225:
 3710              		.align	2
 3711              	.L224:
 3712 00ac 00000000 		.word	.LANCHOR30
 3713 00b0 00000000 		.word	.LANCHOR32
 3714 00b4 00000000 		.word	.LANCHOR31
 3715 00b8 C976FE3E 		.word	1056863945
 3716 00bc DB0F4940 		.word	1078530011
 3717 00c0 00000000 		.word	chorus
 3718 00c4 00000000 		.word	.LANCHOR33
 3719 00c8 61FA183C 		.word	1008269921
 3720 00cc 5F33D442 		.word	1121203039
 3721              	.LBE746:
 3722              	.LBE750:
 3723              		.cfi_endproc
 3724              	.LFE4706:
 3726              		.section	.text._Z14ProcessEffectsf,"ax",%progbits
 3727              		.align	1
 3728              		.p2align 2,,3
 3729              		.global	_Z14ProcessEffectsf
 3730              		.syntax unified
 3731              		.thumb
 3732              		.thumb_func
 3734              	_Z14ProcessEffectsf:
 3735              	.LVL197:
 3736              	.LFB4707:
  58:effects.h     **** 
  59:effects.h     **** float ProcessEffects(float sample)
  60:effects.h     **** {
 3737              		.loc 16 60 1 is_stmt 1 view -0
 3738              		.cfi_startproc
 3739              		@ args = 0, pretend = 0, frame = 0
 3740              		@ frame_needed = 0, uses_anonymous_args = 0
  61:effects.h     ****     float output = sample;
 3741              		.loc 16 61 5 view .LVU894
  60:effects.h     ****     float output = sample;
 3742              		.loc 16 60 1 is_stmt 0 view .LVU895
 3743 0000 10B5     		push	{r4, lr}
 3744              		.cfi_def_cfa_offset 8
 3745              		.cfi_offset 4, -8
 3746              		.cfi_offset 14, -4
  62:effects.h     **** 
  63:effects.h     ****     if(effectStates[0]) // Overdrive
 3747              		.loc 16 63 22 view .LVU896
 3748 0002 264C     		ldr	r4, .L247
  60:effects.h     ****     float output = sample;
 3749              		.loc 16 60 1 view .LVU897
 3750 0004 F0EE407A 		vmov.f32	s15, s0
 3751              	.LVL198:
 3752              		.loc 16 63 5 is_stmt 1 view .LVU898
ARM GAS  /var/folders/m5/x8wc2gdj7z5cpgcqdsb_gkj40000gn/T//ccGxviRN.s 			page 103


 3753 0008 2378     		ldrb	r3, [r4]	@ zero_extendqisi2
 3754 000a 3BB9     		cbnz	r3, .L244
 3755              	.LVL199:
 3756              	.L227:
  64:effects.h     ****     {
  65:effects.h     ****         output = overdrive.Process(output) * (1.1f - effectValues[0][0]);
  66:effects.h     ****         output = odTone.Process(output);
  67:effects.h     ****     }
  68:effects.h     ****     if (effectStates[1]) // Chorus
 3757              		.loc 16 68 5 view .LVU899
 3758 000c 6378     		ldrb	r3, [r4, #1]	@ zero_extendqisi2
 3759 000e 7BBB     		cbnz	r3, .L245
 3760              	.L228:
  69:effects.h     ****     {
  70:effects.h     ****         output = chorus.Process(output) * 2.0f;
  71:effects.h     ****     }
  72:effects.h     ****     if(effectStates[2]) // LoPass
 3761              		.loc 16 72 5 view .LVU900
 3762 0010 A378     		ldrb	r3, [r4, #2]	@ zero_extendqisi2
 3763 0012 002B     		cmp	r3, #0
 3764 0014 36D1     		bne	.L246
 3765              	.L229:
  73:effects.h     ****     {
  74:effects.h     ****         lopass.Process(output);
  75:effects.h     ****         output = lopass.Low();
  76:effects.h     ****     }   
  77:effects.h     **** 
  78:effects.h     ****     return output;
 3766              		.loc 16 78 5 view .LVU901
  79:effects.h     **** }
 3767              		.loc 16 79 1 is_stmt 0 view .LVU902
 3768 0016 B0EE670A 		vmov.f32	s0, s15
 3769 001a 10BD     		pop	{r4, pc}
 3770              	.LVL200:
 3771              	.L244:
  65:effects.h     ****         output = odTone.Process(output);
 3772              		.loc 16 65 9 is_stmt 1 view .LVU903
  65:effects.h     ****         output = odTone.Process(output);
 3773              		.loc 16 65 35 is_stmt 0 view .LVU904
 3774 001c 2048     		ldr	r0, .L247+4
 3775 001e FFF7FEFF 		bl	_ZN7daisysp9Overdrive7ProcessEf
 3776              	.LVL201:
  65:effects.h     ****         output = odTone.Process(output);
 3777              		.loc 16 65 71 view .LVU905
 3778 0022 204A     		ldr	r2, .L247+8
  65:effects.h     ****         output = odTone.Process(output);
 3779              		.loc 16 65 52 view .LVU906
 3780 0024 9FED207A 		vldr.32	s14, .L247+12
 3781 0028 92ED006A 		vldr.32	s12, [r2]
 3782              	.LBB755:
 3783              	.LBB756:
  69:/Users/dominicfrugoli/Desktop/ProgrammingCode/DaisyCode/DaisyExamples/DaisySP/Source/Filters/onepole.h **** 
  70:/Users/dominicfrugoli/Desktop/ProgrammingCode/DaisyCode/DaisyExamples/DaisySP/Source/Filters/onepole.h ****     /** Process audio through the filter
  71:/Users/dominicfrugoli/Desktop/ProgrammingCode/DaisyCode/DaisyExamples/DaisySP/Source/Filters/onepole.h ****     *   \param in The next sample to be processed
  72:/Users/dominicfrugoli/Desktop/ProgrammingCode/DaisyCode/DaisyExamples/DaisySP/Source/Filters/onepole.h ****     */
  73:/Users/dominicfrugoli/Desktop/ProgrammingCode/DaisyCode/DaisyExamples/DaisySP/Source/Filters/onepole.h ****     inline float Process(float in)
  74:/Users/dominicfrugoli/Desktop/ProgrammingCode/DaisyCode/DaisyExamples/DaisySP/Source/Filters/onepole.h ****     {
ARM GAS  /var/folders/m5/x8wc2gdj7z5cpgcqdsb_gkj40000gn/T//ccGxviRN.s 			page 104


  75:/Users/dominicfrugoli/Desktop/ProgrammingCode/DaisyCode/DaisyExamples/DaisySP/Source/Filters/onepole.h ****         float lp;
  76:/Users/dominicfrugoli/Desktop/ProgrammingCode/DaisyCode/DaisyExamples/DaisySP/Source/Filters/onepole.h ****         lp     = (g_ * in + state_) * gi_;
 3784              		.loc 12 76 19 view .LVU907
 3785 002c 1F4B     		ldr	r3, .L247+16
 3786              	.LBE756:
 3787              	.LBE755:
  65:effects.h     ****         output = odTone.Process(output);
 3788              		.loc 16 65 52 view .LVU908
 3789 002e 37EE467A 		vsub.f32	s14, s14, s12
 3790              	.LBB760:
 3791              	.LBB757:
 3792              		.loc 12 76 19 view .LVU909
 3793 0032 D3ED006A 		vldr.32	s13, [r3]
 3794              		.loc 12 76 27 view .LVU910
 3795 0036 D3ED027A 		vldr.32	s15, [r3, #8]
 3796              	.LBE757:
 3797              	.LBE760:
  65:effects.h     ****         output = odTone.Process(output);
 3798              		.loc 16 65 16 view .LVU911
 3799 003a 27EE000A 		vmul.f32	s0, s14, s0
 3800              	.LVL202:
  66:effects.h     ****     }
 3801              		.loc 16 66 9 is_stmt 1 view .LVU912
 3802              	.LBB761:
 3803              	.LBI755:
  73:/Users/dominicfrugoli/Desktop/ProgrammingCode/DaisyCode/DaisyExamples/DaisySP/Source/Filters/onepole.h ****     {
 3804              		.loc 12 73 18 view .LVU913
 3805              	.LBB758:
  75:/Users/dominicfrugoli/Desktop/ProgrammingCode/DaisyCode/DaisyExamples/DaisySP/Source/Filters/onepole.h ****         lp     = (g_ * in + state_) * gi_;
 3806              		.loc 12 75 9 view .LVU914
 3807              		.loc 12 76 9 view .LVU915
 3808              		.loc 12 76 16 is_stmt 0 view .LVU916
 3809 003e 93ED016A 		vldr.32	s12, [r3, #4]
  77:/Users/dominicfrugoli/Desktop/ProgrammingCode/DaisyCode/DaisyExamples/DaisySP/Source/Filters/onepole.h ****         state_ = g_ * (in - lp) + lp;
  78:/Users/dominicfrugoli/Desktop/ProgrammingCode/DaisyCode/DaisyExamples/DaisySP/Source/Filters/onepole.h **** 
  79:/Users/dominicfrugoli/Desktop/ProgrammingCode/DaisyCode/DaisyExamples/DaisySP/Source/Filters/onepole.h ****         switch(mode_)
 3810              		.loc 12 79 16 view .LVU917
 3811 0042 1A7B     		ldrb	r2, [r3, #12]	@ zero_extendqisi2
  76:/Users/dominicfrugoli/Desktop/ProgrammingCode/DaisyCode/DaisyExamples/DaisySP/Source/Filters/onepole.h ****         state_ = g_ * (in - lp) + lp;
 3812              		.loc 12 76 27 view .LVU918
 3813 0044 E0EE267A 		vfma.f32	s15, s0, s13
  76:/Users/dominicfrugoli/Desktop/ProgrammingCode/DaisyCode/DaisyExamples/DaisySP/Source/Filters/onepole.h ****         state_ = g_ * (in - lp) + lp;
 3814              		.loc 12 76 16 view .LVU919
 3815 0048 67EE867A 		vmul.f32	s15, s15, s12
 3816              	.LVL203:
  77:/Users/dominicfrugoli/Desktop/ProgrammingCode/DaisyCode/DaisyExamples/DaisySP/Source/Filters/onepole.h ****         state_ = g_ * (in - lp) + lp;
 3817              		.loc 12 77 9 is_stmt 1 view .LVU920
  77:/Users/dominicfrugoli/Desktop/ProgrammingCode/DaisyCode/DaisyExamples/DaisySP/Source/Filters/onepole.h ****         state_ = g_ * (in - lp) + lp;
 3818              		.loc 12 77 27 is_stmt 0 view .LVU921
 3819 004c 30EE670A 		vsub.f32	s0, s0, s15
 3820              	.LVL204:
  77:/Users/dominicfrugoli/Desktop/ProgrammingCode/DaisyCode/DaisyExamples/DaisySP/Source/Filters/onepole.h ****         state_ = g_ * (in - lp) + lp;
 3821              		.loc 12 77 33 view .LVU922
 3822 0050 B0EE677A 		vmov.f32	s14, s15
  77:/Users/dominicfrugoli/Desktop/ProgrammingCode/DaisyCode/DaisyExamples/DaisySP/Source/Filters/onepole.h ****         state_ = g_ * (in - lp) + lp;
 3823              		.loc 12 77 33 view .LVU923
 3824 0054 A6EE807A 		vfma.f32	s14, s13, s0
ARM GAS  /var/folders/m5/x8wc2gdj7z5cpgcqdsb_gkj40000gn/T//ccGxviRN.s 			page 105


  77:/Users/dominicfrugoli/Desktop/ProgrammingCode/DaisyCode/DaisyExamples/DaisySP/Source/Filters/onepole.h ****         state_ = g_ * (in - lp) + lp;
 3825              		.loc 12 77 16 view .LVU924
 3826 0058 83ED027A 		vstr.32	s14, [r3, #8]
 3827              		.loc 12 79 9 is_stmt 1 view .LVU925
 3828 005c 002A     		cmp	r2, #0
 3829 005e D5D0     		beq	.L227
 3830 0060 DFED137A 		vldr.32	s15, .L247+20
 3831              	.LVL205:
 3832              		.loc 12 79 9 is_stmt 0 view .LVU926
 3833 0064 012A     		cmp	r2, #1
 3834              	.LBE758:
 3835              	.LBE761:
  68:effects.h     ****     {
 3836              		.loc 16 68 5 view .LVU927
 3837 0066 6378     		ldrb	r3, [r4, #1]	@ zero_extendqisi2
 3838              	.LBB762:
 3839              	.LBB759:
 3840              		.loc 12 79 9 view .LVU928
 3841 0068 40FE277A 		vseleq.f32	s15, s0, s15
 3842              	.LVL206:
 3843              		.loc 12 79 9 view .LVU929
 3844              	.LBE759:
 3845              	.LBE762:
  68:effects.h     ****     {
 3846              		.loc 16 68 5 is_stmt 1 view .LVU930
 3847 006c 002B     		cmp	r3, #0
 3848 006e CFD0     		beq	.L228
 3849              	.L245:
  70:effects.h     ****     }
 3850              		.loc 16 70 9 view .LVU931
  70:effects.h     ****     }
 3851              		.loc 16 70 32 is_stmt 0 view .LVU932
 3852 0070 B0EE670A 		vmov.f32	s0, s15
 3853 0074 0F48     		ldr	r0, .L247+24
 3854 0076 FFF7FEFF 		bl	_ZN7daisysp6Chorus7ProcessEf
 3855              	.LVL207:
  72:effects.h     ****     {
 3856              		.loc 16 72 5 view .LVU933
 3857 007a A378     		ldrb	r3, [r4, #2]	@ zero_extendqisi2
  70:effects.h     ****     }
 3858              		.loc 16 70 16 view .LVU934
 3859 007c 70EE007A 		vadd.f32	s15, s0, s0
 3860              	.LVL208:
  72:effects.h     ****     {
 3861              		.loc 16 72 5 is_stmt 1 view .LVU935
 3862 0080 002B     		cmp	r3, #0
 3863 0082 C8D0     		beq	.L229
 3864              	.L246:
  74:effects.h     ****         output = lopass.Low();
 3865              		.loc 16 74 9 view .LVU936
  74:effects.h     ****         output = lopass.Low();
 3866              		.loc 16 74 23 is_stmt 0 view .LVU937
 3867 0084 0C4C     		ldr	r4, .L247+28
 3868 0086 B0EE670A 		vmov.f32	s0, s15
 3869 008a 2046     		mov	r0, r4
 3870 008c FFF7FEFF 		bl	_ZN7daisysp3Svf7ProcessEf
 3871              	.LVL209:
ARM GAS  /var/folders/m5/x8wc2gdj7z5cpgcqdsb_gkj40000gn/T//ccGxviRN.s 			page 106


  75:effects.h     ****     }   
 3872              		.loc 16 75 9 is_stmt 1 view .LVU938
 3873              	.LBB763:
 3874              	.LBI763:
  31:/Users/dominicfrugoli/Desktop/ProgrammingCode/DaisyCode/DaisyExamples/DaisySP/Source/Filters/svf.h ****     /** Initializes the filter
  32:/Users/dominicfrugoli/Desktop/ProgrammingCode/DaisyCode/DaisyExamples/DaisySP/Source/Filters/svf.h ****         float sample_rate - sample rate of the audio engine being run, and the frequency that the P
  33:/Users/dominicfrugoli/Desktop/ProgrammingCode/DaisyCode/DaisyExamples/DaisySP/Source/Filters/svf.h ****     */
  34:/Users/dominicfrugoli/Desktop/ProgrammingCode/DaisyCode/DaisyExamples/DaisySP/Source/Filters/svf.h ****     void Init(float sample_rate);
  35:/Users/dominicfrugoli/Desktop/ProgrammingCode/DaisyCode/DaisyExamples/DaisySP/Source/Filters/svf.h **** 
  36:/Users/dominicfrugoli/Desktop/ProgrammingCode/DaisyCode/DaisyExamples/DaisySP/Source/Filters/svf.h **** 
  37:/Users/dominicfrugoli/Desktop/ProgrammingCode/DaisyCode/DaisyExamples/DaisySP/Source/Filters/svf.h ****     /** 
  38:/Users/dominicfrugoli/Desktop/ProgrammingCode/DaisyCode/DaisyExamples/DaisySP/Source/Filters/svf.h ****         Process the input signal, updating all of the outputs.
  39:/Users/dominicfrugoli/Desktop/ProgrammingCode/DaisyCode/DaisyExamples/DaisySP/Source/Filters/svf.h ****     */
  40:/Users/dominicfrugoli/Desktop/ProgrammingCode/DaisyCode/DaisyExamples/DaisySP/Source/Filters/svf.h ****     void Process(float in);
  41:/Users/dominicfrugoli/Desktop/ProgrammingCode/DaisyCode/DaisyExamples/DaisySP/Source/Filters/svf.h **** 
  42:/Users/dominicfrugoli/Desktop/ProgrammingCode/DaisyCode/DaisyExamples/DaisySP/Source/Filters/svf.h **** 
  43:/Users/dominicfrugoli/Desktop/ProgrammingCode/DaisyCode/DaisyExamples/DaisySP/Source/Filters/svf.h ****     /** sets the frequency of the cutoff frequency. 
  44:/Users/dominicfrugoli/Desktop/ProgrammingCode/DaisyCode/DaisyExamples/DaisySP/Source/Filters/svf.h ****         f must be between 0.0 and sample_rate / 3
  45:/Users/dominicfrugoli/Desktop/ProgrammingCode/DaisyCode/DaisyExamples/DaisySP/Source/Filters/svf.h ****     */
  46:/Users/dominicfrugoli/Desktop/ProgrammingCode/DaisyCode/DaisyExamples/DaisySP/Source/Filters/svf.h ****     void SetFreq(float f);
  47:/Users/dominicfrugoli/Desktop/ProgrammingCode/DaisyCode/DaisyExamples/DaisySP/Source/Filters/svf.h **** 
  48:/Users/dominicfrugoli/Desktop/ProgrammingCode/DaisyCode/DaisyExamples/DaisySP/Source/Filters/svf.h ****     /** sets the resonance of the filter.
  49:/Users/dominicfrugoli/Desktop/ProgrammingCode/DaisyCode/DaisyExamples/DaisySP/Source/Filters/svf.h ****         Must be between 0.0 and 1.0 to ensure stability.
  50:/Users/dominicfrugoli/Desktop/ProgrammingCode/DaisyCode/DaisyExamples/DaisySP/Source/Filters/svf.h ****     */
  51:/Users/dominicfrugoli/Desktop/ProgrammingCode/DaisyCode/DaisyExamples/DaisySP/Source/Filters/svf.h ****     void SetRes(float r);
  52:/Users/dominicfrugoli/Desktop/ProgrammingCode/DaisyCode/DaisyExamples/DaisySP/Source/Filters/svf.h **** 
  53:/Users/dominicfrugoli/Desktop/ProgrammingCode/DaisyCode/DaisyExamples/DaisySP/Source/Filters/svf.h ****     /** sets the drive of the filter 
  54:/Users/dominicfrugoli/Desktop/ProgrammingCode/DaisyCode/DaisyExamples/DaisySP/Source/Filters/svf.h ****         affects the response of the resonance of the filter
  55:/Users/dominicfrugoli/Desktop/ProgrammingCode/DaisyCode/DaisyExamples/DaisySP/Source/Filters/svf.h ****     */
  56:/Users/dominicfrugoli/Desktop/ProgrammingCode/DaisyCode/DaisyExamples/DaisySP/Source/Filters/svf.h ****     void SetDrive(float d);
  57:/Users/dominicfrugoli/Desktop/ProgrammingCode/DaisyCode/DaisyExamples/DaisySP/Source/Filters/svf.h ****     /** lowpass output
  58:/Users/dominicfrugoli/Desktop/ProgrammingCode/DaisyCode/DaisyExamples/DaisySP/Source/Filters/svf.h ****         \return low pass output of the filter
  59:/Users/dominicfrugoli/Desktop/ProgrammingCode/DaisyCode/DaisyExamples/DaisySP/Source/Filters/svf.h ****     */
  60:/Users/dominicfrugoli/Desktop/ProgrammingCode/DaisyCode/DaisyExamples/DaisySP/Source/Filters/svf.h ****     inline float Low() { return out_low_; }
 3875              		.loc 9 60 18 view .LVU939
 3876              	.LBB764:
 3877              		.loc 9 60 26 view .LVU940
 3878              		.loc 9 60 33 is_stmt 0 view .LVU941
 3879 0090 D4ED0C7A 		vldr.32	s15, [r4, #48]
 3880              	.LVL210:
 3881              		.loc 9 60 33 view .LVU942
 3882              	.LBE764:
 3883              	.LBE763:
  78:effects.h     **** }
 3884              		.loc 16 78 5 is_stmt 1 view .LVU943
 3885              		.loc 16 79 1 is_stmt 0 view .LVU944
 3886 0094 B0EE670A 		vmov.f32	s0, s15
 3887 0098 10BD     		pop	{r4, pc}
 3888              	.L248:
 3889 009a 00BF     		.align	2
 3890              	.L247:
 3891 009c 00000000 		.word	.LANCHOR34
 3892 00a0 00000000 		.word	.LANCHOR30
 3893 00a4 00000000 		.word	.LANCHOR32
 3894 00a8 CDCC8C3F 		.word	1066192077
 3895 00ac 00000000 		.word	.LANCHOR31
 3896 00b0 00000000 		.word	0
ARM GAS  /var/folders/m5/x8wc2gdj7z5cpgcqdsb_gkj40000gn/T//ccGxviRN.s 			page 107


 3897 00b4 00000000 		.word	chorus
 3898 00b8 00000000 		.word	.LANCHOR33
 3899              		.cfi_endproc
 3900              	.LFE4707:
 3902              		.section	.text._Z23ProcessEffectParametersv,"ax",%progbits
 3903              		.align	1
 3904              		.p2align 2,,3
 3905              		.global	_Z23ProcessEffectParametersv
 3906              		.syntax unified
 3907              		.thumb
 3908              		.thumb_func
 3910              	_Z23ProcessEffectParametersv:
 3911              	.LFB4708:
  80:effects.h     **** 
  81:effects.h     **** void ProcessEffectParameters()
  82:effects.h     **** {
 3912              		.loc 16 82 1 is_stmt 1 view -0
 3913              		.cfi_startproc
 3914              		@ args = 0, pretend = 0, frame = 0
 3915              		@ frame_needed = 0, uses_anonymous_args = 0
  83:effects.h     ****     if(currentEffect == 0)
 3916              		.loc 16 83 5 view .LVU946
 3917              		.loc 16 83 22 is_stmt 0 view .LVU947
 3918 0000 244B     		ldr	r3, .L263
 3919 0002 1B68     		ldr	r3, [r3]
  82:effects.h     ****     if(currentEffect == 0)
 3920              		.loc 16 82 1 view .LVU948
 3921 0004 10B5     		push	{r4, lr}
 3922              		.cfi_def_cfa_offset 8
 3923              		.cfi_offset 4, -8
 3924              		.cfi_offset 14, -4
 3925              		.loc 16 83 5 view .LVU949
 3926 0006 23B1     		cbz	r3, .L259
  84:effects.h     ****     {
  85:effects.h     ****         overdrive.SetDrive(effectValues[0][0]);
  86:effects.h     ****         odTone.SetFrequency(effectValues[0][1]);
  87:effects.h     ****     }
  88:effects.h     ****     else if(currentEffect == 1)
 3927              		.loc 16 88 10 is_stmt 1 view .LVU950
 3928 0008 012B     		cmp	r3, #1
 3929 000a 35D0     		beq	.L260
  89:effects.h     ****     {
  90:effects.h     ****         chorus.SetLfoDepth(effectValues[1][0]);
  91:effects.h     ****         chorus.SetLfoFreq(effectValues[1][1]);
  92:effects.h     ****     }
  93:effects.h     ****     else if(currentEffect == 2)
 3930              		.loc 16 93 10 view .LVU951
 3931 000c 022B     		cmp	r3, #2
 3932 000e 26D0     		beq	.L261
  94:effects.h     ****     {
  95:effects.h     ****         lopass.SetFreq(effectValues[2][0]);
  96:effects.h     ****         lopass.SetRes(effectValues[2][1]);
  97:effects.h     ****     }
  98:effects.h     **** }
 3933              		.loc 16 98 1 is_stmt 0 view .LVU952
 3934 0010 10BD     		pop	{r4, pc}
 3935              	.L259:
ARM GAS  /var/folders/m5/x8wc2gdj7z5cpgcqdsb_gkj40000gn/T//ccGxviRN.s 			page 108


  85:effects.h     ****         odTone.SetFrequency(effectValues[0][1]);
 3936              		.loc 16 85 9 is_stmt 1 view .LVU953
  85:effects.h     ****         odTone.SetFrequency(effectValues[0][1]);
 3937              		.loc 16 85 27 is_stmt 0 view .LVU954
 3938 0012 214C     		ldr	r4, .L263+4
 3939 0014 2148     		ldr	r0, .L263+8
 3940 0016 94ED000A 		vldr.32	s0, [r4]
 3941 001a FFF7FEFF 		bl	_ZN7daisysp9Overdrive8SetDriveEf
 3942              	.LVL211:
  86:effects.h     ****     }
 3943              		.loc 16 86 9 is_stmt 1 view .LVU955
  86:effects.h     ****     }
 3944              		.loc 16 86 28 is_stmt 0 view .LVU956
 3945 001e D4ED017A 		vldr.32	s15, [r4, #4]
 3946              	.LVL212:
 3947              	.LBB767:
 3948              	.LBI767:
  56:/Users/dominicfrugoli/Desktop/ProgrammingCode/DaisyCode/DaisyExamples/DaisySP/Source/Filters/onepole.h ****     {
 3949              		.loc 12 56 17 is_stmt 1 view .LVU957
 3950              	.LBB768:
  59:/Users/dominicfrugoli/Desktop/ProgrammingCode/DaisyCode/DaisyExamples/DaisySP/Source/Filters/onepole.h **** 
 3951              		.loc 12 59 9 view .LVU958
  59:/Users/dominicfrugoli/Desktop/ProgrammingCode/DaisyCode/DaisyExamples/DaisySP/Source/Filters/onepole.h **** 
 3952              		.loc 12 59 30 is_stmt 0 view .LVU959
 3953 0022 9FED1F7A 		vldr.32	s14, .L263+12
 3954 0026 F4EEC77A 		vcmpe.f32	s15, s14
 3955 002a F1EE10FA 		vmrs	APSR_nzcv, FPSCR
 3956 002e 09D4     		bmi	.L262
 3957 0030 DFED1C7A 		vldr.32	s15, .L263+16
 3958              	.LVL213:
  59:/Users/dominicfrugoli/Desktop/ProgrammingCode/DaisyCode/DaisyExamples/DaisySP/Source/Filters/onepole.h **** 
 3959              		.loc 12 59 30 view .LVU960
 3960 0034 9FED1C0A 		vldr.32	s0, .L263+20
 3961              	.LVL214:
 3962              	.L251:
  61:/Users/dominicfrugoli/Desktop/ProgrammingCode/DaisyCode/DaisyExamples/DaisySP/Source/Filters/onepole.h ****         gi_ = 1.f / (1.f + g_);
 3963              		.loc 12 61 9 is_stmt 1 view .LVU961
  61:/Users/dominicfrugoli/Desktop/ProgrammingCode/DaisyCode/DaisyExamples/DaisySP/Source/Filters/onepole.h ****         gi_ = 1.f / (1.f + g_);
 3964              		.loc 12 61 13 is_stmt 0 view .LVU962
 3965 0038 1C4B     		ldr	r3, .L263+24
 3966 003a 83ED000A 		vstr.32	s0, [r3]
  62:/Users/dominicfrugoli/Desktop/ProgrammingCode/DaisyCode/DaisyExamples/DaisySP/Source/Filters/onepole.h ****     }
 3967              		.loc 12 62 9 is_stmt 1 view .LVU963
  62:/Users/dominicfrugoli/Desktop/ProgrammingCode/DaisyCode/DaisyExamples/DaisySP/Source/Filters/onepole.h ****     }
 3968              		.loc 12 62 13 is_stmt 0 view .LVU964
 3969 003e C3ED017A 		vstr.32	s15, [r3, #4]
 3970              	.LBE768:
 3971              	.LBE767:
 3972              		.loc 16 98 1 view .LVU965
 3973 0042 10BD     		pop	{r4, pc}
 3974              	.LVL215:
 3975              	.L262:
 3976              	.LBB770:
 3977              	.LBB769:
  61:/Users/dominicfrugoli/Desktop/ProgrammingCode/DaisyCode/DaisyExamples/DaisySP/Source/Filters/onepole.h ****         gi_ = 1.f / (1.f + g_);
 3978              		.loc 12 61 19 view .LVU966
 3979 0044 9FED1A0A 		vldr.32	s0, .L263+28
ARM GAS  /var/folders/m5/x8wc2gdj7z5cpgcqdsb_gkj40000gn/T//ccGxviRN.s 			page 109


 3980 0048 27EE800A 		vmul.f32	s0, s15, s0
 3981 004c FFF7FEFF 		bl	tanf
 3982              	.LVL216:
  62:/Users/dominicfrugoli/Desktop/ProgrammingCode/DaisyCode/DaisyExamples/DaisySP/Source/Filters/onepole.h ****     }
 3983              		.loc 12 62 26 view .LVU967
 3984 0050 B7EE007A 		vmov.f32	s14, #1.0e+0
 3985 0054 70EE076A 		vadd.f32	s13, s0, s14
  62:/Users/dominicfrugoli/Desktop/ProgrammingCode/DaisyCode/DaisyExamples/DaisySP/Source/Filters/onepole.h ****     }
 3986              		.loc 12 62 19 view .LVU968
 3987 0058 C7EE267A 		vdiv.f32	s15, s14, s13
 3988 005c ECE7     		b	.L251
 3989              	.LVL217:
 3990              	.L261:
  62:/Users/dominicfrugoli/Desktop/ProgrammingCode/DaisyCode/DaisyExamples/DaisySP/Source/Filters/onepole.h ****     }
 3991              		.loc 12 62 19 view .LVU969
 3992              	.LBE769:
 3993              	.LBE770:
  95:effects.h     ****         lopass.SetRes(effectValues[2][1]);
 3994              		.loc 16 95 9 is_stmt 1 view .LVU970
  95:effects.h     ****         lopass.SetRes(effectValues[2][1]);
 3995              		.loc 16 95 23 is_stmt 0 view .LVU971
 3996 005e 0E4C     		ldr	r4, .L263+4
 3997 0060 1448     		ldr	r0, .L263+32
 3998 0062 94ED040A 		vldr.32	s0, [r4, #16]
 3999 0066 FFF7FEFF 		bl	_ZN7daisysp3Svf7SetFreqEf
 4000              	.LVL218:
  96:effects.h     ****     }
 4001              		.loc 16 96 9 is_stmt 1 view .LVU972
  96:effects.h     ****     }
 4002              		.loc 16 96 22 is_stmt 0 view .LVU973
 4003 006a 94ED050A 		vldr.32	s0, [r4, #20]
 4004 006e 1148     		ldr	r0, .L263+32
 4005              		.loc 16 98 1 view .LVU974
 4006 0070 BDE81040 		pop	{r4, lr}
 4007              		.cfi_remember_state
 4008              		.cfi_restore 14
 4009              		.cfi_restore 4
 4010              		.cfi_def_cfa_offset 0
  96:effects.h     ****     }
 4011              		.loc 16 96 22 view .LVU975
 4012 0074 FFF7FEBF 		b	_ZN7daisysp3Svf6SetResEf
 4013              	.LVL219:
 4014              	.L260:
 4015              		.cfi_restore_state
  90:effects.h     ****         chorus.SetLfoFreq(effectValues[1][1]);
 4016              		.loc 16 90 9 is_stmt 1 view .LVU976
  90:effects.h     ****         chorus.SetLfoFreq(effectValues[1][1]);
 4017              		.loc 16 90 27 is_stmt 0 view .LVU977
 4018 0078 074C     		ldr	r4, .L263+4
 4019 007a 0F48     		ldr	r0, .L263+36
 4020 007c 94ED020A 		vldr.32	s0, [r4, #8]
 4021 0080 FFF7FEFF 		bl	_ZN7daisysp6Chorus11SetLfoDepthEf
 4022              	.LVL220:
  91:effects.h     ****     }
 4023              		.loc 16 91 9 is_stmt 1 view .LVU978
  91:effects.h     ****     }
 4024              		.loc 16 91 26 is_stmt 0 view .LVU979
ARM GAS  /var/folders/m5/x8wc2gdj7z5cpgcqdsb_gkj40000gn/T//ccGxviRN.s 			page 110


 4025 0084 94ED030A 		vldr.32	s0, [r4, #12]
 4026 0088 0B48     		ldr	r0, .L263+36
 4027              		.loc 16 98 1 view .LVU980
 4028 008a BDE81040 		pop	{r4, lr}
 4029              		.cfi_restore 14
 4030              		.cfi_restore 4
 4031              		.cfi_def_cfa_offset 0
  91:effects.h     ****     }
 4032              		.loc 16 91 26 view .LVU981
 4033 008e FFF7FEBF 		b	_ZN7daisysp6Chorus10SetLfoFreqEf
 4034              	.LVL221:
 4035              	.L264:
 4036 0092 00BF     		.align	2
 4037              	.L263:
 4038 0094 00000000 		.word	.LANCHOR35
 4039 0098 00000000 		.word	.LANCHOR32
 4040 009c 00000000 		.word	.LANCHOR30
 4041 00a0 C976FE3E 		.word	1056863945
 4042 00a4 61FA183C 		.word	1008269921
 4043 00a8 5F33D442 		.word	1121203039
 4044 00ac 00000000 		.word	.LANCHOR31
 4045 00b0 DB0F4940 		.word	1078530011
 4046 00b4 00000000 		.word	.LANCHOR33
 4047 00b8 00000000 		.word	chorus
 4048              		.cfi_endproc
 4049              	.LFE4708:
 4051              		.section	.text._Z15IncrementEffecti,"ax",%progbits
 4052              		.align	1
 4053              		.p2align 2,,3
 4054              		.global	_Z15IncrementEffecti
 4055              		.syntax unified
 4056              		.thumb
 4057              		.thumb_func
 4059              	_Z15IncrementEffecti:
 4060              	.LVL222:
 4061              	.LFB4709:
  99:effects.h     **** 
 100:effects.h     **** void IncrementEffect(int increment)
 101:effects.h     **** {
 4062              		.loc 16 101 1 is_stmt 1 view -0
 4063              		.cfi_startproc
 4064              		@ args = 0, pretend = 0, frame = 0
 4065              		@ frame_needed = 0, uses_anonymous_args = 0
 4066              		@ link register save eliminated.
 102:effects.h     ****     currentEffect += increment;
 4067              		.loc 16 102 5 view .LVU983
 103:effects.h     ****     if(currentEffect < 0)
 4068              		.loc 16 103 5 view .LVU984
 102:effects.h     ****     currentEffect += increment;
 4069              		.loc 16 102 19 is_stmt 0 view .LVU985
 4070 0000 064B     		ldr	r3, .L271
 4071 0002 1A68     		ldr	r2, [r3]
 4072              		.loc 16 103 5 view .LVU986
 4073 0004 8018     		adds	r0, r0, r2
 4074              	.LVL223:
 4075              		.loc 16 103 5 view .LVU987
 4076 0006 06D4     		bmi	.L269
ARM GAS  /var/folders/m5/x8wc2gdj7z5cpgcqdsb_gkj40000gn/T//ccGxviRN.s 			page 111


 104:effects.h     ****     {
 105:effects.h     ****         currentEffect = 2;
 106:effects.h     ****     }
 107:effects.h     ****     else if(currentEffect > 2)
 4077              		.loc 16 107 10 is_stmt 1 view .LVU988
 4078 0008 0228     		cmp	r0, #2
 4079 000a 02DD     		ble	.L270
 108:effects.h     ****     {
 109:effects.h     ****         currentEffect = 0;
 4080              		.loc 16 109 9 view .LVU989
 4081              		.loc 16 109 23 is_stmt 0 view .LVU990
 4082 000c 0022     		movs	r2, #0
 4083 000e 1A60     		str	r2, [r3]
 110:effects.h     ****     }
 111:effects.h     **** }
 4084              		.loc 16 111 1 view .LVU991
 4085 0010 7047     		bx	lr
 4086              	.L270:
 102:effects.h     ****     if(currentEffect < 0)
 4087              		.loc 16 102 19 view .LVU992
 4088 0012 1860     		str	r0, [r3]
 4089 0014 7047     		bx	lr
 4090              	.L269:
 105:effects.h     ****     }
 4091              		.loc 16 105 9 is_stmt 1 view .LVU993
 105:effects.h     ****     }
 4092              		.loc 16 105 23 is_stmt 0 view .LVU994
 4093 0016 0222     		movs	r2, #2
 4094 0018 1A60     		str	r2, [r3]
 4095 001a 7047     		bx	lr
 4096              	.L272:
 4097              		.align	2
 4098              	.L271:
 4099 001c 00000000 		.word	.LANCHOR35
 4100              		.cfi_endproc
 4101              	.LFE4709:
 4103              		.section	.text.startup.main,"ax",%progbits
 4104              		.align	1
 4105              		.p2align 2,,3
 4106              		.global	main
 4107              		.syntax unified
 4108              		.thumb
 4109              		.thumb_func
 4111              	main:
 4112              	.LFB4711:
 4113              		.file 17 "sardinia.cpp"
   1:sardinia.cpp  **** // ================================
   2:sardinia.cpp  **** // COMPANY: Feni Design
   3:sardinia.cpp  **** // AUTHOR: Dominic Frugoli
   4:sardinia.cpp  **** // CREATE DATE: 8/18/2024
   5:sardinia.cpp  **** // PROJECT: Fall 2024 Independent Project
   6:sardinia.cpp  **** // HEADER FILES NEEDED: "hardware.h"
   7:sardinia.cpp  **** // SPECIAL NOTES: Code is meant for Electrosmith Daisy microcontroller
   8:sardinia.cpp  **** // ================================
   9:sardinia.cpp  **** 
  10:sardinia.cpp  **** 
  11:sardinia.cpp  **** // |Includes and Namespaces|-----------------------------------------------------------------------
ARM GAS  /var/folders/m5/x8wc2gdj7z5cpgcqdsb_gkj40000gn/T//ccGxviRN.s 			page 112


  12:sardinia.cpp  **** 
  13:sardinia.cpp  **** 
  14:sardinia.cpp  **** #include "daisy_seed.h"
  15:sardinia.cpp  **** #include "daisysp.h"
  16:sardinia.cpp  **** #include "hardware.h"
  17:sardinia.cpp  **** #include "sampleengine.h"
  18:sardinia.cpp  **** #include "display.h"
  19:sardinia.cpp  **** #include "effects.h"
  20:sardinia.cpp  **** 
  21:sardinia.cpp  **** using namespace daisy;
  22:sardinia.cpp  **** using namespace daisy::seed;
  23:sardinia.cpp  **** using namespace daisysp;
  24:sardinia.cpp  **** 
  25:sardinia.cpp  **** 
  26:sardinia.cpp  **** // |Hardware Instantiations|-----------------------------------------------------------------------
  27:sardinia.cpp  **** 
  28:sardinia.cpp  **** 
  29:sardinia.cpp  **** DaisySeed hw;
  30:sardinia.cpp  **** 
  31:sardinia.cpp  **** 
  32:sardinia.cpp  **** // |Audio Objects + Variables|---------------------------------------------------------------------
  33:sardinia.cpp  **** 
  34:sardinia.cpp  **** 
  35:sardinia.cpp  **** float outputMix;
  36:sardinia.cpp  **** float sampleSig;
  37:sardinia.cpp  **** float inputSig;
  38:sardinia.cpp  **** float outputAmp = 0.5f;
  39:sardinia.cpp  **** float inputAmp = 1.0f;
  40:sardinia.cpp  **** 
  41:sardinia.cpp  **** float testValFloat = 0.0f;
  42:sardinia.cpp  **** int testValInt = 0;
  43:sardinia.cpp  **** 
  44:sardinia.cpp  **** void ProcessControlsKR();
  45:sardinia.cpp  **** void ProcessControlsAR();
  46:sardinia.cpp  **** void RecordModeControls();
  47:sardinia.cpp  **** void PlayModeControls();
  48:sardinia.cpp  **** void UpdateKeys();
  49:sardinia.cpp  **** void UpdateControlButtons();
  50:sardinia.cpp  **** void RecordControlButtonStates();
  51:sardinia.cpp  **** void ModeSelect();
  52:sardinia.cpp  **** void PrintMenu();
  53:sardinia.cpp  **** 
  54:sardinia.cpp  **** 
  55:sardinia.cpp  **** // |Main Setup and Audio Callback|-----------------------------------------------------------------
  56:sardinia.cpp  **** 
  57:sardinia.cpp  **** 
  58:sardinia.cpp  **** void AudioCallback(AudioHandle::InputBuffer in, AudioHandle::OutputBuffer out, size_t size) 
  59:sardinia.cpp  **** {
  60:sardinia.cpp  **** 	ProcessControlsKR();
  61:sardinia.cpp  **** 
  62:sardinia.cpp  **** 	for (size_t i = 0; i < size; i++)
  63:sardinia.cpp  **** 	{
  64:sardinia.cpp  **** 		sampleSig = 0; // Reset signal values to 0 in case no sample is being played
  65:sardinia.cpp  **** 		outputMix = 0;
  66:sardinia.cpp  **** 
  67:sardinia.cpp  **** 		ProcessControlsAR();
  68:sardinia.cpp  **** 
ARM GAS  /var/folders/m5/x8wc2gdj7z5cpgcqdsb_gkj40000gn/T//ccGxviRN.s 			page 113


  69:sardinia.cpp  **** 		inputSig = (in[0][i] + in[1][i]) * 0.5f; 
  70:sardinia.cpp  **** 		inputSig *= inputAmp;
  71:sardinia.cpp  **** 		
  72:sardinia.cpp  **** 		if(isRecording)
  73:sardinia.cpp  **** 		{
  74:sardinia.cpp  **** 			RecordSample((inputSig)); // Record the input and increment the sample length tracker
  75:sardinia.cpp  **** 			lengthTrack++;
  76:sardinia.cpp  **** 		}
  77:sardinia.cpp  **** 
  78:sardinia.cpp  **** 		if(isPlaying && AnyKeyIsPressed() == false) // If no keys are pressed, play the full sample
  79:sardinia.cpp  **** 		{
  80:sardinia.cpp  **** 			sampleSig = FullSampleGetSample();
  81:sardinia.cpp  **** 		}
  82:sardinia.cpp  **** 		else if(SpliceBufferIsPlaying)
  83:sardinia.cpp  **** 		{
  84:sardinia.cpp  **** 			sampleSig = SpliceBufferGetSample(currentSpliceBuffer, mode, noteKey);
  85:sardinia.cpp  **** 		}
  86:sardinia.cpp  **** 		else if(isPlaying)
  87:sardinia.cpp  **** 		{
  88:sardinia.cpp  **** 			sampleSig = GetSample();
  89:sardinia.cpp  **** 			AdvanceReadIndex();
  90:sardinia.cpp  **** 			if(readIndex > recordingLength) // recordingLength dynamically changes the size of sample based 
  91:sardinia.cpp  **** 			{
  92:sardinia.cpp  **** 				readIndex = 0;
  93:sardinia.cpp  **** 			}
  94:sardinia.cpp  **** 		}
  95:sardinia.cpp  **** 
  96:sardinia.cpp  **** 		
  97:sardinia.cpp  **** 		outputMix = inputSig + sampleSig; // Mix the sample playback with the input
  98:sardinia.cpp  **** 		outputMix = ProcessEffects(outputMix); // Process the mixed signal through the effects
  99:sardinia.cpp  **** 		outputMix *= outputAmp;
 100:sardinia.cpp  **** 
 101:sardinia.cpp  **** 		// Output the mixed signals
 102:sardinia.cpp  ****         out[0][i] = outputMix;
 103:sardinia.cpp  **** 		out[1][i] = outputMix;
 104:sardinia.cpp  **** 	}
 105:sardinia.cpp  **** }
 106:sardinia.cpp  **** 
 107:sardinia.cpp  **** int main(void)
 108:sardinia.cpp  **** {
 4114              		.loc 17 108 1 is_stmt 1 view -0
 4115              		.cfi_startproc
 4116              		@ args = 0, pretend = 0, frame = 8
 4117              		@ frame_needed = 0, uses_anonymous_args = 0
 109:sardinia.cpp  **** 	hw.Init();
 4118              		.loc 17 109 2 view .LVU996
 108:sardinia.cpp  **** 	hw.Init();
 4119              		.loc 17 108 1 is_stmt 0 view .LVU997
 4120 0000 10B5     		push	{r4, lr}
 4121              		.cfi_def_cfa_offset 8
 4122              		.cfi_offset 4, -8
 4123              		.cfi_offset 14, -4
 4124              		.loc 17 109 9 view .LVU998
 4125 0002 0021     		movs	r1, #0
 108:sardinia.cpp  **** 	hw.Init();
 4126              		.loc 17 108 1 view .LVU999
 4127 0004 82B0     		sub	sp, sp, #8
ARM GAS  /var/folders/m5/x8wc2gdj7z5cpgcqdsb_gkj40000gn/T//ccGxviRN.s 			page 114


 4128              		.cfi_def_cfa_offset 16
 4129              		.loc 17 109 9 view .LVU1000
 4130 0006 1948     		ldr	r0, .L276
 4131 0008 FFF7FEFF 		bl	_ZN5daisy9DaisySeed4InitEb
 4132              	.LVL224:
 110:sardinia.cpp  **** 	hw.SetAudioBlockSize(4); // number of samples handled per callback
 4133              		.loc 17 110 2 is_stmt 1 view .LVU1001
 4134              		.loc 17 110 22 is_stmt 0 view .LVU1002
 4135 000c 0421     		movs	r1, #4
 4136 000e 1748     		ldr	r0, .L276
 4137 0010 FFF7FEFF 		bl	_ZN5daisy9DaisySeed17SetAudioBlockSizeEj
 4138              	.LVL225:
 111:sardinia.cpp  **** 	hw.SetAudioSampleRate(SaiHandle::Config::SampleRate::SAI_48KHZ);
 4139              		.loc 17 111 2 is_stmt 1 view .LVU1003
 4140              		.loc 17 111 23 is_stmt 0 view .LVU1004
 4141 0014 0321     		movs	r1, #3
 4142 0016 1548     		ldr	r0, .L276
 4143 0018 FFF7FEFF 		bl	_ZN5daisy9DaisySeed18SetAudioSampleRateENS_9SaiHandle6Config10SampleRateE
 4144              	.LVL226:
 112:sardinia.cpp  **** 	float sampleRate = hw.AudioSampleRate();
 4145              		.loc 17 112 2 is_stmt 1 view .LVU1005
 4146              		.loc 17 112 39 is_stmt 0 view .LVU1006
 4147 001c 1348     		ldr	r0, .L276
 4148 001e FFF7FEFF 		bl	_ZN5daisy9DaisySeed15AudioSampleRateEv
 4149              	.LVL227:
 4150 0022 8DED010A 		vstr.32	s0, [sp, #4]	@ int
 4151              	.LVL228:
 113:sardinia.cpp  **** 
 114:sardinia.cpp  **** 	InitLCD();
 4152              		.loc 17 114 2 is_stmt 1 view .LVU1007
 4153              		.loc 17 114 9 is_stmt 0 view .LVU1008
 4154 0026 FFF7FEFF 		bl	_Z7InitLCDv
 4155              	.LVL229:
 115:sardinia.cpp  **** 	InitControls();
 4156              		.loc 17 115 2 is_stmt 1 view .LVU1009
 4157 002a 114C     		ldr	r4, .L276+4
 4158              		.loc 17 115 14 is_stmt 0 view .LVU1010
 4159 002c FFF7FEFF 		bl	_Z12InitControlsv
 4160              	.LVL230:
 116:sardinia.cpp  **** 	hw.adc.Init(adcConfig, NUM_ADC_CHANNELS); //initializes adc system using the config and number of 
 4161              		.loc 17 116 2 is_stmt 1 view .LVU1011
 4162              		.loc 17 116 13 is_stmt 0 view .LVU1012
 4163 0030 1049     		ldr	r1, .L276+8
 4164 0032 0423     		movs	r3, #4
 4165 0034 0622     		movs	r2, #6
 4166 0036 1048     		ldr	r0, .L276+12
 4167 0038 FFF7FEFF 		bl	_ZN5daisy9AdcHandle4InitEPNS_16AdcChannelConfigEjNS0_12OverSamplingE
 4168              	.LVL231:
 117:sardinia.cpp  **** 	hw.adc.Start();
 4169              		.loc 17 117 2 is_stmt 1 view .LVU1013
 4170              		.loc 17 117 14 is_stmt 0 view .LVU1014
 4171 003c 0E48     		ldr	r0, .L276+12
 4172 003e FFF7FEFF 		bl	_ZN5daisy9AdcHandle5StartEv
 4173              	.LVL232:
 118:sardinia.cpp  **** 	
 119:sardinia.cpp  **** 	InitBuffer(); // Initialize buffer to all 0s
 4174              		.loc 17 119 2 is_stmt 1 view .LVU1015
ARM GAS  /var/folders/m5/x8wc2gdj7z5cpgcqdsb_gkj40000gn/T//ccGxviRN.s 			page 115


 4175              		.loc 17 119 12 is_stmt 0 view .LVU1016
 4176 0042 FFF7FEFF 		bl	_Z10InitBufferv
 4177              	.LVL233:
 120:sardinia.cpp  **** 	InitEffects(sampleRate);
 4178              		.loc 17 120 2 is_stmt 1 view .LVU1017
 4179              		.loc 17 120 13 is_stmt 0 view .LVU1018
 4180 0046 9DED010A 		vldr.32	s0, [sp, #4]	@ int
 4181 004a FFF7FEFF 		bl	_Z11InitEffectsf
 4182              	.LVL234:
 121:sardinia.cpp  **** 
 122:sardinia.cpp  **** 	//hw.StartLog(true); // Use for serial testing. COMMENT OUT WHEN NOT USING!!
 123:sardinia.cpp  **** 
 124:sardinia.cpp  **** 	hw.StartAudio(AudioCallback);
 4183              		.loc 17 124 2 is_stmt 1 view .LVU1019
 4184              		.loc 17 124 15 is_stmt 0 view .LVU1020
 4185 004e 0B49     		ldr	r1, .L276+16
 4186 0050 0648     		ldr	r0, .L276
 4187 0052 FFF7FEFF 		bl	_ZN5daisy9DaisySeed10StartAudioEPFvPKPKfPPfjE
 4188              	.LVL235:
 4189              	.L274:
 125:sardinia.cpp  **** 
 126:sardinia.cpp  **** 	while(1)
 4190              		.loc 17 126 2 is_stmt 1 discriminator 1 view .LVU1021
 127:sardinia.cpp  **** 	{
 128:sardinia.cpp  **** 		PrintMenu(currentEffect, effectStates);
 4191              		.loc 17 128 3 discriminator 1 view .LVU1022
 4192              		.loc 17 128 12 is_stmt 0 discriminator 1 view .LVU1023
 4193 0056 D4ED007A 		vldr.32	s15, [r4]	@ int
 4194 005a 0948     		ldr	r0, .L276+20
 4195 005c B8EEE70A 		vcvt.f32.s32	s0, s15
 4196 0060 FFF7FEFF 		bl	_Z9PrintMenufPb
 4197              	.LVL236:
 129:sardinia.cpp  **** 		//hw.PrintLine("Print a float value: %f", recordingLength);
 130:sardinia.cpp  **** 		System::Delay(50);
 4198              		.loc 17 130 3 is_stmt 1 discriminator 1 view .LVU1024
 4199              		.loc 17 130 16 is_stmt 0 discriminator 1 view .LVU1025
 4200 0064 3220     		movs	r0, #50
 4201 0066 FFF7FEFF 		bl	_ZN5daisy6System5DelayEm
 4202              	.LVL237:
 126:sardinia.cpp  **** 	{
 4203              		.loc 17 126 2 is_stmt 1 discriminator 1 view .LVU1026
 4204 006a F4E7     		b	.L274
 4205              	.L277:
 4206              		.align	2
 4207              	.L276:
 4208 006c 00000000 		.word	.LANCHOR36
 4209 0070 00000000 		.word	.LANCHOR35
 4210 0074 00000000 		.word	.LANCHOR7
 4211 0078 18000000 		.word	.LANCHOR36+24
 4212 007c 00000000 		.word	_Z13AudioCallbackPKPKfPPfj
 4213 0080 00000000 		.word	.LANCHOR34
 4214              		.cfi_endproc
 4215              	.LFE4711:
 4217              		.section	.text._Z18RecordModeControlsv,"ax",%progbits
 4218              		.align	1
 4219              		.p2align 2,,3
 4220              		.global	_Z18RecordModeControlsv
ARM GAS  /var/folders/m5/x8wc2gdj7z5cpgcqdsb_gkj40000gn/T//ccGxviRN.s 			page 116


 4221              		.syntax unified
 4222              		.thumb
 4223              		.thumb_func
 4225              	_Z18RecordModeControlsv:
 4226              	.LFB4714:
 131:sardinia.cpp  **** 	}
 132:sardinia.cpp  **** }
 133:sardinia.cpp  **** 
 134:sardinia.cpp  **** 
 135:sardinia.cpp  **** // |Offboard Control Functions|--------------------------------------------------------------------
 136:sardinia.cpp  **** 
 137:sardinia.cpp  **** 
 138:sardinia.cpp  **** void ProcessControlsKR() // For controls that only need to be processed every audio block
 139:sardinia.cpp  **** {
 140:sardinia.cpp  **** 	UpdateKeys();	
 141:sardinia.cpp  **** 
 142:sardinia.cpp  **** 	encoder.Debounce();
 143:sardinia.cpp  **** 
 144:sardinia.cpp  **** 	if(EncoderTurned())
 145:sardinia.cpp  **** 	{
 146:sardinia.cpp  **** 		IncrementEffect(encoder.Increment());
 147:sardinia.cpp  **** 	}
 148:sardinia.cpp  **** 	if(encoder.RisingEdge())
 149:sardinia.cpp  **** 	{
 150:sardinia.cpp  **** 		effectStates[currentEffect] = !effectStates[currentEffect];
 151:sardinia.cpp  **** 	}
 152:sardinia.cpp  **** 
 153:sardinia.cpp  **** 	if(currentEffect == 0)
 154:sardinia.cpp  **** 	{
 155:sardinia.cpp  **** 		effectValues[0][0] = fmap(hw.adc.GetMuxFloat(0, 2), 0, 1, Mapping::LINEAR); // Overdrive Gain
 156:sardinia.cpp  **** 		effectValues[0][1] = fmap(hw.adc.GetMuxFloat(0, 6), .01, .3, Mapping::EXP); // Overdrive Tone Fre
 157:sardinia.cpp  **** 	}
 158:sardinia.cpp  **** 	else if(currentEffect == 1)
 159:sardinia.cpp  **** 	{
 160:sardinia.cpp  **** 		effectValues[1][0] = fmap(hw.adc.GetMuxFloat(0, 2), 0, 1, Mapping::LINEAR); // Chorus LFO Depth
 161:sardinia.cpp  **** 		effectValues[1][1] = fmap(hw.adc.GetMuxFloat(0, 6), 0, 10, Mapping::EXP); // Chorus LFO Freq
 162:sardinia.cpp  **** 	}
 163:sardinia.cpp  **** 	else if(currentEffect == 2)
 164:sardinia.cpp  **** 	{
 165:sardinia.cpp  **** 		effectValues[2][0] = fmap(hw.adc.GetMuxFloat(0, 2), 0, 5000, Mapping::EXP); // LoPass Freq
 166:sardinia.cpp  **** 		effectValues[2][1] = fmap(hw.adc.GetMuxFloat(0, 6), 0, 1, Mapping::LINEAR); // LoPass Res
 167:sardinia.cpp  **** 	}
 168:sardinia.cpp  **** 	
 169:sardinia.cpp  **** 
 170:sardinia.cpp  **** 	outputAmp = fmap(hw.adc.GetMuxFloat(0, 3), 0, 2, Mapping::LINEAR); // top far right
 171:sardinia.cpp  **** 	inputAmp = fmap(hw.adc.GetMuxFloat(0, 7), 0, 2, Mapping::LINEAR); // bottom far right
 172:sardinia.cpp  **** 
 173:sardinia.cpp  **** 	readFactor = fmap(hw.adc.GetMuxFloat(0, 0), 0.5, 2, Mapping::EXP); // top far left
 174:sardinia.cpp  **** 	ProcessEffectParameters();
 175:sardinia.cpp  **** }
 176:sardinia.cpp  **** 
 177:sardinia.cpp  **** void ProcessControlsAR() // For controls that need to process every sample
 178:sardinia.cpp  **** {
 179:sardinia.cpp  **** 	// All control keys must be updated at same clock cycle 
 180:sardinia.cpp  **** 	// So all control key functions must be done at audio rate
 181:sardinia.cpp  **** 	UpdateControlButtons(); 
 182:sardinia.cpp  **** 	ModeSelect();
ARM GAS  /var/folders/m5/x8wc2gdj7z5cpgcqdsb_gkj40000gn/T//ccGxviRN.s 			page 117


 183:sardinia.cpp  **** 
 184:sardinia.cpp  **** 	if(RisingEdge_ControlButtons(0)) // Starts the sample from the beginning when pressed
 185:sardinia.cpp  **** 	{
 186:sardinia.cpp  **** 		if(isPlaying == false)
 187:sardinia.cpp  **** 		{
 188:sardinia.cpp  **** 			fullSampleReadIndex = 0;
 189:sardinia.cpp  **** 			isPlaying = true;
 190:sardinia.cpp  **** 			playButtonOverrule = true;
 191:sardinia.cpp  **** 		}
 192:sardinia.cpp  **** 		else
 193:sardinia.cpp  **** 		{
 194:sardinia.cpp  **** 			isPlaying = false;
 195:sardinia.cpp  **** 			playButtonOverrule = false;
 196:sardinia.cpp  **** 		}
 197:sardinia.cpp  **** 	}
 198:sardinia.cpp  **** 	else if(fullSampleReadIndex== 0 && !controlButtonStates[0]) // Stops the sample when let go
 199:sardinia.cpp  **** 	{
 200:sardinia.cpp  **** 		isPlaying = false;
 201:sardinia.cpp  **** 		playButtonOverrule = false;
 202:sardinia.cpp  **** 	}
 203:sardinia.cpp  **** 	
 204:sardinia.cpp  **** 	if(mode == record)
 205:sardinia.cpp  **** 	{
 206:sardinia.cpp  **** 		RecordModeControls();
 207:sardinia.cpp  **** 	}
 208:sardinia.cpp  **** 	else if(mode == play)
 209:sardinia.cpp  **** 	{
 210:sardinia.cpp  **** 		PlayModeControls();
 211:sardinia.cpp  **** 	}
 212:sardinia.cpp  **** 
 213:sardinia.cpp  **** 	RecordControlButtonStates();
 214:sardinia.cpp  **** }
 215:sardinia.cpp  **** 
 216:sardinia.cpp  **** void RecordModeControls() // Controls that only run in record mode
 217:sardinia.cpp  **** {	
 4227              		.loc 17 217 1 view -0
 4228              		.cfi_startproc
 4229              		@ args = 0, pretend = 0, frame = 0
 4230              		@ frame_needed = 0, uses_anonymous_args = 0
 218:sardinia.cpp  **** 
 219:sardinia.cpp  **** 	// Recording
 220:sardinia.cpp  **** 	if(RisingEdge_ControlButtons(1)) // Starts recording from start on press and resets the length tra
 4231              		.loc 17 220 2 view .LVU1028
 4232              	.LVL238:
 4233              	.LBB771:
 4234              	.LBI771:
 115:hardware.h    **** bool RisingEdge_ControlButtons(int buttonNum)
 4235              		.loc 14 115 6 view .LVU1029
 4236              	.LBB772:
 117:hardware.h    **** 	if(controlButtonStates[buttonNum] == true && prevControlButtonStates[buttonNum] == false)
 4237              		.loc 14 117 2 view .LVU1030
 4238              	.LBE772:
 4239              	.LBE771:
 217:sardinia.cpp  **** 
 4240              		.loc 17 217 1 is_stmt 0 view .LVU1031
 4241 0000 38B5     		push	{r3, r4, r5, lr}
 4242              		.cfi_def_cfa_offset 16
ARM GAS  /var/folders/m5/x8wc2gdj7z5cpgcqdsb_gkj40000gn/T//ccGxviRN.s 			page 118


 4243              		.cfi_offset 3, -16
 4244              		.cfi_offset 4, -12
 4245              		.cfi_offset 5, -8
 4246              		.cfi_offset 14, -4
 4247              	.LBB775:
 4248              	.LBB773:
 117:hardware.h    **** 	if(controlButtonStates[buttonNum] == true && prevControlButtonStates[buttonNum] == false)
 4249              		.loc 14 117 34 view .LVU1032
 4250 0002 454C     		ldr	r4, .L328
 117:hardware.h    **** 	if(controlButtonStates[buttonNum] == true && prevControlButtonStates[buttonNum] == false)
 4251              		.loc 14 117 80 view .LVU1033
 4252 0004 454D     		ldr	r5, .L328+4
 117:hardware.h    **** 	if(controlButtonStates[buttonNum] == true && prevControlButtonStates[buttonNum] == false)
 4253              		.loc 14 117 2 view .LVU1034
 4254 0006 6378     		ldrb	r3, [r4, #1]	@ zero_extendqisi2
 4255 0008 002B     		cmp	r3, #0
 4256 000a 6FD0     		beq	.L279
 117:hardware.h    **** 	if(controlButtonStates[buttonNum] == true && prevControlButtonStates[buttonNum] == false)
 4257              		.loc 14 117 44 view .LVU1035
 4258 000c 6B78     		ldrb	r3, [r5, #1]	@ zero_extendqisi2
 4259 000e 002B     		cmp	r3, #0
 4260 0010 62D0     		beq	.L321
 4261              	.LVL239:
 4262              	.L280:
 117:hardware.h    **** 	if(controlButtonStates[buttonNum] == true && prevControlButtonStates[buttonNum] == false)
 4263              		.loc 14 117 44 view .LVU1036
 4264              	.LBE773:
 4265              	.LBE775:
 221:sardinia.cpp  **** 	{
 222:sardinia.cpp  **** 		isRecording = true;
 223:sardinia.cpp  **** 		testValFloat = 1;
 224:sardinia.cpp  **** 		lengthTrack = 0;
 225:sardinia.cpp  **** 	}
 226:sardinia.cpp  **** 	else if(FallingEdge_ControlButtons(1)) // Stops recording when let go, resets write index, and ass
 227:sardinia.cpp  **** 	{
 228:sardinia.cpp  **** 		isRecording = false;
 229:sardinia.cpp  **** 		writeIndex = 0;
 230:sardinia.cpp  **** 		recordingLength = lengthTrack;
 231:sardinia.cpp  **** 		testValFloat = 0;
 232:sardinia.cpp  **** 		testValInt = recordingLength;
 233:sardinia.cpp  **** 		SetKeyIndexs();
 234:sardinia.cpp  **** 	}
 235:sardinia.cpp  **** 
 236:sardinia.cpp  **** 	// Play slices from keypads
 237:sardinia.cpp  **** 	if(playButtonOverrule == false)
 4266              		.loc 17 237 2 is_stmt 1 view .LVU1037
 4267              		.loc 17 237 24 is_stmt 0 view .LVU1038
 4268 0012 434B     		ldr	r3, .L328+8
 4269              		.loc 17 237 2 view .LVU1039
 4270 0014 1B78     		ldrb	r3, [r3]	@ zero_extendqisi2
 4271 0016 63B9     		cbnz	r3, .L281
 4272 0018 424B     		ldr	r3, .L328+12
 4273 001a 03F12001 		add	r1, r3, #32
 4274 001e 01E0     		b	.L284
 4275              	.LVL240:
 4276              	.L323:
 4277              	.LBB776:
ARM GAS  /var/folders/m5/x8wc2gdj7z5cpgcqdsb_gkj40000gn/T//ccGxviRN.s 			page 119


 4278              	.LBB777:
 314:sampleengine.h ****     {
 4279              		.loc 13 314 22 view .LVU1040
 4280 0020 8B42     		cmp	r3, r1
 4281 0022 76D0     		beq	.L322
 4282              	.LVL241:
 4283              	.L284:
 316:sampleengine.h ****         {
 4284              		.loc 13 316 9 is_stmt 1 view .LVU1041
 314:sampleengine.h ****     {
 4285              		.loc 13 314 5 view .LVU1042
 316:sampleengine.h ****         {
 4286              		.loc 13 316 23 is_stmt 0 view .LVU1043
 4287 0024 13F8012B 		ldrb	r2, [r3], #1	@ zero_extendqisi2
 4288              	.LVL242:
 314:sampleengine.h ****     {
 4289              		.loc 13 314 22 is_stmt 1 view .LVU1044
 316:sampleengine.h ****         {
 4290              		.loc 13 316 9 is_stmt 0 view .LVU1045
 4291 0028 002A     		cmp	r2, #0
 4292 002a F9D0     		beq	.L323
 4293              	.LVL243:
 316:sampleengine.h ****         {
 4294              		.loc 13 316 9 view .LVU1046
 4295              	.LBE777:
 4296              	.LBE776:
 238:sardinia.cpp  **** 	{
 239:sardinia.cpp  **** 		if(AnyKeyIsPressed())
 240:sardinia.cpp  **** 		{
 241:sardinia.cpp  **** 			isPlaying = true;
 4297              		.loc 17 241 4 is_stmt 1 view .LVU1047
 4298              		.loc 17 241 14 is_stmt 0 view .LVU1048
 4299 002c 3E4B     		ldr	r3, .L328+16
 4300 002e 0122     		movs	r2, #1
 4301 0030 1A70     		strb	r2, [r3]
 4302              	.L281:
 242:sardinia.cpp  **** 		}
 243:sardinia.cpp  **** 		else
 244:sardinia.cpp  **** 		{
 245:sardinia.cpp  **** 			isPlaying = false;
 246:sardinia.cpp  **** 		}
 247:sardinia.cpp  **** 	}
 248:sardinia.cpp  **** 
 249:sardinia.cpp  **** 	// Store Splices into Buffers
 250:sardinia.cpp  **** 	if(RisingEdge_ControlButtons(4))
 4303              		.loc 17 250 2 is_stmt 1 view .LVU1049
 4304              	.LVL244:
 4305              	.LBB778:
 4306              	.LBI778:
 115:hardware.h    **** bool RisingEdge_ControlButtons(int buttonNum)
 4307              		.loc 14 115 6 view .LVU1050
 4308              	.LBB779:
 117:hardware.h    **** 	if(controlButtonStates[buttonNum] == true && prevControlButtonStates[buttonNum] == false)
 4309              		.loc 14 117 2 view .LVU1051
 4310 0032 2379     		ldrb	r3, [r4, #4]	@ zero_extendqisi2
 4311 0034 8BB1     		cbz	r3, .L299
 117:hardware.h    **** 	if(controlButtonStates[buttonNum] == true && prevControlButtonStates[buttonNum] == false)
ARM GAS  /var/folders/m5/x8wc2gdj7z5cpgcqdsb_gkj40000gn/T//ccGxviRN.s 			page 120


 4312              		.loc 14 117 44 is_stmt 0 view .LVU1052
 4313 0036 2B79     		ldrb	r3, [r5, #4]	@ zero_extendqisi2
 4314 0038 7BB9     		cbnz	r3, .L299
 4315              	.LVL245:
 117:hardware.h    **** 	if(controlButtonStates[buttonNum] == true && prevControlButtonStates[buttonNum] == false)
 4316              		.loc 14 117 44 view .LVU1053
 4317              	.LBE779:
 4318              	.LBE778:
 251:sardinia.cpp  **** 	{
 252:sardinia.cpp  **** 		currentSpliceBuffer = 1;
 4319              		.loc 17 252 3 is_stmt 1 view .LVU1054
 4320              		.loc 17 252 23 is_stmt 0 view .LVU1055
 4321 003a 0121     		movs	r1, #1
 4322 003c 394B     		ldr	r3, .L328+12
 4323 003e 3B4A     		ldr	r2, .L328+20
 4324 0040 1160     		str	r1, [r2]
 253:sardinia.cpp  **** 		if(AnyKeyIsPressed())
 4325              		.loc 17 253 3 is_stmt 1 view .LVU1056
 4326              	.LBB780:
 4327              	.LBI780:
 312:sampleengine.h **** {
 4328              		.loc 13 312 6 view .LVU1057
 4329              	.LBE780:
 314:sampleengine.h ****     {
 4330              		.loc 13 314 5 view .LVU1058
 4331              	.LVL246:
 4332              	.LBB782:
 4333              	.LBB781:
 314:sampleengine.h ****     {
 4334              		.loc 13 314 22 view .LVU1059
 4335 0042 03F12001 		add	r1, r3, #32
 4336 0046 01E0     		b	.L287
 4337              	.LVL247:
 4338              	.L324:
 314:sampleengine.h ****     {
 4339              		.loc 13 314 22 is_stmt 0 view .LVU1060
 4340 0048 8B42     		cmp	r3, r1
 4341 004a 06D0     		beq	.L299
 4342              	.LVL248:
 4343              	.L287:
 316:sampleengine.h ****         {
 4344              		.loc 13 316 9 is_stmt 1 view .LVU1061
 314:sampleengine.h ****     {
 4345              		.loc 13 314 5 view .LVU1062
 316:sampleengine.h ****         {
 4346              		.loc 13 316 23 is_stmt 0 view .LVU1063
 4347 004c 13F8012B 		ldrb	r2, [r3], #1	@ zero_extendqisi2
 4348              	.LVL249:
 314:sampleengine.h ****     {
 4349              		.loc 13 314 22 is_stmt 1 view .LVU1064
 316:sampleengine.h ****         {
 4350              		.loc 13 316 9 is_stmt 0 view .LVU1065
 4351 0050 002A     		cmp	r2, #0
 4352 0052 F9D0     		beq	.L324
 4353              	.LVL250:
 316:sampleengine.h ****         {
 4354              		.loc 13 316 9 view .LVU1066
ARM GAS  /var/folders/m5/x8wc2gdj7z5cpgcqdsb_gkj40000gn/T//ccGxviRN.s 			page 121


 4355              	.LBE781:
 4356              	.LBE782:
 254:sardinia.cpp  **** 		{
 255:sardinia.cpp  **** 			StoreSpliceBuffer(currentSpliceBuffer);
 4357              		.loc 17 255 4 is_stmt 1 view .LVU1067
 4358              		.loc 17 255 21 is_stmt 0 view .LVU1068
 4359 0054 0120     		movs	r0, #1
 4360 0056 FFF7FEFF 		bl	_Z17StoreSpliceBufferi
 4361              	.LVL251:
 4362              	.L299:
 256:sardinia.cpp  **** 		}
 257:sardinia.cpp  **** 	}
 258:sardinia.cpp  **** 	if(RisingEdge_ControlButtons(5))
 4363              		.loc 17 258 2 is_stmt 1 view .LVU1069
 4364              	.LBB783:
 4365              	.LBI783:
 115:hardware.h    **** bool RisingEdge_ControlButtons(int buttonNum)
 4366              		.loc 14 115 6 view .LVU1070
 4367              	.LBB784:
 117:hardware.h    **** 	if(controlButtonStates[buttonNum] == true && prevControlButtonStates[buttonNum] == false)
 4368              		.loc 14 117 2 view .LVU1071
 4369 005a 6379     		ldrb	r3, [r4, #5]	@ zero_extendqisi2
 4370 005c 8BB1     		cbz	r3, .L298
 117:hardware.h    **** 	if(controlButtonStates[buttonNum] == true && prevControlButtonStates[buttonNum] == false)
 4371              		.loc 14 117 44 is_stmt 0 view .LVU1072
 4372 005e 6B79     		ldrb	r3, [r5, #5]	@ zero_extendqisi2
 4373 0060 7BB9     		cbnz	r3, .L298
 4374              	.LVL252:
 117:hardware.h    **** 	if(controlButtonStates[buttonNum] == true && prevControlButtonStates[buttonNum] == false)
 4375              		.loc 14 117 44 view .LVU1073
 4376              	.LBE784:
 4377              	.LBE783:
 259:sardinia.cpp  **** 	{
 260:sardinia.cpp  **** 		currentSpliceBuffer = 2;
 4378              		.loc 17 260 3 is_stmt 1 view .LVU1074
 4379              		.loc 17 260 23 is_stmt 0 view .LVU1075
 4380 0062 0221     		movs	r1, #2
 4381 0064 2F4B     		ldr	r3, .L328+12
 4382 0066 314A     		ldr	r2, .L328+20
 4383 0068 1160     		str	r1, [r2]
 261:sardinia.cpp  **** 		if(AnyKeyIsPressed())
 4384              		.loc 17 261 3 is_stmt 1 view .LVU1076
 4385              	.LBB785:
 4386              	.LBI785:
 312:sampleengine.h **** {
 4387              		.loc 13 312 6 view .LVU1077
 4388              	.LBE785:
 314:sampleengine.h ****     {
 4389              		.loc 13 314 5 view .LVU1078
 4390              	.LVL253:
 4391              	.LBB787:
 4392              	.LBB786:
 314:sampleengine.h ****     {
 4393              		.loc 13 314 22 view .LVU1079
 4394 006a 03F12001 		add	r1, r3, #32
 4395 006e 01E0     		b	.L290
 4396              	.LVL254:
ARM GAS  /var/folders/m5/x8wc2gdj7z5cpgcqdsb_gkj40000gn/T//ccGxviRN.s 			page 122


 4397              	.L325:
 314:sampleengine.h ****     {
 4398              		.loc 13 314 22 is_stmt 0 view .LVU1080
 4399 0070 9942     		cmp	r1, r3
 4400 0072 06D0     		beq	.L298
 4401              	.LVL255:
 4402              	.L290:
 316:sampleengine.h ****         {
 4403              		.loc 13 316 9 is_stmt 1 view .LVU1081
 314:sampleengine.h ****     {
 4404              		.loc 13 314 5 view .LVU1082
 316:sampleengine.h ****         {
 4405              		.loc 13 316 23 is_stmt 0 view .LVU1083
 4406 0074 13F8012B 		ldrb	r2, [r3], #1	@ zero_extendqisi2
 4407              	.LVL256:
 314:sampleengine.h ****     {
 4408              		.loc 13 314 22 is_stmt 1 view .LVU1084
 316:sampleengine.h ****         {
 4409              		.loc 13 316 9 is_stmt 0 view .LVU1085
 4410 0078 002A     		cmp	r2, #0
 4411 007a F9D0     		beq	.L325
 4412              	.LVL257:
 316:sampleengine.h ****         {
 4413              		.loc 13 316 9 view .LVU1086
 4414              	.LBE786:
 4415              	.LBE787:
 262:sardinia.cpp  **** 		{
 263:sardinia.cpp  **** 			StoreSpliceBuffer(currentSpliceBuffer);
 4416              		.loc 17 263 4 is_stmt 1 view .LVU1087
 4417              		.loc 17 263 21 is_stmt 0 view .LVU1088
 4418 007c 0220     		movs	r0, #2
 4419 007e FFF7FEFF 		bl	_Z17StoreSpliceBufferi
 4420              	.LVL258:
 4421              	.L298:
 264:sardinia.cpp  **** 		}
 265:sardinia.cpp  **** 	}
 266:sardinia.cpp  **** 	if(RisingEdge_ControlButtons(6))
 4422              		.loc 17 266 2 is_stmt 1 view .LVU1089
 4423              	.LBB788:
 4424              	.LBI788:
 115:hardware.h    **** bool RisingEdge_ControlButtons(int buttonNum)
 4425              		.loc 14 115 6 view .LVU1090
 4426              	.LBB789:
 117:hardware.h    **** 	if(controlButtonStates[buttonNum] == true && prevControlButtonStates[buttonNum] == false)
 4427              		.loc 14 117 2 view .LVU1091
 4428 0082 A379     		ldrb	r3, [r4, #6]	@ zero_extendqisi2
 4429 0084 8BB1     		cbz	r3, .L297
 117:hardware.h    **** 	if(controlButtonStates[buttonNum] == true && prevControlButtonStates[buttonNum] == false)
 4430              		.loc 14 117 44 is_stmt 0 view .LVU1092
 4431 0086 AB79     		ldrb	r3, [r5, #6]	@ zero_extendqisi2
 4432 0088 7BB9     		cbnz	r3, .L297
 4433              	.LVL259:
 117:hardware.h    **** 	if(controlButtonStates[buttonNum] == true && prevControlButtonStates[buttonNum] == false)
 4434              		.loc 14 117 44 view .LVU1093
 4435              	.LBE789:
 4436              	.LBE788:
 267:sardinia.cpp  **** 	{
ARM GAS  /var/folders/m5/x8wc2gdj7z5cpgcqdsb_gkj40000gn/T//ccGxviRN.s 			page 123


 268:sardinia.cpp  **** 		currentSpliceBuffer = 3;
 4437              		.loc 17 268 3 is_stmt 1 view .LVU1094
 4438              		.loc 17 268 23 is_stmt 0 view .LVU1095
 4439 008a 0321     		movs	r1, #3
 4440 008c 254B     		ldr	r3, .L328+12
 4441 008e 274A     		ldr	r2, .L328+20
 4442 0090 1160     		str	r1, [r2]
 269:sardinia.cpp  **** 		if(AnyKeyIsPressed())
 4443              		.loc 17 269 3 is_stmt 1 view .LVU1096
 4444              	.LBB790:
 4445              	.LBI790:
 312:sampleengine.h **** {
 4446              		.loc 13 312 6 view .LVU1097
 4447              	.LBE790:
 314:sampleengine.h ****     {
 4448              		.loc 13 314 5 view .LVU1098
 4449              	.LVL260:
 4450              	.LBB792:
 4451              	.LBB791:
 314:sampleengine.h ****     {
 4452              		.loc 13 314 22 view .LVU1099
 4453 0092 03F12001 		add	r1, r3, #32
 4454 0096 01E0     		b	.L293
 4455              	.LVL261:
 4456              	.L326:
 314:sampleengine.h ****     {
 4457              		.loc 13 314 22 is_stmt 0 view .LVU1100
 4458 0098 8B42     		cmp	r3, r1
 4459 009a 06D0     		beq	.L297
 4460              	.LVL262:
 4461              	.L293:
 316:sampleengine.h ****         {
 4462              		.loc 13 316 9 is_stmt 1 view .LVU1101
 314:sampleengine.h ****     {
 4463              		.loc 13 314 5 view .LVU1102
 316:sampleengine.h ****         {
 4464              		.loc 13 316 23 is_stmt 0 view .LVU1103
 4465 009c 13F8012B 		ldrb	r2, [r3], #1	@ zero_extendqisi2
 4466              	.LVL263:
 314:sampleengine.h ****     {
 4467              		.loc 13 314 22 is_stmt 1 view .LVU1104
 316:sampleengine.h ****         {
 4468              		.loc 13 316 9 is_stmt 0 view .LVU1105
 4469 00a0 002A     		cmp	r2, #0
 4470 00a2 F9D0     		beq	.L326
 4471              	.LVL264:
 316:sampleengine.h ****         {
 4472              		.loc 13 316 9 view .LVU1106
 4473              	.LBE791:
 4474              	.LBE792:
 270:sardinia.cpp  **** 		{
 271:sardinia.cpp  **** 			StoreSpliceBuffer(currentSpliceBuffer);
 4475              		.loc 17 271 4 is_stmt 1 view .LVU1107
 4476              		.loc 17 271 21 is_stmt 0 view .LVU1108
 4477 00a4 0320     		movs	r0, #3
 4478 00a6 FFF7FEFF 		bl	_Z17StoreSpliceBufferi
 4479              	.LVL265:
ARM GAS  /var/folders/m5/x8wc2gdj7z5cpgcqdsb_gkj40000gn/T//ccGxviRN.s 			page 124


 4480              	.L297:
 272:sardinia.cpp  **** 		}
 273:sardinia.cpp  **** 	}
 274:sardinia.cpp  **** 	if(RisingEdge_ControlButtons(7))
 4481              		.loc 17 274 2 is_stmt 1 view .LVU1109
 4482              	.LBB793:
 4483              	.LBI793:
 115:hardware.h    **** bool RisingEdge_ControlButtons(int buttonNum)
 4484              		.loc 14 115 6 view .LVU1110
 4485              	.LBB794:
 117:hardware.h    **** 	if(controlButtonStates[buttonNum] == true && prevControlButtonStates[buttonNum] == false)
 4486              		.loc 14 117 2 view .LVU1111
 4487 00aa E379     		ldrb	r3, [r4, #7]	@ zero_extendqisi2
 4488 00ac 9BB1     		cbz	r3, .L278
 117:hardware.h    **** 	if(controlButtonStates[buttonNum] == true && prevControlButtonStates[buttonNum] == false)
 4489              		.loc 14 117 44 is_stmt 0 view .LVU1112
 4490 00ae EB79     		ldrb	r3, [r5, #7]	@ zero_extendqisi2
 4491 00b0 8BB9     		cbnz	r3, .L278
 4492              	.LVL266:
 117:hardware.h    **** 	if(controlButtonStates[buttonNum] == true && prevControlButtonStates[buttonNum] == false)
 4493              		.loc 14 117 44 view .LVU1113
 4494              	.LBE794:
 4495              	.LBE793:
 275:sardinia.cpp  **** 	{
 276:sardinia.cpp  **** 		currentSpliceBuffer = 4;
 4496              		.loc 17 276 3 is_stmt 1 view .LVU1114
 4497 00b2 1C4B     		ldr	r3, .L328+12
 4498              		.loc 17 276 23 is_stmt 0 view .LVU1115
 4499 00b4 0420     		movs	r0, #4
 4500 00b6 1D4A     		ldr	r2, .L328+20
 4501 00b8 03F12001 		add	r1, r3, #32
 4502 00bc 1060     		str	r0, [r2]
 277:sardinia.cpp  **** 		if(AnyKeyIsPressed())
 4503              		.loc 17 277 3 is_stmt 1 view .LVU1116
 4504              	.LBB795:
 4505              	.LBI795:
 312:sampleengine.h **** {
 4506              		.loc 13 312 6 view .LVU1117
 4507              	.LBE795:
 314:sampleengine.h ****     {
 4508              		.loc 13 314 5 view .LVU1118
 4509              	.LVL267:
 4510              	.LBB797:
 4511              	.LBB796:
 314:sampleengine.h ****     {
 4512              		.loc 13 314 22 view .LVU1119
 4513 00be 01E0     		b	.L296
 4514              	.LVL268:
 4515              	.L327:
 314:sampleengine.h ****     {
 4516              		.loc 13 314 22 is_stmt 0 view .LVU1120
 4517 00c0 9942     		cmp	r1, r3
 4518 00c2 08D0     		beq	.L278
 4519              	.LVL269:
 4520              	.L296:
 316:sampleengine.h ****         {
 4521              		.loc 13 316 9 is_stmt 1 view .LVU1121
ARM GAS  /var/folders/m5/x8wc2gdj7z5cpgcqdsb_gkj40000gn/T//ccGxviRN.s 			page 125


 314:sampleengine.h ****     {
 4522              		.loc 13 314 5 view .LVU1122
 316:sampleengine.h ****         {
 4523              		.loc 13 316 23 is_stmt 0 view .LVU1123
 4524 00c4 13F8012B 		ldrb	r2, [r3], #1	@ zero_extendqisi2
 4525              	.LVL270:
 314:sampleengine.h ****     {
 4526              		.loc 13 314 22 is_stmt 1 view .LVU1124
 316:sampleengine.h ****         {
 4527              		.loc 13 316 9 is_stmt 0 view .LVU1125
 4528 00c8 002A     		cmp	r2, #0
 4529 00ca F9D0     		beq	.L327
 4530              	.LVL271:
 316:sampleengine.h ****         {
 4531              		.loc 13 316 9 view .LVU1126
 4532              	.LBE796:
 4533              	.LBE797:
 278:sardinia.cpp  **** 		{
 279:sardinia.cpp  **** 			StoreSpliceBuffer(currentSpliceBuffer);
 4534              		.loc 17 279 4 is_stmt 1 view .LVU1127
 4535              		.loc 17 279 21 is_stmt 0 view .LVU1128
 4536 00cc 0420     		movs	r0, #4
 280:sardinia.cpp  **** 		}
 281:sardinia.cpp  **** 	}
 282:sardinia.cpp  **** }
 4537              		.loc 17 282 1 view .LVU1129
 4538 00ce BDE83840 		pop	{r3, r4, r5, lr}
 4539              		.cfi_remember_state
 4540              		.cfi_restore 14
 4541              		.cfi_restore 5
 4542              		.cfi_restore 4
 4543              		.cfi_restore 3
 4544              		.cfi_def_cfa_offset 0
 279:sardinia.cpp  **** 		}
 4545              		.loc 17 279 21 view .LVU1130
 4546 00d2 FFF7FEBF 		b	_Z17StoreSpliceBufferi
 4547              	.LVL272:
 4548              	.L278:
 4549              		.cfi_restore_state
 4550              		.loc 17 282 1 view .LVU1131
 4551 00d6 38BD     		pop	{r3, r4, r5, pc}
 4552              	.LVL273:
 4553              	.L321:
 222:sardinia.cpp  **** 		testValFloat = 1;
 4554              		.loc 17 222 3 is_stmt 1 view .LVU1132
 222:sardinia.cpp  **** 		testValFloat = 1;
 4555              		.loc 17 222 15 is_stmt 0 view .LVU1133
 4556 00d8 154A     		ldr	r2, .L328+24
 4557 00da 0121     		movs	r1, #1
 4558 00dc 1170     		strb	r1, [r2]
 223:sardinia.cpp  **** 		lengthTrack = 0;
 4559              		.loc 17 223 3 is_stmt 1 view .LVU1134
 223:sardinia.cpp  **** 		lengthTrack = 0;
 4560              		.loc 17 223 16 is_stmt 0 view .LVU1135
 4561 00de 4FF07E51 		mov	r1, #1065353216
 4562 00e2 144A     		ldr	r2, .L328+28
 4563 00e4 1160     		str	r1, [r2]	@ float
ARM GAS  /var/folders/m5/x8wc2gdj7z5cpgcqdsb_gkj40000gn/T//ccGxviRN.s 			page 126


 224:sardinia.cpp  **** 	}
 4564              		.loc 17 224 3 is_stmt 1 view .LVU1136
 224:sardinia.cpp  **** 	}
 4565              		.loc 17 224 15 is_stmt 0 view .LVU1137
 4566 00e6 144A     		ldr	r2, .L328+32
 4567 00e8 1360     		str	r3, [r2]
 4568 00ea 92E7     		b	.L280
 4569              	.LVL274:
 4570              	.L279:
 4571              	.LBB798:
 4572              	.LBB774:
 123:hardware.h    **** 		return false;
 4573              		.loc 14 123 3 is_stmt 1 view .LVU1138
 123:hardware.h    **** 		return false;
 4574              		.loc 14 123 3 is_stmt 0 view .LVU1139
 4575              	.LBE774:
 4576              	.LBE798:
 226:sardinia.cpp  **** 	{
 4577              		.loc 17 226 7 is_stmt 1 view .LVU1140
 4578              	.LBB799:
 4579              	.LBI799:
 127:hardware.h    **** bool FallingEdge_ControlButtons(int buttonNum)
 4580              		.loc 14 127 6 view .LVU1141
 4581              	.LBB800:
 129:hardware.h    **** 	if(controlButtonStates[buttonNum] == false && prevControlButtonStates[buttonNum] == true)
 4582              		.loc 14 129 2 view .LVU1142
 129:hardware.h    **** 	if(controlButtonStates[buttonNum] == false && prevControlButtonStates[buttonNum] == true)
 4583              		.loc 14 129 45 is_stmt 0 view .LVU1143
 4584 00ec 6A78     		ldrb	r2, [r5, #1]	@ zero_extendqisi2
 4585 00ee 002A     		cmp	r2, #0
 4586 00f0 8FD0     		beq	.L280
 4587              	.LVL275:
 129:hardware.h    **** 	if(controlButtonStates[buttonNum] == false && prevControlButtonStates[buttonNum] == true)
 4588              		.loc 14 129 45 view .LVU1144
 4589              	.LBE800:
 4590              	.LBE799:
 228:sardinia.cpp  **** 		writeIndex = 0;
 4591              		.loc 17 228 3 is_stmt 1 view .LVU1145
 228:sardinia.cpp  **** 		writeIndex = 0;
 4592              		.loc 17 228 15 is_stmt 0 view .LVU1146
 4593 00f2 0F49     		ldr	r1, .L328+24
 230:sardinia.cpp  **** 		testValFloat = 0;
 4594              		.loc 17 230 19 view .LVU1147
 4595 00f4 104A     		ldr	r2, .L328+32
 228:sardinia.cpp  **** 		writeIndex = 0;
 4596              		.loc 17 228 15 view .LVU1148
 4597 00f6 0B70     		strb	r3, [r1]
 229:sardinia.cpp  **** 		recordingLength = lengthTrack;
 4598              		.loc 17 229 3 is_stmt 1 view .LVU1149
 229:sardinia.cpp  **** 		recordingLength = lengthTrack;
 4599              		.loc 17 229 14 is_stmt 0 view .LVU1150
 4600 00f8 1049     		ldr	r1, .L328+36
 230:sardinia.cpp  **** 		testValFloat = 0;
 4601              		.loc 17 230 19 view .LVU1151
 4602 00fa 1268     		ldr	r2, [r2]
 229:sardinia.cpp  **** 		recordingLength = lengthTrack;
 4603              		.loc 17 229 14 view .LVU1152
ARM GAS  /var/folders/m5/x8wc2gdj7z5cpgcqdsb_gkj40000gn/T//ccGxviRN.s 			page 127


 4604 00fc 0B60     		str	r3, [r1]
 230:sardinia.cpp  **** 		testValFloat = 0;
 4605              		.loc 17 230 3 is_stmt 1 view .LVU1153
 230:sardinia.cpp  **** 		testValFloat = 0;
 4606              		.loc 17 230 19 is_stmt 0 view .LVU1154
 4607 00fe 1049     		ldr	r1, .L328+40
 231:sardinia.cpp  **** 		testValInt = recordingLength;
 4608              		.loc 17 231 16 view .LVU1155
 4609 0100 0C4B     		ldr	r3, .L328+28
 230:sardinia.cpp  **** 		testValFloat = 0;
 4610              		.loc 17 230 19 view .LVU1156
 4611 0102 0A60     		str	r2, [r1]
 231:sardinia.cpp  **** 		testValInt = recordingLength;
 4612              		.loc 17 231 3 is_stmt 1 view .LVU1157
 231:sardinia.cpp  **** 		testValInt = recordingLength;
 4613              		.loc 17 231 16 is_stmt 0 view .LVU1158
 4614 0104 0021     		movs	r1, #0
 4615 0106 1960     		str	r1, [r3]	@ float
 232:sardinia.cpp  **** 		SetKeyIndexs();
 4616              		.loc 17 232 3 is_stmt 1 view .LVU1159
 232:sardinia.cpp  **** 		SetKeyIndexs();
 4617              		.loc 17 232 14 is_stmt 0 view .LVU1160
 4618 0108 0E4B     		ldr	r3, .L328+44
 4619 010a 1A60     		str	r2, [r3]
 233:sardinia.cpp  **** 	}
 4620              		.loc 17 233 3 is_stmt 1 view .LVU1161
 233:sardinia.cpp  **** 	}
 4621              		.loc 17 233 15 is_stmt 0 view .LVU1162
 4622 010c FFF7FEFF 		bl	_Z12SetKeyIndexsv
 4623              	.LVL276:
 4624 0110 7FE7     		b	.L280
 4625              	.LVL277:
 4626              	.L322:
 245:sardinia.cpp  **** 		}
 4627              		.loc 17 245 4 is_stmt 1 view .LVU1163
 245:sardinia.cpp  **** 		}
 4628              		.loc 17 245 14 is_stmt 0 view .LVU1164
 4629 0112 054B     		ldr	r3, .L328+16
 4630 0114 1A70     		strb	r2, [r3]
 4631 0116 8CE7     		b	.L281
 4632              	.L329:
 4633              		.align	2
 4634              	.L328:
 4635 0118 00000000 		.word	.LANCHOR9
 4636 011c 00000000 		.word	.LANCHOR10
 4637 0120 00000000 		.word	.LANCHOR41
 4638 0124 00000000 		.word	.LANCHOR1
 4639 0128 00000000 		.word	.LANCHOR43
 4640 012c 00000000 		.word	.LANCHOR42
 4641 0130 00000000 		.word	.LANCHOR37
 4642 0134 00000000 		.word	.LANCHOR38
 4643 0138 00000000 		.word	.LANCHOR39
 4644 013c 00000000 		.word	.LANCHOR11
 4645 0140 00000000 		.word	.LANCHOR16
 4646 0144 00000000 		.word	.LANCHOR40
 4647              		.cfi_endproc
 4648              	.LFE4714:
ARM GAS  /var/folders/m5/x8wc2gdj7z5cpgcqdsb_gkj40000gn/T//ccGxviRN.s 			page 128


 4650              		.section	.text._Z16PlayModeControlsv,"ax",%progbits
 4651              		.align	1
 4652              		.p2align 2,,3
 4653              		.global	_Z16PlayModeControlsv
 4654              		.syntax unified
 4655              		.thumb
 4656              		.thumb_func
 4658              	_Z16PlayModeControlsv:
 4659              	.LFB4715:
 283:sardinia.cpp  **** 
 284:sardinia.cpp  **** void PlayModeControls()
 285:sardinia.cpp  **** {
 4660              		.loc 17 285 1 is_stmt 1 view -0
 4661              		.cfi_startproc
 4662              		@ args = 0, pretend = 0, frame = 0
 4663              		@ frame_needed = 0, uses_anonymous_args = 0
 4664              		@ link register save eliminated.
 286:sardinia.cpp  **** 	// Play splices on keypads
 287:sardinia.cpp  **** 	if(playButtonOverrule == false)
 4665              		.loc 17 287 2 view .LVU1166
 4666              		.loc 17 287 24 is_stmt 0 view .LVU1167
 4667 0000 1C4B     		ldr	r3, .L357
 4668              		.loc 17 287 2 view .LVU1168
 4669 0002 1B78     		ldrb	r3, [r3]	@ zero_extendqisi2
 4670 0004 63B9     		cbnz	r3, .L331
 4671 0006 1C4B     		ldr	r3, .L357+4
 4672 0008 03F12001 		add	r1, r3, #32
 4673 000c 01E0     		b	.L334
 4674              	.LVL278:
 4675              	.L353:
 4676              	.LBB801:
 4677              	.LBB802:
 314:sampleengine.h ****     {
 4678              		.loc 13 314 22 view .LVU1169
 4679 000e 8B42     		cmp	r3, r1
 4680 0010 2CD0     		beq	.L352
 4681              	.LVL279:
 4682              	.L334:
 316:sampleengine.h ****         {
 4683              		.loc 13 316 9 is_stmt 1 view .LVU1170
 314:sampleengine.h ****     {
 4684              		.loc 13 314 5 view .LVU1171
 316:sampleengine.h ****         {
 4685              		.loc 13 316 23 is_stmt 0 view .LVU1172
 4686 0012 13F8012B 		ldrb	r2, [r3], #1	@ zero_extendqisi2
 4687              	.LVL280:
 314:sampleengine.h ****     {
 4688              		.loc 13 314 22 is_stmt 1 view .LVU1173
 316:sampleengine.h ****         {
 4689              		.loc 13 316 9 is_stmt 0 view .LVU1174
 4690 0016 002A     		cmp	r2, #0
 4691 0018 F9D0     		beq	.L353
 4692              	.LVL281:
 316:sampleengine.h ****         {
 4693              		.loc 13 316 9 view .LVU1175
 4694              	.LBE802:
 4695              	.LBE801:
ARM GAS  /var/folders/m5/x8wc2gdj7z5cpgcqdsb_gkj40000gn/T//ccGxviRN.s 			page 129


 288:sardinia.cpp  **** 	{
 289:sardinia.cpp  **** 		if(AnyKeyIsPressed())
 290:sardinia.cpp  **** 		{
 291:sardinia.cpp  **** 			SpliceBufferIsPlaying = true;
 4696              		.loc 17 291 4 is_stmt 1 view .LVU1176
 4697              		.loc 17 291 26 is_stmt 0 view .LVU1177
 4698 001a 184B     		ldr	r3, .L357+8
 4699 001c 0122     		movs	r2, #1
 4700 001e 1A70     		strb	r2, [r3]
 4701              	.L331:
 292:sardinia.cpp  **** 		}
 293:sardinia.cpp  **** 		else
 294:sardinia.cpp  **** 		{
 295:sardinia.cpp  **** 			SpliceBufferIsPlaying = false;
 296:sardinia.cpp  **** 		}
 297:sardinia.cpp  **** 	}
 298:sardinia.cpp  **** 
 299:sardinia.cpp  **** 	// Switch current buffer to play
 300:sardinia.cpp  **** 	if(RisingEdge_ControlButtons(4))
 4702              		.loc 17 300 2 is_stmt 1 view .LVU1178
 4703              	.LVL282:
 4704              	.LBB803:
 4705              	.LBI803:
 115:hardware.h    **** bool RisingEdge_ControlButtons(int buttonNum)
 4706              		.loc 14 115 6 view .LVU1179
 4707              	.LBB804:
 117:hardware.h    **** 	if(controlButtonStates[buttonNum] == true && prevControlButtonStates[buttonNum] == false)
 4708              		.loc 14 117 2 view .LVU1180
 117:hardware.h    **** 	if(controlButtonStates[buttonNum] == true && prevControlButtonStates[buttonNum] == false)
 4709              		.loc 14 117 34 is_stmt 0 view .LVU1181
 4710 0020 174B     		ldr	r3, .L357+12
 117:hardware.h    **** 	if(controlButtonStates[buttonNum] == true && prevControlButtonStates[buttonNum] == false)
 4711              		.loc 14 117 2 view .LVU1182
 4712 0022 1A79     		ldrb	r2, [r3, #4]	@ zero_extendqisi2
 4713 0024 12B1     		cbz	r2, .L335
 117:hardware.h    **** 	if(controlButtonStates[buttonNum] == true && prevControlButtonStates[buttonNum] == false)
 4714              		.loc 14 117 80 view .LVU1183
 4715 0026 174A     		ldr	r2, .L357+16
 117:hardware.h    **** 	if(controlButtonStates[buttonNum] == true && prevControlButtonStates[buttonNum] == false)
 4716              		.loc 14 117 44 view .LVU1184
 4717 0028 1279     		ldrb	r2, [r2, #4]	@ zero_extendqisi2
 4718 002a DAB1     		cbz	r2, .L354
 4719              	.LVL283:
 4720              	.L335:
 117:hardware.h    **** 	if(controlButtonStates[buttonNum] == true && prevControlButtonStates[buttonNum] == false)
 4721              		.loc 14 117 44 view .LVU1185
 4722              	.LBE804:
 4723              	.LBE803:
 301:sardinia.cpp  **** 	{
 302:sardinia.cpp  **** 		currentSpliceBuffer = 1;
 303:sardinia.cpp  **** 	}
 304:sardinia.cpp  **** 	if(RisingEdge_ControlButtons(5))
 4724              		.loc 17 304 2 is_stmt 1 view .LVU1186
 4725              	.LBB805:
 4726              	.LBI805:
 115:hardware.h    **** bool RisingEdge_ControlButtons(int buttonNum)
 4727              		.loc 14 115 6 view .LVU1187
ARM GAS  /var/folders/m5/x8wc2gdj7z5cpgcqdsb_gkj40000gn/T//ccGxviRN.s 			page 130


 4728              	.LBB806:
 117:hardware.h    **** 	if(controlButtonStates[buttonNum] == true && prevControlButtonStates[buttonNum] == false)
 4729              		.loc 14 117 2 view .LVU1188
 4730 002c 5A79     		ldrb	r2, [r3, #5]	@ zero_extendqisi2
 4731 002e 12B1     		cbz	r2, .L336
 117:hardware.h    **** 	if(controlButtonStates[buttonNum] == true && prevControlButtonStates[buttonNum] == false)
 4732              		.loc 14 117 80 is_stmt 0 view .LVU1189
 4733 0030 144A     		ldr	r2, .L357+16
 117:hardware.h    **** 	if(controlButtonStates[buttonNum] == true && prevControlButtonStates[buttonNum] == false)
 4734              		.loc 14 117 44 view .LVU1190
 4735 0032 5279     		ldrb	r2, [r2, #5]	@ zero_extendqisi2
 4736 0034 92B1     		cbz	r2, .L355
 4737              	.LVL284:
 4738              	.L336:
 117:hardware.h    **** 	if(controlButtonStates[buttonNum] == true && prevControlButtonStates[buttonNum] == false)
 4739              		.loc 14 117 44 view .LVU1191
 4740              	.LBE806:
 4741              	.LBE805:
 305:sardinia.cpp  **** 	{
 306:sardinia.cpp  **** 		currentSpliceBuffer = 2;
 307:sardinia.cpp  **** 	}
 308:sardinia.cpp  **** 	if(RisingEdge_ControlButtons(6))
 4742              		.loc 17 308 2 is_stmt 1 view .LVU1192
 4743              	.LBB807:
 4744              	.LBI807:
 115:hardware.h    **** bool RisingEdge_ControlButtons(int buttonNum)
 4745              		.loc 14 115 6 view .LVU1193
 4746              	.LBB808:
 117:hardware.h    **** 	if(controlButtonStates[buttonNum] == true && prevControlButtonStates[buttonNum] == false)
 4747              		.loc 14 117 2 view .LVU1194
 4748 0036 9A79     		ldrb	r2, [r3, #6]	@ zero_extendqisi2
 4749 0038 12B1     		cbz	r2, .L337
 117:hardware.h    **** 	if(controlButtonStates[buttonNum] == true && prevControlButtonStates[buttonNum] == false)
 4750              		.loc 14 117 80 is_stmt 0 view .LVU1195
 4751 003a 124A     		ldr	r2, .L357+16
 117:hardware.h    **** 	if(controlButtonStates[buttonNum] == true && prevControlButtonStates[buttonNum] == false)
 4752              		.loc 14 117 44 view .LVU1196
 4753 003c 9279     		ldrb	r2, [r2, #6]	@ zero_extendqisi2
 4754 003e 4AB1     		cbz	r2, .L356
 4755              	.LVL285:
 4756              	.L337:
 117:hardware.h    **** 	if(controlButtonStates[buttonNum] == true && prevControlButtonStates[buttonNum] == false)
 4757              		.loc 14 117 44 view .LVU1197
 4758              	.LBE808:
 4759              	.LBE807:
 309:sardinia.cpp  **** 	{
 310:sardinia.cpp  **** 		currentSpliceBuffer = 3;
 311:sardinia.cpp  **** 	}
 312:sardinia.cpp  **** 	if(RisingEdge_ControlButtons(7))
 4760              		.loc 17 312 2 is_stmt 1 view .LVU1198
 4761              	.LBB809:
 4762              	.LBI809:
 115:hardware.h    **** bool RisingEdge_ControlButtons(int buttonNum)
 4763              		.loc 14 115 6 view .LVU1199
 4764              	.LBB810:
 117:hardware.h    **** 	if(controlButtonStates[buttonNum] == true && prevControlButtonStates[buttonNum] == false)
 4765              		.loc 14 117 2 view .LVU1200
ARM GAS  /var/folders/m5/x8wc2gdj7z5cpgcqdsb_gkj40000gn/T//ccGxviRN.s 			page 131


 4766 0040 DB79     		ldrb	r3, [r3, #7]	@ zero_extendqisi2
 4767 0042 33B1     		cbz	r3, .L330
 117:hardware.h    **** 	if(controlButtonStates[buttonNum] == true && prevControlButtonStates[buttonNum] == false)
 4768              		.loc 14 117 80 is_stmt 0 view .LVU1201
 4769 0044 0F4B     		ldr	r3, .L357+16
 117:hardware.h    **** 	if(controlButtonStates[buttonNum] == true && prevControlButtonStates[buttonNum] == false)
 4770              		.loc 14 117 44 view .LVU1202
 4771 0046 DB79     		ldrb	r3, [r3, #7]	@ zero_extendqisi2
 4772 0048 1BB9     		cbnz	r3, .L330
 4773              	.LVL286:
 117:hardware.h    **** 	if(controlButtonStates[buttonNum] == true && prevControlButtonStates[buttonNum] == false)
 4774              		.loc 14 117 44 view .LVU1203
 4775              	.LBE810:
 4776              	.LBE809:
 313:sardinia.cpp  **** 	{
 314:sardinia.cpp  **** 		currentSpliceBuffer = 4;
 4777              		.loc 17 314 3 is_stmt 1 view .LVU1204
 4778              		.loc 17 314 23 is_stmt 0 view .LVU1205
 4779 004a 0F4B     		ldr	r3, .L357+20
 4780 004c 0422     		movs	r2, #4
 4781 004e 1A60     		str	r2, [r3]
 315:sardinia.cpp  **** 	}
 316:sardinia.cpp  **** 
 317:sardinia.cpp  **** }
 4782              		.loc 17 317 1 view .LVU1206
 4783 0050 7047     		bx	lr
 4784              	.LVL287:
 4785              	.L330:
 4786              		.loc 17 317 1 view .LVU1207
 4787 0052 7047     		bx	lr
 4788              	.LVL288:
 4789              	.L356:
 310:sardinia.cpp  **** 	}
 4790              		.loc 17 310 3 is_stmt 1 view .LVU1208
 310:sardinia.cpp  **** 	}
 4791              		.loc 17 310 23 is_stmt 0 view .LVU1209
 4792 0054 0C4A     		ldr	r2, .L357+20
 4793 0056 0321     		movs	r1, #3
 4794 0058 1160     		str	r1, [r2]
 4795 005a F1E7     		b	.L337
 4796              	.LVL289:
 4797              	.L355:
 306:sardinia.cpp  **** 	}
 4798              		.loc 17 306 3 is_stmt 1 view .LVU1210
 306:sardinia.cpp  **** 	}
 4799              		.loc 17 306 23 is_stmt 0 view .LVU1211
 4800 005c 0A4A     		ldr	r2, .L357+20
 4801 005e 0221     		movs	r1, #2
 4802 0060 1160     		str	r1, [r2]
 4803 0062 E8E7     		b	.L336
 4804              	.LVL290:
 4805              	.L354:
 302:sardinia.cpp  **** 	}
 4806              		.loc 17 302 3 is_stmt 1 view .LVU1212
 302:sardinia.cpp  **** 	}
 4807              		.loc 17 302 23 is_stmt 0 view .LVU1213
 4808 0064 084A     		ldr	r2, .L357+20
ARM GAS  /var/folders/m5/x8wc2gdj7z5cpgcqdsb_gkj40000gn/T//ccGxviRN.s 			page 132


 4809 0066 0121     		movs	r1, #1
 4810 0068 1160     		str	r1, [r2]
 4811 006a DFE7     		b	.L335
 4812              	.LVL291:
 4813              	.L352:
 295:sardinia.cpp  **** 		}
 4814              		.loc 17 295 4 is_stmt 1 view .LVU1214
 295:sardinia.cpp  **** 		}
 4815              		.loc 17 295 26 is_stmt 0 view .LVU1215
 4816 006c 034B     		ldr	r3, .L357+8
 4817 006e 1A70     		strb	r2, [r3]
 4818 0070 D6E7     		b	.L331
 4819              	.L358:
 4820 0072 00BF     		.align	2
 4821              	.L357:
 4822 0074 00000000 		.word	.LANCHOR41
 4823 0078 00000000 		.word	.LANCHOR1
 4824 007c 00000000 		.word	.LANCHOR44
 4825 0080 00000000 		.word	.LANCHOR9
 4826 0084 00000000 		.word	.LANCHOR10
 4827 0088 00000000 		.word	.LANCHOR42
 4828              		.cfi_endproc
 4829              	.LFE4715:
 4831              		.section	.text._Z17ProcessControlsARv,"ax",%progbits
 4832              		.align	1
 4833              		.p2align 2,,3
 4834              		.global	_Z17ProcessControlsARv
 4835              		.syntax unified
 4836              		.thumb
 4837              		.thumb_func
 4839              	_Z17ProcessControlsARv:
 4840              	.LFB4713:
 178:sardinia.cpp  **** 	// All control keys must be updated at same clock cycle 
 4841              		.loc 17 178 1 is_stmt 1 view -0
 4842              		.cfi_startproc
 4843              		@ args = 0, pretend = 0, frame = 0
 4844              		@ frame_needed = 0, uses_anonymous_args = 0
 181:sardinia.cpp  **** 	ModeSelect();
 4845              		.loc 17 181 2 view .LVU1217
 4846              	.LBB836:
 4847              	.LBI836:
 318:sardinia.cpp  **** 
 319:sardinia.cpp  **** void UpdateKeys()
 320:sardinia.cpp  **** {
 321:sardinia.cpp  **** 	for(int i = 0; i < 8; i++)
 322:sardinia.cpp  **** 	{
 323:sardinia.cpp  **** 		keyStates[i] = hw.adc.GetMuxFloat(1, i) < 0.5f;
 324:sardinia.cpp  **** 	}
 325:sardinia.cpp  **** 	for(int i = 8; i < 16; i++)
 326:sardinia.cpp  **** 	{
 327:sardinia.cpp  **** 		keyStates[i] = hw.adc.GetMuxFloat(2, i - 8) < 0.5f;
 328:sardinia.cpp  **** 	}
 329:sardinia.cpp  **** 	for(int i = 16; i < 24; i++)
 330:sardinia.cpp  **** 	{
 331:sardinia.cpp  **** 		keyStates[i] = hw.adc.GetMuxFloat(3, i - 16) < 0.5f;
 332:sardinia.cpp  **** 	}
 333:sardinia.cpp  **** 	for(int i = 24; i < 32; i++)
ARM GAS  /var/folders/m5/x8wc2gdj7z5cpgcqdsb_gkj40000gn/T//ccGxviRN.s 			page 133


 334:sardinia.cpp  **** 	{
 335:sardinia.cpp  **** 		keyStates[i] = hw.adc.GetMuxFloat(4, i - 24) < 0.5f;
 336:sardinia.cpp  **** 	}
 337:sardinia.cpp  **** 	noteKey = FindFirstPressedKey();
 338:sardinia.cpp  **** }
 339:sardinia.cpp  **** 
 340:sardinia.cpp  **** void UpdateControlButtons()
 4848              		.loc 17 340 6 view .LVU1218
 4849              	.LBE836:
 341:sardinia.cpp  **** {
 342:sardinia.cpp  **** 	for(int i = 0; i < 8; i++)
 4850              		.loc 17 342 2 view .LVU1219
 4851              	.LVL292:
 4852              	.LBB839:
 4853              	.LBB837:
 4854              		.loc 17 342 19 view .LVU1220
 4855              	.LBE837:
 4856              	.LBE839:
 178:sardinia.cpp  **** 	// All control keys must be updated at same clock cycle 
 4857              		.loc 17 178 1 is_stmt 0 view .LVU1221
 4858 0000 38B5     		push	{r3, r4, r5, lr}
 4859              		.cfi_def_cfa_offset 16
 4860              		.cfi_offset 3, -16
 4861              		.cfi_offset 4, -12
 4862              		.cfi_offset 5, -8
 4863              		.cfi_offset 14, -4
 4864 0002 304D     		ldr	r5, .L385
 4865              	.LBB840:
 4866              	.LBB838:
 4867              		.loc 17 342 10 view .LVU1222
 4868 0004 0024     		movs	r4, #0
 4869              	.LVL293:
 4870              	.L360:
 343:sardinia.cpp  **** 	{
 344:sardinia.cpp  **** 		controlButtonStates[i] = hw.adc.GetMuxFloat(5, i) < 0.5f;
 4871              		.loc 17 344 3 is_stmt 1 view .LVU1223
 4872              		.loc 17 344 46 is_stmt 0 view .LVU1224
 4873 0006 E2B2     		uxtb	r2, r4
 4874 0008 0521     		movs	r1, #5
 4875 000a 2F48     		ldr	r0, .L385+4
 342:sardinia.cpp  **** 	{
 4876              		.loc 17 342 2 view .LVU1225
 4877 000c 0134     		adds	r4, r4, #1
 4878              	.LVL294:
 4879              		.loc 17 344 46 view .LVU1226
 4880 000e FFF7FEFF 		bl	_ZNK5daisy9AdcHandle11GetMuxFloatEhh
 4881              	.LVL295:
 4882              		.loc 17 344 53 view .LVU1227
 4883 0012 F6EE007A 		vmov.f32	s15, #5.0e-1
 4884 0016 B4EEE70A 		vcmpe.f32	s0, s15
 4885 001a F1EE10FA 		vmrs	APSR_nzcv, FPSCR
 4886 001e 4CBF     		ite	mi
 4887 0020 0123     		movmi	r3, #1
 4888 0022 0023     		movpl	r3, #0
 342:sardinia.cpp  **** 	{
 4889              		.loc 17 342 19 view .LVU1228
 4890 0024 082C     		cmp	r4, #8
ARM GAS  /var/folders/m5/x8wc2gdj7z5cpgcqdsb_gkj40000gn/T//ccGxviRN.s 			page 134


 4891              		.loc 17 344 53 view .LVU1229
 4892 0026 05F8013F 		strb	r3, [r5, #1]!
 342:sardinia.cpp  **** 	{
 4893              		.loc 17 342 2 is_stmt 1 view .LVU1230
 4894              	.LVL296:
 342:sardinia.cpp  **** 	{
 4895              		.loc 17 342 19 view .LVU1231
 4896 002a ECD1     		bne	.L360
 4897              	.LVL297:
 342:sardinia.cpp  **** 	{
 4898              		.loc 17 342 19 is_stmt 0 view .LVU1232
 4899              	.LBE838:
 4900              	.LBE840:
 182:sardinia.cpp  **** 
 4901              		.loc 17 182 2 is_stmt 1 view .LVU1233
 4902              	.LBB841:
 4903              	.LBI841:
 345:sardinia.cpp  **** 	}
 346:sardinia.cpp  **** }
 347:sardinia.cpp  **** 
 348:sardinia.cpp  **** void RecordControlButtonStates()
 349:sardinia.cpp  **** {
 350:sardinia.cpp  **** 	for(int i = 0; i < 8; i++)
 351:sardinia.cpp  **** 	{
 352:sardinia.cpp  **** 		prevControlButtonStates[i] = controlButtonStates[i];
 353:sardinia.cpp  **** 	}
 354:sardinia.cpp  **** }
 355:sardinia.cpp  **** 
 356:sardinia.cpp  **** void ModeSelect()
 4904              		.loc 17 356 6 view .LVU1234
 4905              	.LBE841:
 357:sardinia.cpp  **** {
 358:sardinia.cpp  **** 	if(RisingEdge_ControlButtons(2)) // Adjusts the output amplitude based on the knob
 4906              		.loc 17 358 2 view .LVU1235
 4907              	.LBB857:
 4908              	.LBB842:
 4909              	.LBI842:
 115:hardware.h    **** bool RisingEdge_ControlButtons(int buttonNum)
 4910              		.loc 14 115 6 view .LVU1236
 4911              	.LBB843:
 117:hardware.h    **** 	if(controlButtonStates[buttonNum] == true && prevControlButtonStates[buttonNum] == false)
 4912              		.loc 14 117 2 view .LVU1237
 117:hardware.h    **** 	if(controlButtonStates[buttonNum] == true && prevControlButtonStates[buttonNum] == false)
 4913              		.loc 14 117 34 is_stmt 0 view .LVU1238
 4914 002c 274C     		ldr	r4, .L385+8
 117:hardware.h    **** 	if(controlButtonStates[buttonNum] == true && prevControlButtonStates[buttonNum] == false)
 4915              		.loc 14 117 2 view .LVU1239
 4916 002e A378     		ldrb	r3, [r4, #2]	@ zero_extendqisi2
 4917 0030 D3B1     		cbz	r3, .L361
 117:hardware.h    **** 	if(controlButtonStates[buttonNum] == true && prevControlButtonStates[buttonNum] == false)
 4918              		.loc 14 117 80 view .LVU1240
 4919 0032 274B     		ldr	r3, .L385+12
 117:hardware.h    **** 	if(controlButtonStates[buttonNum] == true && prevControlButtonStates[buttonNum] == false)
 4920              		.loc 14 117 44 view .LVU1241
 4921 0034 9A78     		ldrb	r2, [r3, #2]	@ zero_extendqisi2
 4922 0036 BAB9     		cbnz	r2, .L361
 4923              	.LVL298:
ARM GAS  /var/folders/m5/x8wc2gdj7z5cpgcqdsb_gkj40000gn/T//ccGxviRN.s 			page 135


 4924              	.L379:
 117:hardware.h    **** 	if(controlButtonStates[buttonNum] == true && prevControlButtonStates[buttonNum] == false)
 4925              		.loc 14 117 44 view .LVU1242
 4926              	.LBE843:
 4927              	.LBE842:
 4928              	.LBE857:
 184:sardinia.cpp  **** 	{
 4929              		.loc 17 184 2 is_stmt 1 view .LVU1243
 4930              	.LBB858:
 4931              	.LBI858:
 115:hardware.h    **** bool RisingEdge_ControlButtons(int buttonNum)
 4932              		.loc 14 115 6 view .LVU1244
 4933              	.LBB859:
 117:hardware.h    **** 	if(controlButtonStates[buttonNum] == true && prevControlButtonStates[buttonNum] == false)
 4934              		.loc 14 117 2 view .LVU1245
 4935              	.LBE859:
 4936              	.LBE858:
 4937              	.LBB863:
 4938              	.LBB845:
 4939              	.LBB846:
 4940              	.LBB847:
 133:display.h     **** 	}
 4941              		.loc 15 133 8 is_stmt 0 view .LVU1246
 4942 0038 2649     		ldr	r1, .L385+16
 4943              		.loc 15 135 1 view .LVU1247
 4944 003a 1346     		mov	r3, r2
 133:display.h     **** 	}
 4945              		.loc 15 133 8 view .LVU1248
 4946 003c 0A70     		strb	r2, [r1]
 4947              	.LBE847:
 4948              	.LBE846:
 4949              	.LBE845:
 4950              	.LBE863:
 4951              	.LBB864:
 4952              	.LBB860:
 117:hardware.h    **** 	if(controlButtonStates[buttonNum] == true && prevControlButtonStates[buttonNum] == false)
 4953              		.loc 14 117 34 view .LVU1249
 4954 003e 2278     		ldrb	r2, [r4]	@ zero_extendqisi2
 117:hardware.h    **** 	if(controlButtonStates[buttonNum] == true && prevControlButtonStates[buttonNum] == false)
 4955              		.loc 14 117 2 view .LVU1250
 4956 0040 002A     		cmp	r2, #0
 4957 0042 2DD0     		beq	.L365
 4958              	.L384:
 117:hardware.h    **** 	if(controlButtonStates[buttonNum] == true && prevControlButtonStates[buttonNum] == false)
 4959              		.loc 14 117 80 view .LVU1251
 4960 0044 2249     		ldr	r1, .L385+12
 117:hardware.h    **** 	if(controlButtonStates[buttonNum] == true && prevControlButtonStates[buttonNum] == false)
 4961              		.loc 14 117 44 view .LVU1252
 4962 0046 0978     		ldrb	r1, [r1]	@ zero_extendqisi2
 4963 0048 A9B1     		cbz	r1, .L380
 4964              	.LVL299:
 4965              	.L366:
 117:hardware.h    **** 	if(controlButtonStates[buttonNum] == true && prevControlButtonStates[buttonNum] == false)
 4966              		.loc 14 117 44 view .LVU1253
 4967              	.LBE860:
 4968              	.LBE864:
 204:sardinia.cpp  **** 	{
ARM GAS  /var/folders/m5/x8wc2gdj7z5cpgcqdsb_gkj40000gn/T//ccGxviRN.s 			page 136


 4969              		.loc 17 204 2 is_stmt 1 view .LVU1254
 4970 004a 03B3     		cbz	r3, .L381
 4971              	.L368:
 208:sardinia.cpp  **** 	{
 4972              		.loc 17 208 7 view .LVU1255
 4973 004c 012B     		cmp	r3, #1
 4974 004e 35D0     		beq	.L382
 4975              	.L369:
 4976 0050 214B     		ldr	r3, .L385+20
 4977 0052 2249     		ldr	r1, .L385+24
 4978 0054 03F10800 		add	r0, r3, #8
 4979 0058 01E0     		b	.L371
 4980              	.LVL300:
 4981              	.L383:
 4982              	.LBB865:
 4983              	.LBB866:
 352:sardinia.cpp  **** 	}
 4984              		.loc 17 352 53 is_stmt 0 view .LVU1256
 4985 005a 11F8012B 		ldrb	r2, [r1], #1	@ zero_extendqisi2
 4986              	.LVL301:
 4987              	.L371:
 352:sardinia.cpp  **** 	}
 4988              		.loc 17 352 3 is_stmt 1 view .LVU1257
 352:sardinia.cpp  **** 	}
 4989              		.loc 17 352 30 is_stmt 0 view .LVU1258
 4990 005e 03F8012F 		strb	r2, [r3, #1]!
 4991              	.LVL302:
 350:sardinia.cpp  **** 	{
 4992              		.loc 17 350 2 is_stmt 1 view .LVU1259
 350:sardinia.cpp  **** 	{
 4993              		.loc 17 350 19 view .LVU1260
 4994 0062 8342     		cmp	r3, r0
 4995 0064 F9D1     		bne	.L383
 4996              	.LBE866:
 4997              	.LBE865:
 214:sardinia.cpp  **** 
 4998              		.loc 17 214 1 is_stmt 0 view .LVU1261
 4999 0066 38BD     		pop	{r3, r4, r5, pc}
 5000              	.LVL303:
 5001              	.L361:
 5002              	.LBB869:
 5003              	.LBB852:
 5004              	.LBB844:
 123:hardware.h    **** 		return false;
 5005              		.loc 14 123 3 is_stmt 1 view .LVU1262
 123:hardware.h    **** 		return false;
 5006              		.loc 14 123 3 is_stmt 0 view .LVU1263
 5007              	.LBE844:
 5008              	.LBE852:
 5009              	.LBE869:
 359:sardinia.cpp  **** 	{
 360:sardinia.cpp  **** 		UpdateMode(0);
 361:sardinia.cpp  **** 	}
 362:sardinia.cpp  **** 	else if(RisingEdge_ControlButtons(3))
 5010              		.loc 17 362 7 is_stmt 1 view .LVU1264
 5011              	.LBB870:
 5012              	.LBB853:
ARM GAS  /var/folders/m5/x8wc2gdj7z5cpgcqdsb_gkj40000gn/T//ccGxviRN.s 			page 137


 5013              	.LBI853:
 115:hardware.h    **** bool RisingEdge_ControlButtons(int buttonNum)
 5014              		.loc 14 115 6 view .LVU1265
 5015              	.LBB854:
 117:hardware.h    **** 	if(controlButtonStates[buttonNum] == true && prevControlButtonStates[buttonNum] == false)
 5016              		.loc 14 117 2 view .LVU1266
 5017 0068 E378     		ldrb	r3, [r4, #3]	@ zero_extendqisi2
 5018 006a A3B1     		cbz	r3, .L364
 5019              	.LBE854:
 5020              	.LBE853:
 5021              	.LBB855:
 5022              	.LBI845:
 356:sardinia.cpp  **** {
 5023              		.loc 17 356 6 view .LVU1267
 5024              	.LBB849:
 5025              	.LBB850:
 117:hardware.h    **** 	if(controlButtonStates[buttonNum] == true && prevControlButtonStates[buttonNum] == false)
 5026              		.loc 14 117 80 is_stmt 0 view .LVU1268
 5027 006c 184B     		ldr	r3, .L385+12
 117:hardware.h    **** 	if(controlButtonStates[buttonNum] == true && prevControlButtonStates[buttonNum] == false)
 5028              		.loc 14 117 44 view .LVU1269
 5029 006e DB78     		ldrb	r3, [r3, #3]	@ zero_extendqisi2
 5030 0070 8BB9     		cbnz	r3, .L364
 5031              	.LBE850:
 5032              	.LBE849:
 5033              	.LBE855:
 5034              	.LBE870:
 363:sardinia.cpp  **** 	{
 364:sardinia.cpp  **** 		UpdateMode(1);
 5035              		.loc 17 364 3 is_stmt 1 view .LVU1270
 5036              	.LVL304:
 5037              	.LBB871:
 5038              	.LBB856:
 5039              	.LBB851:
 5040              	.LBI846:
 125:display.h     **** {
 5041              		.loc 15 125 6 view .LVU1271
 5042              	.LBB848:
 127:display.h     **** 	{
 5043              		.loc 15 127 2 view .LVU1272
 131:display.h     **** 	{
 5044              		.loc 15 131 7 view .LVU1273
 133:display.h     **** 	}
 5045              		.loc 15 133 3 view .LVU1274
 133:display.h     **** 	}
 5046              		.loc 15 133 8 is_stmt 0 view .LVU1275
 5047 0072 0122     		movs	r2, #1
 5048 0074 E0E7     		b	.L379
 5049              	.LVL305:
 5050              	.L380:
 133:display.h     **** 	}
 5051              		.loc 15 133 8 view .LVU1276
 5052              	.LBE848:
 5053              	.LBE851:
 5054              	.LBE856:
 5055              	.LBE871:
 186:sardinia.cpp  **** 		{
ARM GAS  /var/folders/m5/x8wc2gdj7z5cpgcqdsb_gkj40000gn/T//ccGxviRN.s 			page 138


 5056              		.loc 17 186 3 is_stmt 1 view .LVU1277
 186:sardinia.cpp  **** 		{
 5057              		.loc 17 186 16 is_stmt 0 view .LVU1278
 5058 0076 1A49     		ldr	r1, .L385+28
 186:sardinia.cpp  **** 		{
 5059              		.loc 17 186 3 view .LVU1279
 5060 0078 0878     		ldrb	r0, [r1]	@ zero_extendqisi2
 5061 007a D0B9     		cbnz	r0, .L367
 188:sardinia.cpp  **** 			isPlaying = true;
 5062              		.loc 17 188 4 is_stmt 1 view .LVU1280
 189:sardinia.cpp  **** 			playButtonOverrule = true;
 5063              		.loc 17 189 14 is_stmt 0 view .LVU1281
 5064 007c 0120     		movs	r0, #1
 188:sardinia.cpp  **** 			isPlaying = true;
 5065              		.loc 17 188 24 view .LVU1282
 5066 007e 194D     		ldr	r5, .L385+32
 189:sardinia.cpp  **** 			playButtonOverrule = true;
 5067              		.loc 17 189 14 view .LVU1283
 5068 0080 0870     		strb	r0, [r1]
 188:sardinia.cpp  **** 			isPlaying = true;
 5069              		.loc 17 188 24 view .LVU1284
 5070 0082 0021     		movs	r1, #0
 5071 0084 2960     		str	r1, [r5]	@ float
 189:sardinia.cpp  **** 			playButtonOverrule = true;
 5072              		.loc 17 189 4 is_stmt 1 view .LVU1285
 190:sardinia.cpp  **** 		}
 5073              		.loc 17 190 4 view .LVU1286
 190:sardinia.cpp  **** 		}
 5074              		.loc 17 190 23 is_stmt 0 view .LVU1287
 5075 0086 1849     		ldr	r1, .L385+36
 5076 0088 0870     		strb	r0, [r1]
 204:sardinia.cpp  **** 	{
 5077              		.loc 17 204 2 is_stmt 1 view .LVU1288
 5078 008a 002B     		cmp	r3, #0
 5079 008c DED1     		bne	.L368
 5080              	.L381:
 206:sardinia.cpp  **** 	}
 5081              		.loc 17 206 3 view .LVU1289
 206:sardinia.cpp  **** 	}
 5082              		.loc 17 206 21 is_stmt 0 view .LVU1290
 5083 008e FFF7FEFF 		bl	_Z18RecordModeControlsv
 5084              	.LVL306:
 5085              	.LBB872:
 5086              	.LBB867:
 352:sardinia.cpp  **** 	}
 5087              		.loc 17 352 53 view .LVU1291
 5088 0092 2278     		ldrb	r2, [r4]	@ zero_extendqisi2
 5089              	.LBE867:
 5090              	.LBE872:
 5091 0094 DCE7     		b	.L369
 5092              	.LVL307:
 5093              	.L364:
 204:sardinia.cpp  **** 	{
 5094              		.loc 17 204 10 view .LVU1292
 5095 0096 0F4B     		ldr	r3, .L385+16
 5096              	.LBB873:
 5097              	.LBB861:
ARM GAS  /var/folders/m5/x8wc2gdj7z5cpgcqdsb_gkj40000gn/T//ccGxviRN.s 			page 139


 117:hardware.h    **** 	if(controlButtonStates[buttonNum] == true && prevControlButtonStates[buttonNum] == false)
 5098              		.loc 14 117 34 view .LVU1293
 5099 0098 2278     		ldrb	r2, [r4]	@ zero_extendqisi2
 5100              	.LBE861:
 5101              	.LBE873:
 204:sardinia.cpp  **** 	{
 5102              		.loc 17 204 10 view .LVU1294
 5103 009a 1B78     		ldrb	r3, [r3]	@ zero_extendqisi2
 5104              	.LVL308:
 184:sardinia.cpp  **** 	{
 5105              		.loc 17 184 2 is_stmt 1 view .LVU1295
 5106              	.LBB874:
 115:hardware.h    **** bool RisingEdge_ControlButtons(int buttonNum)
 5107              		.loc 14 115 6 view .LVU1296
 5108              	.LBB862:
 117:hardware.h    **** 	if(controlButtonStates[buttonNum] == true && prevControlButtonStates[buttonNum] == false)
 5109              		.loc 14 117 2 view .LVU1297
 5110 009c 002A     		cmp	r2, #0
 5111 009e D1D1     		bne	.L384
 5112              	.L365:
 123:hardware.h    **** 		return false;
 5113              		.loc 14 123 3 view .LVU1298
 5114              	.LVL309:
 123:hardware.h    **** 		return false;
 5115              		.loc 14 123 3 is_stmt 0 view .LVU1299
 5116              	.LBE862:
 5117              	.LBE874:
 198:sardinia.cpp  **** 	{
 5118              		.loc 17 198 7 is_stmt 1 view .LVU1300
 198:sardinia.cpp  **** 	{
 5119              		.loc 17 198 29 is_stmt 0 view .LVU1301
 5120 00a0 1049     		ldr	r1, .L385+32
 198:sardinia.cpp  **** 	{
 5121              		.loc 17 198 7 view .LVU1302
 5122 00a2 D1ED007A 		vldr.32	s15, [r1]
 5123 00a6 F5EE407A 		vcmp.f32	s15, #0
 5124 00aa F1EE10FA 		vmrs	APSR_nzcv, FPSCR
 5125 00ae CCD1     		bne	.L366
 5126 00b0 0B49     		ldr	r1, .L385+28
 5127              	.L367:
 194:sardinia.cpp  **** 			playButtonOverrule = false;
 5128              		.loc 17 194 4 is_stmt 1 view .LVU1303
 194:sardinia.cpp  **** 			playButtonOverrule = false;
 5129              		.loc 17 194 14 is_stmt 0 view .LVU1304
 5130 00b2 0020     		movs	r0, #0
 5131 00b4 0870     		strb	r0, [r1]
 195:sardinia.cpp  **** 		}
 5132              		.loc 17 195 4 is_stmt 1 view .LVU1305
 195:sardinia.cpp  **** 		}
 5133              		.loc 17 195 23 is_stmt 0 view .LVU1306
 5134 00b6 0C49     		ldr	r1, .L385+36
 5135 00b8 0870     		strb	r0, [r1]
 5136 00ba C6E7     		b	.L366
 5137              	.L382:
 210:sardinia.cpp  **** 	}
 5138              		.loc 17 210 3 is_stmt 1 view .LVU1307
 210:sardinia.cpp  **** 	}
ARM GAS  /var/folders/m5/x8wc2gdj7z5cpgcqdsb_gkj40000gn/T//ccGxviRN.s 			page 140


 5139              		.loc 17 210 19 is_stmt 0 view .LVU1308
 5140 00bc FFF7FEFF 		bl	_Z16PlayModeControlsv
 5141              	.LVL310:
 5142              	.LBB875:
 5143              	.LBB868:
 352:sardinia.cpp  **** 	}
 5144              		.loc 17 352 53 view .LVU1309
 5145 00c0 2278     		ldrb	r2, [r4]	@ zero_extendqisi2
 5146              	.LBE868:
 5147              	.LBE875:
 5148 00c2 C5E7     		b	.L369
 5149              	.L386:
 5150              		.align	2
 5151              	.L385:
 5152 00c4 FFFFFFFF 		.word	.LANCHOR9-1
 5153 00c8 18000000 		.word	.LANCHOR36+24
 5154 00cc 00000000 		.word	.LANCHOR9
 5155 00d0 00000000 		.word	.LANCHOR10
 5156 00d4 00000000 		.word	.LANCHOR29
 5157 00d8 FFFFFFFF 		.word	.LANCHOR10-1
 5158 00dc 01000000 		.word	.LANCHOR9+1
 5159 00e0 00000000 		.word	.LANCHOR43
 5160 00e4 00000000 		.word	.LANCHOR15
 5161 00e8 00000000 		.word	.LANCHOR41
 5162              		.cfi_endproc
 5163              	.LFE4713:
 5165              		.section	.text._Z10UpdateKeysv,"ax",%progbits
 5166              		.align	1
 5167              		.p2align 2,,3
 5168              		.global	_Z10UpdateKeysv
 5169              		.syntax unified
 5170              		.thumb
 5171              		.thumb_func
 5173              	_Z10UpdateKeysv:
 5174              	.LFB4716:
 320:sardinia.cpp  **** 	for(int i = 0; i < 8; i++)
 5175              		.loc 17 320 1 is_stmt 1 view -0
 5176              		.cfi_startproc
 5177              		@ args = 0, pretend = 0, frame = 0
 5178              		@ frame_needed = 0, uses_anonymous_args = 0
 321:sardinia.cpp  **** 	{
 5179              		.loc 17 321 2 view .LVU1311
 5180              	.LVL311:
 5181              	.LBB876:
 321:sardinia.cpp  **** 	{
 5182              		.loc 17 321 19 view .LVU1312
 5183              	.LBE876:
 320:sardinia.cpp  **** 	for(int i = 0; i < 8; i++)
 5184              		.loc 17 320 1 is_stmt 0 view .LVU1313
 5185 0000 38B5     		push	{r3, r4, r5, lr}
 5186              		.cfi_def_cfa_offset 16
 5187              		.cfi_offset 3, -16
 5188              		.cfi_offset 4, -12
 5189              		.cfi_offset 5, -8
 5190              		.cfi_offset 14, -4
 5191 0002 334D     		ldr	r5, .L402
 5192              	.LBB877:
ARM GAS  /var/folders/m5/x8wc2gdj7z5cpgcqdsb_gkj40000gn/T//ccGxviRN.s 			page 141


 321:sardinia.cpp  **** 	{
 5193              		.loc 17 321 10 view .LVU1314
 5194 0004 0024     		movs	r4, #0
 5195              	.LVL312:
 5196              	.L388:
 323:sardinia.cpp  **** 	}
 5197              		.loc 17 323 3 is_stmt 1 discriminator 2 view .LVU1315
 323:sardinia.cpp  **** 	}
 5198              		.loc 17 323 36 is_stmt 0 discriminator 2 view .LVU1316
 5199 0006 0121     		movs	r1, #1
 5200 0008 E2B2     		uxtb	r2, r4
 5201 000a 3248     		ldr	r0, .L402+4
 321:sardinia.cpp  **** 	{
 5202              		.loc 17 321 2 discriminator 2 view .LVU1317
 5203 000c 0C44     		add	r4, r4, r1
 5204              	.LVL313:
 323:sardinia.cpp  **** 	}
 5205              		.loc 17 323 36 discriminator 2 view .LVU1318
 5206 000e FFF7FEFF 		bl	_ZNK5daisy9AdcHandle11GetMuxFloatEhh
 5207              	.LVL314:
 323:sardinia.cpp  **** 	}
 5208              		.loc 17 323 43 discriminator 2 view .LVU1319
 5209 0012 F6EE007A 		vmov.f32	s15, #5.0e-1
 5210 0016 B4EEE70A 		vcmpe.f32	s0, s15
 5211 001a F1EE10FA 		vmrs	APSR_nzcv, FPSCR
 5212 001e 4CBF     		ite	mi
 5213 0020 0123     		movmi	r3, #1
 5214 0022 0023     		movpl	r3, #0
 321:sardinia.cpp  **** 	{
 5215              		.loc 17 321 19 discriminator 2 view .LVU1320
 5216 0024 082C     		cmp	r4, #8
 323:sardinia.cpp  **** 	}
 5217              		.loc 17 323 43 discriminator 2 view .LVU1321
 5218 0026 05F8013F 		strb	r3, [r5, #1]!
 321:sardinia.cpp  **** 	{
 5219              		.loc 17 321 2 is_stmt 1 discriminator 2 view .LVU1322
 5220              	.LVL315:
 321:sardinia.cpp  **** 	{
 5221              		.loc 17 321 19 discriminator 2 view .LVU1323
 5222 002a ECD1     		bne	.L388
 5223 002c 2A4D     		ldr	r5, .L402+8
 321:sardinia.cpp  **** 	{
 5224              		.loc 17 321 19 is_stmt 0 view .LVU1324
 5225 002e 0024     		movs	r4, #0
 5226              	.LVL316:
 5227              	.L389:
 321:sardinia.cpp  **** 	{
 5228              		.loc 17 321 19 view .LVU1325
 5229              	.LBE877:
 5230              	.LBB878:
 327:sardinia.cpp  **** 	}
 5231              		.loc 17 327 3 is_stmt 1 discriminator 2 view .LVU1326
 327:sardinia.cpp  **** 	}
 5232              		.loc 17 327 36 is_stmt 0 discriminator 2 view .LVU1327
 5233 0030 E2B2     		uxtb	r2, r4
 5234 0032 0221     		movs	r1, #2
 5235 0034 2748     		ldr	r0, .L402+4
ARM GAS  /var/folders/m5/x8wc2gdj7z5cpgcqdsb_gkj40000gn/T//ccGxviRN.s 			page 142


 325:sardinia.cpp  **** 	{
 5236              		.loc 17 325 19 discriminator 2 view .LVU1328
 5237 0036 0134     		adds	r4, r4, #1
 5238              	.LVL317:
 327:sardinia.cpp  **** 	}
 5239              		.loc 17 327 36 discriminator 2 view .LVU1329
 5240 0038 FFF7FEFF 		bl	_ZNK5daisy9AdcHandle11GetMuxFloatEhh
 5241              	.LVL318:
 327:sardinia.cpp  **** 	}
 5242              		.loc 17 327 47 discriminator 2 view .LVU1330
 5243 003c F6EE007A 		vmov.f32	s15, #5.0e-1
 5244 0040 B4EEE70A 		vcmpe.f32	s0, s15
 5245 0044 F1EE10FA 		vmrs	APSR_nzcv, FPSCR
 5246 0048 4CBF     		ite	mi
 5247 004a 0123     		movmi	r3, #1
 5248 004c 0023     		movpl	r3, #0
 325:sardinia.cpp  **** 	{
 5249              		.loc 17 325 19 discriminator 2 view .LVU1331
 5250 004e 082C     		cmp	r4, #8
 327:sardinia.cpp  **** 	}
 5251              		.loc 17 327 47 discriminator 2 view .LVU1332
 5252 0050 05F8013B 		strb	r3, [r5], #1
 325:sardinia.cpp  **** 	{
 5253              		.loc 17 325 2 is_stmt 1 discriminator 2 view .LVU1333
 5254              	.LVL319:
 325:sardinia.cpp  **** 	{
 5255              		.loc 17 325 19 discriminator 2 view .LVU1334
 5256 0054 ECD1     		bne	.L389
 5257 0056 214D     		ldr	r5, .L402+12
 325:sardinia.cpp  **** 	{
 5258              		.loc 17 325 19 is_stmt 0 view .LVU1335
 5259 0058 0024     		movs	r4, #0
 5260              	.L390:
 5261              	.LVL320:
 325:sardinia.cpp  **** 	{
 5262              		.loc 17 325 19 view .LVU1336
 5263              	.LBE878:
 5264              	.LBB879:
 331:sardinia.cpp  **** 	}
 5265              		.loc 17 331 3 is_stmt 1 discriminator 2 view .LVU1337
 331:sardinia.cpp  **** 	}
 5266              		.loc 17 331 36 is_stmt 0 discriminator 2 view .LVU1338
 5267 005a E2B2     		uxtb	r2, r4
 5268 005c 0321     		movs	r1, #3
 5269 005e 1D48     		ldr	r0, .L402+4
 329:sardinia.cpp  **** 	{
 5270              		.loc 17 329 20 discriminator 2 view .LVU1339
 5271 0060 0134     		adds	r4, r4, #1
 5272              	.LVL321:
 331:sardinia.cpp  **** 	}
 5273              		.loc 17 331 36 discriminator 2 view .LVU1340
 5274 0062 FFF7FEFF 		bl	_ZNK5daisy9AdcHandle11GetMuxFloatEhh
 5275              	.LVL322:
 331:sardinia.cpp  **** 	}
 5276              		.loc 17 331 48 discriminator 2 view .LVU1341
 5277 0066 F6EE007A 		vmov.f32	s15, #5.0e-1
 5278 006a B4EEE70A 		vcmpe.f32	s0, s15
ARM GAS  /var/folders/m5/x8wc2gdj7z5cpgcqdsb_gkj40000gn/T//ccGxviRN.s 			page 143


 5279 006e F1EE10FA 		vmrs	APSR_nzcv, FPSCR
 5280 0072 4CBF     		ite	mi
 5281 0074 0123     		movmi	r3, #1
 5282 0076 0023     		movpl	r3, #0
 329:sardinia.cpp  **** 	{
 5283              		.loc 17 329 20 discriminator 2 view .LVU1342
 5284 0078 082C     		cmp	r4, #8
 331:sardinia.cpp  **** 	}
 5285              		.loc 17 331 48 discriminator 2 view .LVU1343
 5286 007a 05F8013B 		strb	r3, [r5], #1
 329:sardinia.cpp  **** 	{
 5287              		.loc 17 329 2 is_stmt 1 discriminator 2 view .LVU1344
 5288              	.LVL323:
 329:sardinia.cpp  **** 	{
 5289              		.loc 17 329 20 discriminator 2 view .LVU1345
 5290 007e ECD1     		bne	.L390
 5291 0080 174D     		ldr	r5, .L402+16
 329:sardinia.cpp  **** 	{
 5292              		.loc 17 329 20 is_stmt 0 view .LVU1346
 5293 0082 0024     		movs	r4, #0
 5294              	.L391:
 5295              	.LVL324:
 329:sardinia.cpp  **** 	{
 5296              		.loc 17 329 20 view .LVU1347
 5297              	.LBE879:
 5298              	.LBB880:
 335:sardinia.cpp  **** 	}
 5299              		.loc 17 335 3 is_stmt 1 discriminator 2 view .LVU1348
 335:sardinia.cpp  **** 	}
 5300              		.loc 17 335 36 is_stmt 0 discriminator 2 view .LVU1349
 5301 0084 E2B2     		uxtb	r2, r4
 5302 0086 0421     		movs	r1, #4
 5303 0088 1248     		ldr	r0, .L402+4
 333:sardinia.cpp  **** 	{
 5304              		.loc 17 333 20 discriminator 2 view .LVU1350
 5305 008a 0134     		adds	r4, r4, #1
 5306              	.LVL325:
 335:sardinia.cpp  **** 	}
 5307              		.loc 17 335 36 discriminator 2 view .LVU1351
 5308 008c FFF7FEFF 		bl	_ZNK5daisy9AdcHandle11GetMuxFloatEhh
 5309              	.LVL326:
 335:sardinia.cpp  **** 	}
 5310              		.loc 17 335 48 discriminator 2 view .LVU1352
 5311 0090 F6EE007A 		vmov.f32	s15, #5.0e-1
 5312 0094 B4EEE70A 		vcmpe.f32	s0, s15
 5313 0098 F1EE10FA 		vmrs	APSR_nzcv, FPSCR
 5314 009c 4CBF     		ite	mi
 5315 009e 0123     		movmi	r3, #1
 5316 00a0 0023     		movpl	r3, #0
 333:sardinia.cpp  **** 	{
 5317              		.loc 17 333 20 discriminator 2 view .LVU1353
 5318 00a2 082C     		cmp	r4, #8
 335:sardinia.cpp  **** 	}
 5319              		.loc 17 335 48 discriminator 2 view .LVU1354
 5320 00a4 05F8013B 		strb	r3, [r5], #1
 333:sardinia.cpp  **** 	{
 5321              		.loc 17 333 2 is_stmt 1 discriminator 2 view .LVU1355
ARM GAS  /var/folders/m5/x8wc2gdj7z5cpgcqdsb_gkj40000gn/T//ccGxviRN.s 			page 144


 5322              	.LVL327:
 333:sardinia.cpp  **** 	{
 5323              		.loc 17 333 20 discriminator 2 view .LVU1356
 5324 00a8 ECD1     		bne	.L391
 5325 00aa 0E4A     		ldr	r2, .L402+20
 5326              	.LBE880:
 5327              	.LBB881:
 5328              	.LBB882:
 5329              	.LBB883:
 344:sampleengine.h ****     {
 5330              		.loc 13 344 13 is_stmt 0 view .LVU1357
 5331 00ac 0023     		movs	r3, #0
 5332 00ae 02E0     		b	.L393
 5333              	.LVL328:
 5334              	.L401:
 344:sampleengine.h ****     {
 5335              		.loc 13 344 5 view .LVU1358
 5336 00b0 0133     		adds	r3, r3, #1
 5337              	.LVL329:
 344:sampleengine.h ****     {
 5338              		.loc 13 344 22 is_stmt 1 view .LVU1359
 5339 00b2 202B     		cmp	r3, #32
 5340 00b4 06D0     		beq	.L400
 5341              	.LVL330:
 5342              	.L393:
 346:sampleengine.h ****         {
 5343              		.loc 13 346 9 view .LVU1360
 344:sampleengine.h ****     {
 5344              		.loc 13 344 5 view .LVU1361
 346:sampleengine.h ****         {
 5345              		.loc 13 346 23 is_stmt 0 view .LVU1362
 5346 00b6 12F8011B 		ldrb	r1, [r2], #1	@ zero_extendqisi2
 346:sampleengine.h ****         {
 5347              		.loc 13 346 9 view .LVU1363
 5348 00ba 0029     		cmp	r1, #0
 5349 00bc F8D0     		beq	.L401
 5350              	.LVL331:
 346:sampleengine.h ****         {
 5351              		.loc 13 346 9 view .LVU1364
 5352              	.LBE883:
 5353              	.LBE882:
 5354              	.LBE881:
 337:sardinia.cpp  **** }
 5355              		.loc 17 337 10 view .LVU1365
 5356 00be 0A4A     		ldr	r2, .L402+24
 5357 00c0 1360     		str	r3, [r2]
 338:sardinia.cpp  **** 
 5358              		.loc 17 338 1 view .LVU1366
 5359 00c2 38BD     		pop	{r3, r4, r5, pc}
 5360              	.LVL332:
 5361              	.L400:
 5362              	.LBB885:
 5363              	.LBB884:
 351:sampleengine.h **** }
 5364              		.loc 13 351 13 view .LVU1367
 5365 00c4 4FF0FF33 		mov	r3, #-1
 5366              	.LVL333:
ARM GAS  /var/folders/m5/x8wc2gdj7z5cpgcqdsb_gkj40000gn/T//ccGxviRN.s 			page 145


 351:sampleengine.h **** }
 5367              		.loc 13 351 13 view .LVU1368
 5368              	.LBE884:
 5369              	.LBE885:
 337:sardinia.cpp  **** }
 5370              		.loc 17 337 10 view .LVU1369
 5371 00c8 074A     		ldr	r2, .L402+24
 5372 00ca 1360     		str	r3, [r2]
 338:sardinia.cpp  **** 
 5373              		.loc 17 338 1 view .LVU1370
 5374 00cc 38BD     		pop	{r3, r4, r5, pc}
 5375              	.L403:
 5376 00ce 00BF     		.align	2
 5377              	.L402:
 5378 00d0 FFFFFFFF 		.word	.LANCHOR1-1
 5379 00d4 18000000 		.word	.LANCHOR36+24
 5380 00d8 08000000 		.word	.LANCHOR1+8
 5381 00dc 10000000 		.word	.LANCHOR1+16
 5382 00e0 18000000 		.word	.LANCHOR1+24
 5383 00e4 00000000 		.word	.LANCHOR1
 5384 00e8 00000000 		.word	.LANCHOR45
 5385              		.cfi_endproc
 5386              	.LFE4716:
 5388              		.section	.text._Z17ProcessControlsKRv,"ax",%progbits
 5389              		.align	1
 5390              		.p2align 2,,3
 5391              		.global	_Z17ProcessControlsKRv
 5392              		.syntax unified
 5393              		.thumb
 5394              		.thumb_func
 5396              	_Z17ProcessControlsKRv:
 5397              	.LFB4712:
 139:sardinia.cpp  **** 	UpdateKeys();	
 5398              		.loc 17 139 1 is_stmt 1 view -0
 5399              		.cfi_startproc
 5400              		@ args = 0, pretend = 0, frame = 0
 5401              		@ frame_needed = 0, uses_anonymous_args = 0
 140:sardinia.cpp  **** 
 5402              		.loc 17 140 2 view .LVU1372
 139:sardinia.cpp  **** 	UpdateKeys();	
 5403              		.loc 17 139 1 is_stmt 0 view .LVU1373
 5404 0000 10B5     		push	{r4, lr}
 5405              		.cfi_def_cfa_offset 8
 5406              		.cfi_offset 4, -8
 5407              		.cfi_offset 14, -4
 142:sardinia.cpp  **** 
 5408              		.loc 17 142 18 view .LVU1374
 5409 0002 804C     		ldr	r4, .L437
 139:sardinia.cpp  **** 	UpdateKeys();	
 5410              		.loc 17 139 1 view .LVU1375
 5411 0004 2DED028B 		vpush.64	{d8}
 5412              		.cfi_def_cfa_offset 16
 5413              		.cfi_offset 80, -16
 5414              		.cfi_offset 81, -12
 140:sardinia.cpp  **** 
 5415              		.loc 17 140 12 view .LVU1376
 5416 0008 FFF7FEFF 		bl	_Z10UpdateKeysv
ARM GAS  /var/folders/m5/x8wc2gdj7z5cpgcqdsb_gkj40000gn/T//ccGxviRN.s 			page 146


 5417              	.LVL334:
 142:sardinia.cpp  **** 
 5418              		.loc 17 142 2 is_stmt 1 view .LVU1377
 142:sardinia.cpp  **** 
 5419              		.loc 17 142 18 is_stmt 0 view .LVU1378
 5420 000c 2046     		mov	r0, r4
 5421 000e FFF7FEFF 		bl	_ZN5daisy7Encoder8DebounceEv
 5422              	.LVL335:
 144:sardinia.cpp  **** 	{
 5423              		.loc 17 144 2 is_stmt 1 view .LVU1379
 5424              	.LBB958:
 5425              	.LBI958:
 139:hardware.h    **** bool EncoderTurned()
 5426              		.loc 14 139 6 view .LVU1380
 5427              	.LBB959:
 141:hardware.h    **** 	float encoderInc = encoder.Increment();
 5428              		.loc 14 141 2 view .LVU1381
 5429              	.LBB960:
 5430              	.LBI960:
 5431              		.loc 1 36 20 view .LVU1382
 5432              	.LBB961:
 5433              		.loc 1 36 40 view .LVU1383
 5434              		.loc 1 36 56 is_stmt 0 view .LVU1384
 5435 0012 2379     		ldrb	r3, [r4, #4]	@ zero_extendqisi2
 5436 0014 002B     		cmp	r3, #0
 5437 0016 47D0     		beq	.L405
 5438 0018 636A     		ldr	r3, [r4, #36]
 5439              	.LVL336:
 5440              		.loc 1 36 56 view .LVU1385
 5441              	.LBE961:
 5442              	.LBE960:
 142:hardware.h    **** 	if(encoderInc != 0)
 5443              		.loc 14 142 2 is_stmt 1 view .LVU1386
 141:hardware.h    **** 	float encoderInc = encoder.Increment();
 5444              		.loc 14 141 39 is_stmt 0 view .LVU1387
 5445 001a 07EE903A 		vmov	s15, r3	@ int
 5446 001e F8EEE77A 		vcvt.f32.s32	s15, s15
 5447              	.LVL337:
 142:hardware.h    **** 	if(encoderInc != 0)
 5448              		.loc 14 142 2 view .LVU1388
 5449 0022 F5EE407A 		vcmp.f32	s15, #0
 5450 0026 F1EE10FA 		vmrs	APSR_nzcv, FPSCR
 5451 002a 3DD0     		beq	.L405
 5452              	.LVL338:
 142:hardware.h    **** 	if(encoderInc != 0)
 5453              		.loc 14 142 2 view .LVU1389
 5454              	.LBE959:
 5455              	.LBE958:
 146:sardinia.cpp  **** 	}
 5456              		.loc 17 146 3 is_stmt 1 view .LVU1390
 5457              		.loc 1 36 40 view .LVU1391
 5458              	.LBB962:
 5459              	.LBI962:
 100:effects.h     **** {
 5460              		.loc 16 100 6 view .LVU1392
 5461              	.LBB963:
 102:effects.h     ****     if(currentEffect < 0)
ARM GAS  /var/folders/m5/x8wc2gdj7z5cpgcqdsb_gkj40000gn/T//ccGxviRN.s 			page 147


 5462              		.loc 16 102 5 view .LVU1393
 103:effects.h     ****     {
 5463              		.loc 16 103 5 view .LVU1394
 102:effects.h     ****     if(currentEffect < 0)
 5464              		.loc 16 102 19 is_stmt 0 view .LVU1395
 5465 002c 7649     		ldr	r1, .L437+4
 5466 002e 0A68     		ldr	r2, [r1]
 103:effects.h     ****     {
 5467              		.loc 16 103 5 view .LVU1396
 5468 0030 9B18     		adds	r3, r3, r2
 5469              	.LVL339:
 103:effects.h     ****     {
 5470              		.loc 16 103 5 view .LVU1397
 5471 0032 00F18B80 		bmi	.L434
 107:effects.h     ****     {
 5472              		.loc 16 107 10 is_stmt 1 view .LVU1398
 5473 0036 022B     		cmp	r3, #2
 5474 0038 40F3B380 		ble	.L411
 109:effects.h     ****     }
 5475              		.loc 16 109 9 view .LVU1399
 109:effects.h     ****     }
 5476              		.loc 16 109 23 is_stmt 0 view .LVU1400
 5477 003c 0022     		movs	r2, #0
 5478              	.LBE963:
 5479              	.LBE962:
 5480              	.LBB968:
 5481              	.LBB969:
 5482              	.LBB970:
  43:/Users/dominicfrugoli/Desktop/ProgrammingCode/DaisyCode/DaisyExamples/libDaisy/src/hid/switch.h **** 
  44:/Users/dominicfrugoli/Desktop/ProgrammingCode/DaisyCode/DaisyExamples/libDaisy/src/hid/switch.h ****     /** 
  45:/Users/dominicfrugoli/Desktop/ProgrammingCode/DaisyCode/DaisyExamples/libDaisy/src/hid/switch.h ****     Initializes the switch object with a given port/pin combo.
  46:/Users/dominicfrugoli/Desktop/ProgrammingCode/DaisyCode/DaisyExamples/libDaisy/src/hid/switch.h ****     \param pin port/pin object to tell the switch which hardware pin to use.
  47:/Users/dominicfrugoli/Desktop/ProgrammingCode/DaisyCode/DaisyExamples/libDaisy/src/hid/switch.h ****     \param update_rate Does nothing. Backwards compatibility until next breaking update.
  48:/Users/dominicfrugoli/Desktop/ProgrammingCode/DaisyCode/DaisyExamples/libDaisy/src/hid/switch.h ****     \param t switch type -- Default: TYPE_MOMENTARY
  49:/Users/dominicfrugoli/Desktop/ProgrammingCode/DaisyCode/DaisyExamples/libDaisy/src/hid/switch.h ****     \param pol switch polarity -- Default: POLARITY_INVERTED
  50:/Users/dominicfrugoli/Desktop/ProgrammingCode/DaisyCode/DaisyExamples/libDaisy/src/hid/switch.h ****     \param pu switch pull up/down -- Default: PULL_UP
  51:/Users/dominicfrugoli/Desktop/ProgrammingCode/DaisyCode/DaisyExamples/libDaisy/src/hid/switch.h ****     */
  52:/Users/dominicfrugoli/Desktop/ProgrammingCode/DaisyCode/DaisyExamples/libDaisy/src/hid/switch.h ****     void
  53:/Users/dominicfrugoli/Desktop/ProgrammingCode/DaisyCode/DaisyExamples/libDaisy/src/hid/switch.h ****     Init(dsy_gpio_pin pin, float update_rate, Type t, Polarity pol, Pull pu);
  54:/Users/dominicfrugoli/Desktop/ProgrammingCode/DaisyCode/DaisyExamples/libDaisy/src/hid/switch.h **** 
  55:/Users/dominicfrugoli/Desktop/ProgrammingCode/DaisyCode/DaisyExamples/libDaisy/src/hid/switch.h ****     /**
  56:/Users/dominicfrugoli/Desktop/ProgrammingCode/DaisyCode/DaisyExamples/libDaisy/src/hid/switch.h ****        Simplified Init.
  57:/Users/dominicfrugoli/Desktop/ProgrammingCode/DaisyCode/DaisyExamples/libDaisy/src/hid/switch.h ****        \param pin port/pin object to tell the switch which hardware pin to use.
  58:/Users/dominicfrugoli/Desktop/ProgrammingCode/DaisyCode/DaisyExamples/libDaisy/src/hid/switch.h ****        \param update_rate Left for backwards compatibility until next breaking change.
  59:/Users/dominicfrugoli/Desktop/ProgrammingCode/DaisyCode/DaisyExamples/libDaisy/src/hid/switch.h ****     */
  60:/Users/dominicfrugoli/Desktop/ProgrammingCode/DaisyCode/DaisyExamples/libDaisy/src/hid/switch.h ****     void Init(dsy_gpio_pin pin, float update_rate = 0.f);
  61:/Users/dominicfrugoli/Desktop/ProgrammingCode/DaisyCode/DaisyExamples/libDaisy/src/hid/switch.h **** 
  62:/Users/dominicfrugoli/Desktop/ProgrammingCode/DaisyCode/DaisyExamples/libDaisy/src/hid/switch.h ****     /** 
  63:/Users/dominicfrugoli/Desktop/ProgrammingCode/DaisyCode/DaisyExamples/libDaisy/src/hid/switch.h ****     Called at update_rate to debounce and handle timing for the switch.
  64:/Users/dominicfrugoli/Desktop/ProgrammingCode/DaisyCode/DaisyExamples/libDaisy/src/hid/switch.h ****     In order for events not to be missed, its important that the Edge/Pressed checks
  65:/Users/dominicfrugoli/Desktop/ProgrammingCode/DaisyCode/DaisyExamples/libDaisy/src/hid/switch.h ****     be made at the same rate as the debounce function is being called.
  66:/Users/dominicfrugoli/Desktop/ProgrammingCode/DaisyCode/DaisyExamples/libDaisy/src/hid/switch.h ****     */
  67:/Users/dominicfrugoli/Desktop/ProgrammingCode/DaisyCode/DaisyExamples/libDaisy/src/hid/switch.h ****     void Debounce();
  68:/Users/dominicfrugoli/Desktop/ProgrammingCode/DaisyCode/DaisyExamples/libDaisy/src/hid/switch.h **** 
  69:/Users/dominicfrugoli/Desktop/ProgrammingCode/DaisyCode/DaisyExamples/libDaisy/src/hid/switch.h ****     /** \return true if a button was just pressed. */
  70:/Users/dominicfrugoli/Desktop/ProgrammingCode/DaisyCode/DaisyExamples/libDaisy/src/hid/switch.h ****     inline bool RisingEdge() const { return updated_ ? state_ == 0x7f : false; }
 5483              		.loc 2 70 54 view .LVU1401
ARM GAS  /var/folders/m5/x8wc2gdj7z5cpgcqdsb_gkj40000gn/T//ccGxviRN.s 			page 148


 5484 003e 237B     		ldrb	r3, [r4, #12]	@ zero_extendqisi2
 5485              	.LBE970:
 5486              	.LBE969:
 5487              	.LBE968:
 5488              	.LBB979:
 5489              	.LBB964:
 109:effects.h     ****     }
 5490              		.loc 16 109 23 view .LVU1402
 5491 0040 0A60     		str	r2, [r1]
 5492              	.LVL340:
 109:effects.h     ****     }
 5493              		.loc 16 109 23 view .LVU1403
 5494              	.LBE964:
 5495              	.LBE979:
 148:sardinia.cpp  **** 	{
 5496              		.loc 17 148 2 is_stmt 1 view .LVU1404
 5497              	.LBB980:
 5498              	.LBI968:
  37:/Users/dominicfrugoli/Desktop/ProgrammingCode/DaisyCode/DaisyExamples/libDaisy/src/hid/encoder.h **** 
  38:/Users/dominicfrugoli/Desktop/ProgrammingCode/DaisyCode/DaisyExamples/libDaisy/src/hid/encoder.h ****     /** Returns true if the encoder was just pressed. */
  39:/Users/dominicfrugoli/Desktop/ProgrammingCode/DaisyCode/DaisyExamples/libDaisy/src/hid/encoder.h ****     inline bool RisingEdge() const { return sw_.RisingEdge(); }
 5499              		.loc 1 39 17 view .LVU1405
 5500              	.LBE980:
 5501              		.loc 1 39 38 view .LVU1406
 5502              	.LBB981:
 5503              	.LBB975:
 5504              	.LBI969:
 5505              		.loc 2 70 17 view .LVU1407
 5506              	.LBB971:
 5507              		.loc 2 70 38 view .LVU1408
 5508              		.loc 2 70 54 is_stmt 0 view .LVU1409
 5509 0042 3BB1     		cbz	r3, .L412
 5510              	.LVL341:
 5511              		.loc 2 70 54 view .LVU1410
 5512              	.LBE971:
 5513              	.LBE975:
 5514              	.LBE981:
 148:sardinia.cpp  **** 	{
 5515              		.loc 17 148 2 view .LVU1411
 5516 0044 A37C     		ldrb	r3, [r4, #18]	@ zero_extendqisi2
 5517 0046 7F2B     		cmp	r3, #127
 5518 0048 04D1     		bne	.L412
 150:sardinia.cpp  **** 	}
 5519              		.loc 17 150 3 is_stmt 1 view .LVU1412
 150:sardinia.cpp  **** 	}
 5520              		.loc 17 150 31 is_stmt 0 view .LVU1413
 5521 004a 704A     		ldr	r2, .L437+8
 150:sardinia.cpp  **** 	}
 5522              		.loc 17 150 33 view .LVU1414
 5523 004c 1378     		ldrb	r3, [r2]	@ zero_extendqisi2
 5524 004e 83F00103 		eor	r3, r3, #1
 150:sardinia.cpp  **** 	}
 5525              		.loc 17 150 31 view .LVU1415
 5526 0052 1370     		strb	r3, [r2]
 153:sardinia.cpp  **** 	{
 5527              		.loc 17 153 2 is_stmt 1 view .LVU1416
 5528              	.L412:
ARM GAS  /var/folders/m5/x8wc2gdj7z5cpgcqdsb_gkj40000gn/T//ccGxviRN.s 			page 149


 155:sardinia.cpp  **** 		effectValues[0][1] = fmap(hw.adc.GetMuxFloat(0, 6), .01, .3, Mapping::EXP); // Overdrive Tone Fre
 5529              		.loc 17 155 3 view .LVU1417
 155:sardinia.cpp  **** 		effectValues[0][1] = fmap(hw.adc.GetMuxFloat(0, 6), .01, .3, Mapping::EXP); // Overdrive Tone Fre
 5530              		.loc 17 155 28 is_stmt 0 view .LVU1418
 5531 0054 0222     		movs	r2, #2
 5532 0056 0021     		movs	r1, #0
 5533 0058 6D48     		ldr	r0, .L437+12
 5534 005a FFF7FEFF 		bl	_ZNK5daisy9AdcHandle11GetMuxFloatEhh
 5535              	.LVL342:
 5536              	.LBB982:
 5537              	.LBI982:
 5538              		.file 18 "/Users/dominicfrugoli/Desktop/ProgrammingCode/DaisyCode/DaisyExamples/DaisySP/Source/Uti
   1:/Users/dominicfrugoli/Desktop/ProgrammingCode/DaisyCode/DaisyExamples/DaisySP/Source/Utility/dsp.h **** /*
   2:/Users/dominicfrugoli/Desktop/ProgrammingCode/DaisyCode/DaisyExamples/DaisySP/Source/Utility/dsp.h **** Copyright (c) 2020 Electrosmith, Corp, Emilie Gillet
   3:/Users/dominicfrugoli/Desktop/ProgrammingCode/DaisyCode/DaisyExamples/DaisySP/Source/Utility/dsp.h **** 
   4:/Users/dominicfrugoli/Desktop/ProgrammingCode/DaisyCode/DaisyExamples/DaisySP/Source/Utility/dsp.h **** Use of this source code is governed by an MIT-style
   5:/Users/dominicfrugoli/Desktop/ProgrammingCode/DaisyCode/DaisyExamples/DaisySP/Source/Utility/dsp.h **** license that can be found in the LICENSE file or at
   6:/Users/dominicfrugoli/Desktop/ProgrammingCode/DaisyCode/DaisyExamples/DaisySP/Source/Utility/dsp.h **** https://opensource.org/licenses/MIT.
   7:/Users/dominicfrugoli/Desktop/ProgrammingCode/DaisyCode/DaisyExamples/DaisySP/Source/Utility/dsp.h **** */
   8:/Users/dominicfrugoli/Desktop/ProgrammingCode/DaisyCode/DaisyExamples/DaisySP/Source/Utility/dsp.h **** 
   9:/Users/dominicfrugoli/Desktop/ProgrammingCode/DaisyCode/DaisyExamples/DaisySP/Source/Utility/dsp.h **** /** Helpful defines, functions, and other utilities for use in/with daisysp modules.
  10:/Users/dominicfrugoli/Desktop/ProgrammingCode/DaisyCode/DaisyExamples/DaisySP/Source/Utility/dsp.h **** */
  11:/Users/dominicfrugoli/Desktop/ProgrammingCode/DaisyCode/DaisyExamples/DaisySP/Source/Utility/dsp.h **** #pragma once
  12:/Users/dominicfrugoli/Desktop/ProgrammingCode/DaisyCode/DaisyExamples/DaisySP/Source/Utility/dsp.h **** #ifndef DSY_CORE_DSP
  13:/Users/dominicfrugoli/Desktop/ProgrammingCode/DaisyCode/DaisyExamples/DaisySP/Source/Utility/dsp.h **** #define DSY_CORE_DSP
  14:/Users/dominicfrugoli/Desktop/ProgrammingCode/DaisyCode/DaisyExamples/DaisySP/Source/Utility/dsp.h **** #include <cassert>
  15:/Users/dominicfrugoli/Desktop/ProgrammingCode/DaisyCode/DaisyExamples/DaisySP/Source/Utility/dsp.h **** #include <cstdint>
  16:/Users/dominicfrugoli/Desktop/ProgrammingCode/DaisyCode/DaisyExamples/DaisySP/Source/Utility/dsp.h **** #include <random>
  17:/Users/dominicfrugoli/Desktop/ProgrammingCode/DaisyCode/DaisyExamples/DaisySP/Source/Utility/dsp.h **** #include <cmath>
  18:/Users/dominicfrugoli/Desktop/ProgrammingCode/DaisyCode/DaisyExamples/DaisySP/Source/Utility/dsp.h **** 
  19:/Users/dominicfrugoli/Desktop/ProgrammingCode/DaisyCode/DaisyExamples/DaisySP/Source/Utility/dsp.h **** /** PIs
  20:/Users/dominicfrugoli/Desktop/ProgrammingCode/DaisyCode/DaisyExamples/DaisySP/Source/Utility/dsp.h **** */
  21:/Users/dominicfrugoli/Desktop/ProgrammingCode/DaisyCode/DaisyExamples/DaisySP/Source/Utility/dsp.h **** #define PI_F 3.1415927410125732421875f
  22:/Users/dominicfrugoli/Desktop/ProgrammingCode/DaisyCode/DaisyExamples/DaisySP/Source/Utility/dsp.h **** #define TWOPI_F (2.0f * PI_F)
  23:/Users/dominicfrugoli/Desktop/ProgrammingCode/DaisyCode/DaisyExamples/DaisySP/Source/Utility/dsp.h **** #define HALFPI_F (PI_F * 0.5f)
  24:/Users/dominicfrugoli/Desktop/ProgrammingCode/DaisyCode/DaisyExamples/DaisySP/Source/Utility/dsp.h **** #define DSY_MIN(in, mn) (in < mn ? in : mn)
  25:/Users/dominicfrugoli/Desktop/ProgrammingCode/DaisyCode/DaisyExamples/DaisySP/Source/Utility/dsp.h **** #define DSY_MAX(in, mx) (in > mx ? in : mx)
  26:/Users/dominicfrugoli/Desktop/ProgrammingCode/DaisyCode/DaisyExamples/DaisySP/Source/Utility/dsp.h **** #define DSY_CLAMP(in, mn, mx) (DSY_MIN(DSY_MAX(in, mn), mx))
  27:/Users/dominicfrugoli/Desktop/ProgrammingCode/DaisyCode/DaisyExamples/DaisySP/Source/Utility/dsp.h **** #define DSY_COUNTOF(_arr) (sizeof(_arr) / sizeof(_arr[0]))
  28:/Users/dominicfrugoli/Desktop/ProgrammingCode/DaisyCode/DaisyExamples/DaisySP/Source/Utility/dsp.h **** 
  29:/Users/dominicfrugoli/Desktop/ProgrammingCode/DaisyCode/DaisyExamples/DaisySP/Source/Utility/dsp.h **** namespace daisysp
  30:/Users/dominicfrugoli/Desktop/ProgrammingCode/DaisyCode/DaisyExamples/DaisySP/Source/Utility/dsp.h **** {
  31:/Users/dominicfrugoli/Desktop/ProgrammingCode/DaisyCode/DaisyExamples/DaisySP/Source/Utility/dsp.h **** //Avoids division for random floats. e.g. rand() * kRandFrac
  32:/Users/dominicfrugoli/Desktop/ProgrammingCode/DaisyCode/DaisyExamples/DaisySP/Source/Utility/dsp.h **** static constexpr float kRandFrac = 1.f / (float)RAND_MAX;
  33:/Users/dominicfrugoli/Desktop/ProgrammingCode/DaisyCode/DaisyExamples/DaisySP/Source/Utility/dsp.h **** 
  34:/Users/dominicfrugoli/Desktop/ProgrammingCode/DaisyCode/DaisyExamples/DaisySP/Source/Utility/dsp.h **** //Convert from semitones to other units. e.g. 2 ^ (kOneTwelfth * x)
  35:/Users/dominicfrugoli/Desktop/ProgrammingCode/DaisyCode/DaisyExamples/DaisySP/Source/Utility/dsp.h **** static constexpr float kOneTwelfth = 1.f / 12.f;
  36:/Users/dominicfrugoli/Desktop/ProgrammingCode/DaisyCode/DaisyExamples/DaisySP/Source/Utility/dsp.h **** 
  37:/Users/dominicfrugoli/Desktop/ProgrammingCode/DaisyCode/DaisyExamples/DaisySP/Source/Utility/dsp.h **** /** efficient floating point min/max
  38:/Users/dominicfrugoli/Desktop/ProgrammingCode/DaisyCode/DaisyExamples/DaisySP/Source/Utility/dsp.h **** c/o stephen mccaul
  39:/Users/dominicfrugoli/Desktop/ProgrammingCode/DaisyCode/DaisyExamples/DaisySP/Source/Utility/dsp.h **** */
  40:/Users/dominicfrugoli/Desktop/ProgrammingCode/DaisyCode/DaisyExamples/DaisySP/Source/Utility/dsp.h **** inline float fmax(float a, float b)
  41:/Users/dominicfrugoli/Desktop/ProgrammingCode/DaisyCode/DaisyExamples/DaisySP/Source/Utility/dsp.h **** {
  42:/Users/dominicfrugoli/Desktop/ProgrammingCode/DaisyCode/DaisyExamples/DaisySP/Source/Utility/dsp.h ****     float r;
  43:/Users/dominicfrugoli/Desktop/ProgrammingCode/DaisyCode/DaisyExamples/DaisySP/Source/Utility/dsp.h **** #ifdef __arm__
  44:/Users/dominicfrugoli/Desktop/ProgrammingCode/DaisyCode/DaisyExamples/DaisySP/Source/Utility/dsp.h ****     asm("vmaxnm.f32 %[d], %[n], %[m]" : [d] "=t"(r) : [n] "t"(a), [m] "t"(b) :);
  45:/Users/dominicfrugoli/Desktop/ProgrammingCode/DaisyCode/DaisyExamples/DaisySP/Source/Utility/dsp.h **** #else
ARM GAS  /var/folders/m5/x8wc2gdj7z5cpgcqdsb_gkj40000gn/T//ccGxviRN.s 			page 150


  46:/Users/dominicfrugoli/Desktop/ProgrammingCode/DaisyCode/DaisyExamples/DaisySP/Source/Utility/dsp.h ****     r = (a > b) ? a : b;
  47:/Users/dominicfrugoli/Desktop/ProgrammingCode/DaisyCode/DaisyExamples/DaisySP/Source/Utility/dsp.h **** #endif // __arm__
  48:/Users/dominicfrugoli/Desktop/ProgrammingCode/DaisyCode/DaisyExamples/DaisySP/Source/Utility/dsp.h ****     return r;
  49:/Users/dominicfrugoli/Desktop/ProgrammingCode/DaisyCode/DaisyExamples/DaisySP/Source/Utility/dsp.h **** }
  50:/Users/dominicfrugoli/Desktop/ProgrammingCode/DaisyCode/DaisyExamples/DaisySP/Source/Utility/dsp.h **** 
  51:/Users/dominicfrugoli/Desktop/ProgrammingCode/DaisyCode/DaisyExamples/DaisySP/Source/Utility/dsp.h **** inline float fmin(float a, float b)
  52:/Users/dominicfrugoli/Desktop/ProgrammingCode/DaisyCode/DaisyExamples/DaisySP/Source/Utility/dsp.h **** {
  53:/Users/dominicfrugoli/Desktop/ProgrammingCode/DaisyCode/DaisyExamples/DaisySP/Source/Utility/dsp.h ****     float r;
  54:/Users/dominicfrugoli/Desktop/ProgrammingCode/DaisyCode/DaisyExamples/DaisySP/Source/Utility/dsp.h **** #ifdef __arm__
  55:/Users/dominicfrugoli/Desktop/ProgrammingCode/DaisyCode/DaisyExamples/DaisySP/Source/Utility/dsp.h ****     asm("vminnm.f32 %[d], %[n], %[m]" : [d] "=t"(r) : [n] "t"(a), [m] "t"(b) :);
  56:/Users/dominicfrugoli/Desktop/ProgrammingCode/DaisyCode/DaisyExamples/DaisySP/Source/Utility/dsp.h **** #else
  57:/Users/dominicfrugoli/Desktop/ProgrammingCode/DaisyCode/DaisyExamples/DaisySP/Source/Utility/dsp.h ****     r = (a < b) ? a : b;
  58:/Users/dominicfrugoli/Desktop/ProgrammingCode/DaisyCode/DaisyExamples/DaisySP/Source/Utility/dsp.h **** #endif // __arm__
  59:/Users/dominicfrugoli/Desktop/ProgrammingCode/DaisyCode/DaisyExamples/DaisySP/Source/Utility/dsp.h ****     return r;
  60:/Users/dominicfrugoli/Desktop/ProgrammingCode/DaisyCode/DaisyExamples/DaisySP/Source/Utility/dsp.h **** }
  61:/Users/dominicfrugoli/Desktop/ProgrammingCode/DaisyCode/DaisyExamples/DaisySP/Source/Utility/dsp.h **** 
  62:/Users/dominicfrugoli/Desktop/ProgrammingCode/DaisyCode/DaisyExamples/DaisySP/Source/Utility/dsp.h **** /** quick fp clamp
  63:/Users/dominicfrugoli/Desktop/ProgrammingCode/DaisyCode/DaisyExamples/DaisySP/Source/Utility/dsp.h **** */
  64:/Users/dominicfrugoli/Desktop/ProgrammingCode/DaisyCode/DaisyExamples/DaisySP/Source/Utility/dsp.h **** inline float fclamp(float in, float min, float max)
  65:/Users/dominicfrugoli/Desktop/ProgrammingCode/DaisyCode/DaisyExamples/DaisySP/Source/Utility/dsp.h **** {
  66:/Users/dominicfrugoli/Desktop/ProgrammingCode/DaisyCode/DaisyExamples/DaisySP/Source/Utility/dsp.h ****     return fmin(fmax(in, min), max);
  67:/Users/dominicfrugoli/Desktop/ProgrammingCode/DaisyCode/DaisyExamples/DaisySP/Source/Utility/dsp.h **** }
  68:/Users/dominicfrugoli/Desktop/ProgrammingCode/DaisyCode/DaisyExamples/DaisySP/Source/Utility/dsp.h **** 
  69:/Users/dominicfrugoli/Desktop/ProgrammingCode/DaisyCode/DaisyExamples/DaisySP/Source/Utility/dsp.h **** /** From Musicdsp.org "Fast power and root estimates for 32bit floats)
  70:/Users/dominicfrugoli/Desktop/ProgrammingCode/DaisyCode/DaisyExamples/DaisySP/Source/Utility/dsp.h **** Original code by Stefan Stenzel
  71:/Users/dominicfrugoli/Desktop/ProgrammingCode/DaisyCode/DaisyExamples/DaisySP/Source/Utility/dsp.h **** These are approximations
  72:/Users/dominicfrugoli/Desktop/ProgrammingCode/DaisyCode/DaisyExamples/DaisySP/Source/Utility/dsp.h **** */
  73:/Users/dominicfrugoli/Desktop/ProgrammingCode/DaisyCode/DaisyExamples/DaisySP/Source/Utility/dsp.h **** inline float fastpower(float f, int n)
  74:/Users/dominicfrugoli/Desktop/ProgrammingCode/DaisyCode/DaisyExamples/DaisySP/Source/Utility/dsp.h **** {
  75:/Users/dominicfrugoli/Desktop/ProgrammingCode/DaisyCode/DaisyExamples/DaisySP/Source/Utility/dsp.h ****     long *lp, l;
  76:/Users/dominicfrugoli/Desktop/ProgrammingCode/DaisyCode/DaisyExamples/DaisySP/Source/Utility/dsp.h ****     lp = (long *)(&f);
  77:/Users/dominicfrugoli/Desktop/ProgrammingCode/DaisyCode/DaisyExamples/DaisySP/Source/Utility/dsp.h ****     l  = *lp;
  78:/Users/dominicfrugoli/Desktop/ProgrammingCode/DaisyCode/DaisyExamples/DaisySP/Source/Utility/dsp.h ****     l -= 0x3F800000;
  79:/Users/dominicfrugoli/Desktop/ProgrammingCode/DaisyCode/DaisyExamples/DaisySP/Source/Utility/dsp.h ****     l <<= (n - 1);
  80:/Users/dominicfrugoli/Desktop/ProgrammingCode/DaisyCode/DaisyExamples/DaisySP/Source/Utility/dsp.h ****     l += 0x3F800000;
  81:/Users/dominicfrugoli/Desktop/ProgrammingCode/DaisyCode/DaisyExamples/DaisySP/Source/Utility/dsp.h ****     *lp = l;
  82:/Users/dominicfrugoli/Desktop/ProgrammingCode/DaisyCode/DaisyExamples/DaisySP/Source/Utility/dsp.h ****     return f;
  83:/Users/dominicfrugoli/Desktop/ProgrammingCode/DaisyCode/DaisyExamples/DaisySP/Source/Utility/dsp.h **** }
  84:/Users/dominicfrugoli/Desktop/ProgrammingCode/DaisyCode/DaisyExamples/DaisySP/Source/Utility/dsp.h **** 
  85:/Users/dominicfrugoli/Desktop/ProgrammingCode/DaisyCode/DaisyExamples/DaisySP/Source/Utility/dsp.h **** inline float fastroot(float f, int n)
  86:/Users/dominicfrugoli/Desktop/ProgrammingCode/DaisyCode/DaisyExamples/DaisySP/Source/Utility/dsp.h **** {
  87:/Users/dominicfrugoli/Desktop/ProgrammingCode/DaisyCode/DaisyExamples/DaisySP/Source/Utility/dsp.h ****     long *lp, l;
  88:/Users/dominicfrugoli/Desktop/ProgrammingCode/DaisyCode/DaisyExamples/DaisySP/Source/Utility/dsp.h ****     lp = (long *)(&f);
  89:/Users/dominicfrugoli/Desktop/ProgrammingCode/DaisyCode/DaisyExamples/DaisySP/Source/Utility/dsp.h ****     l  = *lp;
  90:/Users/dominicfrugoli/Desktop/ProgrammingCode/DaisyCode/DaisyExamples/DaisySP/Source/Utility/dsp.h ****     l -= 0x3F800000;
  91:/Users/dominicfrugoli/Desktop/ProgrammingCode/DaisyCode/DaisyExamples/DaisySP/Source/Utility/dsp.h ****     l >>= (n - 1);
  92:/Users/dominicfrugoli/Desktop/ProgrammingCode/DaisyCode/DaisyExamples/DaisySP/Source/Utility/dsp.h ****     l += 0x3F800000;
  93:/Users/dominicfrugoli/Desktop/ProgrammingCode/DaisyCode/DaisyExamples/DaisySP/Source/Utility/dsp.h ****     *lp = l;
  94:/Users/dominicfrugoli/Desktop/ProgrammingCode/DaisyCode/DaisyExamples/DaisySP/Source/Utility/dsp.h ****     return f;
  95:/Users/dominicfrugoli/Desktop/ProgrammingCode/DaisyCode/DaisyExamples/DaisySP/Source/Utility/dsp.h **** }
  96:/Users/dominicfrugoli/Desktop/ProgrammingCode/DaisyCode/DaisyExamples/DaisySP/Source/Utility/dsp.h **** 
  97:/Users/dominicfrugoli/Desktop/ProgrammingCode/DaisyCode/DaisyExamples/DaisySP/Source/Utility/dsp.h **** /** Significantly more efficient than fmodf(x, 1.0f) for calculating
  98:/Users/dominicfrugoli/Desktop/ProgrammingCode/DaisyCode/DaisyExamples/DaisySP/Source/Utility/dsp.h ****  *  the decimal part of a floating point value.
  99:/Users/dominicfrugoli/Desktop/ProgrammingCode/DaisyCode/DaisyExamples/DaisySP/Source/Utility/dsp.h ****  */
 100:/Users/dominicfrugoli/Desktop/ProgrammingCode/DaisyCode/DaisyExamples/DaisySP/Source/Utility/dsp.h **** inline float fastmod1f(float x)
 101:/Users/dominicfrugoli/Desktop/ProgrammingCode/DaisyCode/DaisyExamples/DaisySP/Source/Utility/dsp.h **** {
 102:/Users/dominicfrugoli/Desktop/ProgrammingCode/DaisyCode/DaisyExamples/DaisySP/Source/Utility/dsp.h ****     return x - static_cast<int>(x);
ARM GAS  /var/folders/m5/x8wc2gdj7z5cpgcqdsb_gkj40000gn/T//ccGxviRN.s 			page 151


 103:/Users/dominicfrugoli/Desktop/ProgrammingCode/DaisyCode/DaisyExamples/DaisySP/Source/Utility/dsp.h **** }
 104:/Users/dominicfrugoli/Desktop/ProgrammingCode/DaisyCode/DaisyExamples/DaisySP/Source/Utility/dsp.h **** 
 105:/Users/dominicfrugoli/Desktop/ProgrammingCode/DaisyCode/DaisyExamples/DaisySP/Source/Utility/dsp.h **** /** From http://openaudio.blogspot.com/2017/02/faster-log10-and-pow.html
 106:/Users/dominicfrugoli/Desktop/ProgrammingCode/DaisyCode/DaisyExamples/DaisySP/Source/Utility/dsp.h **** No approximation, pow10f(x) gives a 90% speed increase over powf(10.f, x)
 107:/Users/dominicfrugoli/Desktop/ProgrammingCode/DaisyCode/DaisyExamples/DaisySP/Source/Utility/dsp.h **** */
 108:/Users/dominicfrugoli/Desktop/ProgrammingCode/DaisyCode/DaisyExamples/DaisySP/Source/Utility/dsp.h **** inline float pow10f(float f)
 109:/Users/dominicfrugoli/Desktop/ProgrammingCode/DaisyCode/DaisyExamples/DaisySP/Source/Utility/dsp.h **** {
 110:/Users/dominicfrugoli/Desktop/ProgrammingCode/DaisyCode/DaisyExamples/DaisySP/Source/Utility/dsp.h ****     return expf(2.302585092994046f * f);
 111:/Users/dominicfrugoli/Desktop/ProgrammingCode/DaisyCode/DaisyExamples/DaisySP/Source/Utility/dsp.h **** }
 112:/Users/dominicfrugoli/Desktop/ProgrammingCode/DaisyCode/DaisyExamples/DaisySP/Source/Utility/dsp.h **** 
 113:/Users/dominicfrugoli/Desktop/ProgrammingCode/DaisyCode/DaisyExamples/DaisySP/Source/Utility/dsp.h **** /* Original code for fastlog2f by Dr. Paul Beckmann from the ARM community forum, adapted from the 
 114:/Users/dominicfrugoli/Desktop/ProgrammingCode/DaisyCode/DaisyExamples/DaisySP/Source/Utility/dsp.h **** About 25% performance increase over std::log10f
 115:/Users/dominicfrugoli/Desktop/ProgrammingCode/DaisyCode/DaisyExamples/DaisySP/Source/Utility/dsp.h **** */
 116:/Users/dominicfrugoli/Desktop/ProgrammingCode/DaisyCode/DaisyExamples/DaisySP/Source/Utility/dsp.h **** inline float fastlog2f(float f)
 117:/Users/dominicfrugoli/Desktop/ProgrammingCode/DaisyCode/DaisyExamples/DaisySP/Source/Utility/dsp.h **** {
 118:/Users/dominicfrugoli/Desktop/ProgrammingCode/DaisyCode/DaisyExamples/DaisySP/Source/Utility/dsp.h ****     float frac;
 119:/Users/dominicfrugoli/Desktop/ProgrammingCode/DaisyCode/DaisyExamples/DaisySP/Source/Utility/dsp.h ****     int   exp;
 120:/Users/dominicfrugoli/Desktop/ProgrammingCode/DaisyCode/DaisyExamples/DaisySP/Source/Utility/dsp.h ****     frac = frexpf(fabsf(f), &exp);
 121:/Users/dominicfrugoli/Desktop/ProgrammingCode/DaisyCode/DaisyExamples/DaisySP/Source/Utility/dsp.h ****     f    = 1.23149591368684f;
 122:/Users/dominicfrugoli/Desktop/ProgrammingCode/DaisyCode/DaisyExamples/DaisySP/Source/Utility/dsp.h ****     f *= frac;
 123:/Users/dominicfrugoli/Desktop/ProgrammingCode/DaisyCode/DaisyExamples/DaisySP/Source/Utility/dsp.h ****     f += -4.11852516267426f;
 124:/Users/dominicfrugoli/Desktop/ProgrammingCode/DaisyCode/DaisyExamples/DaisySP/Source/Utility/dsp.h ****     f *= frac;
 125:/Users/dominicfrugoli/Desktop/ProgrammingCode/DaisyCode/DaisyExamples/DaisySP/Source/Utility/dsp.h ****     f += 6.02197014179219f;
 126:/Users/dominicfrugoli/Desktop/ProgrammingCode/DaisyCode/DaisyExamples/DaisySP/Source/Utility/dsp.h ****     f *= frac;
 127:/Users/dominicfrugoli/Desktop/ProgrammingCode/DaisyCode/DaisyExamples/DaisySP/Source/Utility/dsp.h ****     f += -3.13396450166353f;
 128:/Users/dominicfrugoli/Desktop/ProgrammingCode/DaisyCode/DaisyExamples/DaisySP/Source/Utility/dsp.h ****     f += exp;
 129:/Users/dominicfrugoli/Desktop/ProgrammingCode/DaisyCode/DaisyExamples/DaisySP/Source/Utility/dsp.h ****     return (f);
 130:/Users/dominicfrugoli/Desktop/ProgrammingCode/DaisyCode/DaisyExamples/DaisySP/Source/Utility/dsp.h **** }
 131:/Users/dominicfrugoli/Desktop/ProgrammingCode/DaisyCode/DaisyExamples/DaisySP/Source/Utility/dsp.h **** 
 132:/Users/dominicfrugoli/Desktop/ProgrammingCode/DaisyCode/DaisyExamples/DaisySP/Source/Utility/dsp.h **** inline float fastlog10f(float f)
 133:/Users/dominicfrugoli/Desktop/ProgrammingCode/DaisyCode/DaisyExamples/DaisySP/Source/Utility/dsp.h **** {
 134:/Users/dominicfrugoli/Desktop/ProgrammingCode/DaisyCode/DaisyExamples/DaisySP/Source/Utility/dsp.h ****     return fastlog2f(f) * 0.3010299956639812f;
 135:/Users/dominicfrugoli/Desktop/ProgrammingCode/DaisyCode/DaisyExamples/DaisySP/Source/Utility/dsp.h **** }
 136:/Users/dominicfrugoli/Desktop/ProgrammingCode/DaisyCode/DaisyExamples/DaisySP/Source/Utility/dsp.h **** 
 137:/Users/dominicfrugoli/Desktop/ProgrammingCode/DaisyCode/DaisyExamples/DaisySP/Source/Utility/dsp.h **** /** Midi to frequency helper
 138:/Users/dominicfrugoli/Desktop/ProgrammingCode/DaisyCode/DaisyExamples/DaisySP/Source/Utility/dsp.h **** */
 139:/Users/dominicfrugoli/Desktop/ProgrammingCode/DaisyCode/DaisyExamples/DaisySP/Source/Utility/dsp.h **** inline float mtof(float m)
 140:/Users/dominicfrugoli/Desktop/ProgrammingCode/DaisyCode/DaisyExamples/DaisySP/Source/Utility/dsp.h **** {
 141:/Users/dominicfrugoli/Desktop/ProgrammingCode/DaisyCode/DaisyExamples/DaisySP/Source/Utility/dsp.h ****     return powf(2, (m - 69.0f) / 12.0f) * 440.0f;
 142:/Users/dominicfrugoli/Desktop/ProgrammingCode/DaisyCode/DaisyExamples/DaisySP/Source/Utility/dsp.h **** }
 143:/Users/dominicfrugoli/Desktop/ProgrammingCode/DaisyCode/DaisyExamples/DaisySP/Source/Utility/dsp.h **** 
 144:/Users/dominicfrugoli/Desktop/ProgrammingCode/DaisyCode/DaisyExamples/DaisySP/Source/Utility/dsp.h **** 
 145:/Users/dominicfrugoli/Desktop/ProgrammingCode/DaisyCode/DaisyExamples/DaisySP/Source/Utility/dsp.h **** /** one pole lpf
 146:/Users/dominicfrugoli/Desktop/ProgrammingCode/DaisyCode/DaisyExamples/DaisySP/Source/Utility/dsp.h **** out is passed by reference, and must be retained between
 147:/Users/dominicfrugoli/Desktop/ProgrammingCode/DaisyCode/DaisyExamples/DaisySP/Source/Utility/dsp.h **** calls to properly filter the signal
 148:/Users/dominicfrugoli/Desktop/ProgrammingCode/DaisyCode/DaisyExamples/DaisySP/Source/Utility/dsp.h **** coeff can be calculated:
 149:/Users/dominicfrugoli/Desktop/ProgrammingCode/DaisyCode/DaisyExamples/DaisySP/Source/Utility/dsp.h **** coeff = 1.0 / (time * sample_rate) ; where time is in seconds
 150:/Users/dominicfrugoli/Desktop/ProgrammingCode/DaisyCode/DaisyExamples/DaisySP/Source/Utility/dsp.h **** */
 151:/Users/dominicfrugoli/Desktop/ProgrammingCode/DaisyCode/DaisyExamples/DaisySP/Source/Utility/dsp.h **** inline void fonepole(float &out, float in, float coeff)
 152:/Users/dominicfrugoli/Desktop/ProgrammingCode/DaisyCode/DaisyExamples/DaisySP/Source/Utility/dsp.h **** {
 153:/Users/dominicfrugoli/Desktop/ProgrammingCode/DaisyCode/DaisyExamples/DaisySP/Source/Utility/dsp.h ****     out += coeff * (in - out);
 154:/Users/dominicfrugoli/Desktop/ProgrammingCode/DaisyCode/DaisyExamples/DaisySP/Source/Utility/dsp.h **** }
 155:/Users/dominicfrugoli/Desktop/ProgrammingCode/DaisyCode/DaisyExamples/DaisySP/Source/Utility/dsp.h **** 
 156:/Users/dominicfrugoli/Desktop/ProgrammingCode/DaisyCode/DaisyExamples/DaisySP/Source/Utility/dsp.h **** /** Curves to use with the fmap function */
 157:/Users/dominicfrugoli/Desktop/ProgrammingCode/DaisyCode/DaisyExamples/DaisySP/Source/Utility/dsp.h **** enum class Mapping
 158:/Users/dominicfrugoli/Desktop/ProgrammingCode/DaisyCode/DaisyExamples/DaisySP/Source/Utility/dsp.h **** {
 159:/Users/dominicfrugoli/Desktop/ProgrammingCode/DaisyCode/DaisyExamples/DaisySP/Source/Utility/dsp.h ****     LINEAR,
ARM GAS  /var/folders/m5/x8wc2gdj7z5cpgcqdsb_gkj40000gn/T//ccGxviRN.s 			page 152


 160:/Users/dominicfrugoli/Desktop/ProgrammingCode/DaisyCode/DaisyExamples/DaisySP/Source/Utility/dsp.h ****     EXP,
 161:/Users/dominicfrugoli/Desktop/ProgrammingCode/DaisyCode/DaisyExamples/DaisySP/Source/Utility/dsp.h ****     LOG,
 162:/Users/dominicfrugoli/Desktop/ProgrammingCode/DaisyCode/DaisyExamples/DaisySP/Source/Utility/dsp.h **** };
 163:/Users/dominicfrugoli/Desktop/ProgrammingCode/DaisyCode/DaisyExamples/DaisySP/Source/Utility/dsp.h **** 
 164:/Users/dominicfrugoli/Desktop/ProgrammingCode/DaisyCode/DaisyExamples/DaisySP/Source/Utility/dsp.h **** /** Maps a float between a specified range, using a specified curve.
 165:/Users/dominicfrugoli/Desktop/ProgrammingCode/DaisyCode/DaisyExamples/DaisySP/Source/Utility/dsp.h ****  *
 166:/Users/dominicfrugoli/Desktop/ProgrammingCode/DaisyCode/DaisyExamples/DaisySP/Source/Utility/dsp.h ****  *  \param in a value between 0 to 1 that will be mapped to the new range.
 167:/Users/dominicfrugoli/Desktop/ProgrammingCode/DaisyCode/DaisyExamples/DaisySP/Source/Utility/dsp.h ****  *  \param min the new minimum value
 168:/Users/dominicfrugoli/Desktop/ProgrammingCode/DaisyCode/DaisyExamples/DaisySP/Source/Utility/dsp.h ****  *  \param max the new maxmimum value
 169:/Users/dominicfrugoli/Desktop/ProgrammingCode/DaisyCode/DaisyExamples/DaisySP/Source/Utility/dsp.h ****  *  \param curve a Mapping Value to adjust the response curve of the transformation
 170:/Users/dominicfrugoli/Desktop/ProgrammingCode/DaisyCode/DaisyExamples/DaisySP/Source/Utility/dsp.h ****  *               defaults to Linear. @see Mapping
 171:/Users/dominicfrugoli/Desktop/ProgrammingCode/DaisyCode/DaisyExamples/DaisySP/Source/Utility/dsp.h ****  *
 172:/Users/dominicfrugoli/Desktop/ProgrammingCode/DaisyCode/DaisyExamples/DaisySP/Source/Utility/dsp.h ****  *  When using the log curve min and max, must be greater than zero.
 173:/Users/dominicfrugoli/Desktop/ProgrammingCode/DaisyCode/DaisyExamples/DaisySP/Source/Utility/dsp.h ****  *
 174:/Users/dominicfrugoli/Desktop/ProgrammingCode/DaisyCode/DaisyExamples/DaisySP/Source/Utility/dsp.h ****  *  \retval returns the transformed float within the new range.
 175:/Users/dominicfrugoli/Desktop/ProgrammingCode/DaisyCode/DaisyExamples/DaisySP/Source/Utility/dsp.h **** */
 176:/Users/dominicfrugoli/Desktop/ProgrammingCode/DaisyCode/DaisyExamples/DaisySP/Source/Utility/dsp.h **** inline float
 177:/Users/dominicfrugoli/Desktop/ProgrammingCode/DaisyCode/DaisyExamples/DaisySP/Source/Utility/dsp.h **** fmap(float in, float min, float max, Mapping curve = Mapping::LINEAR)
 5539              		.loc 18 177 1 is_stmt 1 view .LVU1419
 5540              	.LBE982:
 178:/Users/dominicfrugoli/Desktop/ProgrammingCode/DaisyCode/DaisyExamples/DaisySP/Source/Utility/dsp.h **** {
 179:/Users/dominicfrugoli/Desktop/ProgrammingCode/DaisyCode/DaisyExamples/DaisySP/Source/Utility/dsp.h ****     switch(curve)
 5541              		.loc 18 179 5 view .LVU1420
 5542              	.LBB1000:
 5543              	.LBB983:
 180:/Users/dominicfrugoli/Desktop/ProgrammingCode/DaisyCode/DaisyExamples/DaisySP/Source/Utility/dsp.h ****     {
 181:/Users/dominicfrugoli/Desktop/ProgrammingCode/DaisyCode/DaisyExamples/DaisySP/Source/Utility/dsp.h ****         case Mapping::EXP:
 182:/Users/dominicfrugoli/Desktop/ProgrammingCode/DaisyCode/DaisyExamples/DaisySP/Source/Utility/dsp.h ****             return fclamp(min + (in * in) * (max - min), min, max);
 183:/Users/dominicfrugoli/Desktop/ProgrammingCode/DaisyCode/DaisyExamples/DaisySP/Source/Utility/dsp.h ****         case Mapping::LOG:
 184:/Users/dominicfrugoli/Desktop/ProgrammingCode/DaisyCode/DaisyExamples/DaisySP/Source/Utility/dsp.h ****         {
 185:/Users/dominicfrugoli/Desktop/ProgrammingCode/DaisyCode/DaisyExamples/DaisySP/Source/Utility/dsp.h ****             const float a = 1.f / log10f(max / min);
 186:/Users/dominicfrugoli/Desktop/ProgrammingCode/DaisyCode/DaisyExamples/DaisySP/Source/Utility/dsp.h ****             return fclamp(min * powf(10, in / a), min, max);
 187:/Users/dominicfrugoli/Desktop/ProgrammingCode/DaisyCode/DaisyExamples/DaisySP/Source/Utility/dsp.h ****         }
 188:/Users/dominicfrugoli/Desktop/ProgrammingCode/DaisyCode/DaisyExamples/DaisySP/Source/Utility/dsp.h ****         case Mapping::LINEAR:
 5544              		.loc 18 188 9 view .LVU1421
 189:/Users/dominicfrugoli/Desktop/ProgrammingCode/DaisyCode/DaisyExamples/DaisySP/Source/Utility/dsp.h ****         default: return fclamp(min + in * (max - min), min, max);
 5545              		.loc 18 189 9 view .LVU1422
 5546              		.loc 18 189 18 view .LVU1423
 5547              	.LBB984:
 5548              	.LBI984:
  64:/Users/dominicfrugoli/Desktop/ProgrammingCode/DaisyCode/DaisyExamples/DaisySP/Source/Utility/dsp.h **** {
 5549              		.loc 18 64 14 view .LVU1424
 5550              	.LBE984:
 5551              	.LBE983:
 5552              	.LBE1000:
  66:/Users/dominicfrugoli/Desktop/ProgrammingCode/DaisyCode/DaisyExamples/DaisySP/Source/Utility/dsp.h **** }
 5553              		.loc 18 66 5 view .LVU1425
 5554              	.LBB1001:
 5555              	.LBB996:
 5556              	.LBB993:
 5557              	.LBB985:
 5558              	.LBI985:
  40:/Users/dominicfrugoli/Desktop/ProgrammingCode/DaisyCode/DaisyExamples/DaisySP/Source/Utility/dsp.h **** {
 5559              		.loc 18 40 14 view .LVU1426
 5560              	.LBB986:
  42:/Users/dominicfrugoli/Desktop/ProgrammingCode/DaisyCode/DaisyExamples/DaisySP/Source/Utility/dsp.h **** #ifdef __arm__
 5561              		.loc 18 42 5 view .LVU1427
ARM GAS  /var/folders/m5/x8wc2gdj7z5cpgcqdsb_gkj40000gn/T//ccGxviRN.s 			page 153


  44:/Users/dominicfrugoli/Desktop/ProgrammingCode/DaisyCode/DaisyExamples/DaisySP/Source/Utility/dsp.h **** #else
 5562              		.loc 18 44 5 view .LVU1428
 5563              	.LBE986:
 5564              	.LBE985:
 5565              	.LBE993:
 5566              	.LBE996:
 5567              	.LBE1001:
 155:sardinia.cpp  **** 		effectValues[0][1] = fmap(hw.adc.GetMuxFloat(0, 6), .01, .3, Mapping::EXP); // Overdrive Tone Fre
 5568              		.loc 17 155 22 is_stmt 0 view .LVU1429
 5569 005e 6D4C     		ldr	r4, .L437+16
 5570              	.LBB1002:
 5571              	.LBB997:
 5572              		.loc 18 189 31 view .LVU1430
 5573 0060 DFED6D7A 		vldr.32	s15, .L437+20
 5574              	.LBB994:
 5575              	.LBB988:
 5576              	.LBB989:
  55:/Users/dominicfrugoli/Desktop/ProgrammingCode/DaisyCode/DaisyExamples/DaisySP/Source/Utility/dsp.h **** #else
 5577              		.loc 18 55 5 view .LVU1431
 5578 0064 B7EE007A 		vmov.f32	s14, #1.0e+0
 5579              	.LBE989:
 5580              	.LBE988:
 5581              	.LBE994:
 5582              	.LBE997:
 5583              	.LBE1002:
 156:sardinia.cpp  **** 	}
 5584              		.loc 17 156 28 view .LVU1432
 5585 0068 0622     		movs	r2, #6
 5586 006a 0021     		movs	r1, #0
 5587              	.LBB1003:
 5588              	.LBB998:
 5589              		.loc 18 189 31 view .LVU1433
 5590 006c 30EE270A 		vadd.f32	s0, s0, s15
 5591              	.LVL343:
 5592              		.loc 18 189 31 view .LVU1434
 5593              	.LBE998:
 5594              	.LBE1003:
 156:sardinia.cpp  **** 	}
 5595              		.loc 17 156 28 view .LVU1435
 5596 0070 6748     		ldr	r0, .L437+12
 5597              	.LBB1004:
 5598              	.LBB999:
 5599              	.LBB995:
 5600              	.LBB991:
 5601              	.LBB987:
  44:/Users/dominicfrugoli/Desktop/ProgrammingCode/DaisyCode/DaisyExamples/DaisySP/Source/Utility/dsp.h **** #else
 5602              		.loc 18 44 5 view .LVU1436
 5603              		.syntax unified
 5604              	@ 44 "/Users/dominicfrugoli/Desktop/ProgrammingCode/DaisyCode/DaisyExamples/DaisySP/Source/Utility/
 5605 0072 80FE270A 		vmaxnm.f32 s0, s0, s15
 5606              	@ 0 "" 2
 5607              	.LVL344:
  48:/Users/dominicfrugoli/Desktop/ProgrammingCode/DaisyCode/DaisyExamples/DaisySP/Source/Utility/dsp.h **** }
 5608              		.loc 18 48 5 is_stmt 1 view .LVU1437
  48:/Users/dominicfrugoli/Desktop/ProgrammingCode/DaisyCode/DaisyExamples/DaisySP/Source/Utility/dsp.h **** }
 5609              		.loc 18 48 5 is_stmt 0 view .LVU1438
 5610              		.thumb
ARM GAS  /var/folders/m5/x8wc2gdj7z5cpgcqdsb_gkj40000gn/T//ccGxviRN.s 			page 154


 5611              		.syntax unified
 5612              	.LBE987:
 5613              	.LBE991:
 5614              	.LBB992:
 5615              	.LBI988:
  51:/Users/dominicfrugoli/Desktop/ProgrammingCode/DaisyCode/DaisyExamples/DaisySP/Source/Utility/dsp.h **** {
 5616              		.loc 18 51 14 is_stmt 1 view .LVU1439
 5617              	.LBB990:
  53:/Users/dominicfrugoli/Desktop/ProgrammingCode/DaisyCode/DaisyExamples/DaisySP/Source/Utility/dsp.h **** #ifdef __arm__
 5618              		.loc 18 53 5 view .LVU1440
  55:/Users/dominicfrugoli/Desktop/ProgrammingCode/DaisyCode/DaisyExamples/DaisySP/Source/Utility/dsp.h **** #else
 5619              		.loc 18 55 5 view .LVU1441
 5620              		.syntax unified
 5621              	@ 55 "/Users/dominicfrugoli/Desktop/ProgrammingCode/DaisyCode/DaisyExamples/DaisySP/Source/Utility/
 5622 0076 80FE470A 		vminnm.f32 s0, s0, s14
 5623              	@ 0 "" 2
 5624              	.LVL345:
  59:/Users/dominicfrugoli/Desktop/ProgrammingCode/DaisyCode/DaisyExamples/DaisySP/Source/Utility/dsp.h **** }
 5625              		.loc 18 59 5 view .LVU1442
  59:/Users/dominicfrugoli/Desktop/ProgrammingCode/DaisyCode/DaisyExamples/DaisySP/Source/Utility/dsp.h **** }
 5626              		.loc 18 59 5 is_stmt 0 view .LVU1443
 5627              		.thumb
 5628              		.syntax unified
 5629              	.LBE990:
 5630              	.LBE992:
 5631              	.LBE995:
 5632              	.LBE999:
 5633              	.LBE1004:
 155:sardinia.cpp  **** 		effectValues[0][1] = fmap(hw.adc.GetMuxFloat(0, 6), .01, .3, Mapping::EXP); // Overdrive Tone Fre
 5634              		.loc 17 155 22 view .LVU1444
 5635 007a 84ED000A 		vstr.32	s0, [r4]
 156:sardinia.cpp  **** 	}
 5636              		.loc 17 156 3 is_stmt 1 view .LVU1445
 156:sardinia.cpp  **** 	}
 5637              		.loc 17 156 28 is_stmt 0 view .LVU1446
 5638 007e FFF7FEFF 		bl	_ZNK5daisy9AdcHandle11GetMuxFloatEhh
 5639              	.LVL346:
 5640              	.LBB1005:
 5641              	.LBI1005:
 177:/Users/dominicfrugoli/Desktop/ProgrammingCode/DaisyCode/DaisyExamples/DaisySP/Source/Utility/dsp.h **** {
 5642              		.loc 18 177 1 is_stmt 1 view .LVU1447
 5643              	.LBE1005:
 179:/Users/dominicfrugoli/Desktop/ProgrammingCode/DaisyCode/DaisyExamples/DaisySP/Source/Utility/dsp.h ****     {
 5644              		.loc 18 179 5 view .LVU1448
 5645              	.LBB1017:
 5646              	.LBB1006:
 181:/Users/dominicfrugoli/Desktop/ProgrammingCode/DaisyCode/DaisyExamples/DaisySP/Source/Utility/dsp.h ****             return fclamp(min + (in * in) * (max - min), min, max);
 5647              		.loc 18 181 9 view .LVU1449
 182:/Users/dominicfrugoli/Desktop/ProgrammingCode/DaisyCode/DaisyExamples/DaisySP/Source/Utility/dsp.h ****         case Mapping::LOG:
 5648              		.loc 18 182 13 view .LVU1450
 182:/Users/dominicfrugoli/Desktop/ProgrammingCode/DaisyCode/DaisyExamples/DaisySP/Source/Utility/dsp.h ****         case Mapping::LOG:
 5649              		.loc 18 182 26 is_stmt 0 view .LVU1451
 5650 0082 9FED667A 		vldr.32	s14, .L437+24
 182:/Users/dominicfrugoli/Desktop/ProgrammingCode/DaisyCode/DaisyExamples/DaisySP/Source/Utility/dsp.h ****         case Mapping::LOG:
 5651              		.loc 18 182 37 view .LVU1452
 5652 0086 20EE000A 		vmul.f32	s0, s0, s0
 5653              	.LVL347:
ARM GAS  /var/folders/m5/x8wc2gdj7z5cpgcqdsb_gkj40000gn/T//ccGxviRN.s 			page 155


 182:/Users/dominicfrugoli/Desktop/ProgrammingCode/DaisyCode/DaisyExamples/DaisySP/Source/Utility/dsp.h ****         case Mapping::LOG:
 5654              		.loc 18 182 26 view .LVU1453
 5655 008a 9FED656A 		vldr.32	s12, .L437+28
 5656 008e F0EE477A 		vmov.f32	s15, s14
 5657              	.LBB1007:
 5658              	.LBB1008:
 5659              	.LBB1009:
  55:/Users/dominicfrugoli/Desktop/ProgrammingCode/DaisyCode/DaisyExamples/DaisySP/Source/Utility/dsp.h **** #else
 5660              		.loc 18 55 5 view .LVU1454
 5661 0092 DFED646A 		vldr.32	s13, .L437+32
 5662              	.LBE1009:
 5663              	.LBE1008:
 5664              	.LBE1007:
 182:/Users/dominicfrugoli/Desktop/ProgrammingCode/DaisyCode/DaisyExamples/DaisySP/Source/Utility/dsp.h ****         case Mapping::LOG:
 5665              		.loc 18 182 26 view .LVU1455
 5666 0096 E0EE067A 		vfma.f32	s15, s0, s12
 5667              	.LVL348:
 5668              	.LBB1014:
 5669              	.LBI1007:
  64:/Users/dominicfrugoli/Desktop/ProgrammingCode/DaisyCode/DaisyExamples/DaisySP/Source/Utility/dsp.h **** {
 5670              		.loc 18 64 14 is_stmt 1 view .LVU1456
 5671              	.LBE1014:
 5672              	.LBE1006:
 5673              	.LBE1017:
  66:/Users/dominicfrugoli/Desktop/ProgrammingCode/DaisyCode/DaisyExamples/DaisySP/Source/Utility/dsp.h **** }
 5674              		.loc 18 66 5 view .LVU1457
 5675              	.LBB1018:
 5676              	.LBB1016:
 5677              	.LBB1015:
 5678              	.LBB1011:
 5679              	.LBI1011:
  40:/Users/dominicfrugoli/Desktop/ProgrammingCode/DaisyCode/DaisyExamples/DaisySP/Source/Utility/dsp.h **** {
 5680              		.loc 18 40 14 view .LVU1458
 5681              	.LBB1012:
  42:/Users/dominicfrugoli/Desktop/ProgrammingCode/DaisyCode/DaisyExamples/DaisySP/Source/Utility/dsp.h **** #ifdef __arm__
 5682              		.loc 18 42 5 view .LVU1459
  44:/Users/dominicfrugoli/Desktop/ProgrammingCode/DaisyCode/DaisyExamples/DaisySP/Source/Utility/dsp.h **** #else
 5683              		.loc 18 44 5 view .LVU1460
 5684              		.syntax unified
 5685              	@ 44 "/Users/dominicfrugoli/Desktop/ProgrammingCode/DaisyCode/DaisyExamples/DaisySP/Source/Utility/
 5686 009a C7FE877A 		vmaxnm.f32 s15, s15, s14
 5687              	@ 0 "" 2
 5688              	.LVL349:
  48:/Users/dominicfrugoli/Desktop/ProgrammingCode/DaisyCode/DaisyExamples/DaisySP/Source/Utility/dsp.h **** }
 5689              		.loc 18 48 5 view .LVU1461
  48:/Users/dominicfrugoli/Desktop/ProgrammingCode/DaisyCode/DaisyExamples/DaisySP/Source/Utility/dsp.h **** }
 5690              		.loc 18 48 5 is_stmt 0 view .LVU1462
 5691              		.thumb
 5692              		.syntax unified
 5693              	.LBE1012:
 5694              	.LBE1011:
 5695              	.LBB1013:
 5696              	.LBI1008:
  51:/Users/dominicfrugoli/Desktop/ProgrammingCode/DaisyCode/DaisyExamples/DaisySP/Source/Utility/dsp.h **** {
 5697              		.loc 18 51 14 is_stmt 1 view .LVU1463
 5698              	.LBB1010:
  53:/Users/dominicfrugoli/Desktop/ProgrammingCode/DaisyCode/DaisyExamples/DaisySP/Source/Utility/dsp.h **** #ifdef __arm__
ARM GAS  /var/folders/m5/x8wc2gdj7z5cpgcqdsb_gkj40000gn/T//ccGxviRN.s 			page 156


 5699              		.loc 18 53 5 view .LVU1464
  55:/Users/dominicfrugoli/Desktop/ProgrammingCode/DaisyCode/DaisyExamples/DaisySP/Source/Utility/dsp.h **** #else
 5700              		.loc 18 55 5 view .LVU1465
 5701              		.syntax unified
 5702              	@ 55 "/Users/dominicfrugoli/Desktop/ProgrammingCode/DaisyCode/DaisyExamples/DaisySP/Source/Utility/
 5703 009e C7FEE67A 		vminnm.f32 s15, s15, s13
 5704              	@ 0 "" 2
 5705              	.LVL350:
  59:/Users/dominicfrugoli/Desktop/ProgrammingCode/DaisyCode/DaisyExamples/DaisySP/Source/Utility/dsp.h **** }
 5706              		.loc 18 59 5 view .LVU1466
  59:/Users/dominicfrugoli/Desktop/ProgrammingCode/DaisyCode/DaisyExamples/DaisySP/Source/Utility/dsp.h **** }
 5707              		.loc 18 59 5 is_stmt 0 view .LVU1467
 5708              		.thumb
 5709              		.syntax unified
 5710              	.LBE1010:
 5711              	.LBE1013:
 5712              	.LBE1015:
 5713              	.LBE1016:
 5714              	.LBE1018:
 156:sardinia.cpp  **** 	}
 5715              		.loc 17 156 22 view .LVU1468
 5716 00a2 C4ED017A 		vstr.32	s15, [r4, #4]
 5717 00a6 11E0     		b	.L410
 5718              	.L405:
 150:sardinia.cpp  **** 	}
 5719              		.loc 17 150 60 view .LVU1469
 5720 00a8 574B     		ldr	r3, .L437+4
 5721 00aa 1B68     		ldr	r3, [r3]
 5722              	.L407:
 148:sardinia.cpp  **** 	{
 5723              		.loc 17 148 2 is_stmt 1 view .LVU1470
 5724              	.LVL351:
 5725              	.LBB1019:
 5726              		.loc 1 39 17 view .LVU1471
 5727              	.LBE1019:
 5728              		.loc 1 39 38 view .LVU1472
 5729              	.LBB1020:
 5730              	.LBB976:
 5731              		.loc 2 70 17 view .LVU1473
 5732              	.LBB972:
 5733              		.loc 2 70 38 view .LVU1474
 5734              		.loc 2 70 54 is_stmt 0 view .LVU1475
 5735 00ac 227B     		ldrb	r2, [r4, #12]	@ zero_extendqisi2
 5736 00ae 3AB1     		cbz	r2, .L413
 5737              	.LVL352:
 5738              		.loc 2 70 54 view .LVU1476
 5739              	.LBE972:
 5740              	.LBE976:
 5741              	.LBE1020:
 148:sardinia.cpp  **** 	{
 5742              		.loc 17 148 2 view .LVU1477
 5743 00b0 A27C     		ldrb	r2, [r4, #18]	@ zero_extendqisi2
 5744 00b2 7F2A     		cmp	r2, #127
 5745 00b4 04D1     		bne	.L413
 150:sardinia.cpp  **** 	}
 5746              		.loc 17 150 3 is_stmt 1 view .LVU1478
 150:sardinia.cpp  **** 	}
ARM GAS  /var/folders/m5/x8wc2gdj7z5cpgcqdsb_gkj40000gn/T//ccGxviRN.s 			page 157


 5747              		.loc 17 150 31 is_stmt 0 view .LVU1479
 5748 00b6 5549     		ldr	r1, .L437+8
 150:sardinia.cpp  **** 	}
 5749              		.loc 17 150 33 view .LVU1480
 5750 00b8 CA5C     		ldrb	r2, [r1, r3]	@ zero_extendqisi2
 5751 00ba 82F00102 		eor	r2, r2, #1
 150:sardinia.cpp  **** 	}
 5752              		.loc 17 150 31 view .LVU1481
 5753 00be CA54     		strb	r2, [r1, r3]
 5754              	.L413:
 153:sardinia.cpp  **** 	{
 5755              		.loc 17 153 2 is_stmt 1 view .LVU1482
 5756 00c0 002B     		cmp	r3, #0
 5757 00c2 C7D0     		beq	.L412
 158:sardinia.cpp  **** 	{
 5758              		.loc 17 158 7 view .LVU1483
 5759 00c4 012B     		cmp	r3, #1
 5760 00c6 6ED0     		beq	.L435
 163:sardinia.cpp  **** 	{
 5761              		.loc 17 163 7 view .LVU1484
 5762 00c8 022B     		cmp	r3, #2
 5763 00ca 44D0     		beq	.L409
 5764              	.L410:
 170:sardinia.cpp  **** 	inputAmp = fmap(hw.adc.GetMuxFloat(0, 7), 0, 2, Mapping::LINEAR); // bottom far right
 5765              		.loc 17 170 2 view .LVU1485
 5766              	.LBB1021:
 5767              	.LBB1022:
 5768              		.loc 18 189 31 is_stmt 0 view .LVU1486
 5769 00cc DFED528A 		vldr.32	s17, .L437+20
 5770              	.LBE1022:
 5771              	.LBE1021:
 170:sardinia.cpp  **** 	inputAmp = fmap(hw.adc.GetMuxFloat(0, 7), 0, 2, Mapping::LINEAR); // bottom far right
 5772              		.loc 17 170 18 view .LVU1487
 5773 00d0 0322     		movs	r2, #3
 5774 00d2 0021     		movs	r1, #0
 5775 00d4 4E48     		ldr	r0, .L437+12
 5776 00d6 FFF7FEFF 		bl	_ZNK5daisy9AdcHandle11GetMuxFloatEhh
 5777              	.LVL353:
 5778              	.LBB1032:
 5779              	.LBI1021:
 177:/Users/dominicfrugoli/Desktop/ProgrammingCode/DaisyCode/DaisyExamples/DaisySP/Source/Utility/dsp.h **** {
 5780              		.loc 18 177 1 is_stmt 1 view .LVU1488
 5781              	.LBE1032:
 179:/Users/dominicfrugoli/Desktop/ProgrammingCode/DaisyCode/DaisyExamples/DaisySP/Source/Utility/dsp.h ****     {
 5782              		.loc 18 179 5 view .LVU1489
 5783              	.LBB1033:
 5784              	.LBB1029:
 188:/Users/dominicfrugoli/Desktop/ProgrammingCode/DaisyCode/DaisyExamples/DaisySP/Source/Utility/dsp.h ****         default: return fclamp(min + in * (max - min), min, max);
 5785              		.loc 18 188 9 view .LVU1490
 5786              		.loc 18 189 9 view .LVU1491
 5787              		.loc 18 189 18 view .LVU1492
 5788              		.loc 18 189 31 is_stmt 0 view .LVU1493
 5789 00da B0EE008A 		vmov.f32	s16, #2.0e+0
 5790 00de B0EE687A 		vmov.f32	s14, s17
 5791              	.LBE1029:
 5792              	.LBE1033:
 170:sardinia.cpp  **** 	inputAmp = fmap(hw.adc.GetMuxFloat(0, 7), 0, 2, Mapping::LINEAR); // bottom far right
ARM GAS  /var/folders/m5/x8wc2gdj7z5cpgcqdsb_gkj40000gn/T//ccGxviRN.s 			page 158


 5793              		.loc 17 170 12 view .LVU1494
 5794 00e2 514B     		ldr	r3, .L437+36
 171:sardinia.cpp  **** 
 5795              		.loc 17 171 17 view .LVU1495
 5796 00e4 0722     		movs	r2, #7
 5797 00e6 0021     		movs	r1, #0
 5798 00e8 4948     		ldr	r0, .L437+12
 5799              	.LBB1034:
 5800              	.LBB1030:
 5801              		.loc 18 189 31 view .LVU1496
 5802 00ea A0EE087A 		vfma.f32	s14, s0, s16
 5803              	.LVL354:
 5804              	.LBB1023:
 5805              	.LBI1023:
  64:/Users/dominicfrugoli/Desktop/ProgrammingCode/DaisyCode/DaisyExamples/DaisySP/Source/Utility/dsp.h **** {
 5806              		.loc 18 64 14 is_stmt 1 view .LVU1497
 5807              	.LBE1023:
 5808              	.LBE1030:
 5809              	.LBE1034:
  66:/Users/dominicfrugoli/Desktop/ProgrammingCode/DaisyCode/DaisyExamples/DaisySP/Source/Utility/dsp.h **** }
 5810              		.loc 18 66 5 view .LVU1498
 5811              	.LBB1035:
 5812              	.LBB1031:
 5813              	.LBB1028:
 5814              	.LBB1024:
 5815              	.LBI1024:
  40:/Users/dominicfrugoli/Desktop/ProgrammingCode/DaisyCode/DaisyExamples/DaisySP/Source/Utility/dsp.h **** {
 5816              		.loc 18 40 14 view .LVU1499
 5817              	.LBB1025:
  42:/Users/dominicfrugoli/Desktop/ProgrammingCode/DaisyCode/DaisyExamples/DaisySP/Source/Utility/dsp.h **** #ifdef __arm__
 5818              		.loc 18 42 5 view .LVU1500
  44:/Users/dominicfrugoli/Desktop/ProgrammingCode/DaisyCode/DaisyExamples/DaisySP/Source/Utility/dsp.h **** #else
 5819              		.loc 18 44 5 view .LVU1501
 5820              		.syntax unified
 5821              	@ 44 "/Users/dominicfrugoli/Desktop/ProgrammingCode/DaisyCode/DaisyExamples/DaisySP/Source/Utility/
 5822 00ee 87FE287A 		vmaxnm.f32 s14, s14, s17
 5823              	@ 0 "" 2
 5824              	.LVL355:
  48:/Users/dominicfrugoli/Desktop/ProgrammingCode/DaisyCode/DaisyExamples/DaisySP/Source/Utility/dsp.h **** }
 5825              		.loc 18 48 5 view .LVU1502
  48:/Users/dominicfrugoli/Desktop/ProgrammingCode/DaisyCode/DaisyExamples/DaisySP/Source/Utility/dsp.h **** }
 5826              		.loc 18 48 5 is_stmt 0 view .LVU1503
 5827              		.thumb
 5828              		.syntax unified
 5829              	.LBE1025:
 5830              	.LBE1024:
 5831              	.LBB1026:
 5832              	.LBI1026:
  51:/Users/dominicfrugoli/Desktop/ProgrammingCode/DaisyCode/DaisyExamples/DaisySP/Source/Utility/dsp.h **** {
 5833              		.loc 18 51 14 is_stmt 1 view .LVU1504
 5834              	.LBB1027:
  53:/Users/dominicfrugoli/Desktop/ProgrammingCode/DaisyCode/DaisyExamples/DaisySP/Source/Utility/dsp.h **** #ifdef __arm__
 5835              		.loc 18 53 5 view .LVU1505
  55:/Users/dominicfrugoli/Desktop/ProgrammingCode/DaisyCode/DaisyExamples/DaisySP/Source/Utility/dsp.h **** #else
 5836              		.loc 18 55 5 view .LVU1506
 5837              		.syntax unified
 5838              	@ 55 "/Users/dominicfrugoli/Desktop/ProgrammingCode/DaisyCode/DaisyExamples/DaisySP/Source/Utility/
ARM GAS  /var/folders/m5/x8wc2gdj7z5cpgcqdsb_gkj40000gn/T//ccGxviRN.s 			page 159


 5839 00f2 87FE487A 		vminnm.f32 s14, s14, s16
 5840              	@ 0 "" 2
 5841              	.LVL356:
  59:/Users/dominicfrugoli/Desktop/ProgrammingCode/DaisyCode/DaisyExamples/DaisySP/Source/Utility/dsp.h **** }
 5842              		.loc 18 59 5 view .LVU1507
  59:/Users/dominicfrugoli/Desktop/ProgrammingCode/DaisyCode/DaisyExamples/DaisySP/Source/Utility/dsp.h **** }
 5843              		.loc 18 59 5 is_stmt 0 view .LVU1508
 5844              		.thumb
 5845              		.syntax unified
 5846              	.LBE1027:
 5847              	.LBE1026:
 5848              	.LBE1028:
 5849              	.LBE1031:
 5850              	.LBE1035:
 170:sardinia.cpp  **** 	inputAmp = fmap(hw.adc.GetMuxFloat(0, 7), 0, 2, Mapping::LINEAR); // bottom far right
 5851              		.loc 17 170 12 view .LVU1509
 5852 00f6 83ED007A 		vstr.32	s14, [r3]
 171:sardinia.cpp  **** 
 5853              		.loc 17 171 2 is_stmt 1 view .LVU1510
 171:sardinia.cpp  **** 
 5854              		.loc 17 171 17 is_stmt 0 view .LVU1511
 5855 00fa FFF7FEFF 		bl	_ZNK5daisy9AdcHandle11GetMuxFloatEhh
 5856              	.LVL357:
 5857              	.LBB1036:
 5858              	.LBI1036:
 177:/Users/dominicfrugoli/Desktop/ProgrammingCode/DaisyCode/DaisyExamples/DaisySP/Source/Utility/dsp.h **** {
 5859              		.loc 18 177 1 is_stmt 1 view .LVU1512
 5860              	.LBE1036:
 179:/Users/dominicfrugoli/Desktop/ProgrammingCode/DaisyCode/DaisyExamples/DaisySP/Source/Utility/dsp.h ****     {
 5861              		.loc 18 179 5 view .LVU1513
 5862              	.LBB1046:
 5863              	.LBB1037:
 188:/Users/dominicfrugoli/Desktop/ProgrammingCode/DaisyCode/DaisyExamples/DaisySP/Source/Utility/dsp.h ****         default: return fclamp(min + in * (max - min), min, max);
 5864              		.loc 18 188 9 view .LVU1514
 5865              		.loc 18 189 9 view .LVU1515
 5866              		.loc 18 189 18 view .LVU1516
 5867              		.loc 18 189 31 is_stmt 0 view .LVU1517
 5868 00fe F0EE687A 		vmov.f32	s15, s17
 5869              	.LBE1037:
 5870              	.LBE1046:
 173:sardinia.cpp  **** 	ProcessEffectParameters();
 5871              		.loc 17 173 19 view .LVU1518
 5872 0102 0022     		movs	r2, #0
 171:sardinia.cpp  **** 
 5873              		.loc 17 171 11 view .LVU1519
 5874 0104 494B     		ldr	r3, .L437+40
 173:sardinia.cpp  **** 	ProcessEffectParameters();
 5875              		.loc 17 173 19 view .LVU1520
 5876 0106 4248     		ldr	r0, .L437+12
 5877 0108 1146     		mov	r1, r2
 5878              	.LBB1047:
 5879              	.LBB1044:
 5880              		.loc 18 189 31 view .LVU1521
 5881 010a E0EE087A 		vfma.f32	s15, s0, s16
 5882              	.LVL358:
 5883              	.LBB1038:
 5884              	.LBI1038:
ARM GAS  /var/folders/m5/x8wc2gdj7z5cpgcqdsb_gkj40000gn/T//ccGxviRN.s 			page 160


  64:/Users/dominicfrugoli/Desktop/ProgrammingCode/DaisyCode/DaisyExamples/DaisySP/Source/Utility/dsp.h **** {
 5885              		.loc 18 64 14 is_stmt 1 view .LVU1522
 5886              	.LBE1038:
 5887              	.LBE1044:
 5888              	.LBE1047:
  66:/Users/dominicfrugoli/Desktop/ProgrammingCode/DaisyCode/DaisyExamples/DaisySP/Source/Utility/dsp.h **** }
 5889              		.loc 18 66 5 view .LVU1523
 5890              	.LBB1048:
 5891              	.LBB1045:
 5892              	.LBB1043:
 5893              	.LBB1039:
 5894              	.LBI1039:
  40:/Users/dominicfrugoli/Desktop/ProgrammingCode/DaisyCode/DaisyExamples/DaisySP/Source/Utility/dsp.h **** {
 5895              		.loc 18 40 14 view .LVU1524
 5896              	.LBB1040:
  42:/Users/dominicfrugoli/Desktop/ProgrammingCode/DaisyCode/DaisyExamples/DaisySP/Source/Utility/dsp.h **** #ifdef __arm__
 5897              		.loc 18 42 5 view .LVU1525
  44:/Users/dominicfrugoli/Desktop/ProgrammingCode/DaisyCode/DaisyExamples/DaisySP/Source/Utility/dsp.h **** #else
 5898              		.loc 18 44 5 view .LVU1526
 5899              		.syntax unified
 5900              	@ 44 "/Users/dominicfrugoli/Desktop/ProgrammingCode/DaisyCode/DaisyExamples/DaisySP/Source/Utility/
 5901 010e C7FEA87A 		vmaxnm.f32 s15, s15, s17
 5902              	@ 0 "" 2
 5903              	.LVL359:
  48:/Users/dominicfrugoli/Desktop/ProgrammingCode/DaisyCode/DaisyExamples/DaisySP/Source/Utility/dsp.h **** }
 5904              		.loc 18 48 5 view .LVU1527
  48:/Users/dominicfrugoli/Desktop/ProgrammingCode/DaisyCode/DaisyExamples/DaisySP/Source/Utility/dsp.h **** }
 5905              		.loc 18 48 5 is_stmt 0 view .LVU1528
 5906              		.thumb
 5907              		.syntax unified
 5908              	.LBE1040:
 5909              	.LBE1039:
 5910              	.LBB1041:
 5911              	.LBI1041:
  51:/Users/dominicfrugoli/Desktop/ProgrammingCode/DaisyCode/DaisyExamples/DaisySP/Source/Utility/dsp.h **** {
 5912              		.loc 18 51 14 is_stmt 1 view .LVU1529
 5913              	.LBB1042:
  53:/Users/dominicfrugoli/Desktop/ProgrammingCode/DaisyCode/DaisyExamples/DaisySP/Source/Utility/dsp.h **** #ifdef __arm__
 5914              		.loc 18 53 5 view .LVU1530
  55:/Users/dominicfrugoli/Desktop/ProgrammingCode/DaisyCode/DaisyExamples/DaisySP/Source/Utility/dsp.h **** #else
 5915              		.loc 18 55 5 view .LVU1531
 5916              		.syntax unified
 5917              	@ 55 "/Users/dominicfrugoli/Desktop/ProgrammingCode/DaisyCode/DaisyExamples/DaisySP/Source/Utility/
 5918 0112 C7FEC87A 		vminnm.f32 s15, s15, s16
 5919              	@ 0 "" 2
 5920              	.LVL360:
  59:/Users/dominicfrugoli/Desktop/ProgrammingCode/DaisyCode/DaisyExamples/DaisySP/Source/Utility/dsp.h **** }
 5921              		.loc 18 59 5 view .LVU1532
  59:/Users/dominicfrugoli/Desktop/ProgrammingCode/DaisyCode/DaisyExamples/DaisySP/Source/Utility/dsp.h **** }
 5922              		.loc 18 59 5 is_stmt 0 view .LVU1533
 5923              		.thumb
 5924              		.syntax unified
 5925              	.LBE1042:
 5926              	.LBE1041:
 5927              	.LBE1043:
 5928              	.LBE1045:
 5929              	.LBE1048:
ARM GAS  /var/folders/m5/x8wc2gdj7z5cpgcqdsb_gkj40000gn/T//ccGxviRN.s 			page 161


 171:sardinia.cpp  **** 
 5930              		.loc 17 171 11 view .LVU1534
 5931 0116 C3ED007A 		vstr.32	s15, [r3]
 173:sardinia.cpp  **** 	ProcessEffectParameters();
 5932              		.loc 17 173 2 is_stmt 1 view .LVU1535
 173:sardinia.cpp  **** 	ProcessEffectParameters();
 5933              		.loc 17 173 19 is_stmt 0 view .LVU1536
 5934 011a FFF7FEFF 		bl	_ZNK5daisy9AdcHandle11GetMuxFloatEhh
 5935              	.LVL361:
 5936              	.LBB1049:
 5937              	.LBI1049:
 177:/Users/dominicfrugoli/Desktop/ProgrammingCode/DaisyCode/DaisyExamples/DaisySP/Source/Utility/dsp.h **** {
 5938              		.loc 18 177 1 is_stmt 1 view .LVU1537
 5939              	.LBE1049:
 179:/Users/dominicfrugoli/Desktop/ProgrammingCode/DaisyCode/DaisyExamples/DaisySP/Source/Utility/dsp.h ****     {
 5940              		.loc 18 179 5 view .LVU1538
 5941              	.LBB1059:
 5942              	.LBB1050:
 181:/Users/dominicfrugoli/Desktop/ProgrammingCode/DaisyCode/DaisyExamples/DaisySP/Source/Utility/dsp.h ****             return fclamp(min + (in * in) * (max - min), min, max);
 5943              		.loc 18 181 9 view .LVU1539
 182:/Users/dominicfrugoli/Desktop/ProgrammingCode/DaisyCode/DaisyExamples/DaisySP/Source/Utility/dsp.h ****         case Mapping::LOG:
 5944              		.loc 18 182 13 view .LVU1540
 182:/Users/dominicfrugoli/Desktop/ProgrammingCode/DaisyCode/DaisyExamples/DaisySP/Source/Utility/dsp.h ****         case Mapping::LOG:
 5945              		.loc 18 182 26 is_stmt 0 view .LVU1541
 5946 011e B6EE007A 		vmov.f32	s14, #5.0e-1
 5947              	.LBE1050:
 5948              	.LBE1059:
 173:sardinia.cpp  **** 	ProcessEffectParameters();
 5949              		.loc 17 173 13 view .LVU1542
 5950 0122 434B     		ldr	r3, .L437+44
 5951              	.LBB1060:
 5952              	.LBB1057:
 182:/Users/dominicfrugoli/Desktop/ProgrammingCode/DaisyCode/DaisyExamples/DaisySP/Source/Utility/dsp.h ****         case Mapping::LOG:
 5953              		.loc 18 182 26 view .LVU1543
 5954 0124 F7EE086A 		vmov.f32	s13, #1.5e+0
 182:/Users/dominicfrugoli/Desktop/ProgrammingCode/DaisyCode/DaisyExamples/DaisySP/Source/Utility/dsp.h ****         case Mapping::LOG:
 5955              		.loc 18 182 37 view .LVU1544
 5956 0128 20EE000A 		vmul.f32	s0, s0, s0
 5957              	.LVL362:
 182:/Users/dominicfrugoli/Desktop/ProgrammingCode/DaisyCode/DaisyExamples/DaisySP/Source/Utility/dsp.h ****         case Mapping::LOG:
 5958              		.loc 18 182 26 view .LVU1545
 5959 012c F0EE477A 		vmov.f32	s15, s14
 5960 0130 E0EE267A 		vfma.f32	s15, s0, s13
 5961              	.LVL363:
 5962              	.LBB1051:
 5963              	.LBI1051:
  64:/Users/dominicfrugoli/Desktop/ProgrammingCode/DaisyCode/DaisyExamples/DaisySP/Source/Utility/dsp.h **** {
 5964              		.loc 18 64 14 is_stmt 1 view .LVU1546
 5965              	.LBE1051:
 5966              	.LBE1057:
 5967              	.LBE1060:
  66:/Users/dominicfrugoli/Desktop/ProgrammingCode/DaisyCode/DaisyExamples/DaisySP/Source/Utility/dsp.h **** }
 5968              		.loc 18 66 5 view .LVU1547
 5969              	.LBB1061:
 5970              	.LBB1058:
 5971              	.LBB1056:
 5972              	.LBB1052:
ARM GAS  /var/folders/m5/x8wc2gdj7z5cpgcqdsb_gkj40000gn/T//ccGxviRN.s 			page 162


 5973              	.LBI1052:
  40:/Users/dominicfrugoli/Desktop/ProgrammingCode/DaisyCode/DaisyExamples/DaisySP/Source/Utility/dsp.h **** {
 5974              		.loc 18 40 14 view .LVU1548
 5975              	.LBB1053:
  42:/Users/dominicfrugoli/Desktop/ProgrammingCode/DaisyCode/DaisyExamples/DaisySP/Source/Utility/dsp.h **** #ifdef __arm__
 5976              		.loc 18 42 5 view .LVU1549
  44:/Users/dominicfrugoli/Desktop/ProgrammingCode/DaisyCode/DaisyExamples/DaisySP/Source/Utility/dsp.h **** #else
 5977              		.loc 18 44 5 view .LVU1550
 5978              		.syntax unified
 5979              	@ 44 "/Users/dominicfrugoli/Desktop/ProgrammingCode/DaisyCode/DaisyExamples/DaisySP/Source/Utility/
 5980 0134 C7FE877A 		vmaxnm.f32 s15, s15, s14
 5981              	@ 0 "" 2
 5982              	.LVL364:
  48:/Users/dominicfrugoli/Desktop/ProgrammingCode/DaisyCode/DaisyExamples/DaisySP/Source/Utility/dsp.h **** }
 5983              		.loc 18 48 5 view .LVU1551
  48:/Users/dominicfrugoli/Desktop/ProgrammingCode/DaisyCode/DaisyExamples/DaisySP/Source/Utility/dsp.h **** }
 5984              		.loc 18 48 5 is_stmt 0 view .LVU1552
 5985              		.thumb
 5986              		.syntax unified
 5987              	.LBE1053:
 5988              	.LBE1052:
 5989              	.LBB1054:
 5990              	.LBI1054:
  51:/Users/dominicfrugoli/Desktop/ProgrammingCode/DaisyCode/DaisyExamples/DaisySP/Source/Utility/dsp.h **** {
 5991              		.loc 18 51 14 is_stmt 1 view .LVU1553
 5992              	.LBB1055:
  53:/Users/dominicfrugoli/Desktop/ProgrammingCode/DaisyCode/DaisyExamples/DaisySP/Source/Utility/dsp.h **** #ifdef __arm__
 5993              		.loc 18 53 5 view .LVU1554
  55:/Users/dominicfrugoli/Desktop/ProgrammingCode/DaisyCode/DaisyExamples/DaisySP/Source/Utility/dsp.h **** #else
 5994              		.loc 18 55 5 view .LVU1555
 5995              		.syntax unified
 5996              	@ 55 "/Users/dominicfrugoli/Desktop/ProgrammingCode/DaisyCode/DaisyExamples/DaisySP/Source/Utility/
 5997 0138 C7FEC87A 		vminnm.f32 s15, s15, s16
 5998              	@ 0 "" 2
 5999              	.LVL365:
  59:/Users/dominicfrugoli/Desktop/ProgrammingCode/DaisyCode/DaisyExamples/DaisySP/Source/Utility/dsp.h **** }
 6000              		.loc 18 59 5 view .LVU1556
  59:/Users/dominicfrugoli/Desktop/ProgrammingCode/DaisyCode/DaisyExamples/DaisySP/Source/Utility/dsp.h **** }
 6001              		.loc 18 59 5 is_stmt 0 view .LVU1557
 6002              		.thumb
 6003              		.syntax unified
 6004              	.LBE1055:
 6005              	.LBE1054:
 6006              	.LBE1056:
 6007              	.LBE1058:
 6008              	.LBE1061:
 175:sardinia.cpp  **** 
 6009              		.loc 17 175 1 view .LVU1558
 6010 013c BDEC028B 		vldm	sp!, {d8}
 6011              		.cfi_remember_state
 6012              		.cfi_restore 80
 6013              		.cfi_restore 81
 6014              		.cfi_def_cfa_offset 8
 6015 0140 BDE81040 		pop	{r4, lr}
 6016              		.cfi_restore 14
 6017              		.cfi_restore 4
 6018              		.cfi_def_cfa_offset 0
ARM GAS  /var/folders/m5/x8wc2gdj7z5cpgcqdsb_gkj40000gn/T//ccGxviRN.s 			page 163


 173:sardinia.cpp  **** 	ProcessEffectParameters();
 6019              		.loc 17 173 13 view .LVU1559
 6020 0144 C3ED007A 		vstr.32	s15, [r3]
 174:sardinia.cpp  **** }
 6021              		.loc 17 174 2 is_stmt 1 view .LVU1560
 174:sardinia.cpp  **** }
 6022              		.loc 17 174 25 is_stmt 0 view .LVU1561
 6023 0148 FFF7FEBF 		b	_Z23ProcessEffectParametersv
 6024              	.LVL366:
 6025              	.L434:
 6026              		.cfi_restore_state
 6027              	.LBB1062:
 6028              	.LBB965:
 105:effects.h     ****     }
 6029              		.loc 16 105 9 is_stmt 1 view .LVU1562
 105:effects.h     ****     }
 6030              		.loc 16 105 23 is_stmt 0 view .LVU1563
 6031 014c 0222     		movs	r2, #2
 6032              	.LBE965:
 6033              	.LBE1062:
 6034              	.LBB1063:
 6035              	.LBB977:
 6036              	.LBB973:
 6037              		.loc 2 70 54 view .LVU1564
 6038 014e 237B     		ldrb	r3, [r4, #12]	@ zero_extendqisi2
 6039              	.LBE973:
 6040              	.LBE977:
 6041              	.LBE1063:
 6042              	.LBB1064:
 6043              	.LBB966:
 105:effects.h     ****     }
 6044              		.loc 16 105 23 view .LVU1565
 6045 0150 0A60     		str	r2, [r1]
 6046              	.LVL367:
 105:effects.h     ****     }
 6047              		.loc 16 105 23 view .LVU1566
 6048              	.LBE966:
 6049              	.LBE1064:
 148:sardinia.cpp  **** 	{
 6050              		.loc 17 148 2 is_stmt 1 view .LVU1567
 6051              	.LBB1065:
 6052              		.loc 1 39 17 view .LVU1568
 6053              	.LBE1065:
 6054              		.loc 1 39 38 view .LVU1569
 6055              	.LBB1066:
 6056              	.LBB978:
 6057              		.loc 2 70 17 view .LVU1570
 6058              	.LBB974:
 6059              		.loc 2 70 38 view .LVU1571
 6060              		.loc 2 70 54 is_stmt 0 view .LVU1572
 6061 0152 002B     		cmp	r3, #0
 6062 0154 4DD1     		bne	.L436
 6063              	.LVL368:
 6064              	.L409:
 6065              		.loc 2 70 54 view .LVU1573
 6066              	.LBE974:
 6067              	.LBE978:
ARM GAS  /var/folders/m5/x8wc2gdj7z5cpgcqdsb_gkj40000gn/T//ccGxviRN.s 			page 164


 6068              	.LBE1066:
 165:sardinia.cpp  **** 		effectValues[2][1] = fmap(hw.adc.GetMuxFloat(0, 6), 0, 1, Mapping::LINEAR); // LoPass Res
 6069              		.loc 17 165 3 is_stmt 1 view .LVU1574
 6070              	.LBB1067:
 6071              	.LBB1068:
 182:/Users/dominicfrugoli/Desktop/ProgrammingCode/DaisyCode/DaisyExamples/DaisySP/Source/Utility/dsp.h ****         case Mapping::LOG:
 6072              		.loc 18 182 26 is_stmt 0 view .LVU1575
 6073 0156 9FED308A 		vldr.32	s16, .L437+20
 6074              	.LBE1068:
 6075              	.LBE1067:
 165:sardinia.cpp  **** 		effectValues[2][1] = fmap(hw.adc.GetMuxFloat(0, 6), 0, 1, Mapping::LINEAR); // LoPass Res
 6076              		.loc 17 165 28 view .LVU1576
 6077 015a 0222     		movs	r2, #2
 6078 015c 0021     		movs	r1, #0
 6079 015e 2C48     		ldr	r0, .L437+12
 6080 0160 FFF7FEFF 		bl	_ZNK5daisy9AdcHandle11GetMuxFloatEhh
 6081              	.LVL369:
 6082              	.LBB1078:
 6083              	.LBI1067:
 177:/Users/dominicfrugoli/Desktop/ProgrammingCode/DaisyCode/DaisyExamples/DaisySP/Source/Utility/dsp.h **** {
 6084              		.loc 18 177 1 is_stmt 1 view .LVU1577
 6085              	.LBE1078:
 179:/Users/dominicfrugoli/Desktop/ProgrammingCode/DaisyCode/DaisyExamples/DaisySP/Source/Utility/dsp.h ****     {
 6086              		.loc 18 179 5 view .LVU1578
 6087              	.LBB1079:
 6088              	.LBB1075:
 181:/Users/dominicfrugoli/Desktop/ProgrammingCode/DaisyCode/DaisyExamples/DaisySP/Source/Utility/dsp.h ****             return fclamp(min + (in * in) * (max - min), min, max);
 6089              		.loc 18 181 9 view .LVU1579
 182:/Users/dominicfrugoli/Desktop/ProgrammingCode/DaisyCode/DaisyExamples/DaisySP/Source/Utility/dsp.h ****         case Mapping::LOG:
 6090              		.loc 18 182 13 view .LVU1580
 182:/Users/dominicfrugoli/Desktop/ProgrammingCode/DaisyCode/DaisyExamples/DaisySP/Source/Utility/dsp.h ****         case Mapping::LOG:
 6091              		.loc 18 182 26 is_stmt 0 view .LVU1581
 6092 0164 B0EE487A 		vmov.f32	s14, s16
 182:/Users/dominicfrugoli/Desktop/ProgrammingCode/DaisyCode/DaisyExamples/DaisySP/Source/Utility/dsp.h ****         case Mapping::LOG:
 6093              		.loc 18 182 37 view .LVU1582
 6094 0168 20EE000A 		vmul.f32	s0, s0, s0
 6095              	.LVL370:
 182:/Users/dominicfrugoli/Desktop/ProgrammingCode/DaisyCode/DaisyExamples/DaisySP/Source/Utility/dsp.h ****         case Mapping::LOG:
 6096              		.loc 18 182 26 view .LVU1583
 6097 016c DFED317A 		vldr.32	s15, .L437+48
 6098              	.LBE1075:
 6099              	.LBE1079:
 165:sardinia.cpp  **** 		effectValues[2][1] = fmap(hw.adc.GetMuxFloat(0, 6), 0, 1, Mapping::LINEAR); // LoPass Res
 6100              		.loc 17 165 22 view .LVU1584
 6101 0170 284C     		ldr	r4, .L437+16
 166:sardinia.cpp  **** 	}
 6102              		.loc 17 166 28 view .LVU1585
 6103 0172 0622     		movs	r2, #6
 6104 0174 0021     		movs	r1, #0
 6105 0176 2648     		ldr	r0, .L437+12
 6106              	.LBB1080:
 6107              	.LBB1076:
 182:/Users/dominicfrugoli/Desktop/ProgrammingCode/DaisyCode/DaisyExamples/DaisySP/Source/Utility/dsp.h ****         case Mapping::LOG:
 6108              		.loc 18 182 26 view .LVU1586
 6109 0178 A0EE277A 		vfma.f32	s14, s0, s15
 6110              	.LVL371:
 6111              	.LBB1069:
ARM GAS  /var/folders/m5/x8wc2gdj7z5cpgcqdsb_gkj40000gn/T//ccGxviRN.s 			page 165


 6112              	.LBI1069:
  64:/Users/dominicfrugoli/Desktop/ProgrammingCode/DaisyCode/DaisyExamples/DaisySP/Source/Utility/dsp.h **** {
 6113              		.loc 18 64 14 is_stmt 1 view .LVU1587
 6114              	.LBE1069:
 6115              	.LBE1076:
 6116              	.LBE1080:
  66:/Users/dominicfrugoli/Desktop/ProgrammingCode/DaisyCode/DaisyExamples/DaisySP/Source/Utility/dsp.h **** }
 6117              		.loc 18 66 5 view .LVU1588
 6118              	.LBB1081:
 6119              	.LBB1077:
 6120              	.LBB1074:
 6121              	.LBB1070:
 6122              	.LBI1070:
  40:/Users/dominicfrugoli/Desktop/ProgrammingCode/DaisyCode/DaisyExamples/DaisySP/Source/Utility/dsp.h **** {
 6123              		.loc 18 40 14 view .LVU1589
 6124              	.LBB1071:
  42:/Users/dominicfrugoli/Desktop/ProgrammingCode/DaisyCode/DaisyExamples/DaisySP/Source/Utility/dsp.h **** #ifdef __arm__
 6125              		.loc 18 42 5 view .LVU1590
  44:/Users/dominicfrugoli/Desktop/ProgrammingCode/DaisyCode/DaisyExamples/DaisySP/Source/Utility/dsp.h **** #else
 6126              		.loc 18 44 5 view .LVU1591
 6127              		.syntax unified
 6128              	@ 44 "/Users/dominicfrugoli/Desktop/ProgrammingCode/DaisyCode/DaisyExamples/DaisySP/Source/Utility/
 6129 017c 87FE087A 		vmaxnm.f32 s14, s14, s16
 6130              	@ 0 "" 2
 6131              	.LVL372:
  48:/Users/dominicfrugoli/Desktop/ProgrammingCode/DaisyCode/DaisyExamples/DaisySP/Source/Utility/dsp.h **** }
 6132              		.loc 18 48 5 view .LVU1592
  48:/Users/dominicfrugoli/Desktop/ProgrammingCode/DaisyCode/DaisyExamples/DaisySP/Source/Utility/dsp.h **** }
 6133              		.loc 18 48 5 is_stmt 0 view .LVU1593
 6134              		.thumb
 6135              		.syntax unified
 6136              	.LBE1071:
 6137              	.LBE1070:
 6138              	.LBB1072:
 6139              	.LBI1072:
  51:/Users/dominicfrugoli/Desktop/ProgrammingCode/DaisyCode/DaisyExamples/DaisySP/Source/Utility/dsp.h **** {
 6140              		.loc 18 51 14 is_stmt 1 view .LVU1594
 6141              	.LBB1073:
  53:/Users/dominicfrugoli/Desktop/ProgrammingCode/DaisyCode/DaisyExamples/DaisySP/Source/Utility/dsp.h **** #ifdef __arm__
 6142              		.loc 18 53 5 view .LVU1595
  55:/Users/dominicfrugoli/Desktop/ProgrammingCode/DaisyCode/DaisyExamples/DaisySP/Source/Utility/dsp.h **** #else
 6143              		.loc 18 55 5 view .LVU1596
 6144              		.syntax unified
 6145              	@ 55 "/Users/dominicfrugoli/Desktop/ProgrammingCode/DaisyCode/DaisyExamples/DaisySP/Source/Utility/
 6146 0180 87FE677A 		vminnm.f32 s14, s14, s15
 6147              	@ 0 "" 2
 6148              	.LVL373:
  59:/Users/dominicfrugoli/Desktop/ProgrammingCode/DaisyCode/DaisyExamples/DaisySP/Source/Utility/dsp.h **** }
 6149              		.loc 18 59 5 view .LVU1597
  59:/Users/dominicfrugoli/Desktop/ProgrammingCode/DaisyCode/DaisyExamples/DaisySP/Source/Utility/dsp.h **** }
 6150              		.loc 18 59 5 is_stmt 0 view .LVU1598
 6151              		.thumb
 6152              		.syntax unified
 6153              	.LBE1073:
 6154              	.LBE1072:
 6155              	.LBE1074:
 6156              	.LBE1077:
ARM GAS  /var/folders/m5/x8wc2gdj7z5cpgcqdsb_gkj40000gn/T//ccGxviRN.s 			page 166


 6157              	.LBE1081:
 165:sardinia.cpp  **** 		effectValues[2][1] = fmap(hw.adc.GetMuxFloat(0, 6), 0, 1, Mapping::LINEAR); // LoPass Res
 6158              		.loc 17 165 22 view .LVU1599
 6159 0184 84ED047A 		vstr.32	s14, [r4, #16]
 166:sardinia.cpp  **** 	}
 6160              		.loc 17 166 3 is_stmt 1 view .LVU1600
 166:sardinia.cpp  **** 	}
 6161              		.loc 17 166 28 is_stmt 0 view .LVU1601
 6162 0188 FFF7FEFF 		bl	_ZNK5daisy9AdcHandle11GetMuxFloatEhh
 6163              	.LVL374:
 6164              	.LBB1082:
 6165              	.LBI1082:
 177:/Users/dominicfrugoli/Desktop/ProgrammingCode/DaisyCode/DaisyExamples/DaisySP/Source/Utility/dsp.h **** {
 6166              		.loc 18 177 1 is_stmt 1 view .LVU1602
 6167              	.LBE1082:
 179:/Users/dominicfrugoli/Desktop/ProgrammingCode/DaisyCode/DaisyExamples/DaisySP/Source/Utility/dsp.h ****     {
 6168              		.loc 18 179 5 view .LVU1603
 6169              	.LBB1096:
 6170              	.LBB1083:
 188:/Users/dominicfrugoli/Desktop/ProgrammingCode/DaisyCode/DaisyExamples/DaisySP/Source/Utility/dsp.h ****         default: return fclamp(min + in * (max - min), min, max);
 6171              		.loc 18 188 9 view .LVU1604
 6172              		.loc 18 189 9 view .LVU1605
 6173              		.loc 18 189 18 view .LVU1606
 6174              	.LBB1084:
 6175              	.LBI1084:
  64:/Users/dominicfrugoli/Desktop/ProgrammingCode/DaisyCode/DaisyExamples/DaisySP/Source/Utility/dsp.h **** {
 6176              		.loc 18 64 14 view .LVU1607
 6177              	.LBE1084:
 6178              	.LBE1083:
 6179              	.LBE1096:
  66:/Users/dominicfrugoli/Desktop/ProgrammingCode/DaisyCode/DaisyExamples/DaisySP/Source/Utility/dsp.h **** }
 6180              		.loc 18 66 5 view .LVU1608
 6181              	.LBB1097:
 6182              	.LBB1095:
 6183              	.LBB1093:
 6184              	.LBB1085:
 6185              	.LBI1085:
  40:/Users/dominicfrugoli/Desktop/ProgrammingCode/DaisyCode/DaisyExamples/DaisySP/Source/Utility/dsp.h **** {
 6186              		.loc 18 40 14 view .LVU1609
 6187              	.LBB1086:
  42:/Users/dominicfrugoli/Desktop/ProgrammingCode/DaisyCode/DaisyExamples/DaisySP/Source/Utility/dsp.h **** #ifdef __arm__
 6188              		.loc 18 42 5 view .LVU1610
  44:/Users/dominicfrugoli/Desktop/ProgrammingCode/DaisyCode/DaisyExamples/DaisySP/Source/Utility/dsp.h **** #else
 6189              		.loc 18 44 5 view .LVU1611
 6190              	.LBE1086:
 6191              	.LBE1085:
 6192              	.LBB1088:
 6193              	.LBB1089:
  55:/Users/dominicfrugoli/Desktop/ProgrammingCode/DaisyCode/DaisyExamples/DaisySP/Source/Utility/dsp.h **** #else
 6194              		.loc 18 55 5 is_stmt 0 view .LVU1612
 6195 018c B7EE007A 		vmov.f32	s14, #1.0e+0
 6196              	.LBE1089:
 6197              	.LBE1088:
 6198              	.LBE1093:
 6199              		.loc 18 189 31 view .LVU1613
 6200 0190 30EE080A 		vadd.f32	s0, s0, s16
 6201              	.LVL375:
ARM GAS  /var/folders/m5/x8wc2gdj7z5cpgcqdsb_gkj40000gn/T//ccGxviRN.s 			page 167


 6202              	.LBB1094:
 6203              	.LBB1091:
 6204              	.LBB1087:
  44:/Users/dominicfrugoli/Desktop/ProgrammingCode/DaisyCode/DaisyExamples/DaisySP/Source/Utility/dsp.h **** #else
 6205              		.loc 18 44 5 view .LVU1614
 6206              		.syntax unified
 6207              	@ 44 "/Users/dominicfrugoli/Desktop/ProgrammingCode/DaisyCode/DaisyExamples/DaisySP/Source/Utility/
 6208 0194 C0FE087A 		vmaxnm.f32 s15, s0, s16
 6209              	@ 0 "" 2
 6210              	.LVL376:
  48:/Users/dominicfrugoli/Desktop/ProgrammingCode/DaisyCode/DaisyExamples/DaisySP/Source/Utility/dsp.h **** }
 6211              		.loc 18 48 5 is_stmt 1 view .LVU1615
  48:/Users/dominicfrugoli/Desktop/ProgrammingCode/DaisyCode/DaisyExamples/DaisySP/Source/Utility/dsp.h **** }
 6212              		.loc 18 48 5 is_stmt 0 view .LVU1616
 6213              		.thumb
 6214              		.syntax unified
 6215              	.LBE1087:
 6216              	.LBE1091:
 6217              	.LBB1092:
 6218              	.LBI1088:
  51:/Users/dominicfrugoli/Desktop/ProgrammingCode/DaisyCode/DaisyExamples/DaisySP/Source/Utility/dsp.h **** {
 6219              		.loc 18 51 14 is_stmt 1 view .LVU1617
 6220              	.LBB1090:
  53:/Users/dominicfrugoli/Desktop/ProgrammingCode/DaisyCode/DaisyExamples/DaisySP/Source/Utility/dsp.h **** #ifdef __arm__
 6221              		.loc 18 53 5 view .LVU1618
  55:/Users/dominicfrugoli/Desktop/ProgrammingCode/DaisyCode/DaisyExamples/DaisySP/Source/Utility/dsp.h **** #else
 6222              		.loc 18 55 5 view .LVU1619
 6223              		.syntax unified
 6224              	@ 55 "/Users/dominicfrugoli/Desktop/ProgrammingCode/DaisyCode/DaisyExamples/DaisySP/Source/Utility/
 6225 0198 C7FEC77A 		vminnm.f32 s15, s15, s14
 6226              	@ 0 "" 2
 6227              	.LVL377:
  59:/Users/dominicfrugoli/Desktop/ProgrammingCode/DaisyCode/DaisyExamples/DaisySP/Source/Utility/dsp.h **** }
 6228              		.loc 18 59 5 view .LVU1620
  59:/Users/dominicfrugoli/Desktop/ProgrammingCode/DaisyCode/DaisyExamples/DaisySP/Source/Utility/dsp.h **** }
 6229              		.loc 18 59 5 is_stmt 0 view .LVU1621
 6230              		.thumb
 6231              		.syntax unified
 6232              	.LBE1090:
 6233              	.LBE1092:
 6234              	.LBE1094:
 6235              	.LBE1095:
 6236              	.LBE1097:
 166:sardinia.cpp  **** 	}
 6237              		.loc 17 166 22 view .LVU1622
 6238 019c C4ED057A 		vstr.32	s15, [r4, #20]
 6239 01a0 94E7     		b	.L410
 6240              	.LVL378:
 6241              	.L411:
 6242              	.LBB1098:
 6243              	.LBB967:
 102:effects.h     ****     if(currentEffect < 0)
 6244              		.loc 16 102 19 view .LVU1623
 6245 01a2 0B60     		str	r3, [r1]
 6246 01a4 82E7     		b	.L407
 6247              	.LVL379:
 6248              	.L435:
ARM GAS  /var/folders/m5/x8wc2gdj7z5cpgcqdsb_gkj40000gn/T//ccGxviRN.s 			page 168


 102:effects.h     ****     if(currentEffect < 0)
 6249              		.loc 16 102 19 view .LVU1624
 6250              	.LBE967:
 6251              	.LBE1098:
 160:sardinia.cpp  **** 		effectValues[1][1] = fmap(hw.adc.GetMuxFloat(0, 6), 0, 10, Mapping::EXP); // Chorus LFO Freq
 6252              		.loc 17 160 3 is_stmt 1 view .LVU1625
 6253              	.LBB1099:
 6254              	.LBB1100:
 6255              		.loc 18 189 31 is_stmt 0 view .LVU1626
 6256 01a6 9FED1C8A 		vldr.32	s16, .L437+20
 6257              	.LBE1100:
 6258              	.LBE1099:
 160:sardinia.cpp  **** 		effectValues[1][1] = fmap(hw.adc.GetMuxFloat(0, 6), 0, 10, Mapping::EXP); // Chorus LFO Freq
 6259              		.loc 17 160 28 view .LVU1627
 6260 01aa 0222     		movs	r2, #2
 160:sardinia.cpp  **** 		effectValues[1][1] = fmap(hw.adc.GetMuxFloat(0, 6), 0, 10, Mapping::EXP); // Chorus LFO Freq
 6261              		.loc 17 160 22 view .LVU1628
 6262 01ac 194C     		ldr	r4, .L437+16
 160:sardinia.cpp  **** 		effectValues[1][1] = fmap(hw.adc.GetMuxFloat(0, 6), 0, 10, Mapping::EXP); // Chorus LFO Freq
 6263              		.loc 17 160 28 view .LVU1629
 6264 01ae 0021     		movs	r1, #0
 6265 01b0 1748     		ldr	r0, .L437+12
 6266 01b2 FFF7FEFF 		bl	_ZNK5daisy9AdcHandle11GetMuxFloatEhh
 6267              	.LVL380:
 6268              	.LBB1119:
 6269              	.LBI1099:
 177:/Users/dominicfrugoli/Desktop/ProgrammingCode/DaisyCode/DaisyExamples/DaisySP/Source/Utility/dsp.h **** {
 6270              		.loc 18 177 1 is_stmt 1 view .LVU1630
 6271              	.LBE1119:
 179:/Users/dominicfrugoli/Desktop/ProgrammingCode/DaisyCode/DaisyExamples/DaisySP/Source/Utility/dsp.h ****     {
 6272              		.loc 18 179 5 view .LVU1631
 6273              	.LBB1120:
 6274              	.LBB1115:
 188:/Users/dominicfrugoli/Desktop/ProgrammingCode/DaisyCode/DaisyExamples/DaisySP/Source/Utility/dsp.h ****         default: return fclamp(min + in * (max - min), min, max);
 6275              		.loc 18 188 9 view .LVU1632
 6276              		.loc 18 189 9 view .LVU1633
 6277              		.loc 18 189 18 view .LVU1634
 6278              	.LBB1101:
 6279              	.LBI1101:
  64:/Users/dominicfrugoli/Desktop/ProgrammingCode/DaisyCode/DaisyExamples/DaisySP/Source/Utility/dsp.h **** {
 6280              		.loc 18 64 14 view .LVU1635
 6281              	.LBE1101:
 6282              	.LBE1115:
 6283              	.LBE1120:
  66:/Users/dominicfrugoli/Desktop/ProgrammingCode/DaisyCode/DaisyExamples/DaisySP/Source/Utility/dsp.h **** }
 6284              		.loc 18 66 5 view .LVU1636
 6285              	.LBB1121:
 6286              	.LBB1116:
 6287              	.LBB1112:
 6288              	.LBB1102:
 6289              	.LBI1102:
  40:/Users/dominicfrugoli/Desktop/ProgrammingCode/DaisyCode/DaisyExamples/DaisySP/Source/Utility/dsp.h **** {
 6290              		.loc 18 40 14 view .LVU1637
 6291              	.LBB1103:
  42:/Users/dominicfrugoli/Desktop/ProgrammingCode/DaisyCode/DaisyExamples/DaisySP/Source/Utility/dsp.h **** #ifdef __arm__
 6292              		.loc 18 42 5 view .LVU1638
  44:/Users/dominicfrugoli/Desktop/ProgrammingCode/DaisyCode/DaisyExamples/DaisySP/Source/Utility/dsp.h **** #else
ARM GAS  /var/folders/m5/x8wc2gdj7z5cpgcqdsb_gkj40000gn/T//ccGxviRN.s 			page 169


 6293              		.loc 18 44 5 view .LVU1639
 6294              	.LBE1103:
 6295              	.LBE1102:
 6296              	.LBB1105:
 6297              	.LBB1106:
  55:/Users/dominicfrugoli/Desktop/ProgrammingCode/DaisyCode/DaisyExamples/DaisySP/Source/Utility/dsp.h **** #else
 6298              		.loc 18 55 5 is_stmt 0 view .LVU1640
 6299 01b6 B7EE007A 		vmov.f32	s14, #1.0e+0
 6300              	.LBE1106:
 6301              	.LBE1105:
 6302              	.LBE1112:
 6303              		.loc 18 189 31 view .LVU1641
 6304 01ba 30EE080A 		vadd.f32	s0, s0, s16
 6305              	.LVL381:
 6306              		.loc 18 189 31 view .LVU1642
 6307              	.LBE1116:
 6308              	.LBE1121:
 161:sardinia.cpp  **** 	}
 6309              		.loc 17 161 28 view .LVU1643
 6310 01be 0622     		movs	r2, #6
 6311              	.LBB1122:
 6312              	.LBB1117:
 6313              	.LBB1113:
 6314              	.LBB1109:
 6315              	.LBB1104:
  44:/Users/dominicfrugoli/Desktop/ProgrammingCode/DaisyCode/DaisyExamples/DaisySP/Source/Utility/dsp.h **** #else
 6316              		.loc 18 44 5 view .LVU1644
 6317              		.syntax unified
 6318              	@ 44 "/Users/dominicfrugoli/Desktop/ProgrammingCode/DaisyCode/DaisyExamples/DaisySP/Source/Utility/
 6319 01c0 C0FE087A 		vmaxnm.f32 s15, s0, s16
 6320              	@ 0 "" 2
 6321              	.LVL382:
  48:/Users/dominicfrugoli/Desktop/ProgrammingCode/DaisyCode/DaisyExamples/DaisySP/Source/Utility/dsp.h **** }
 6322              		.loc 18 48 5 is_stmt 1 view .LVU1645
  48:/Users/dominicfrugoli/Desktop/ProgrammingCode/DaisyCode/DaisyExamples/DaisySP/Source/Utility/dsp.h **** }
 6323              		.loc 18 48 5 is_stmt 0 view .LVU1646
 6324              		.thumb
 6325              		.syntax unified
 6326              	.LBE1104:
 6327              	.LBE1109:
 6328              	.LBB1110:
 6329              	.LBI1105:
  51:/Users/dominicfrugoli/Desktop/ProgrammingCode/DaisyCode/DaisyExamples/DaisySP/Source/Utility/dsp.h **** {
 6330              		.loc 18 51 14 is_stmt 1 view .LVU1647
 6331              	.LBB1107:
  53:/Users/dominicfrugoli/Desktop/ProgrammingCode/DaisyCode/DaisyExamples/DaisySP/Source/Utility/dsp.h **** #ifdef __arm__
 6332              		.loc 18 53 5 view .LVU1648
  55:/Users/dominicfrugoli/Desktop/ProgrammingCode/DaisyCode/DaisyExamples/DaisySP/Source/Utility/dsp.h **** #else
 6333              		.loc 18 55 5 view .LVU1649
 6334              	.LBE1107:
 6335              	.LBE1110:
 6336              	.LBE1113:
 6337              	.LBE1117:
 6338              	.LBE1122:
 161:sardinia.cpp  **** 	}
 6339              		.loc 17 161 28 is_stmt 0 view .LVU1650
 6340 01c4 0021     		movs	r1, #0
ARM GAS  /var/folders/m5/x8wc2gdj7z5cpgcqdsb_gkj40000gn/T//ccGxviRN.s 			page 170


 6341 01c6 1248     		ldr	r0, .L437+12
 6342              	.LBB1123:
 6343              	.LBB1118:
 6344              	.LBB1114:
 6345              	.LBB1111:
 6346              	.LBB1108:
  55:/Users/dominicfrugoli/Desktop/ProgrammingCode/DaisyCode/DaisyExamples/DaisySP/Source/Utility/dsp.h **** #else
 6347              		.loc 18 55 5 view .LVU1651
 6348              		.syntax unified
 6349              	@ 55 "/Users/dominicfrugoli/Desktop/ProgrammingCode/DaisyCode/DaisyExamples/DaisySP/Source/Utility/
 6350 01c8 C7FEC77A 		vminnm.f32 s15, s15, s14
 6351              	@ 0 "" 2
 6352              	.LVL383:
  59:/Users/dominicfrugoli/Desktop/ProgrammingCode/DaisyCode/DaisyExamples/DaisySP/Source/Utility/dsp.h **** }
 6353              		.loc 18 59 5 is_stmt 1 view .LVU1652
  59:/Users/dominicfrugoli/Desktop/ProgrammingCode/DaisyCode/DaisyExamples/DaisySP/Source/Utility/dsp.h **** }
 6354              		.loc 18 59 5 is_stmt 0 view .LVU1653
 6355              		.thumb
 6356              		.syntax unified
 6357              	.LBE1108:
 6358              	.LBE1111:
 6359              	.LBE1114:
 6360              	.LBE1118:
 6361              	.LBE1123:
 160:sardinia.cpp  **** 		effectValues[1][1] = fmap(hw.adc.GetMuxFloat(0, 6), 0, 10, Mapping::EXP); // Chorus LFO Freq
 6362              		.loc 17 160 22 view .LVU1654
 6363 01cc C4ED027A 		vstr.32	s15, [r4, #8]
 161:sardinia.cpp  **** 	}
 6364              		.loc 17 161 3 is_stmt 1 view .LVU1655
 161:sardinia.cpp  **** 	}
 6365              		.loc 17 161 28 is_stmt 0 view .LVU1656
 6366 01d0 FFF7FEFF 		bl	_ZNK5daisy9AdcHandle11GetMuxFloatEhh
 6367              	.LVL384:
 6368              	.LBB1124:
 6369              	.LBI1124:
 177:/Users/dominicfrugoli/Desktop/ProgrammingCode/DaisyCode/DaisyExamples/DaisySP/Source/Utility/dsp.h **** {
 6370              		.loc 18 177 1 is_stmt 1 view .LVU1657
 6371              	.LBE1124:
 179:/Users/dominicfrugoli/Desktop/ProgrammingCode/DaisyCode/DaisyExamples/DaisySP/Source/Utility/dsp.h ****     {
 6372              		.loc 18 179 5 view .LVU1658
 6373              	.LBB1133:
 6374              	.LBB1125:
 181:/Users/dominicfrugoli/Desktop/ProgrammingCode/DaisyCode/DaisyExamples/DaisySP/Source/Utility/dsp.h ****             return fclamp(min + (in * in) * (max - min), min, max);
 6375              		.loc 18 181 9 view .LVU1659
 182:/Users/dominicfrugoli/Desktop/ProgrammingCode/DaisyCode/DaisyExamples/DaisySP/Source/Utility/dsp.h ****         case Mapping::LOG:
 6376              		.loc 18 182 13 view .LVU1660
 182:/Users/dominicfrugoli/Desktop/ProgrammingCode/DaisyCode/DaisyExamples/DaisySP/Source/Utility/dsp.h ****         case Mapping::LOG:
 6377              		.loc 18 182 26 is_stmt 0 view .LVU1661
 6378 01d4 B2EE047A 		vmov.f32	s14, #1.0e+1
 182:/Users/dominicfrugoli/Desktop/ProgrammingCode/DaisyCode/DaisyExamples/DaisySP/Source/Utility/dsp.h ****         case Mapping::LOG:
 6379              		.loc 18 182 37 view .LVU1662
 6380 01d8 20EE000A 		vmul.f32	s0, s0, s0
 6381              	.LVL385:
 182:/Users/dominicfrugoli/Desktop/ProgrammingCode/DaisyCode/DaisyExamples/DaisySP/Source/Utility/dsp.h ****         case Mapping::LOG:
 6382              		.loc 18 182 26 view .LVU1663
 6383 01dc F0EE487A 		vmov.f32	s15, s16
 6384 01e0 E0EE077A 		vfma.f32	s15, s0, s14
ARM GAS  /var/folders/m5/x8wc2gdj7z5cpgcqdsb_gkj40000gn/T//ccGxviRN.s 			page 171


 6385              	.LVL386:
 6386              	.LBB1126:
 6387              	.LBI1126:
  64:/Users/dominicfrugoli/Desktop/ProgrammingCode/DaisyCode/DaisyExamples/DaisySP/Source/Utility/dsp.h **** {
 6388              		.loc 18 64 14 is_stmt 1 view .LVU1664
 6389              	.LBE1126:
 6390              	.LBE1125:
 6391              	.LBE1133:
  66:/Users/dominicfrugoli/Desktop/ProgrammingCode/DaisyCode/DaisyExamples/DaisySP/Source/Utility/dsp.h **** }
 6392              		.loc 18 66 5 view .LVU1665
 6393              	.LBB1134:
 6394              	.LBB1132:
 6395              	.LBB1131:
 6396              	.LBB1127:
 6397              	.LBI1127:
  40:/Users/dominicfrugoli/Desktop/ProgrammingCode/DaisyCode/DaisyExamples/DaisySP/Source/Utility/dsp.h **** {
 6398              		.loc 18 40 14 view .LVU1666
 6399              	.LBB1128:
  42:/Users/dominicfrugoli/Desktop/ProgrammingCode/DaisyCode/DaisyExamples/DaisySP/Source/Utility/dsp.h **** #ifdef __arm__
 6400              		.loc 18 42 5 view .LVU1667
  44:/Users/dominicfrugoli/Desktop/ProgrammingCode/DaisyCode/DaisyExamples/DaisySP/Source/Utility/dsp.h **** #else
 6401              		.loc 18 44 5 view .LVU1668
 6402              		.syntax unified
 6403              	@ 44 "/Users/dominicfrugoli/Desktop/ProgrammingCode/DaisyCode/DaisyExamples/DaisySP/Source/Utility/
 6404 01e4 C7FE887A 		vmaxnm.f32 s15, s15, s16
 6405              	@ 0 "" 2
 6406              	.LVL387:
  48:/Users/dominicfrugoli/Desktop/ProgrammingCode/DaisyCode/DaisyExamples/DaisySP/Source/Utility/dsp.h **** }
 6407              		.loc 18 48 5 view .LVU1669
  48:/Users/dominicfrugoli/Desktop/ProgrammingCode/DaisyCode/DaisyExamples/DaisySP/Source/Utility/dsp.h **** }
 6408              		.loc 18 48 5 is_stmt 0 view .LVU1670
 6409              		.thumb
 6410              		.syntax unified
 6411              	.LBE1128:
 6412              	.LBE1127:
 6413              	.LBB1129:
 6414              	.LBI1129:
  51:/Users/dominicfrugoli/Desktop/ProgrammingCode/DaisyCode/DaisyExamples/DaisySP/Source/Utility/dsp.h **** {
 6415              		.loc 18 51 14 is_stmt 1 view .LVU1671
 6416              	.LBB1130:
  53:/Users/dominicfrugoli/Desktop/ProgrammingCode/DaisyCode/DaisyExamples/DaisySP/Source/Utility/dsp.h **** #ifdef __arm__
 6417              		.loc 18 53 5 view .LVU1672
  55:/Users/dominicfrugoli/Desktop/ProgrammingCode/DaisyCode/DaisyExamples/DaisySP/Source/Utility/dsp.h **** #else
 6418              		.loc 18 55 5 view .LVU1673
 6419              		.syntax unified
 6420              	@ 55 "/Users/dominicfrugoli/Desktop/ProgrammingCode/DaisyCode/DaisyExamples/DaisySP/Source/Utility/
 6421 01e8 C7FEC77A 		vminnm.f32 s15, s15, s14
 6422              	@ 0 "" 2
 6423              	.LVL388:
  59:/Users/dominicfrugoli/Desktop/ProgrammingCode/DaisyCode/DaisyExamples/DaisySP/Source/Utility/dsp.h **** }
 6424              		.loc 18 59 5 view .LVU1674
  59:/Users/dominicfrugoli/Desktop/ProgrammingCode/DaisyCode/DaisyExamples/DaisySP/Source/Utility/dsp.h **** }
 6425              		.loc 18 59 5 is_stmt 0 view .LVU1675
 6426              		.thumb
 6427              		.syntax unified
 6428              	.LBE1130:
 6429              	.LBE1129:
ARM GAS  /var/folders/m5/x8wc2gdj7z5cpgcqdsb_gkj40000gn/T//ccGxviRN.s 			page 172


 6430              	.LBE1131:
 6431              	.LBE1132:
 6432              	.LBE1134:
 161:sardinia.cpp  **** 	}
 6433              		.loc 17 161 22 view .LVU1676
 6434 01ec C4ED037A 		vstr.32	s15, [r4, #12]
 6435 01f0 6CE7     		b	.L410
 6436              	.LVL389:
 6437              	.L436:
 148:sardinia.cpp  **** 	{
 6438              		.loc 17 148 2 view .LVU1677
 6439 01f2 A37C     		ldrb	r3, [r4, #18]	@ zero_extendqisi2
 6440 01f4 7F2B     		cmp	r3, #127
 6441 01f6 AED1     		bne	.L409
 150:sardinia.cpp  **** 	}
 6442              		.loc 17 150 3 is_stmt 1 view .LVU1678
 150:sardinia.cpp  **** 	}
 6443              		.loc 17 150 31 is_stmt 0 view .LVU1679
 6444 01f8 044A     		ldr	r2, .L437+8
 150:sardinia.cpp  **** 	}
 6445              		.loc 17 150 33 view .LVU1680
 6446 01fa 9378     		ldrb	r3, [r2, #2]	@ zero_extendqisi2
 6447 01fc 83F00103 		eor	r3, r3, #1
 150:sardinia.cpp  **** 	}
 6448              		.loc 17 150 31 view .LVU1681
 6449 0200 9370     		strb	r3, [r2, #2]
 153:sardinia.cpp  **** 	{
 6450              		.loc 17 153 2 is_stmt 1 view .LVU1682
 158:sardinia.cpp  **** 	{
 6451              		.loc 17 158 7 view .LVU1683
 6452 0202 A8E7     		b	.L409
 6453              	.L438:
 6454              		.align	2
 6455              	.L437:
 6456 0204 00000000 		.word	.LANCHOR8
 6457 0208 00000000 		.word	.LANCHOR35
 6458 020c 00000000 		.word	.LANCHOR34
 6459 0210 18000000 		.word	.LANCHOR36+24
 6460 0214 00000000 		.word	.LANCHOR32
 6461 0218 00000000 		.word	0
 6462 021c 0AD7233C 		.word	1008981770
 6463 0220 E27A943E 		.word	1049918178
 6464 0224 9A99993E 		.word	1050253722
 6465 0228 00000000 		.word	.LANCHOR46
 6466 022c 00000000 		.word	.LANCHOR47
 6467 0230 00000000 		.word	.LANCHOR12
 6468 0234 00409C45 		.word	1167867904
 6469              		.cfi_endproc
 6470              	.LFE4712:
 6472              		.section	.text._Z13AudioCallbackPKPKfPPfj,"ax",%progbits
 6473              		.align	1
 6474              		.p2align 2,,3
 6475              		.global	_Z13AudioCallbackPKPKfPPfj
 6476              		.syntax unified
 6477              		.thumb
 6478              		.thumb_func
 6480              	_Z13AudioCallbackPKPKfPPfj:
ARM GAS  /var/folders/m5/x8wc2gdj7z5cpgcqdsb_gkj40000gn/T//ccGxviRN.s 			page 173


 6481              	.LVL390:
 6482              	.LFB4710:
  59:sardinia.cpp  **** 	ProcessControlsKR();
 6483              		.loc 17 59 1 view -0
 6484              		.cfi_startproc
 6485              		@ args = 0, pretend = 0, frame = 8
 6486              		@ frame_needed = 0, uses_anonymous_args = 0
  60:sardinia.cpp  **** 
 6487              		.loc 17 60 2 view .LVU1685
  59:sardinia.cpp  **** 	ProcessControlsKR();
 6488              		.loc 17 59 1 is_stmt 0 view .LVU1686
 6489 0000 2DE9F04F 		push	{r4, r5, r6, r7, r8, r9, r10, fp, lr}
 6490              		.cfi_def_cfa_offset 36
 6491              		.cfi_offset 4, -36
 6492              		.cfi_offset 5, -32
 6493              		.cfi_offset 6, -28
 6494              		.cfi_offset 7, -24
 6495              		.cfi_offset 8, -20
 6496              		.cfi_offset 9, -16
 6497              		.cfi_offset 10, -12
 6498              		.cfi_offset 11, -8
 6499              		.cfi_offset 14, -4
 6500 0004 1446     		mov	r4, r2
 6501 0006 83B0     		sub	sp, sp, #12
 6502              		.cfi_def_cfa_offset 48
  59:sardinia.cpp  **** 	ProcessControlsKR();
 6503              		.loc 17 59 1 view .LVU1687
 6504 0008 0646     		mov	r6, r0
 6505 000a 0F46     		mov	r7, r1
 6506 000c 0192     		str	r2, [sp, #4]
  60:sardinia.cpp  **** 
 6507              		.loc 17 60 19 view .LVU1688
 6508 000e FFF7FEFF 		bl	_Z17ProcessControlsKRv
 6509              	.LVL391:
  62:sardinia.cpp  **** 	{
 6510              		.loc 17 62 2 is_stmt 1 view .LVU1689
 6511              	.LBB1145:
  62:sardinia.cpp  **** 	{
 6512              		.loc 17 62 23 view .LVU1690
 6513 0012 002C     		cmp	r4, #0
 6514 0014 00F0BD80 		beq	.L439
  62:sardinia.cpp  **** 	{
 6515              		.loc 17 62 14 is_stmt 0 view .LVU1691
 6516 0018 4FF00009 		mov	r9, #0
 6517 001c DFF8D081 		ldr	r8, .L465+72
 6518 0020 614C     		ldr	r4, .L465
 6519              	.LVL392:
  62:sardinia.cpp  **** 	{
 6520              		.loc 17 62 14 view .LVU1692
 6521 0022 DFF8D0B1 		ldr	fp, .L465+76
 6522 0026 DFF8D0A1 		ldr	r10, .L465+80
 6523 002a 1BE0     		b	.L440
 6524              	.LVL393:
 6525              	.L462:
  97:sardinia.cpp  **** 		outputMix = ProcessEffects(outputMix); // Process the mixed signal through the effects
 6526              		.loc 17 97 24 view .LVU1693
 6527 002c 98ED000A 		vldr.32	s0, [r8]
ARM GAS  /var/folders/m5/x8wc2gdj7z5cpgcqdsb_gkj40000gn/T//ccGxviRN.s 			page 174


 6528              	.L446:
  97:sardinia.cpp  **** 		outputMix = ProcessEffects(outputMix); // Process the mixed signal through the effects
 6529              		.loc 17 97 3 is_stmt 1 discriminator 2 view .LVU1694
  97:sardinia.cpp  **** 		outputMix = ProcessEffects(outputMix); // Process the mixed signal through the effects
 6530              		.loc 17 97 24 is_stmt 0 discriminator 2 view .LVU1695
 6531 0030 37EE800A 		vadd.f32	s0, s15, s0
  62:sardinia.cpp  **** 	{
 6532              		.loc 17 62 2 discriminator 2 view .LVU1696
 6533 0034 09F10109 		add	r9, r9, #1
 6534              	.LVL394:
  97:sardinia.cpp  **** 		outputMix = ProcessEffects(outputMix); // Process the mixed signal through the effects
 6535              		.loc 17 97 13 discriminator 2 view .LVU1697
 6536 0038 84ED000A 		vstr.32	s0, [r4]
  98:sardinia.cpp  **** 		outputMix *= outputAmp;
 6537              		.loc 17 98 3 is_stmt 1 discriminator 2 view .LVU1698
  98:sardinia.cpp  **** 		outputMix *= outputAmp;
 6538              		.loc 17 98 29 is_stmt 0 discriminator 2 view .LVU1699
 6539 003c FFF7FEFF 		bl	_Z14ProcessEffectsf
 6540              	.LVL395:
  99:sardinia.cpp  **** 
 6541              		.loc 17 99 3 is_stmt 1 discriminator 2 view .LVU1700
  99:sardinia.cpp  **** 
 6542              		.loc 17 99 13 is_stmt 0 discriminator 2 view .LVU1701
 6543 0040 DAED007A 		vldr.32	s15, [r10]
 102:sardinia.cpp  **** 		out[1][i] = outputMix;
 6544              		.loc 17 102 19 discriminator 2 view .LVU1702
 6545 0044 3A68     		ldr	r2, [r7]
  99:sardinia.cpp  **** 
 6546              		.loc 17 99 13 discriminator 2 view .LVU1703
 6547 0046 20EE270A 		vmul.f32	s0, s0, s15
  62:sardinia.cpp  **** 	{
 6548              		.loc 17 62 23 discriminator 2 view .LVU1704
 6549 004a 019B     		ldr	r3, [sp, #4]
 102:sardinia.cpp  **** 		out[1][i] = outputMix;
 6550              		.loc 17 102 19 discriminator 2 view .LVU1705
 6551 004c 2A44     		add	r2, r2, r5
  62:sardinia.cpp  **** 	{
 6552              		.loc 17 62 23 discriminator 2 view .LVU1706
 6553 004e 4B45     		cmp	r3, r9
  99:sardinia.cpp  **** 
 6554              		.loc 17 99 13 discriminator 2 view .LVU1707
 6555 0050 84ED000A 		vstr.32	s0, [r4]
 102:sardinia.cpp  **** 		out[1][i] = outputMix;
 6556              		.loc 17 102 9 is_stmt 1 discriminator 2 view .LVU1708
 102:sardinia.cpp  **** 		out[1][i] = outputMix;
 6557              		.loc 17 102 19 is_stmt 0 discriminator 2 view .LVU1709
 6558 0054 82ED000A 		vstr.32	s0, [r2]
 103:sardinia.cpp  **** 	}
 6559              		.loc 17 103 3 is_stmt 1 discriminator 2 view .LVU1710
 103:sardinia.cpp  **** 	}
 6560              		.loc 17 103 13 is_stmt 0 discriminator 2 view .LVU1711
 6561 0058 7A68     		ldr	r2, [r7, #4]
 6562 005a 2A44     		add	r2, r2, r5
 6563 005c 82ED000A 		vstr.32	s0, [r2]
  62:sardinia.cpp  **** 	{
 6564              		.loc 17 62 2 is_stmt 1 discriminator 2 view .LVU1712
 6565              	.LVL396:
ARM GAS  /var/folders/m5/x8wc2gdj7z5cpgcqdsb_gkj40000gn/T//ccGxviRN.s 			page 175


  62:sardinia.cpp  **** 	{
 6566              		.loc 17 62 23 discriminator 2 view .LVU1713
 6567 0060 00F09780 		beq	.L439
 6568              	.LVL397:
 6569              	.L440:
  64:sardinia.cpp  **** 		outputMix = 0;
 6570              		.loc 17 64 3 view .LVU1714
  64:sardinia.cpp  **** 		outputMix = 0;
 6571              		.loc 17 64 13 is_stmt 0 view .LVU1715
 6572 0064 0022     		movs	r2, #0
 6573 0066 4FEA8905 		lsl	r5, r9, #2
 6574 006a C8F80020 		str	r2, [r8]	@ float
  65:sardinia.cpp  **** 
 6575              		.loc 17 65 3 is_stmt 1 view .LVU1716
  65:sardinia.cpp  **** 
 6576              		.loc 17 65 13 is_stmt 0 view .LVU1717
 6577 006e 2260     		str	r2, [r4]	@ float
  67:sardinia.cpp  **** 
 6578              		.loc 17 67 3 is_stmt 1 view .LVU1718
  67:sardinia.cpp  **** 
 6579              		.loc 17 67 20 is_stmt 0 view .LVU1719
 6580 0070 FFF7FEFF 		bl	_Z17ProcessControlsARv
 6581              	.LVL398:
  69:sardinia.cpp  **** 		inputSig *= inputAmp;
 6582              		.loc 17 69 3 is_stmt 1 view .LVU1720
  70:sardinia.cpp  **** 		
 6583              		.loc 17 70 3 view .LVU1721
  69:sardinia.cpp  **** 		inputSig *= inputAmp;
 6584              		.loc 17 69 22 is_stmt 0 view .LVU1722
 6585 0074 3268     		ldr	r2, [r6]
  69:sardinia.cpp  **** 		inputSig *= inputAmp;
 6586              		.loc 17 69 36 view .LVU1723
 6587 0076 B6EE007A 		vmov.f32	s14, #5.0e-1
  70:sardinia.cpp  **** 		
 6588              		.loc 17 70 12 view .LVU1724
 6589 007a 9BED000A 		vldr.32	s0, [fp]
  69:sardinia.cpp  **** 		inputSig *= inputAmp;
 6590              		.loc 17 69 22 view .LVU1725
 6591 007e 02EB8902 		add	r2, r2, r9, lsl #2
  72:sardinia.cpp  **** 		{
 6592              		.loc 17 72 3 view .LVU1726
 6593 0082 4A4B     		ldr	r3, .L465+4
  69:sardinia.cpp  **** 		inputSig *= inputAmp;
 6594              		.loc 17 69 24 view .LVU1727
 6595 0084 D2ED007A 		vldr.32	s15, [r2]
  69:sardinia.cpp  **** 		inputSig *= inputAmp;
 6596              		.loc 17 69 33 view .LVU1728
 6597 0088 7268     		ldr	r2, [r6, #4]
  72:sardinia.cpp  **** 		{
 6598              		.loc 17 72 3 view .LVU1729
 6599 008a 1978     		ldrb	r1, [r3]	@ zero_extendqisi2
  69:sardinia.cpp  **** 		inputSig *= inputAmp;
 6600              		.loc 17 69 33 view .LVU1730
 6601 008c 02EB8902 		add	r2, r2, r9, lsl #2
  70:sardinia.cpp  **** 		
 6602              		.loc 17 70 12 view .LVU1731
 6603 0090 474B     		ldr	r3, .L465+8
ARM GAS  /var/folders/m5/x8wc2gdj7z5cpgcqdsb_gkj40000gn/T//ccGxviRN.s 			page 176


  69:sardinia.cpp  **** 		inputSig *= inputAmp;
 6604              		.loc 17 69 24 view .LVU1732
 6605 0092 D2ED006A 		vldr.32	s13, [r2]
 6606 0096 77EEA67A 		vadd.f32	s15, s15, s13
  69:sardinia.cpp  **** 		inputSig *= inputAmp;
 6607              		.loc 17 69 36 view .LVU1733
 6608 009a 67EE877A 		vmul.f32	s15, s15, s14
  70:sardinia.cpp  **** 		
 6609              		.loc 17 70 12 view .LVU1734
 6610 009e 67EE807A 		vmul.f32	s15, s15, s0
 6611 00a2 C3ED007A 		vstr.32	s15, [r3]
  72:sardinia.cpp  **** 		{
 6612              		.loc 17 72 3 is_stmt 1 view .LVU1735
 6613 00a6 61B1     		cbz	r1, .L441
  74:sardinia.cpp  **** 			lengthTrack++;
 6614              		.loc 17 74 4 view .LVU1736
 6615              	.LVL399:
 6616              	.LBB1146:
 6617              	.LBI1146:
  94:sampleengine.h **** {
 6618              		.loc 13 94 6 view .LVU1737
 6619              	.LBB1147:
  96:sampleengine.h ****     writeIndex++;
 6620              		.loc 13 96 5 view .LVU1738
  96:sampleengine.h ****     writeIndex++;
 6621              		.loc 13 96 31 is_stmt 0 view .LVU1739
 6622 00a8 424B     		ldr	r3, .L465+12
  96:sampleengine.h ****     writeIndex++;
 6623              		.loc 13 96 33 view .LVU1740
 6624 00aa 4348     		ldr	r0, .L465+16
  96:sampleengine.h ****     writeIndex++;
 6625              		.loc 13 96 31 view .LVU1741
 6626 00ac 1A68     		ldr	r2, [r3]
 6627              	.LBE1147:
 6628              	.LBE1146:
  75:sardinia.cpp  **** 		}
 6629              		.loc 17 75 15 view .LVU1742
 6630 00ae 4349     		ldr	r1, .L465+20
 6631              	.LBB1150:
 6632              	.LBB1148:
  96:sampleengine.h ****     writeIndex++;
 6633              		.loc 13 96 33 view .LVU1743
 6634 00b0 00EB8200 		add	r0, r0, r2, lsl #2
  97:sampleengine.h **** }
 6635              		.loc 13 97 15 view .LVU1744
 6636 00b4 0132     		adds	r2, r2, #1
 6637 00b6 1A60     		str	r2, [r3]
 6638              	.LBE1148:
 6639              	.LBE1150:
  75:sardinia.cpp  **** 		}
 6640              		.loc 17 75 15 view .LVU1745
 6641 00b8 0A68     		ldr	r2, [r1]
 6642              	.LBB1151:
 6643              	.LBB1149:
  96:sampleengine.h ****     writeIndex++;
 6644              		.loc 13 96 33 view .LVU1746
 6645 00ba C0ED007A 		vstr.32	s15, [r0]
ARM GAS  /var/folders/m5/x8wc2gdj7z5cpgcqdsb_gkj40000gn/T//ccGxviRN.s 			page 177


  97:sampleengine.h **** }
 6646              		.loc 13 97 5 is_stmt 1 view .LVU1747
 6647              	.LVL400:
  97:sampleengine.h **** }
 6648              		.loc 13 97 5 is_stmt 0 view .LVU1748
 6649              	.LBE1149:
 6650              	.LBE1151:
  75:sardinia.cpp  **** 		}
 6651              		.loc 17 75 4 is_stmt 1 view .LVU1749
  75:sardinia.cpp  **** 		}
 6652              		.loc 17 75 15 is_stmt 0 view .LVU1750
 6653 00be 0132     		adds	r2, r2, #1
 6654 00c0 0A60     		str	r2, [r1]
 6655              	.L441:
  78:sardinia.cpp  **** 		{
 6656              		.loc 17 78 3 is_stmt 1 view .LVU1751
  78:sardinia.cpp  **** 		{
 6657              		.loc 17 78 16 is_stmt 0 view .LVU1752
 6658 00c2 3F4B     		ldr	r3, .L465+24
 6659 00c4 1A78     		ldrb	r2, [r3]	@ zero_extendqisi2
 6660 00c6 8AB9     		cbnz	r2, .L461
  82:sardinia.cpp  **** 		{
 6661              		.loc 17 82 8 is_stmt 1 view .LVU1753
 6662 00c8 3E4A     		ldr	r2, .L465+28
 6663 00ca 1278     		ldrb	r2, [r2]	@ zero_extendqisi2
 6664 00cc 002A     		cmp	r2, #0
 6665 00ce ADD0     		beq	.L462
 6666              	.L451:
  84:sardinia.cpp  **** 		}
 6667              		.loc 17 84 4 view .LVU1754
  84:sardinia.cpp  **** 		}
 6668              		.loc 17 84 37 is_stmt 0 view .LVU1755
 6669 00d0 3D4A     		ldr	r2, .L465+32
 6670 00d2 3E49     		ldr	r1, .L465+36
 6671 00d4 3E48     		ldr	r0, .L465+40
 6672 00d6 1268     		ldr	r2, [r2]
 6673 00d8 0978     		ldrb	r1, [r1]	@ zero_extendqisi2
 6674 00da 0068     		ldr	r0, [r0]
 6675 00dc FFF7FEFF 		bl	_Z21SpliceBufferGetSampleiii
 6676              	.LVL401:
  97:sardinia.cpp  **** 		outputMix = ProcessEffects(outputMix); // Process the mixed signal through the effects
 6677              		.loc 17 97 24 view .LVU1756
 6678 00e0 334B     		ldr	r3, .L465+8
  84:sardinia.cpp  **** 		}
 6679              		.loc 17 84 14 view .LVU1757
 6680 00e2 88ED000A 		vstr.32	s0, [r8]
  97:sardinia.cpp  **** 		outputMix = ProcessEffects(outputMix); // Process the mixed signal through the effects
 6681              		.loc 17 97 24 view .LVU1758
 6682 00e6 D3ED007A 		vldr.32	s15, [r3]
 6683 00ea A1E7     		b	.L446
 6684              	.L461:
 6685 00ec 394A     		ldr	r2, .L465+44
 6686 00ee 02F12000 		add	r0, r2, #32
 6687 00f2 01E0     		b	.L445
 6688              	.LVL402:
 6689              	.L464:
 6690              	.LBB1152:
ARM GAS  /var/folders/m5/x8wc2gdj7z5cpgcqdsb_gkj40000gn/T//ccGxviRN.s 			page 178


 6691              	.LBB1153:
 314:sampleengine.h ****     {
 6692              		.loc 13 314 22 view .LVU1759
 6693 00f4 9042     		cmp	r0, r2
 6694 00f6 4FD0     		beq	.L463
 6695              	.LVL403:
 6696              	.L445:
 316:sampleengine.h ****         {
 6697              		.loc 13 316 9 is_stmt 1 view .LVU1760
 314:sampleengine.h ****     {
 6698              		.loc 13 314 5 view .LVU1761
 316:sampleengine.h ****         {
 6699              		.loc 13 316 23 is_stmt 0 view .LVU1762
 6700 00f8 12F8013B 		ldrb	r3, [r2], #1	@ zero_extendqisi2
 6701              	.LVL404:
 314:sampleengine.h ****     {
 6702              		.loc 13 314 22 is_stmt 1 view .LVU1763
 316:sampleengine.h ****         {
 6703              		.loc 13 316 9 is_stmt 0 view .LVU1764
 6704 00fc 002B     		cmp	r3, #0
 6705 00fe F9D0     		beq	.L464
 6706              	.LVL405:
 316:sampleengine.h ****         {
 6707              		.loc 13 316 9 view .LVU1765
 6708              	.LBE1153:
 6709              	.LBE1152:
  82:sardinia.cpp  **** 		{
 6710              		.loc 17 82 8 is_stmt 1 view .LVU1766
 6711 0100 304A     		ldr	r2, .L465+28
 6712 0102 1278     		ldrb	r2, [r2]	@ zero_extendqisi2
 6713 0104 002A     		cmp	r2, #0
 6714 0106 E3D1     		bne	.L451
  88:sardinia.cpp  **** 			AdvanceReadIndex();
 6715              		.loc 17 88 4 view .LVU1767
 6716              	.LBB1154:
 6717              	.LBI1154:
 118:sampleengine.h **** {
 6718              		.loc 13 118 7 view .LVU1768
 6719              	.LBB1155:
 120:sampleengine.h **** 
 6720              		.loc 13 120 5 view .LVU1769
 122:sampleengine.h **** 	readIndexFraction = readIndex - readIndexInt;
 6721              		.loc 13 122 5 view .LVU1770
 122:sampleengine.h **** 	readIndexFraction = readIndex - readIndexInt;
 6722              		.loc 13 122 20 is_stmt 0 view .LVU1771
 6723 0108 3348     		ldr	r0, .L465+48
 6724              	.LBE1155:
 6725              	.LBE1154:
 6726              	.LBB1164:
 6727              	.LBB1165:
 107:sampleengine.h **** 
 6728              		.loc 13 107 15 view .LVU1772
 6729 010a 344A     		ldr	r2, .L465+52
 6730              	.LBE1165:
 6731              	.LBE1164:
 6732              	.LBB1174:
 6733              	.LBB1156:
ARM GAS  /var/folders/m5/x8wc2gdj7z5cpgcqdsb_gkj40000gn/T//ccGxviRN.s 			page 179


 122:sampleengine.h **** 	readIndexFraction = readIndex - readIndexInt;
 6734              		.loc 13 122 20 view .LVU1773
 6735 010c D0ED007A 		vldr.32	s15, [r0]
 6736              	.LBE1156:
 6737              	.LBE1174:
 6738              	.LBB1175:
 6739              	.LBB1166:
 107:sampleengine.h **** 
 6740              		.loc 13 107 15 view .LVU1774
 6741 0110 92ED007A 		vldr.32	s14, [r2]
 6742              	.LBE1166:
 6743              	.LBE1175:
 6744              	.LBB1176:
 6745              	.LBB1157:
 122:sampleengine.h **** 	readIndexFraction = readIndex - readIndexInt;
 6746              		.loc 13 122 20 view .LVU1775
 6747 0114 FDEEE76A 		vcvt.s32.f32	s13, s15
 125:sampleengine.h **** 	b = recordingBuffer[readIndexInt + 1]; // next sample
 6748              		.loc 13 125 4 view .LVU1776
 6749 0118 2749     		ldr	r1, .L465+16
 6750              	.LBE1157:
 6751              	.LBE1176:
 6752              	.LBB1177:
 6753              	.LBB1167:
 107:sampleengine.h **** 
 6754              		.loc 13 107 15 view .LVU1777
 6755 011a 37EE877A 		vadd.f32	s14, s15, s14
 6756              	.LBE1167:
 6757              	.LBE1177:
 6758              	.LBB1178:
 6759              	.LBB1158:
 122:sampleengine.h **** 	readIndexFraction = readIndex - readIndexInt;
 6760              		.loc 13 122 20 view .LVU1778
 6761 011e 16EE902A 		vmov	r2, s13	@ int
 123:sampleengine.h **** 
 6762              		.loc 13 123 32 view .LVU1779
 6763 0122 F8EE666A 		vcvt.f32.u32	s13, s13
 6764              	.LBE1158:
 6765              	.LBE1178:
 6766              	.LBB1179:
 6767              	.LBB1168:
 107:sampleengine.h **** 
 6768              		.loc 13 107 15 view .LVU1780
 6769 0126 80ED007A 		vstr.32	s14, [r0]
 6770              	.LBE1168:
 6771              	.LBE1179:
 6772              	.LBB1180:
 6773              	.LBB1159:
 125:sampleengine.h **** 	b = recordingBuffer[readIndexInt + 1]; // next sample
 6774              		.loc 13 125 4 view .LVU1781
 6775 012a 01EB820C 		add	ip, r1, r2, lsl #2
 6776              	.LBE1159:
 6777              	.LBE1180:
 6778              	.LBB1181:
 6779              	.LBB1169:
 109:sampleengine.h ****     {
 6780              		.loc 13 109 18 view .LVU1782
ARM GAS  /var/folders/m5/x8wc2gdj7z5cpgcqdsb_gkj40000gn/T//ccGxviRN.s 			page 180


 6781 012e 2C49     		ldr	r1, .L465+56
 6782              	.LBE1169:
 6783              	.LBE1181:
 6784              	.LBB1182:
 6785              	.LBB1160:
 123:sampleengine.h **** 
 6786              		.loc 13 123 32 view .LVU1783
 6787 0130 77EEE67A 		vsub.f32	s15, s15, s13
 127:sampleengine.h **** 
 6788              		.loc 13 127 15 view .LVU1784
 6789 0134 9CED016A 		vldr.32	s12, [ip, #4]
 125:sampleengine.h **** 	b = recordingBuffer[readIndexInt + 1]; // next sample
 6790              		.loc 13 125 4 view .LVU1785
 6791 0138 DCED006A 		vldr.32	s13, [ip]
 127:sampleengine.h **** 
 6792              		.loc 13 127 15 view .LVU1786
 6793 013c 36EE666A 		vsub.f32	s12, s12, s13
 127:sampleengine.h **** 
 6794              		.loc 13 127 6 view .LVU1787
 6795 0140 E7EE866A 		vfma.f32	s13, s15, s12
 6796              	.LBE1160:
 6797              	.LBE1182:
  88:sardinia.cpp  **** 			AdvanceReadIndex();
 6798              		.loc 17 88 14 view .LVU1788
 6799 0144 C8ED006A 		vstr.32	s13, [r8]
 6800              	.LBB1183:
 6801              	.LBB1170:
 109:sampleengine.h ****     {
 6802              		.loc 13 109 18 view .LVU1789
 6803 0148 D1ED006A 		vldr.32	s13, [r1]	@ int
 6804              	.LBE1170:
 6805              	.LBE1183:
 6806              	.LBB1184:
 6807              	.LBB1161:
 122:sampleengine.h **** 	readIndexFraction = readIndex - readIndexInt;
 6808              		.loc 13 122 18 view .LVU1790
 6809 014c 2549     		ldr	r1, .L465+60
 6810              	.LBE1161:
 6811              	.LBE1184:
 6812              	.LBB1185:
 6813              	.LBB1171:
 109:sampleengine.h ****     {
 6814              		.loc 13 109 18 view .LVU1791
 6815 014e F8EE666A 		vcvt.f32.u32	s13, s13
 6816              	.LBE1171:
 6817              	.LBE1185:
 6818              	.LBB1186:
 6819              	.LBB1162:
 122:sampleengine.h **** 	readIndexFraction = readIndex - readIndexInt;
 6820              		.loc 13 122 18 view .LVU1792
 6821 0152 0A60     		str	r2, [r1]
 123:sampleengine.h **** 
 6822              		.loc 13 123 2 is_stmt 1 view .LVU1793
 123:sampleengine.h **** 
 6823              		.loc 13 123 20 is_stmt 0 view .LVU1794
 6824 0154 244A     		ldr	r2, .L465+64
 6825              	.LBE1162:
ARM GAS  /var/folders/m5/x8wc2gdj7z5cpgcqdsb_gkj40000gn/T//ccGxviRN.s 			page 181


 6826              	.LBE1186:
 6827              	.LBB1187:
 6828              	.LBB1172:
 109:sampleengine.h ****     {
 6829              		.loc 13 109 5 view .LVU1795
 6830 0156 B4EEE67A 		vcmpe.f32	s14, s13
 6831              	.LBE1172:
 6832              	.LBE1187:
 6833              	.LBB1188:
 6834              	.LBB1163:
 123:sampleengine.h **** 
 6835              		.loc 13 123 20 view .LVU1796
 6836 015a C2ED007A 		vstr.32	s15, [r2]
 125:sampleengine.h **** 	b = recordingBuffer[readIndexInt + 1]; // next sample
 6837              		.loc 13 125 2 is_stmt 1 view .LVU1797
 6838              	.LVL406:
 126:sampleengine.h **** 	out = a + (b - a) * readIndexFraction; // Linear Interpolation
 6839              		.loc 13 126 2 view .LVU1798
 127:sampleengine.h **** 
 6840              		.loc 13 127 2 view .LVU1799
 129:sampleengine.h **** }
 6841              		.loc 13 129 5 view .LVU1800
 129:sampleengine.h **** }
 6842              		.loc 13 129 5 is_stmt 0 view .LVU1801
 6843              	.LBE1163:
 6844              	.LBE1188:
  89:sardinia.cpp  **** 			if(readIndex > recordingLength) // recordingLength dynamically changes the size of sample based 
 6845              		.loc 17 89 4 is_stmt 1 view .LVU1802
 6846              	.LBB1189:
 6847              	.LBI1164:
 105:sampleengine.h **** {
 6848              		.loc 13 105 6 view .LVU1803
 6849              	.LBB1173:
 107:sampleengine.h **** 
 6850              		.loc 13 107 5 view .LVU1804
 109:sampleengine.h ****     {
 6851              		.loc 13 109 5 view .LVU1805
 6852 015e F1EE10FA 		vmrs	APSR_nzcv, FPSCR
 6853 0162 04DB     		blt	.L447
 6854 0164 FFF7FEFF 		bl	_Z16AdvanceReadIndexv.part.0
 6855              	.LVL407:
 6856              	.LBE1173:
 6857              	.LBE1189:
  90:sardinia.cpp  **** 			{
 6858              		.loc 17 90 17 is_stmt 0 view .LVU1806
 6859 0168 1B48     		ldr	r0, .L465+48
 6860 016a 90ED007A 		vldr.32	s14, [r0]
 6861              	.L447:
  90:sardinia.cpp  **** 			{
 6862              		.loc 17 90 4 is_stmt 1 view .LVU1807
  90:sardinia.cpp  **** 			{
 6863              		.loc 17 90 17 is_stmt 0 view .LVU1808
 6864 016e 1F4A     		ldr	r2, .L465+68
  97:sardinia.cpp  **** 		outputMix = ProcessEffects(outputMix); // Process the mixed signal through the effects
 6865              		.loc 17 97 24 view .LVU1809
 6866 0170 0F4B     		ldr	r3, .L465+8
  90:sardinia.cpp  **** 			{
ARM GAS  /var/folders/m5/x8wc2gdj7z5cpgcqdsb_gkj40000gn/T//ccGxviRN.s 			page 182


 6867              		.loc 17 90 17 view .LVU1810
 6868 0172 D2ED007A 		vldr.32	s15, [r2]	@ int
  97:sardinia.cpp  **** 		outputMix = ProcessEffects(outputMix); // Process the mixed signal through the effects
 6869              		.loc 17 97 24 view .LVU1811
 6870 0176 98ED000A 		vldr.32	s0, [r8]
  92:sardinia.cpp  **** 			}
 6871              		.loc 17 92 5 is_stmt 1 view .LVU1812
  90:sardinia.cpp  **** 			{
 6872              		.loc 17 90 17 is_stmt 0 view .LVU1813
 6873 017a F8EE677A 		vcvt.f32.u32	s15, s15
  90:sardinia.cpp  **** 			{
 6874              		.loc 17 90 4 view .LVU1814
 6875 017e F4EEC77A 		vcmpe.f32	s15, s14
  97:sardinia.cpp  **** 		outputMix = ProcessEffects(outputMix); // Process the mixed signal through the effects
 6876              		.loc 17 97 24 view .LVU1815
 6877 0182 D3ED007A 		vldr.32	s15, [r3]
  90:sardinia.cpp  **** 			{
 6878              		.loc 17 90 4 view .LVU1816
 6879 0186 F1EE10FA 		vmrs	APSR_nzcv, FPSCR
  92:sardinia.cpp  **** 			}
 6880              		.loc 17 92 15 view .LVU1817
 6881 018a 44BF     		itt	mi
 6882 018c 0022     		movmi	r2, #0
 6883 018e 0260     		strmi	r2, [r0]	@ float
 6884 0190 4EE7     		b	.L446
 6885              	.LVL408:
 6886              	.L439:
  92:sardinia.cpp  **** 			}
 6887              		.loc 17 92 15 view .LVU1818
 6888              	.LBE1145:
 105:sardinia.cpp  **** 
 6889              		.loc 17 105 1 view .LVU1819
 6890 0192 03B0     		add	sp, sp, #12
 6891              		.cfi_remember_state
 6892              		.cfi_def_cfa_offset 36
 6893              		@ sp needed
 6894 0194 BDE8F08F 		pop	{r4, r5, r6, r7, r8, r9, r10, fp, pc}
 6895              	.LVL409:
 6896              	.L463:
 6897              		.cfi_restore_state
 6898              	.LBB1190:
  80:sardinia.cpp  **** 		}
 6899              		.loc 17 80 4 is_stmt 1 view .LVU1820
  80:sardinia.cpp  **** 		}
 6900              		.loc 17 80 35 is_stmt 0 view .LVU1821
 6901 0198 FFF7FEFF 		bl	_Z19FullSampleGetSamplev
 6902              	.LVL410:
  97:sardinia.cpp  **** 		outputMix = ProcessEffects(outputMix); // Process the mixed signal through the effects
 6903              		.loc 17 97 24 view .LVU1822
 6904 019c 044B     		ldr	r3, .L465+8
  80:sardinia.cpp  **** 		}
 6905              		.loc 17 80 14 view .LVU1823
 6906 019e 88ED000A 		vstr.32	s0, [r8]
  97:sardinia.cpp  **** 		outputMix = ProcessEffects(outputMix); // Process the mixed signal through the effects
 6907              		.loc 17 97 24 view .LVU1824
 6908 01a2 D3ED007A 		vldr.32	s15, [r3]
 6909 01a6 43E7     		b	.L446
ARM GAS  /var/folders/m5/x8wc2gdj7z5cpgcqdsb_gkj40000gn/T//ccGxviRN.s 			page 183


 6910              	.L466:
 6911              		.align	2
 6912              	.L465:
 6913 01a8 00000000 		.word	.LANCHOR49
 6914 01ac 00000000 		.word	.LANCHOR37
 6915 01b0 00000000 		.word	.LANCHOR50
 6916 01b4 00000000 		.word	.LANCHOR11
 6917 01b8 00000000 		.word	recordingBuffer
 6918 01bc 00000000 		.word	.LANCHOR39
 6919 01c0 00000000 		.word	.LANCHOR43
 6920 01c4 00000000 		.word	.LANCHOR44
 6921 01c8 00000000 		.word	.LANCHOR45
 6922 01cc 00000000 		.word	.LANCHOR29
 6923 01d0 00000000 		.word	.LANCHOR42
 6924 01d4 00000000 		.word	.LANCHOR1
 6925 01d8 00000000 		.word	.LANCHOR6
 6926 01dc 00000000 		.word	.LANCHOR12
 6927 01e0 00000000 		.word	.LANCHOR4
 6928 01e4 00000000 		.word	.LANCHOR13
 6929 01e8 00000000 		.word	.LANCHOR14
 6930 01ec 00000000 		.word	.LANCHOR16
 6931 01f0 00000000 		.word	.LANCHOR48
 6932 01f4 00000000 		.word	.LANCHOR47
 6933 01f8 00000000 		.word	.LANCHOR46
 6934              	.LBE1190:
 6935              		.cfi_endproc
 6936              	.LFE4710:
 6938              		.section	.text._Z20UpdateControlButtonsv,"ax",%progbits
 6939              		.align	1
 6940              		.p2align 2,,3
 6941              		.global	_Z20UpdateControlButtonsv
 6942              		.syntax unified
 6943              		.thumb
 6944              		.thumb_func
 6946              	_Z20UpdateControlButtonsv:
 6947              	.LFB4717:
 341:sardinia.cpp  **** 	for(int i = 0; i < 8; i++)
 6948              		.loc 17 341 1 is_stmt 1 view -0
 6949              		.cfi_startproc
 6950              		@ args = 0, pretend = 0, frame = 0
 6951              		@ frame_needed = 0, uses_anonymous_args = 0
 342:sardinia.cpp  **** 	{
 6952              		.loc 17 342 2 view .LVU1826
 6953              	.LVL411:
 6954              	.LBB1191:
 342:sardinia.cpp  **** 	{
 6955              		.loc 17 342 19 view .LVU1827
 6956              	.LBE1191:
 341:sardinia.cpp  **** 	for(int i = 0; i < 8; i++)
 6957              		.loc 17 341 1 is_stmt 0 view .LVU1828
 6958 0000 38B5     		push	{r3, r4, r5, lr}
 6959              		.cfi_def_cfa_offset 16
 6960              		.cfi_offset 3, -16
 6961              		.cfi_offset 4, -12
 6962              		.cfi_offset 5, -8
 6963              		.cfi_offset 14, -4
 6964 0002 0B4D     		ldr	r5, .L471
ARM GAS  /var/folders/m5/x8wc2gdj7z5cpgcqdsb_gkj40000gn/T//ccGxviRN.s 			page 184


 6965              	.LBB1192:
 342:sardinia.cpp  **** 	{
 6966              		.loc 17 342 10 view .LVU1829
 6967 0004 0024     		movs	r4, #0
 6968              	.LVL412:
 6969              	.L468:
 344:sardinia.cpp  **** 	}
 6970              		.loc 17 344 3 is_stmt 1 discriminator 2 view .LVU1830
 344:sardinia.cpp  **** 	}
 6971              		.loc 17 344 46 is_stmt 0 discriminator 2 view .LVU1831
 6972 0006 E2B2     		uxtb	r2, r4
 6973 0008 0521     		movs	r1, #5
 6974 000a 0A48     		ldr	r0, .L471+4
 342:sardinia.cpp  **** 	{
 6975              		.loc 17 342 2 discriminator 2 view .LVU1832
 6976 000c 0134     		adds	r4, r4, #1
 6977              	.LVL413:
 344:sardinia.cpp  **** 	}
 6978              		.loc 17 344 46 discriminator 2 view .LVU1833
 6979 000e FFF7FEFF 		bl	_ZNK5daisy9AdcHandle11GetMuxFloatEhh
 6980              	.LVL414:
 344:sardinia.cpp  **** 	}
 6981              		.loc 17 344 53 discriminator 2 view .LVU1834
 6982 0012 F6EE007A 		vmov.f32	s15, #5.0e-1
 6983 0016 B4EEE70A 		vcmpe.f32	s0, s15
 6984 001a F1EE10FA 		vmrs	APSR_nzcv, FPSCR
 6985 001e 4CBF     		ite	mi
 6986 0020 0123     		movmi	r3, #1
 6987 0022 0023     		movpl	r3, #0
 342:sardinia.cpp  **** 	{
 6988              		.loc 17 342 19 discriminator 2 view .LVU1835
 6989 0024 082C     		cmp	r4, #8
 344:sardinia.cpp  **** 	}
 6990              		.loc 17 344 53 discriminator 2 view .LVU1836
 6991 0026 05F8013F 		strb	r3, [r5, #1]!
 342:sardinia.cpp  **** 	{
 6992              		.loc 17 342 2 is_stmt 1 discriminator 2 view .LVU1837
 6993              	.LVL415:
 342:sardinia.cpp  **** 	{
 6994              		.loc 17 342 19 discriminator 2 view .LVU1838
 6995 002a ECD1     		bne	.L468
 6996              	.LBE1192:
 346:sardinia.cpp  **** 
 6997              		.loc 17 346 1 is_stmt 0 view .LVU1839
 6998 002c 38BD     		pop	{r3, r4, r5, pc}
 6999              	.LVL416:
 7000              	.L472:
 346:sardinia.cpp  **** 
 7001              		.loc 17 346 1 view .LVU1840
 7002 002e 00BF     		.align	2
 7003              	.L471:
 7004 0030 FFFFFFFF 		.word	.LANCHOR9-1
 7005 0034 18000000 		.word	.LANCHOR36+24
 7006              		.cfi_endproc
 7007              	.LFE4717:
 7009              		.section	.text._Z25RecordControlButtonStatesv,"ax",%progbits
 7010              		.align	1
ARM GAS  /var/folders/m5/x8wc2gdj7z5cpgcqdsb_gkj40000gn/T//ccGxviRN.s 			page 185


 7011              		.p2align 2,,3
 7012              		.global	_Z25RecordControlButtonStatesv
 7013              		.syntax unified
 7014              		.thumb
 7015              		.thumb_func
 7017              	_Z25RecordControlButtonStatesv:
 7018              	.LFB4718:
 349:sardinia.cpp  **** 	for(int i = 0; i < 8; i++)
 7019              		.loc 17 349 1 is_stmt 1 view -0
 7020              		.cfi_startproc
 7021              		@ args = 0, pretend = 0, frame = 0
 7022              		@ frame_needed = 0, uses_anonymous_args = 0
 7023              		@ link register save eliminated.
 350:sardinia.cpp  **** 	{
 7024              		.loc 17 350 2 view .LVU1842
 7025              	.LVL417:
 7026              	.LBB1193:
 350:sardinia.cpp  **** 	{
 7027              		.loc 17 350 19 view .LVU1843
 352:sardinia.cpp  **** 	}
 7028              		.loc 17 352 30 is_stmt 0 view .LVU1844
 7029 0000 034A     		ldr	r2, .L474
 7030 0002 044B     		ldr	r3, .L474+4
 7031 0004 92E80300 		ldm	r2, {r0, r1}
 7032 0008 83E80300 		stm	r3, {r0, r1}
 7033              	.LVL418:
 352:sardinia.cpp  **** 	}
 7034              		.loc 17 352 30 view .LVU1845
 7035              	.LBE1193:
 354:sardinia.cpp  **** 
 7036              		.loc 17 354 1 view .LVU1846
 7037 000c 7047     		bx	lr
 7038              	.L475:
 7039 000e 00BF     		.align	2
 7040              	.L474:
 7041 0010 00000000 		.word	.LANCHOR9
 7042 0014 00000000 		.word	.LANCHOR10
 7043              		.cfi_endproc
 7044              	.LFE4718:
 7046              		.section	.text._Z10ModeSelectv,"ax",%progbits
 7047              		.align	1
 7048              		.p2align 2,,3
 7049              		.global	_Z10ModeSelectv
 7050              		.syntax unified
 7051              		.thumb
 7052              		.thumb_func
 7054              	_Z10ModeSelectv:
 7055              	.LFB4719:
 357:sardinia.cpp  **** 	if(RisingEdge_ControlButtons(2)) // Adjusts the output amplitude based on the knob
 7056              		.loc 17 357 1 is_stmt 1 view -0
 7057              		.cfi_startproc
 7058              		@ args = 0, pretend = 0, frame = 0
 7059              		@ frame_needed = 0, uses_anonymous_args = 0
 7060              		@ link register save eliminated.
 358:sardinia.cpp  **** 	{
 7061              		.loc 17 358 2 view .LVU1848
 7062              	.LVL419:
ARM GAS  /var/folders/m5/x8wc2gdj7z5cpgcqdsb_gkj40000gn/T//ccGxviRN.s 			page 186


 7063              	.LBB1210:
 7064              	.LBI1210:
 115:hardware.h    **** bool RisingEdge_ControlButtons(int buttonNum)
 7065              		.loc 14 115 6 view .LVU1849
 7066              	.LBB1211:
 117:hardware.h    **** 	if(controlButtonStates[buttonNum] == true && prevControlButtonStates[buttonNum] == false)
 7067              		.loc 14 117 2 view .LVU1850
 117:hardware.h    **** 	if(controlButtonStates[buttonNum] == true && prevControlButtonStates[buttonNum] == false)
 7068              		.loc 14 117 34 is_stmt 0 view .LVU1851
 7069 0000 084B     		ldr	r3, .L485
 117:hardware.h    **** 	if(controlButtonStates[buttonNum] == true && prevControlButtonStates[buttonNum] == false)
 7070              		.loc 14 117 2 view .LVU1852
 7071 0002 9A78     		ldrb	r2, [r3, #2]	@ zero_extendqisi2
 7072 0004 2AB1     		cbz	r2, .L477
 117:hardware.h    **** 	if(controlButtonStates[buttonNum] == true && prevControlButtonStates[buttonNum] == false)
 7073              		.loc 14 117 80 view .LVU1853
 7074 0006 084A     		ldr	r2, .L485+4
 117:hardware.h    **** 	if(controlButtonStates[buttonNum] == true && prevControlButtonStates[buttonNum] == false)
 7075              		.loc 14 117 44 view .LVU1854
 7076 0008 9278     		ldrb	r2, [r2, #2]	@ zero_extendqisi2
 7077 000a 12B9     		cbnz	r2, .L477
 7078              	.LVL420:
 117:hardware.h    **** 	if(controlButtonStates[buttonNum] == true && prevControlButtonStates[buttonNum] == false)
 7079              		.loc 14 117 44 view .LVU1855
 7080              	.LBE1211:
 7081              	.LBE1210:
 360:sardinia.cpp  **** 	}
 7082              		.loc 17 360 3 is_stmt 1 view .LVU1856
 7083              	.LBB1213:
 7084              	.LBI1213:
 125:display.h     **** {
 7085              		.loc 15 125 6 view .LVU1857
 7086              	.LBB1214:
 127:display.h     **** 	{
 7087              		.loc 15 127 2 view .LVU1858
 129:display.h     **** 	}
 7088              		.loc 15 129 3 view .LVU1859
 129:display.h     **** 	}
 7089              		.loc 15 129 8 is_stmt 0 view .LVU1860
 7090 000c 074B     		ldr	r3, .L485+8
 7091 000e 1A70     		strb	r2, [r3]
 7092              		.loc 15 135 1 view .LVU1861
 7093 0010 7047     		bx	lr
 7094              	.LVL421:
 7095              	.L477:
 7096              		.loc 15 135 1 view .LVU1862
 7097              	.LBE1214:
 7098              	.LBE1213:
 7099              	.LBB1215:
 7100              	.LBB1212:
 123:hardware.h    **** 		return false;
 7101              		.loc 14 123 3 is_stmt 1 view .LVU1863
 123:hardware.h    **** 		return false;
 7102              		.loc 14 123 3 is_stmt 0 view .LVU1864
 7103              	.LBE1212:
 7104              	.LBE1215:
 362:sardinia.cpp  **** 	{
ARM GAS  /var/folders/m5/x8wc2gdj7z5cpgcqdsb_gkj40000gn/T//ccGxviRN.s 			page 187


 7105              		.loc 17 362 7 is_stmt 1 view .LVU1865
 7106              	.LBB1216:
 7107              	.LBI1216:
 115:hardware.h    **** bool RisingEdge_ControlButtons(int buttonNum)
 7108              		.loc 14 115 6 view .LVU1866
 7109              	.LBB1217:
 117:hardware.h    **** 	if(controlButtonStates[buttonNum] == true && prevControlButtonStates[buttonNum] == false)
 7110              		.loc 14 117 2 view .LVU1867
 7111 0012 DB78     		ldrb	r3, [r3, #3]	@ zero_extendqisi2
 7112 0014 2BB1     		cbz	r3, .L476
 7113              	.LBE1217:
 7114              	.LBE1216:
 7115              	.LBB1218:
 7116              	.LBI1218:
 356:sardinia.cpp  **** {
 7117              		.loc 17 356 6 view .LVU1868
 7118              	.LBB1219:
 7119              	.LBB1220:
 117:hardware.h    **** 	if(controlButtonStates[buttonNum] == true && prevControlButtonStates[buttonNum] == false)
 7120              		.loc 14 117 80 is_stmt 0 view .LVU1869
 7121 0016 044B     		ldr	r3, .L485+4
 117:hardware.h    **** 	if(controlButtonStates[buttonNum] == true && prevControlButtonStates[buttonNum] == false)
 7122              		.loc 14 117 44 view .LVU1870
 7123 0018 DB78     		ldrb	r3, [r3, #3]	@ zero_extendqisi2
 7124 001a 13B9     		cbnz	r3, .L476
 7125              	.LBE1220:
 7126              	.LBE1219:
 7127              	.LBE1218:
 7128              		.loc 17 364 3 is_stmt 1 view .LVU1871
 7129              	.LVL422:
 7130              	.LBB1223:
 7131              	.LBB1221:
 7132              	.LBI1221:
 125:display.h     **** {
 7133              		.loc 15 125 6 view .LVU1872
 7134              	.LBB1222:
 127:display.h     **** 	{
 7135              		.loc 15 127 2 view .LVU1873
 131:display.h     **** 	{
 7136              		.loc 15 131 7 view .LVU1874
 133:display.h     **** 	}
 7137              		.loc 15 133 3 view .LVU1875
 133:display.h     **** 	}
 7138              		.loc 15 133 8 is_stmt 0 view .LVU1876
 7139 001c 034B     		ldr	r3, .L485+8
 7140 001e 0122     		movs	r2, #1
 7141 0020 1A70     		strb	r2, [r3]
 7142              	.LVL423:
 7143              	.L476:
 133:display.h     **** 	}
 7144              		.loc 15 133 8 view .LVU1877
 7145              	.LBE1222:
 7146              	.LBE1221:
 7147              	.LBE1223:
 365:sardinia.cpp  **** 	}
 366:sardinia.cpp  **** }
 7148              		.loc 17 366 1 view .LVU1878
ARM GAS  /var/folders/m5/x8wc2gdj7z5cpgcqdsb_gkj40000gn/T//ccGxviRN.s 			page 188


 7149 0022 7047     		bx	lr
 7150              	.L486:
 7151              		.align	2
 7152              	.L485:
 7153 0024 00000000 		.word	.LANCHOR9
 7154 0028 00000000 		.word	.LANCHOR10
 7155 002c 00000000 		.word	.LANCHOR29
 7156              		.cfi_endproc
 7157              	.LFE4719:
 7159              		.section	.text.startup._GLOBAL__sub_I_adcConfig,"ax",%progbits
 7160              		.align	1
 7161              		.p2align 2,,3
 7162              		.syntax unified
 7163              		.thumb
 7164              		.thumb_func
 7166              	_GLOBAL__sub_I_adcConfig:
 7167              	.LFB5282:
 7168              		.loc 17 366 1 is_stmt 1 view -0
 7169              		.cfi_startproc
 7170              		@ args = 0, pretend = 0, frame = 0
 7171              		@ frame_needed = 0, uses_anonymous_args = 0
 7172              	.LBB1261:
 7173              	.LBI1261:
 7174              		.loc 17 366 1 view .LVU1880
 7175              	.LVL424:
 7176              	.LBB1262:
 7177              	.LBB1263:
 7178              	.LBI1263:
  20:/Users/dominicfrugoli/Desktop/ProgrammingCode/DaisyCode/DaisyExamples/libDaisy/src/hid/encoder.h ****     ~Encoder() {}
 7179              		.loc 1 20 5 view .LVU1881
 7180              	.LBB1264:
 7181              	.LBB1265:
 7182              	.LBI1265:
  41:/Users/dominicfrugoli/Desktop/ProgrammingCode/DaisyCode/DaisyExamples/libDaisy/src/hid/switch.h ****     ~Switch() {}
 7183              		.loc 2 41 5 view .LVU1882
  41:/Users/dominicfrugoli/Desktop/ProgrammingCode/DaisyCode/DaisyExamples/libDaisy/src/hid/switch.h ****     ~Switch() {}
 7184              		.loc 2 41 5 is_stmt 0 view .LVU1883
 7185              	.LBE1265:
 7186              	.LBE1264:
 7187              	.LBE1263:
 7188              	.LBE1262:
 7189              	.LBE1261:
 7190              		.loc 17 366 1 view .LVU1884
 7191 0000 08B5     		push	{r3, lr}
 7192              		.cfi_def_cfa_offset 8
 7193              		.cfi_offset 3, -8
 7194              		.cfi_offset 14, -4
 7195              	.LBB1296:
 7196              	.LBB1293:
  57:hardware.h    **** Encoder encoder;
 7197              		.loc 14 57 9 view .LVU1885
 7198 0002 154A     		ldr	r2, .L489
 7199 0004 1549     		ldr	r1, .L489+4
 7200 0006 1648     		ldr	r0, .L489+8
 7201 0008 FFF7FEFF 		bl	__aeabi_atexit
 7202              	.LVL425:
 7203              	.LBB1266:
ARM GAS  /var/folders/m5/x8wc2gdj7z5cpgcqdsb_gkj40000gn/T//ccGxviRN.s 			page 189


 7204              	.LBI1266:
  22:/Users/dominicfrugoli/Desktop/ProgrammingCode/DaisyCode/DaisyExamples/libDaisy/src/dev/lcd_hd44780.h ****     ~LcdHD44780() {}
 7205              		.loc 3 22 5 is_stmt 1 view .LVU1886
  22:/Users/dominicfrugoli/Desktop/ProgrammingCode/DaisyCode/DaisyExamples/libDaisy/src/dev/lcd_hd44780.h ****     ~LcdHD44780() {}
 7206              		.loc 3 22 5 is_stmt 0 view .LVU1887
 7207              	.LBE1266:
  42:display.h     **** enum Mode mode = record;
 7208              		.loc 15 42 12 view .LVU1888
 7209 000c 124A     		ldr	r2, .L489
 7210 000e 1549     		ldr	r1, .L489+12
 7211 0010 1548     		ldr	r0, .L489+16
 7212 0012 FFF7FEFF 		bl	__aeabi_atexit
 7213              	.LVL426:
 7214              	.LBB1267:
 7215              	.LBI1267:
  96:/Users/dominicfrugoli/Desktop/ProgrammingCode/DaisyCode/DaisyExamples/DaisySP/Source/Effects/chorus.h ****     ~Chorus() {}
 7216              		.loc 10 96 5 is_stmt 1 view .LVU1889
 7217              	.LBE1267:
 7218              	.LBE1293:
 7219              	.LBE1296:
  96:/Users/dominicfrugoli/Desktop/ProgrammingCode/DaisyCode/DaisyExamples/DaisySP/Source/Effects/chorus.h ****     ~Chorus() {}
 7220              		.loc 10 96 14 view .LVU1890
 7221              	.LBB1297:
 7222              	.LBB1294:
  19:effects.h     **** Overdrive overdrive;
 7223              		.loc 16 19 8 is_stmt 0 view .LVU1891
 7224 0016 104A     		ldr	r2, .L489
 7225 0018 1449     		ldr	r1, .L489+20
 7226 001a 1548     		ldr	r0, .L489+24
 7227 001c FFF7FEFF 		bl	__aeabi_atexit
 7228              	.LVL427:
 7229              	.LBB1268:
 7230              	.LBI1268:
  31:/Users/dominicfrugoli/Desktop/ProgrammingCode/DaisyCode/DaisyExamples/DaisySP/Source/Effects/overdrive.h ****     ~Overdrive() {}
 7231              		.loc 11 31 5 is_stmt 1 view .LVU1892
  31:/Users/dominicfrugoli/Desktop/ProgrammingCode/DaisyCode/DaisyExamples/DaisySP/Source/Effects/overdrive.h ****     ~Overdrive() {}
 7232              		.loc 11 31 5 is_stmt 0 view .LVU1893
 7233              	.LBE1268:
  20:effects.h     **** OnePole odTone;
 7234              		.loc 16 20 11 view .LVU1894
 7235 0020 0D4A     		ldr	r2, .L489
 7236 0022 1449     		ldr	r1, .L489+28
 7237 0024 1448     		ldr	r0, .L489+32
 7238 0026 FFF7FEFF 		bl	__aeabi_atexit
 7239              	.LVL428:
 7240              	.LBB1269:
 7241              	.LBI1269:
  29:/Users/dominicfrugoli/Desktop/ProgrammingCode/DaisyCode/DaisyExamples/DaisySP/Source/Filters/onepole.h ****     ~OnePole() {}
 7242              		.loc 12 29 5 is_stmt 1 view .LVU1895
  29:/Users/dominicfrugoli/Desktop/ProgrammingCode/DaisyCode/DaisyExamples/DaisySP/Source/Filters/onepole.h ****     ~OnePole() {}
 7243              		.loc 12 29 5 is_stmt 0 view .LVU1896
 7244              	.LBE1269:
  21:effects.h     **** Svf lopass;
 7245              		.loc 16 21 9 view .LVU1897
 7246 002a 0B4A     		ldr	r2, .L489
 7247 002c 1349     		ldr	r1, .L489+36
 7248 002e 1448     		ldr	r0, .L489+40
ARM GAS  /var/folders/m5/x8wc2gdj7z5cpgcqdsb_gkj40000gn/T//ccGxviRN.s 			page 190


 7249 0030 FFF7FEFF 		bl	__aeabi_atexit
 7250              	.LVL429:
 7251              	.LBB1270:
 7252              	.LBI1270:
  29:/Users/dominicfrugoli/Desktop/ProgrammingCode/DaisyCode/DaisyExamples/DaisySP/Source/Filters/svf.h ****     ~Svf() {}
 7253              		.loc 9 29 5 is_stmt 1 view .LVU1898
  29:/Users/dominicfrugoli/Desktop/ProgrammingCode/DaisyCode/DaisyExamples/DaisySP/Source/Filters/svf.h ****     ~Svf() {}
 7254              		.loc 9 29 5 is_stmt 0 view .LVU1899
 7255              	.LBE1270:
  22:effects.h     **** 
 7256              		.loc 16 22 5 view .LVU1900
 7257 0034 084A     		ldr	r2, .L489
 7258 0036 1349     		ldr	r1, .L489+44
 7259 0038 1348     		ldr	r0, .L489+48
 7260 003a FFF7FEFF 		bl	__aeabi_atexit
 7261              	.LVL430:
 7262              	.LBB1271:
 7263              	.LBI1271:
  21:/Users/dominicfrugoli/Desktop/ProgrammingCode/DaisyCode/DaisyExamples/libDaisy/src/daisy_seed.h ****     ~DaisySeed() {}
 7264              		.loc 4 21 5 is_stmt 1 view .LVU1901
 7265              	.LBB1272:
 7266              	.LBB1273:
 7267              	.LBI1273:
 7268              		.file 19 "/Users/dominicfrugoli/Desktop/ProgrammingCode/DaisyCode/DaisyExamples/libDaisy/src/per/q
   1:/Users/dominicfrugoli/Desktop/ProgrammingCode/DaisyCode/DaisyExamples/libDaisy/src/per/qspi.h **** #ifndef DSY_QSPI
   2:/Users/dominicfrugoli/Desktop/ProgrammingCode/DaisyCode/DaisyExamples/libDaisy/src/per/qspi.h **** #define DSY_QSPI /**< Macro */
   3:/Users/dominicfrugoli/Desktop/ProgrammingCode/DaisyCode/DaisyExamples/libDaisy/src/per/qspi.h **** 
   4:/Users/dominicfrugoli/Desktop/ProgrammingCode/DaisyCode/DaisyExamples/libDaisy/src/per/qspi.h **** #ifndef UNIT_TEST // for unit tests, a dummy implementation
   5:/Users/dominicfrugoli/Desktop/ProgrammingCode/DaisyCode/DaisyExamples/libDaisy/src/per/qspi.h **** 
   6:/Users/dominicfrugoli/Desktop/ProgrammingCode/DaisyCode/DaisyExamples/libDaisy/src/per/qspi.h **** #include <cstdint>
   7:/Users/dominicfrugoli/Desktop/ProgrammingCode/DaisyCode/DaisyExamples/libDaisy/src/per/qspi.h **** #include "daisy_core.h" // Added for dsy_gpio_pin typedef
   8:/Users/dominicfrugoli/Desktop/ProgrammingCode/DaisyCode/DaisyExamples/libDaisy/src/per/qspi.h **** 
   9:/Users/dominicfrugoli/Desktop/ProgrammingCode/DaisyCode/DaisyExamples/libDaisy/src/per/qspi.h **** #define DSY_QSPI_TEXT       \
  10:/Users/dominicfrugoli/Desktop/ProgrammingCode/DaisyCode/DaisyExamples/libDaisy/src/per/qspi.h ****     __attribute__((section( \
  11:/Users/dominicfrugoli/Desktop/ProgrammingCode/DaisyCode/DaisyExamples/libDaisy/src/per/qspi.h ****         ".qspiflash_text"))) /**< used for reading memory in memory_mapped mode. */
  12:/Users/dominicfrugoli/Desktop/ProgrammingCode/DaisyCode/DaisyExamples/libDaisy/src/per/qspi.h **** #define DSY_QSPI_DATA       \
  13:/Users/dominicfrugoli/Desktop/ProgrammingCode/DaisyCode/DaisyExamples/libDaisy/src/per/qspi.h ****     __attribute__((section( \
  14:/Users/dominicfrugoli/Desktop/ProgrammingCode/DaisyCode/DaisyExamples/libDaisy/src/per/qspi.h ****         ".qspiflash_data"))) /**< used for reading memory in memory_mapped mode. */
  15:/Users/dominicfrugoli/Desktop/ProgrammingCode/DaisyCode/DaisyExamples/libDaisy/src/per/qspi.h **** #define DSY_QSPI_BSS        \
  16:/Users/dominicfrugoli/Desktop/ProgrammingCode/DaisyCode/DaisyExamples/libDaisy/src/per/qspi.h ****     __attribute__((section( \
  17:/Users/dominicfrugoli/Desktop/ProgrammingCode/DaisyCode/DaisyExamples/libDaisy/src/per/qspi.h ****         ".qspiflash_bss"))) /**< used for reading memory in memory_mapped mode. */
  18:/Users/dominicfrugoli/Desktop/ProgrammingCode/DaisyCode/DaisyExamples/libDaisy/src/per/qspi.h **** 
  19:/Users/dominicfrugoli/Desktop/ProgrammingCode/DaisyCode/DaisyExamples/libDaisy/src/per/qspi.h **** namespace daisy
  20:/Users/dominicfrugoli/Desktop/ProgrammingCode/DaisyCode/DaisyExamples/libDaisy/src/per/qspi.h **** {
  21:/Users/dominicfrugoli/Desktop/ProgrammingCode/DaisyCode/DaisyExamples/libDaisy/src/per/qspi.h **** /** @addtogroup serial
  22:/Users/dominicfrugoli/Desktop/ProgrammingCode/DaisyCode/DaisyExamples/libDaisy/src/per/qspi.h **** @{
  23:/Users/dominicfrugoli/Desktop/ProgrammingCode/DaisyCode/DaisyExamples/libDaisy/src/per/qspi.h **** */
  24:/Users/dominicfrugoli/Desktop/ProgrammingCode/DaisyCode/DaisyExamples/libDaisy/src/per/qspi.h **** 
  25:/Users/dominicfrugoli/Desktop/ProgrammingCode/DaisyCode/DaisyExamples/libDaisy/src/per/qspi.h **** /** 
  26:/Users/dominicfrugoli/Desktop/ProgrammingCode/DaisyCode/DaisyExamples/libDaisy/src/per/qspi.h ****  Driver for QSPI peripheral to interface with external flash memory. \n 
  27:/Users/dominicfrugoli/Desktop/ProgrammingCode/DaisyCode/DaisyExamples/libDaisy/src/per/qspi.h ****     Currently supported QSPI Devices: \n 
  28:/Users/dominicfrugoli/Desktop/ProgrammingCode/DaisyCode/DaisyExamples/libDaisy/src/per/qspi.h ****     * IS25LP080D
  29:/Users/dominicfrugoli/Desktop/ProgrammingCode/DaisyCode/DaisyExamples/libDaisy/src/per/qspi.h **** */
  30:/Users/dominicfrugoli/Desktop/ProgrammingCode/DaisyCode/DaisyExamples/libDaisy/src/per/qspi.h **** class QSPIHandle
  31:/Users/dominicfrugoli/Desktop/ProgrammingCode/DaisyCode/DaisyExamples/libDaisy/src/per/qspi.h **** {
  32:/Users/dominicfrugoli/Desktop/ProgrammingCode/DaisyCode/DaisyExamples/libDaisy/src/per/qspi.h ****   public:
  33:/Users/dominicfrugoli/Desktop/ProgrammingCode/DaisyCode/DaisyExamples/libDaisy/src/per/qspi.h ****     enum Result
ARM GAS  /var/folders/m5/x8wc2gdj7z5cpgcqdsb_gkj40000gn/T//ccGxviRN.s 			page 191


  34:/Users/dominicfrugoli/Desktop/ProgrammingCode/DaisyCode/DaisyExamples/libDaisy/src/per/qspi.h ****     {
  35:/Users/dominicfrugoli/Desktop/ProgrammingCode/DaisyCode/DaisyExamples/libDaisy/src/per/qspi.h ****         OK = 0,
  36:/Users/dominicfrugoli/Desktop/ProgrammingCode/DaisyCode/DaisyExamples/libDaisy/src/per/qspi.h ****         ERR
  37:/Users/dominicfrugoli/Desktop/ProgrammingCode/DaisyCode/DaisyExamples/libDaisy/src/per/qspi.h ****     };
  38:/Users/dominicfrugoli/Desktop/ProgrammingCode/DaisyCode/DaisyExamples/libDaisy/src/per/qspi.h **** 
  39:/Users/dominicfrugoli/Desktop/ProgrammingCode/DaisyCode/DaisyExamples/libDaisy/src/per/qspi.h ****     /** Indicates the current status of the module. 
  40:/Users/dominicfrugoli/Desktop/ProgrammingCode/DaisyCode/DaisyExamples/libDaisy/src/per/qspi.h ****          *  Warnings are indicated by a leading W.
  41:/Users/dominicfrugoli/Desktop/ProgrammingCode/DaisyCode/DaisyExamples/libDaisy/src/per/qspi.h ****          *  Errors are indicated by a leading E and cause an immediate exit.
  42:/Users/dominicfrugoli/Desktop/ProgrammingCode/DaisyCode/DaisyExamples/libDaisy/src/per/qspi.h ****          * 
  43:/Users/dominicfrugoli/Desktop/ProgrammingCode/DaisyCode/DaisyExamples/libDaisy/src/per/qspi.h ****          *  \param GOOD - No errors have been reported.
  44:/Users/dominicfrugoli/Desktop/ProgrammingCode/DaisyCode/DaisyExamples/libDaisy/src/per/qspi.h ****          *  \param E_HAL_ERROR - HAL code did not return HAL_OK.
  45:/Users/dominicfrugoli/Desktop/ProgrammingCode/DaisyCode/DaisyExamples/libDaisy/src/per/qspi.h ****          *  \param E_SWITCHING_MODES - An error was encountered while switching QSPI peripheral mod
  46:/Users/dominicfrugoli/Desktop/ProgrammingCode/DaisyCode/DaisyExamples/libDaisy/src/per/qspi.h ****          *  \param E_INVALID_MODE - QSPI should not be written to while the program is executing fr
  47:/Users/dominicfrugoli/Desktop/ProgrammingCode/DaisyCode/DaisyExamples/libDaisy/src/per/qspi.h ****          */
  48:/Users/dominicfrugoli/Desktop/ProgrammingCode/DaisyCode/DaisyExamples/libDaisy/src/per/qspi.h ****     enum Status
  49:/Users/dominicfrugoli/Desktop/ProgrammingCode/DaisyCode/DaisyExamples/libDaisy/src/per/qspi.h ****     {
  50:/Users/dominicfrugoli/Desktop/ProgrammingCode/DaisyCode/DaisyExamples/libDaisy/src/per/qspi.h ****         GOOD = 0,
  51:/Users/dominicfrugoli/Desktop/ProgrammingCode/DaisyCode/DaisyExamples/libDaisy/src/per/qspi.h ****         E_HAL_ERROR,
  52:/Users/dominicfrugoli/Desktop/ProgrammingCode/DaisyCode/DaisyExamples/libDaisy/src/per/qspi.h ****         E_SWITCHING_MODES,
  53:/Users/dominicfrugoli/Desktop/ProgrammingCode/DaisyCode/DaisyExamples/libDaisy/src/per/qspi.h ****         E_INVALID_MODE,
  54:/Users/dominicfrugoli/Desktop/ProgrammingCode/DaisyCode/DaisyExamples/libDaisy/src/per/qspi.h ****     };
  55:/Users/dominicfrugoli/Desktop/ProgrammingCode/DaisyCode/DaisyExamples/libDaisy/src/per/qspi.h **** 
  56:/Users/dominicfrugoli/Desktop/ProgrammingCode/DaisyCode/DaisyExamples/libDaisy/src/per/qspi.h ****     /** Configuration structure for interfacing with QSPI Driver */
  57:/Users/dominicfrugoli/Desktop/ProgrammingCode/DaisyCode/DaisyExamples/libDaisy/src/per/qspi.h ****     struct Config
  58:/Users/dominicfrugoli/Desktop/ProgrammingCode/DaisyCode/DaisyExamples/libDaisy/src/per/qspi.h ****     {
  59:/Users/dominicfrugoli/Desktop/ProgrammingCode/DaisyCode/DaisyExamples/libDaisy/src/per/qspi.h ****         /** Flash Devices supported. (Both of these are more-or-less the same, just different sizes
  60:/Users/dominicfrugoli/Desktop/ProgrammingCode/DaisyCode/DaisyExamples/libDaisy/src/per/qspi.h ****         enum Device
  61:/Users/dominicfrugoli/Desktop/ProgrammingCode/DaisyCode/DaisyExamples/libDaisy/src/per/qspi.h ****         {
  62:/Users/dominicfrugoli/Desktop/ProgrammingCode/DaisyCode/DaisyExamples/libDaisy/src/per/qspi.h ****             IS25LP080D,  /**< & */
  63:/Users/dominicfrugoli/Desktop/ProgrammingCode/DaisyCode/DaisyExamples/libDaisy/src/per/qspi.h ****             IS25LP064A,  /**< & */
  64:/Users/dominicfrugoli/Desktop/ProgrammingCode/DaisyCode/DaisyExamples/libDaisy/src/per/qspi.h ****             DEVICE_LAST, /**< & */
  65:/Users/dominicfrugoli/Desktop/ProgrammingCode/DaisyCode/DaisyExamples/libDaisy/src/per/qspi.h ****         };
  66:/Users/dominicfrugoli/Desktop/ProgrammingCode/DaisyCode/DaisyExamples/libDaisy/src/per/qspi.h **** 
  67:/Users/dominicfrugoli/Desktop/ProgrammingCode/DaisyCode/DaisyExamples/libDaisy/src/per/qspi.h ****         /** 
  68:/Users/dominicfrugoli/Desktop/ProgrammingCode/DaisyCode/DaisyExamples/libDaisy/src/per/qspi.h ****         Modes of operation.
  69:/Users/dominicfrugoli/Desktop/ProgrammingCode/DaisyCode/DaisyExamples/libDaisy/src/per/qspi.h ****         Memory Mapped mode: QSPI configured so that the QSPI can be
  70:/Users/dominicfrugoli/Desktop/ProgrammingCode/DaisyCode/DaisyExamples/libDaisy/src/per/qspi.h ****         read from starting address 0x90000000. Writing is not
  71:/Users/dominicfrugoli/Desktop/ProgrammingCode/DaisyCode/DaisyExamples/libDaisy/src/per/qspi.h ****         possible in this mode. \n 
  72:/Users/dominicfrugoli/Desktop/ProgrammingCode/DaisyCode/DaisyExamples/libDaisy/src/per/qspi.h ****         Indirect Polling mode: Device driver enabled. 
  73:/Users/dominicfrugoli/Desktop/ProgrammingCode/DaisyCode/DaisyExamples/libDaisy/src/per/qspi.h ****         */
  74:/Users/dominicfrugoli/Desktop/ProgrammingCode/DaisyCode/DaisyExamples/libDaisy/src/per/qspi.h ****         enum Mode
  75:/Users/dominicfrugoli/Desktop/ProgrammingCode/DaisyCode/DaisyExamples/libDaisy/src/per/qspi.h ****         {
  76:/Users/dominicfrugoli/Desktop/ProgrammingCode/DaisyCode/DaisyExamples/libDaisy/src/per/qspi.h ****             MEMORY_MAPPED,    /**< & */
  77:/Users/dominicfrugoli/Desktop/ProgrammingCode/DaisyCode/DaisyExamples/libDaisy/src/per/qspi.h ****             INDIRECT_POLLING, /**< & */
  78:/Users/dominicfrugoli/Desktop/ProgrammingCode/DaisyCode/DaisyExamples/libDaisy/src/per/qspi.h ****             MODE_LAST,
  79:/Users/dominicfrugoli/Desktop/ProgrammingCode/DaisyCode/DaisyExamples/libDaisy/src/per/qspi.h ****         };
  80:/Users/dominicfrugoli/Desktop/ProgrammingCode/DaisyCode/DaisyExamples/libDaisy/src/per/qspi.h **** 
  81:/Users/dominicfrugoli/Desktop/ProgrammingCode/DaisyCode/DaisyExamples/libDaisy/src/per/qspi.h ****         //SCK,  CE# (active low)
  82:/Users/dominicfrugoli/Desktop/ProgrammingCode/DaisyCode/DaisyExamples/libDaisy/src/per/qspi.h ****         struct
  83:/Users/dominicfrugoli/Desktop/ProgrammingCode/DaisyCode/DaisyExamples/libDaisy/src/per/qspi.h ****         {
  84:/Users/dominicfrugoli/Desktop/ProgrammingCode/DaisyCode/DaisyExamples/libDaisy/src/per/qspi.h ****             dsy_gpio_pin io0; /**< & */
  85:/Users/dominicfrugoli/Desktop/ProgrammingCode/DaisyCode/DaisyExamples/libDaisy/src/per/qspi.h ****             dsy_gpio_pin io1; /**< & */
  86:/Users/dominicfrugoli/Desktop/ProgrammingCode/DaisyCode/DaisyExamples/libDaisy/src/per/qspi.h ****             dsy_gpio_pin io2; /**< & */
  87:/Users/dominicfrugoli/Desktop/ProgrammingCode/DaisyCode/DaisyExamples/libDaisy/src/per/qspi.h ****             dsy_gpio_pin io3; /**< & */
  88:/Users/dominicfrugoli/Desktop/ProgrammingCode/DaisyCode/DaisyExamples/libDaisy/src/per/qspi.h ****             dsy_gpio_pin clk; /**< & */
  89:/Users/dominicfrugoli/Desktop/ProgrammingCode/DaisyCode/DaisyExamples/libDaisy/src/per/qspi.h ****             dsy_gpio_pin ncs; /**< & */
  90:/Users/dominicfrugoli/Desktop/ProgrammingCode/DaisyCode/DaisyExamples/libDaisy/src/per/qspi.h ****         } pin_config;
ARM GAS  /var/folders/m5/x8wc2gdj7z5cpgcqdsb_gkj40000gn/T//ccGxviRN.s 			page 192


  91:/Users/dominicfrugoli/Desktop/ProgrammingCode/DaisyCode/DaisyExamples/libDaisy/src/per/qspi.h **** 
  92:/Users/dominicfrugoli/Desktop/ProgrammingCode/DaisyCode/DaisyExamples/libDaisy/src/per/qspi.h ****         Device device;
  93:/Users/dominicfrugoli/Desktop/ProgrammingCode/DaisyCode/DaisyExamples/libDaisy/src/per/qspi.h ****         Mode   mode;
  94:/Users/dominicfrugoli/Desktop/ProgrammingCode/DaisyCode/DaisyExamples/libDaisy/src/per/qspi.h ****     };
  95:/Users/dominicfrugoli/Desktop/ProgrammingCode/DaisyCode/DaisyExamples/libDaisy/src/per/qspi.h **** 
  96:/Users/dominicfrugoli/Desktop/ProgrammingCode/DaisyCode/DaisyExamples/libDaisy/src/per/qspi.h ****     /** 
  97:/Users/dominicfrugoli/Desktop/ProgrammingCode/DaisyCode/DaisyExamples/libDaisy/src/per/qspi.h ****         Initializes QSPI peripheral, and Resets, and prepares memory for access.
  98:/Users/dominicfrugoli/Desktop/ProgrammingCode/DaisyCode/DaisyExamples/libDaisy/src/per/qspi.h ****         \param config should be populated with the mode, device and pin_config before calling this 
  99:/Users/dominicfrugoli/Desktop/ProgrammingCode/DaisyCode/DaisyExamples/libDaisy/src/per/qspi.h ****         \return Result::OK or Result::ERR
 100:/Users/dominicfrugoli/Desktop/ProgrammingCode/DaisyCode/DaisyExamples/libDaisy/src/per/qspi.h ****         */
 101:/Users/dominicfrugoli/Desktop/ProgrammingCode/DaisyCode/DaisyExamples/libDaisy/src/per/qspi.h ****     Result Init(const Config& config);
 102:/Users/dominicfrugoli/Desktop/ProgrammingCode/DaisyCode/DaisyExamples/libDaisy/src/per/qspi.h **** 
 103:/Users/dominicfrugoli/Desktop/ProgrammingCode/DaisyCode/DaisyExamples/libDaisy/src/per/qspi.h ****     /** Returns the current config. */
 104:/Users/dominicfrugoli/Desktop/ProgrammingCode/DaisyCode/DaisyExamples/libDaisy/src/per/qspi.h ****     const Config& GetConfig() const;
 105:/Users/dominicfrugoli/Desktop/ProgrammingCode/DaisyCode/DaisyExamples/libDaisy/src/per/qspi.h **** 
 106:/Users/dominicfrugoli/Desktop/ProgrammingCode/DaisyCode/DaisyExamples/libDaisy/src/per/qspi.h ****     // Couldn't this just be called before anything else in init? That
 107:/Users/dominicfrugoli/Desktop/ProgrammingCode/DaisyCode/DaisyExamples/libDaisy/src/per/qspi.h ****     // would make manually calling it unnecessary.
 108:/Users/dominicfrugoli/Desktop/ProgrammingCode/DaisyCode/DaisyExamples/libDaisy/src/per/qspi.h ****     /** 
 109:/Users/dominicfrugoli/Desktop/ProgrammingCode/DaisyCode/DaisyExamples/libDaisy/src/per/qspi.h ****         Deinitializes the peripheral
 110:/Users/dominicfrugoli/Desktop/ProgrammingCode/DaisyCode/DaisyExamples/libDaisy/src/per/qspi.h ****         This should be called before reinitializing QSPI in a different mode.
 111:/Users/dominicfrugoli/Desktop/ProgrammingCode/DaisyCode/DaisyExamples/libDaisy/src/per/qspi.h ****         \return Result::OK or Result::ERR
 112:/Users/dominicfrugoli/Desktop/ProgrammingCode/DaisyCode/DaisyExamples/libDaisy/src/per/qspi.h ****         */
 113:/Users/dominicfrugoli/Desktop/ProgrammingCode/DaisyCode/DaisyExamples/libDaisy/src/per/qspi.h ****     Result DeInit();
 114:/Users/dominicfrugoli/Desktop/ProgrammingCode/DaisyCode/DaisyExamples/libDaisy/src/per/qspi.h **** 
 115:/Users/dominicfrugoli/Desktop/ProgrammingCode/DaisyCode/DaisyExamples/libDaisy/src/per/qspi.h ****     /** 
 116:/Users/dominicfrugoli/Desktop/ProgrammingCode/DaisyCode/DaisyExamples/libDaisy/src/per/qspi.h ****         Writes a single page to to the specified address on the QSPI chip.
 117:/Users/dominicfrugoli/Desktop/ProgrammingCode/DaisyCode/DaisyExamples/libDaisy/src/per/qspi.h ****         For IS25LP*, page size is 256 bytes.
 118:/Users/dominicfrugoli/Desktop/ProgrammingCode/DaisyCode/DaisyExamples/libDaisy/src/per/qspi.h ****         \param address Address to write to
 119:/Users/dominicfrugoli/Desktop/ProgrammingCode/DaisyCode/DaisyExamples/libDaisy/src/per/qspi.h ****         \param size Buffer size
 120:/Users/dominicfrugoli/Desktop/ProgrammingCode/DaisyCode/DaisyExamples/libDaisy/src/per/qspi.h ****         \param buffer Buffer to write
 121:/Users/dominicfrugoli/Desktop/ProgrammingCode/DaisyCode/DaisyExamples/libDaisy/src/per/qspi.h ****         \return Result::OK or Result::ERR
 122:/Users/dominicfrugoli/Desktop/ProgrammingCode/DaisyCode/DaisyExamples/libDaisy/src/per/qspi.h ****         */
 123:/Users/dominicfrugoli/Desktop/ProgrammingCode/DaisyCode/DaisyExamples/libDaisy/src/per/qspi.h ****     Result WritePage(uint32_t address, uint32_t size, uint8_t* buffer);
 124:/Users/dominicfrugoli/Desktop/ProgrammingCode/DaisyCode/DaisyExamples/libDaisy/src/per/qspi.h **** 
 125:/Users/dominicfrugoli/Desktop/ProgrammingCode/DaisyCode/DaisyExamples/libDaisy/src/per/qspi.h ****     /** 
 126:/Users/dominicfrugoli/Desktop/ProgrammingCode/DaisyCode/DaisyExamples/libDaisy/src/per/qspi.h ****         Writes data in buffer to to the QSPI. Starting at address to address+size 
 127:/Users/dominicfrugoli/Desktop/ProgrammingCode/DaisyCode/DaisyExamples/libDaisy/src/per/qspi.h ****         \param address Address to write to
 128:/Users/dominicfrugoli/Desktop/ProgrammingCode/DaisyCode/DaisyExamples/libDaisy/src/per/qspi.h ****         \param size Buffer size
 129:/Users/dominicfrugoli/Desktop/ProgrammingCode/DaisyCode/DaisyExamples/libDaisy/src/per/qspi.h ****         \param buffer Buffer to write
 130:/Users/dominicfrugoli/Desktop/ProgrammingCode/DaisyCode/DaisyExamples/libDaisy/src/per/qspi.h ****         \return Result::OK or Result::ERR
 131:/Users/dominicfrugoli/Desktop/ProgrammingCode/DaisyCode/DaisyExamples/libDaisy/src/per/qspi.h ****         */
 132:/Users/dominicfrugoli/Desktop/ProgrammingCode/DaisyCode/DaisyExamples/libDaisy/src/per/qspi.h ****     Result Write(uint32_t address, uint32_t size, uint8_t* buffer);
 133:/Users/dominicfrugoli/Desktop/ProgrammingCode/DaisyCode/DaisyExamples/libDaisy/src/per/qspi.h **** 
 134:/Users/dominicfrugoli/Desktop/ProgrammingCode/DaisyCode/DaisyExamples/libDaisy/src/per/qspi.h ****     /** 
 135:/Users/dominicfrugoli/Desktop/ProgrammingCode/DaisyCode/DaisyExamples/libDaisy/src/per/qspi.h ****         Erases the area specified on the chip.
 136:/Users/dominicfrugoli/Desktop/ProgrammingCode/DaisyCode/DaisyExamples/libDaisy/src/per/qspi.h ****         Erasures will happen by 4K, 32K or 64K increments.
 137:/Users/dominicfrugoli/Desktop/ProgrammingCode/DaisyCode/DaisyExamples/libDaisy/src/per/qspi.h ****         Smallest erase possible is 4kB at a time. (on IS25LP*)
 138:/Users/dominicfrugoli/Desktop/ProgrammingCode/DaisyCode/DaisyExamples/libDaisy/src/per/qspi.h ****         \param start_addr Address to begin erasing from
 139:/Users/dominicfrugoli/Desktop/ProgrammingCode/DaisyCode/DaisyExamples/libDaisy/src/per/qspi.h ****         \param end_addr  Address to stop erasing at
 140:/Users/dominicfrugoli/Desktop/ProgrammingCode/DaisyCode/DaisyExamples/libDaisy/src/per/qspi.h ****         \return Result::OK or Result::ERR
 141:/Users/dominicfrugoli/Desktop/ProgrammingCode/DaisyCode/DaisyExamples/libDaisy/src/per/qspi.h ****         */
 142:/Users/dominicfrugoli/Desktop/ProgrammingCode/DaisyCode/DaisyExamples/libDaisy/src/per/qspi.h ****     Result Erase(uint32_t start_addr, uint32_t end_addr);
 143:/Users/dominicfrugoli/Desktop/ProgrammingCode/DaisyCode/DaisyExamples/libDaisy/src/per/qspi.h **** 
 144:/Users/dominicfrugoli/Desktop/ProgrammingCode/DaisyCode/DaisyExamples/libDaisy/src/per/qspi.h ****     /**  
 145:/Users/dominicfrugoli/Desktop/ProgrammingCode/DaisyCode/DaisyExamples/libDaisy/src/per/qspi.h ****          Erases a single sector of the chip.  
 146:/Users/dominicfrugoli/Desktop/ProgrammingCode/DaisyCode/DaisyExamples/libDaisy/src/per/qspi.h ****         TODO: Document the size of this function. 
 147:/Users/dominicfrugoli/Desktop/ProgrammingCode/DaisyCode/DaisyExamples/libDaisy/src/per/qspi.h ****         \param address Address of sector to erase
ARM GAS  /var/folders/m5/x8wc2gdj7z5cpgcqdsb_gkj40000gn/T//ccGxviRN.s 			page 193


 148:/Users/dominicfrugoli/Desktop/ProgrammingCode/DaisyCode/DaisyExamples/libDaisy/src/per/qspi.h ****         \return Result::OK or Result::ERR
 149:/Users/dominicfrugoli/Desktop/ProgrammingCode/DaisyCode/DaisyExamples/libDaisy/src/per/qspi.h ****         */
 150:/Users/dominicfrugoli/Desktop/ProgrammingCode/DaisyCode/DaisyExamples/libDaisy/src/per/qspi.h ****     Result EraseSector(uint32_t address);
 151:/Users/dominicfrugoli/Desktop/ProgrammingCode/DaisyCode/DaisyExamples/libDaisy/src/per/qspi.h **** 
 152:/Users/dominicfrugoli/Desktop/ProgrammingCode/DaisyCode/DaisyExamples/libDaisy/src/per/qspi.h ****     /** Returns the current class status. Useful for debugging.
 153:/Users/dominicfrugoli/Desktop/ProgrammingCode/DaisyCode/DaisyExamples/libDaisy/src/per/qspi.h ****      *  \returns Status
 154:/Users/dominicfrugoli/Desktop/ProgrammingCode/DaisyCode/DaisyExamples/libDaisy/src/per/qspi.h ****      */
 155:/Users/dominicfrugoli/Desktop/ProgrammingCode/DaisyCode/DaisyExamples/libDaisy/src/per/qspi.h ****     Status GetStatus();
 156:/Users/dominicfrugoli/Desktop/ProgrammingCode/DaisyCode/DaisyExamples/libDaisy/src/per/qspi.h **** 
 157:/Users/dominicfrugoli/Desktop/ProgrammingCode/DaisyCode/DaisyExamples/libDaisy/src/per/qspi.h ****     /** Returns a pointer to the actual memory used 
 158:/Users/dominicfrugoli/Desktop/ProgrammingCode/DaisyCode/DaisyExamples/libDaisy/src/per/qspi.h ****      *  The memory at this address is read-only
 159:/Users/dominicfrugoli/Desktop/ProgrammingCode/DaisyCode/DaisyExamples/libDaisy/src/per/qspi.h ****      *  to write to it use the Write function.
 160:/Users/dominicfrugoli/Desktop/ProgrammingCode/DaisyCode/DaisyExamples/libDaisy/src/per/qspi.h ****      * 
 161:/Users/dominicfrugoli/Desktop/ProgrammingCode/DaisyCode/DaisyExamples/libDaisy/src/per/qspi.h ****      *  \param offset returns the pointer starting this 
 162:/Users/dominicfrugoli/Desktop/ProgrammingCode/DaisyCode/DaisyExamples/libDaisy/src/per/qspi.h ****      *                many bytes into the memory
 163:/Users/dominicfrugoli/Desktop/ProgrammingCode/DaisyCode/DaisyExamples/libDaisy/src/per/qspi.h ****     */
 164:/Users/dominicfrugoli/Desktop/ProgrammingCode/DaisyCode/DaisyExamples/libDaisy/src/per/qspi.h ****     void* GetData(uint32_t offset = 0);
 165:/Users/dominicfrugoli/Desktop/ProgrammingCode/DaisyCode/DaisyExamples/libDaisy/src/per/qspi.h **** 
 166:/Users/dominicfrugoli/Desktop/ProgrammingCode/DaisyCode/DaisyExamples/libDaisy/src/per/qspi.h ****     QSPIHandle() : pimpl_(nullptr) {}
 7269              		.loc 19 166 5 view .LVU1902
 7270              	.LBB1274:
 7271              	.LBB1275:
 7272              		.loc 19 166 34 is_stmt 0 view .LVU1903
 7273 003e 0023     		movs	r3, #0
 7274 0040 1248     		ldr	r0, .L489+52
 7275              	.LBE1275:
 7276              	.LBE1274:
 7277              	.LBE1273:
 7278              	.LBE1272:
 7279              	.LBE1271:
  29:sardinia.cpp  **** 
 7280              		.loc 17 29 11 view .LVU1904
 7281 0042 054A     		ldr	r2, .L489
 7282              	.LBB1292:
 7283              	.LBB1291:
 7284              	.LBB1278:
 7285              	.LBB1277:
 7286              	.LBB1276:
 7287              		.loc 19 166 34 view .LVU1905
 7288 0044 0360     		str	r3, [r0]
 7289              	.LVL431:
 7290              		.loc 19 166 34 view .LVU1906
 7291              	.LBE1276:
 7292              	.LBE1277:
 7293              	.LBE1278:
 7294              	.LBB1279:
 7295              	.LBI1279:
  95:/Users/dominicfrugoli/Desktop/ProgrammingCode/DaisyCode/DaisyExamples/libDaisy/src/hid/audio.h ****     ~AudioHandle() {}
 7296              		.loc 8 95 5 is_stmt 1 view .LVU1907
 7297              	.LBB1280:
 7298              	.LBB1281:
  95:/Users/dominicfrugoli/Desktop/ProgrammingCode/DaisyCode/DaisyExamples/libDaisy/src/hid/audio.h ****     ~AudioHandle() {}
 7299              		.loc 8 95 35 is_stmt 0 view .LVU1908
 7300 0046 4361     		str	r3, [r0, #20]
 7301              	.LVL432:
  95:/Users/dominicfrugoli/Desktop/ProgrammingCode/DaisyCode/DaisyExamples/libDaisy/src/hid/audio.h ****     ~AudioHandle() {}
 7302              		.loc 8 95 35 view .LVU1909
ARM GAS  /var/folders/m5/x8wc2gdj7z5cpgcqdsb_gkj40000gn/T//ccGxviRN.s 			page 194


 7303              	.LBE1281:
 7304              	.LBE1280:
 7305              	.LBE1279:
 7306              	.LBB1282:
 7307              	.LBI1282:
 109:/Users/dominicfrugoli/Desktop/ProgrammingCode/DaisyCode/DaisyExamples/libDaisy/src/per/adc.h ****     ~AdcHandle() {}
 7308              		.loc 7 109 5 is_stmt 1 view .LVU1910
 109:/Users/dominicfrugoli/Desktop/ProgrammingCode/DaisyCode/DaisyExamples/libDaisy/src/per/adc.h ****     ~AdcHandle() {}
 7309              		.loc 7 109 5 is_stmt 0 view .LVU1911
 7310              	.LBE1282:
 7311              	.LBB1283:
 7312              	.LBI1283:
 7313              		.file 20 "/Users/dominicfrugoli/Desktop/ProgrammingCode/DaisyCode/DaisyExamples/libDaisy/src/per/d
   1:/Users/dominicfrugoli/Desktop/ProgrammingCode/DaisyCode/DaisyExamples/libDaisy/src/per/dac.h **** #pragma once
   2:/Users/dominicfrugoli/Desktop/ProgrammingCode/DaisyCode/DaisyExamples/libDaisy/src/per/dac.h **** #ifndef DSY_DAC_H
   3:/Users/dominicfrugoli/Desktop/ProgrammingCode/DaisyCode/DaisyExamples/libDaisy/src/per/dac.h **** #define DSY_DAC_H
   4:/Users/dominicfrugoli/Desktop/ProgrammingCode/DaisyCode/DaisyExamples/libDaisy/src/per/dac.h **** 
   5:/Users/dominicfrugoli/Desktop/ProgrammingCode/DaisyCode/DaisyExamples/libDaisy/src/per/dac.h **** #include "daisy_core.h"
   6:/Users/dominicfrugoli/Desktop/ProgrammingCode/DaisyCode/DaisyExamples/libDaisy/src/per/dac.h **** 
   7:/Users/dominicfrugoli/Desktop/ProgrammingCode/DaisyCode/DaisyExamples/libDaisy/src/per/dac.h **** namespace daisy
   8:/Users/dominicfrugoli/Desktop/ProgrammingCode/DaisyCode/DaisyExamples/libDaisy/src/per/dac.h **** {
   9:/Users/dominicfrugoli/Desktop/ProgrammingCode/DaisyCode/DaisyExamples/libDaisy/src/per/dac.h **** /** @brief DAC handle for Built-in DAC Peripheral 
  10:/Users/dominicfrugoli/Desktop/ProgrammingCode/DaisyCode/DaisyExamples/libDaisy/src/per/dac.h ****  *  @ingroup per_analog
  11:/Users/dominicfrugoli/Desktop/ProgrammingCode/DaisyCode/DaisyExamples/libDaisy/src/per/dac.h ****  ** 
  12:/Users/dominicfrugoli/Desktop/ProgrammingCode/DaisyCode/DaisyExamples/libDaisy/src/per/dac.h ****  ** For now only Normal Mode is supported,
  13:/Users/dominicfrugoli/Desktop/ProgrammingCode/DaisyCode/DaisyExamples/libDaisy/src/per/dac.h ****  ** Sample and hold mode provides reduced power consumption, but requires a bit more setup.
  14:/Users/dominicfrugoli/Desktop/ProgrammingCode/DaisyCode/DaisyExamples/libDaisy/src/per/dac.h ****  **
  15:/Users/dominicfrugoli/Desktop/ProgrammingCode/DaisyCode/DaisyExamples/libDaisy/src/per/dac.h ****  ** For now connecting the DAC through other internal peripherals is also not supported.
  16:/Users/dominicfrugoli/Desktop/ProgrammingCode/DaisyCode/DaisyExamples/libDaisy/src/per/dac.h ****  **
  17:/Users/dominicfrugoli/Desktop/ProgrammingCode/DaisyCode/DaisyExamples/libDaisy/src/per/dac.h ****  ** Since the DAC channels have dedicated pins we don't need to pass in a pin config like with
  18:/Users/dominicfrugoli/Desktop/ProgrammingCode/DaisyCode/DaisyExamples/libDaisy/src/per/dac.h ****  ** other modules. However, it is still important to not try to use the DAC pins for anything else.
  19:/Users/dominicfrugoli/Desktop/ProgrammingCode/DaisyCode/DaisyExamples/libDaisy/src/per/dac.h ****  ** DAC Channel 1 is on PA4, and DAC Channel 2 is on PA5
  20:/Users/dominicfrugoli/Desktop/ProgrammingCode/DaisyCode/DaisyExamples/libDaisy/src/per/dac.h ****  ***/
  21:/Users/dominicfrugoli/Desktop/ProgrammingCode/DaisyCode/DaisyExamples/libDaisy/src/per/dac.h **** class DacHandle
  22:/Users/dominicfrugoli/Desktop/ProgrammingCode/DaisyCode/DaisyExamples/libDaisy/src/per/dac.h **** {
  23:/Users/dominicfrugoli/Desktop/ProgrammingCode/DaisyCode/DaisyExamples/libDaisy/src/per/dac.h ****   public:
  24:/Users/dominicfrugoli/Desktop/ProgrammingCode/DaisyCode/DaisyExamples/libDaisy/src/per/dac.h ****     /** Return Values for the DacHandle class */
  25:/Users/dominicfrugoli/Desktop/ProgrammingCode/DaisyCode/DaisyExamples/libDaisy/src/per/dac.h ****     enum class Result
  26:/Users/dominicfrugoli/Desktop/ProgrammingCode/DaisyCode/DaisyExamples/libDaisy/src/per/dac.h ****     {
  27:/Users/dominicfrugoli/Desktop/ProgrammingCode/DaisyCode/DaisyExamples/libDaisy/src/per/dac.h ****         OK,
  28:/Users/dominicfrugoli/Desktop/ProgrammingCode/DaisyCode/DaisyExamples/libDaisy/src/per/dac.h ****         ERR,
  29:/Users/dominicfrugoli/Desktop/ProgrammingCode/DaisyCode/DaisyExamples/libDaisy/src/per/dac.h ****     };
  30:/Users/dominicfrugoli/Desktop/ProgrammingCode/DaisyCode/DaisyExamples/libDaisy/src/per/dac.h **** 
  31:/Users/dominicfrugoli/Desktop/ProgrammingCode/DaisyCode/DaisyExamples/libDaisy/src/per/dac.h ****     /** Selects which channel(s) will be configured for use. */
  32:/Users/dominicfrugoli/Desktop/ProgrammingCode/DaisyCode/DaisyExamples/libDaisy/src/per/dac.h ****     enum class Channel
  33:/Users/dominicfrugoli/Desktop/ProgrammingCode/DaisyCode/DaisyExamples/libDaisy/src/per/dac.h ****     {
  34:/Users/dominicfrugoli/Desktop/ProgrammingCode/DaisyCode/DaisyExamples/libDaisy/src/per/dac.h ****         ONE,
  35:/Users/dominicfrugoli/Desktop/ProgrammingCode/DaisyCode/DaisyExamples/libDaisy/src/per/dac.h ****         TWO,
  36:/Users/dominicfrugoli/Desktop/ProgrammingCode/DaisyCode/DaisyExamples/libDaisy/src/per/dac.h ****         BOTH,
  37:/Users/dominicfrugoli/Desktop/ProgrammingCode/DaisyCode/DaisyExamples/libDaisy/src/per/dac.h ****     };
  38:/Users/dominicfrugoli/Desktop/ProgrammingCode/DaisyCode/DaisyExamples/libDaisy/src/per/dac.h **** 
  39:/Users/dominicfrugoli/Desktop/ProgrammingCode/DaisyCode/DaisyExamples/libDaisy/src/per/dac.h ****     /** Sets the Mode for the DAC channels.
  40:/Users/dominicfrugoli/Desktop/ProgrammingCode/DaisyCode/DaisyExamples/libDaisy/src/per/dac.h ****      **
  41:/Users/dominicfrugoli/Desktop/ProgrammingCode/DaisyCode/DaisyExamples/libDaisy/src/per/dac.h ****      ** Polling mode uses the blocking mode to transmit a single value at a time.
  42:/Users/dominicfrugoli/Desktop/ProgrammingCode/DaisyCode/DaisyExamples/libDaisy/src/per/dac.h ****      **
  43:/Users/dominicfrugoli/Desktop/ProgrammingCode/DaisyCode/DaisyExamples/libDaisy/src/per/dac.h ****      ** DMA mode uses a buffer, and periodically transmits it triggering a 
  44:/Users/dominicfrugoli/Desktop/ProgrammingCode/DaisyCode/DaisyExamples/libDaisy/src/per/dac.h ****      ** callback to fill the buffer when it is ready for more samples.
ARM GAS  /var/folders/m5/x8wc2gdj7z5cpgcqdsb_gkj40000gn/T//ccGxviRN.s 			page 195


  45:/Users/dominicfrugoli/Desktop/ProgrammingCode/DaisyCode/DaisyExamples/libDaisy/src/per/dac.h ****      ***/
  46:/Users/dominicfrugoli/Desktop/ProgrammingCode/DaisyCode/DaisyExamples/libDaisy/src/per/dac.h ****     enum class Mode
  47:/Users/dominicfrugoli/Desktop/ProgrammingCode/DaisyCode/DaisyExamples/libDaisy/src/per/dac.h ****     {
  48:/Users/dominicfrugoli/Desktop/ProgrammingCode/DaisyCode/DaisyExamples/libDaisy/src/per/dac.h ****         POLLING,
  49:/Users/dominicfrugoli/Desktop/ProgrammingCode/DaisyCode/DaisyExamples/libDaisy/src/per/dac.h ****         DMA,
  50:/Users/dominicfrugoli/Desktop/ProgrammingCode/DaisyCode/DaisyExamples/libDaisy/src/per/dac.h ****     };
  51:/Users/dominicfrugoli/Desktop/ProgrammingCode/DaisyCode/DaisyExamples/libDaisy/src/per/dac.h **** 
  52:/Users/dominicfrugoli/Desktop/ProgrammingCode/DaisyCode/DaisyExamples/libDaisy/src/per/dac.h ****     /** Sets the number of bits per sample transmitted out of the DAC.
  53:/Users/dominicfrugoli/Desktop/ProgrammingCode/DaisyCode/DaisyExamples/libDaisy/src/per/dac.h ****      ** The output range will be: 0V - VDDA
  54:/Users/dominicfrugoli/Desktop/ProgrammingCode/DaisyCode/DaisyExamples/libDaisy/src/per/dac.h ****      ** The resolution will be roughly: bitdepth / (VDDA - 0V) 
  55:/Users/dominicfrugoli/Desktop/ProgrammingCode/DaisyCode/DaisyExamples/libDaisy/src/per/dac.h ****      ***/
  56:/Users/dominicfrugoli/Desktop/ProgrammingCode/DaisyCode/DaisyExamples/libDaisy/src/per/dac.h ****     enum class BitDepth
  57:/Users/dominicfrugoli/Desktop/ProgrammingCode/DaisyCode/DaisyExamples/libDaisy/src/per/dac.h ****     {
  58:/Users/dominicfrugoli/Desktop/ProgrammingCode/DaisyCode/DaisyExamples/libDaisy/src/per/dac.h ****         BITS_8,
  59:/Users/dominicfrugoli/Desktop/ProgrammingCode/DaisyCode/DaisyExamples/libDaisy/src/per/dac.h ****         BITS_12
  60:/Users/dominicfrugoli/Desktop/ProgrammingCode/DaisyCode/DaisyExamples/libDaisy/src/per/dac.h ****     };
  61:/Users/dominicfrugoli/Desktop/ProgrammingCode/DaisyCode/DaisyExamples/libDaisy/src/per/dac.h **** 
  62:/Users/dominicfrugoli/Desktop/ProgrammingCode/DaisyCode/DaisyExamples/libDaisy/src/per/dac.h ****     /** Sets whether the DAC output is buffered for higher drive ability. */
  63:/Users/dominicfrugoli/Desktop/ProgrammingCode/DaisyCode/DaisyExamples/libDaisy/src/per/dac.h ****     enum class BufferState
  64:/Users/dominicfrugoli/Desktop/ProgrammingCode/DaisyCode/DaisyExamples/libDaisy/src/per/dac.h ****     {
  65:/Users/dominicfrugoli/Desktop/ProgrammingCode/DaisyCode/DaisyExamples/libDaisy/src/per/dac.h ****         ENABLED,
  66:/Users/dominicfrugoli/Desktop/ProgrammingCode/DaisyCode/DaisyExamples/libDaisy/src/per/dac.h ****         DISABLED,
  67:/Users/dominicfrugoli/Desktop/ProgrammingCode/DaisyCode/DaisyExamples/libDaisy/src/per/dac.h ****     };
  68:/Users/dominicfrugoli/Desktop/ProgrammingCode/DaisyCode/DaisyExamples/libDaisy/src/per/dac.h **** 
  69:/Users/dominicfrugoli/Desktop/ProgrammingCode/DaisyCode/DaisyExamples/libDaisy/src/per/dac.h ****     /** Configuration structure for initializing the DAC structure. */
  70:/Users/dominicfrugoli/Desktop/ProgrammingCode/DaisyCode/DaisyExamples/libDaisy/src/per/dac.h ****     struct Config
  71:/Users/dominicfrugoli/Desktop/ProgrammingCode/DaisyCode/DaisyExamples/libDaisy/src/per/dac.h ****     {
  72:/Users/dominicfrugoli/Desktop/ProgrammingCode/DaisyCode/DaisyExamples/libDaisy/src/per/dac.h ****         /** Target Samplerate in Hz used to configure the internal 
  73:/Users/dominicfrugoli/Desktop/ProgrammingCode/DaisyCode/DaisyExamples/libDaisy/src/per/dac.h ****          ** timebase for DMA mode. Does nothing in POLLING mode.
  74:/Users/dominicfrugoli/Desktop/ProgrammingCode/DaisyCode/DaisyExamples/libDaisy/src/per/dac.h ****          ** If the value is 0 at Init time this will default to 48000Hz 
  75:/Users/dominicfrugoli/Desktop/ProgrammingCode/DaisyCode/DaisyExamples/libDaisy/src/per/dac.h ****          ** otherwise the driver will attempt meet the target.*/
  76:/Users/dominicfrugoli/Desktop/ProgrammingCode/DaisyCode/DaisyExamples/libDaisy/src/per/dac.h ****         uint32_t target_samplerate;
  77:/Users/dominicfrugoli/Desktop/ProgrammingCode/DaisyCode/DaisyExamples/libDaisy/src/per/dac.h **** 
  78:/Users/dominicfrugoli/Desktop/ProgrammingCode/DaisyCode/DaisyExamples/libDaisy/src/per/dac.h ****         Channel     chn;
  79:/Users/dominicfrugoli/Desktop/ProgrammingCode/DaisyCode/DaisyExamples/libDaisy/src/per/dac.h ****         Mode        mode;
  80:/Users/dominicfrugoli/Desktop/ProgrammingCode/DaisyCode/DaisyExamples/libDaisy/src/per/dac.h ****         BitDepth    bitdepth;
  81:/Users/dominicfrugoli/Desktop/ProgrammingCode/DaisyCode/DaisyExamples/libDaisy/src/per/dac.h ****         BufferState buff_state;
  82:/Users/dominicfrugoli/Desktop/ProgrammingCode/DaisyCode/DaisyExamples/libDaisy/src/per/dac.h ****     };
  83:/Users/dominicfrugoli/Desktop/ProgrammingCode/DaisyCode/DaisyExamples/libDaisy/src/per/dac.h **** 
  84:/Users/dominicfrugoli/Desktop/ProgrammingCode/DaisyCode/DaisyExamples/libDaisy/src/per/dac.h ****     DacHandle() : pimpl_(nullptr) {}
 7314              		.loc 20 84 5 is_stmt 1 view .LVU1912
 7315              	.LBB1284:
 7316              	.LBB1285:
 7317              		.loc 20 84 33 is_stmt 0 view .LVU1913
 7318 0048 0362     		str	r3, [r0, #32]
 7319              	.LVL433:
 7320              		.loc 20 84 33 view .LVU1914
 7321              	.LBE1285:
 7322              	.LBE1284:
 7323              	.LBE1283:
 7324              	.LBB1286:
 7325              	.LBI1286:
  40:/Users/dominicfrugoli/Desktop/ProgrammingCode/DaisyCode/DaisyExamples/libDaisy/src/hid/usb.h **** 
 7326              		.loc 6 40 5 is_stmt 1 view .LVU1915
  40:/Users/dominicfrugoli/Desktop/ProgrammingCode/DaisyCode/DaisyExamples/libDaisy/src/hid/usb.h **** 
 7327              		.loc 6 40 5 is_stmt 0 view .LVU1916
 7328              	.LBE1286:
ARM GAS  /var/folders/m5/x8wc2gdj7z5cpgcqdsb_gkj40000gn/T//ccGxviRN.s 			page 196


 7329              	.LBB1287:
 7330              	.LBI1287:
  96:/Users/dominicfrugoli/Desktop/ProgrammingCode/DaisyCode/DaisyExamples/libDaisy/src/sys/system.h ****     ~System() {}
 7331              		.loc 5 96 5 is_stmt 1 view .LVU1917
  96:/Users/dominicfrugoli/Desktop/ProgrammingCode/DaisyCode/DaisyExamples/libDaisy/src/sys/system.h ****     ~System() {}
 7332              		.loc 5 96 5 is_stmt 0 view .LVU1918
 7333              	.LBE1287:
 7334              	.LBB1288:
 7335              	.LBI1288:
 7336              		.file 21 "/Users/dominicfrugoli/Desktop/ProgrammingCode/DaisyCode/DaisyExamples/libDaisy/src/per/s
   1:/Users/dominicfrugoli/Desktop/ProgrammingCode/DaisyCode/DaisyExamples/libDaisy/src/per/sai.h **** #pragma once
   2:/Users/dominicfrugoli/Desktop/ProgrammingCode/DaisyCode/DaisyExamples/libDaisy/src/per/sai.h **** #ifndef DSY_SAI_H
   3:/Users/dominicfrugoli/Desktop/ProgrammingCode/DaisyCode/DaisyExamples/libDaisy/src/per/sai.h **** #define DSY_SAI_H
   4:/Users/dominicfrugoli/Desktop/ProgrammingCode/DaisyCode/DaisyExamples/libDaisy/src/per/sai.h **** 
   5:/Users/dominicfrugoli/Desktop/ProgrammingCode/DaisyCode/DaisyExamples/libDaisy/src/per/sai.h **** #include "daisy_core.h"
   6:/Users/dominicfrugoli/Desktop/ProgrammingCode/DaisyCode/DaisyExamples/libDaisy/src/per/sai.h **** 
   7:/Users/dominicfrugoli/Desktop/ProgrammingCode/DaisyCode/DaisyExamples/libDaisy/src/per/sai.h **** namespace daisy
   8:/Users/dominicfrugoli/Desktop/ProgrammingCode/DaisyCode/DaisyExamples/libDaisy/src/per/sai.h **** {
   9:/Users/dominicfrugoli/Desktop/ProgrammingCode/DaisyCode/DaisyExamples/libDaisy/src/per/sai.h **** /** 
  10:/Users/dominicfrugoli/Desktop/ProgrammingCode/DaisyCode/DaisyExamples/libDaisy/src/per/sai.h ****  * Support for I2S Audio Protocol with different bit-depth, samplerate options
  11:/Users/dominicfrugoli/Desktop/ProgrammingCode/DaisyCode/DaisyExamples/libDaisy/src/per/sai.h ****  * Allows for master or slave, as well as freedom of selecting direction, 
  12:/Users/dominicfrugoli/Desktop/ProgrammingCode/DaisyCode/DaisyExamples/libDaisy/src/per/sai.h ****  * and other behavior for each peripheral, and block.
  13:/Users/dominicfrugoli/Desktop/ProgrammingCode/DaisyCode/DaisyExamples/libDaisy/src/per/sai.h ****  * 
  14:/Users/dominicfrugoli/Desktop/ProgrammingCode/DaisyCode/DaisyExamples/libDaisy/src/per/sai.h ****  * DMA Transfer commands must use buffers located within non-cached memory or use cache maintenance
  15:/Users/dominicfrugoli/Desktop/ProgrammingCode/DaisyCode/DaisyExamples/libDaisy/src/per/sai.h ****  * To declare an unitialized global element in the DMA memory section:
  16:/Users/dominicfrugoli/Desktop/ProgrammingCode/DaisyCode/DaisyExamples/libDaisy/src/per/sai.h ****  *    int32_t DSY_DMA_BUFFER_SECTOR my_buffer[96];
  17:/Users/dominicfrugoli/Desktop/ProgrammingCode/DaisyCode/DaisyExamples/libDaisy/src/per/sai.h ****  *
  18:/Users/dominicfrugoli/Desktop/ProgrammingCode/DaisyCode/DaisyExamples/libDaisy/src/per/sai.h ****  * Callback functions will be called once per half of the buffer. In the above example, 
  19:/Users/dominicfrugoli/Desktop/ProgrammingCode/DaisyCode/DaisyExamples/libDaisy/src/per/sai.h ****  * the callback function would be called once for every 48 samples.
  20:/Users/dominicfrugoli/Desktop/ProgrammingCode/DaisyCode/DaisyExamples/libDaisy/src/per/sai.h ****  * 
  21:/Users/dominicfrugoli/Desktop/ProgrammingCode/DaisyCode/DaisyExamples/libDaisy/src/per/sai.h ****  * Use SAI Handle like this:
  22:/Users/dominicfrugoli/Desktop/ProgrammingCode/DaisyCode/DaisyExamples/libDaisy/src/per/sai.h ****  * 
  23:/Users/dominicfrugoli/Desktop/ProgrammingCode/DaisyCode/DaisyExamples/libDaisy/src/per/sai.h ****  *  SaiHandle::Config sai_config;
  24:/Users/dominicfrugoli/Desktop/ProgrammingCode/DaisyCode/DaisyExamples/libDaisy/src/per/sai.h ****  *  sai_config.periph          = SaiHandle::Config::Peripheral::SAI_1;
  25:/Users/dominicfrugoli/Desktop/ProgrammingCode/DaisyCode/DaisyExamples/libDaisy/src/per/sai.h ****  *  sai_config.sr              = SaiHandle::Config::SampleRate::SAI_48KHZ;
  26:/Users/dominicfrugoli/Desktop/ProgrammingCode/DaisyCode/DaisyExamples/libDaisy/src/per/sai.h ****  *  sai_config.bit_depth       = SaiHandle::Config::BitDepth::SAI_24BIT;
  27:/Users/dominicfrugoli/Desktop/ProgrammingCode/DaisyCode/DaisyExamples/libDaisy/src/per/sai.h ****  *  sai_config.a_sync          = SaiHandle::Config::Sync::MASTER;
  28:/Users/dominicfrugoli/Desktop/ProgrammingCode/DaisyCode/DaisyExamples/libDaisy/src/per/sai.h ****  *  sai_config.b_sync          = SaiHandle::Config::Sync::SLAVE;
  29:/Users/dominicfrugoli/Desktop/ProgrammingCode/DaisyCode/DaisyExamples/libDaisy/src/per/sai.h ****  *  sai_config.a_dir           = SaiHandle::Config::Direction::RECEIVE;
  30:/Users/dominicfrugoli/Desktop/ProgrammingCode/DaisyCode/DaisyExamples/libDaisy/src/per/sai.h ****  *  sai_config.b_dir           = SaiHandle::Config::Direction::TRANSMIT;
  31:/Users/dominicfrugoli/Desktop/ProgrammingCode/DaisyCode/DaisyExamples/libDaisy/src/per/sai.h ****  *  sai_config.pin_config.fs   = {DSY_GPIOE, 4};
  32:/Users/dominicfrugoli/Desktop/ProgrammingCode/DaisyCode/DaisyExamples/libDaisy/src/per/sai.h ****  *  sai_config.pin_config.mclk = {DSY_GPIOE, 2};
  33:/Users/dominicfrugoli/Desktop/ProgrammingCode/DaisyCode/DaisyExamples/libDaisy/src/per/sai.h ****  *  sai_config.pin_config.sck  = {DSY_GPIOE, 5};
  34:/Users/dominicfrugoli/Desktop/ProgrammingCode/DaisyCode/DaisyExamples/libDaisy/src/per/sai.h ****  *  sai_config.pin_config.sa   = {DSY_GPIOE, 6};
  35:/Users/dominicfrugoli/Desktop/ProgrammingCode/DaisyCode/DaisyExamples/libDaisy/src/per/sai.h ****  *  sai_config.pin_config.sb   = {DSY_GPIOE, 3};
  36:/Users/dominicfrugoli/Desktop/ProgrammingCode/DaisyCode/DaisyExamples/libDaisy/src/per/sai.h ****  *  // Then Initialize
  37:/Users/dominicfrugoli/Desktop/ProgrammingCode/DaisyCode/DaisyExamples/libDaisy/src/per/sai.h ****  *  SaiHandle sai;
  38:/Users/dominicfrugoli/Desktop/ProgrammingCode/DaisyCode/DaisyExamples/libDaisy/src/per/sai.h ****  *  sai.Init(sai_config);
  39:/Users/dominicfrugoli/Desktop/ProgrammingCode/DaisyCode/DaisyExamples/libDaisy/src/per/sai.h ****  *  // Now you can use it:
  40:/Users/dominicfrugoli/Desktop/ProgrammingCode/DaisyCode/DaisyExamples/libDaisy/src/per/sai.h ****  *  sai.StartDma(. . .);
  41:/Users/dominicfrugoli/Desktop/ProgrammingCode/DaisyCode/DaisyExamples/libDaisy/src/per/sai.h ****  */
  42:/Users/dominicfrugoli/Desktop/ProgrammingCode/DaisyCode/DaisyExamples/libDaisy/src/per/sai.h **** class SaiHandle
  43:/Users/dominicfrugoli/Desktop/ProgrammingCode/DaisyCode/DaisyExamples/libDaisy/src/per/sai.h **** {
  44:/Users/dominicfrugoli/Desktop/ProgrammingCode/DaisyCode/DaisyExamples/libDaisy/src/per/sai.h ****   public:
  45:/Users/dominicfrugoli/Desktop/ProgrammingCode/DaisyCode/DaisyExamples/libDaisy/src/per/sai.h ****     /** Contains settings for initialising an SAI Interface */
  46:/Users/dominicfrugoli/Desktop/ProgrammingCode/DaisyCode/DaisyExamples/libDaisy/src/per/sai.h ****     struct Config
  47:/Users/dominicfrugoli/Desktop/ProgrammingCode/DaisyCode/DaisyExamples/libDaisy/src/per/sai.h ****     {
ARM GAS  /var/folders/m5/x8wc2gdj7z5cpgcqdsb_gkj40000gn/T//ccGxviRN.s 			page 197


  48:/Users/dominicfrugoli/Desktop/ProgrammingCode/DaisyCode/DaisyExamples/libDaisy/src/per/sai.h ****         /** Specifies the internal peripheral to use (mapped to different hardware pins) */
  49:/Users/dominicfrugoli/Desktop/ProgrammingCode/DaisyCode/DaisyExamples/libDaisy/src/per/sai.h ****         enum class Peripheral
  50:/Users/dominicfrugoli/Desktop/ProgrammingCode/DaisyCode/DaisyExamples/libDaisy/src/per/sai.h ****         {
  51:/Users/dominicfrugoli/Desktop/ProgrammingCode/DaisyCode/DaisyExamples/libDaisy/src/per/sai.h ****             SAI_1,
  52:/Users/dominicfrugoli/Desktop/ProgrammingCode/DaisyCode/DaisyExamples/libDaisy/src/per/sai.h ****             SAI_2,
  53:/Users/dominicfrugoli/Desktop/ProgrammingCode/DaisyCode/DaisyExamples/libDaisy/src/per/sai.h ****         };
  54:/Users/dominicfrugoli/Desktop/ProgrammingCode/DaisyCode/DaisyExamples/libDaisy/src/per/sai.h **** 
  55:/Users/dominicfrugoli/Desktop/ProgrammingCode/DaisyCode/DaisyExamples/libDaisy/src/per/sai.h ****         /** Rate at which samples will be streaming to/from the device. */
  56:/Users/dominicfrugoli/Desktop/ProgrammingCode/DaisyCode/DaisyExamples/libDaisy/src/per/sai.h ****         enum class SampleRate
  57:/Users/dominicfrugoli/Desktop/ProgrammingCode/DaisyCode/DaisyExamples/libDaisy/src/per/sai.h ****         {
  58:/Users/dominicfrugoli/Desktop/ProgrammingCode/DaisyCode/DaisyExamples/libDaisy/src/per/sai.h ****             SAI_8KHZ,
  59:/Users/dominicfrugoli/Desktop/ProgrammingCode/DaisyCode/DaisyExamples/libDaisy/src/per/sai.h ****             SAI_16KHZ,
  60:/Users/dominicfrugoli/Desktop/ProgrammingCode/DaisyCode/DaisyExamples/libDaisy/src/per/sai.h ****             SAI_32KHZ,
  61:/Users/dominicfrugoli/Desktop/ProgrammingCode/DaisyCode/DaisyExamples/libDaisy/src/per/sai.h ****             SAI_48KHZ,
  62:/Users/dominicfrugoli/Desktop/ProgrammingCode/DaisyCode/DaisyExamples/libDaisy/src/per/sai.h ****             SAI_96KHZ,
  63:/Users/dominicfrugoli/Desktop/ProgrammingCode/DaisyCode/DaisyExamples/libDaisy/src/per/sai.h ****         };
  64:/Users/dominicfrugoli/Desktop/ProgrammingCode/DaisyCode/DaisyExamples/libDaisy/src/per/sai.h **** 
  65:/Users/dominicfrugoli/Desktop/ProgrammingCode/DaisyCode/DaisyExamples/libDaisy/src/per/sai.h ****         /** Bit Depth that the hardware expects to be transferred to/from the device. */
  66:/Users/dominicfrugoli/Desktop/ProgrammingCode/DaisyCode/DaisyExamples/libDaisy/src/per/sai.h ****         enum class BitDepth
  67:/Users/dominicfrugoli/Desktop/ProgrammingCode/DaisyCode/DaisyExamples/libDaisy/src/per/sai.h ****         {
  68:/Users/dominicfrugoli/Desktop/ProgrammingCode/DaisyCode/DaisyExamples/libDaisy/src/per/sai.h ****             SAI_16BIT,
  69:/Users/dominicfrugoli/Desktop/ProgrammingCode/DaisyCode/DaisyExamples/libDaisy/src/per/sai.h ****             SAI_24BIT,
  70:/Users/dominicfrugoli/Desktop/ProgrammingCode/DaisyCode/DaisyExamples/libDaisy/src/per/sai.h ****             SAI_32BIT,
  71:/Users/dominicfrugoli/Desktop/ProgrammingCode/DaisyCode/DaisyExamples/libDaisy/src/per/sai.h ****         };
  72:/Users/dominicfrugoli/Desktop/ProgrammingCode/DaisyCode/DaisyExamples/libDaisy/src/per/sai.h **** 
  73:/Users/dominicfrugoli/Desktop/ProgrammingCode/DaisyCode/DaisyExamples/libDaisy/src/per/sai.h ****         /** Specifies whether a particular block is the master or the slave 
  74:/Users/dominicfrugoli/Desktop/ProgrammingCode/DaisyCode/DaisyExamples/libDaisy/src/per/sai.h ****          ** If both are set to slave, no MCLK signal will be used, and it is
  75:/Users/dominicfrugoli/Desktop/ProgrammingCode/DaisyCode/DaisyExamples/libDaisy/src/per/sai.h ****          ** expected that the codec will have its own xtal.
  76:/Users/dominicfrugoli/Desktop/ProgrammingCode/DaisyCode/DaisyExamples/libDaisy/src/per/sai.h ****          */
  77:/Users/dominicfrugoli/Desktop/ProgrammingCode/DaisyCode/DaisyExamples/libDaisy/src/per/sai.h ****         enum class Sync
  78:/Users/dominicfrugoli/Desktop/ProgrammingCode/DaisyCode/DaisyExamples/libDaisy/src/per/sai.h ****         {
  79:/Users/dominicfrugoli/Desktop/ProgrammingCode/DaisyCode/DaisyExamples/libDaisy/src/per/sai.h ****             MASTER,
  80:/Users/dominicfrugoli/Desktop/ProgrammingCode/DaisyCode/DaisyExamples/libDaisy/src/per/sai.h ****             SLAVE,
  81:/Users/dominicfrugoli/Desktop/ProgrammingCode/DaisyCode/DaisyExamples/libDaisy/src/per/sai.h ****         };
  82:/Users/dominicfrugoli/Desktop/ProgrammingCode/DaisyCode/DaisyExamples/libDaisy/src/per/sai.h **** 
  83:/Users/dominicfrugoli/Desktop/ProgrammingCode/DaisyCode/DaisyExamples/libDaisy/src/per/sai.h ****         /** Specifies the direction for each peripheral block. */
  84:/Users/dominicfrugoli/Desktop/ProgrammingCode/DaisyCode/DaisyExamples/libDaisy/src/per/sai.h ****         enum class Direction
  85:/Users/dominicfrugoli/Desktop/ProgrammingCode/DaisyCode/DaisyExamples/libDaisy/src/per/sai.h ****         {
  86:/Users/dominicfrugoli/Desktop/ProgrammingCode/DaisyCode/DaisyExamples/libDaisy/src/per/sai.h ****             TRANSMIT,
  87:/Users/dominicfrugoli/Desktop/ProgrammingCode/DaisyCode/DaisyExamples/libDaisy/src/per/sai.h ****             RECEIVE,
  88:/Users/dominicfrugoli/Desktop/ProgrammingCode/DaisyCode/DaisyExamples/libDaisy/src/per/sai.h ****         };
  89:/Users/dominicfrugoli/Desktop/ProgrammingCode/DaisyCode/DaisyExamples/libDaisy/src/per/sai.h **** 
  90:/Users/dominicfrugoli/Desktop/ProgrammingCode/DaisyCode/DaisyExamples/libDaisy/src/per/sai.h ****         Peripheral periph;
  91:/Users/dominicfrugoli/Desktop/ProgrammingCode/DaisyCode/DaisyExamples/libDaisy/src/per/sai.h ****         struct
  92:/Users/dominicfrugoli/Desktop/ProgrammingCode/DaisyCode/DaisyExamples/libDaisy/src/per/sai.h ****         {
  93:/Users/dominicfrugoli/Desktop/ProgrammingCode/DaisyCode/DaisyExamples/libDaisy/src/per/sai.h ****             dsy_gpio_pin mclk, fs, sck, sa, sb;
  94:/Users/dominicfrugoli/Desktop/ProgrammingCode/DaisyCode/DaisyExamples/libDaisy/src/per/sai.h ****         } pin_config;
  95:/Users/dominicfrugoli/Desktop/ProgrammingCode/DaisyCode/DaisyExamples/libDaisy/src/per/sai.h ****         SampleRate sr;
  96:/Users/dominicfrugoli/Desktop/ProgrammingCode/DaisyCode/DaisyExamples/libDaisy/src/per/sai.h ****         BitDepth   bit_depth;
  97:/Users/dominicfrugoli/Desktop/ProgrammingCode/DaisyCode/DaisyExamples/libDaisy/src/per/sai.h ****         Sync       a_sync, b_sync;
  98:/Users/dominicfrugoli/Desktop/ProgrammingCode/DaisyCode/DaisyExamples/libDaisy/src/per/sai.h ****         Direction  a_dir, b_dir;
  99:/Users/dominicfrugoli/Desktop/ProgrammingCode/DaisyCode/DaisyExamples/libDaisy/src/per/sai.h ****     };
 100:/Users/dominicfrugoli/Desktop/ProgrammingCode/DaisyCode/DaisyExamples/libDaisy/src/per/sai.h **** 
 101:/Users/dominicfrugoli/Desktop/ProgrammingCode/DaisyCode/DaisyExamples/libDaisy/src/per/sai.h ****     /** Return values for SAI functions */
 102:/Users/dominicfrugoli/Desktop/ProgrammingCode/DaisyCode/DaisyExamples/libDaisy/src/per/sai.h ****     enum class Result
 103:/Users/dominicfrugoli/Desktop/ProgrammingCode/DaisyCode/DaisyExamples/libDaisy/src/per/sai.h ****     {
 104:/Users/dominicfrugoli/Desktop/ProgrammingCode/DaisyCode/DaisyExamples/libDaisy/src/per/sai.h ****         OK,
ARM GAS  /var/folders/m5/x8wc2gdj7z5cpgcqdsb_gkj40000gn/T//ccGxviRN.s 			page 198


 105:/Users/dominicfrugoli/Desktop/ProgrammingCode/DaisyCode/DaisyExamples/libDaisy/src/per/sai.h ****         ERR,
 106:/Users/dominicfrugoli/Desktop/ProgrammingCode/DaisyCode/DaisyExamples/libDaisy/src/per/sai.h ****     };
 107:/Users/dominicfrugoli/Desktop/ProgrammingCode/DaisyCode/DaisyExamples/libDaisy/src/per/sai.h **** 
 108:/Users/dominicfrugoli/Desktop/ProgrammingCode/DaisyCode/DaisyExamples/libDaisy/src/per/sai.h ****     SaiHandle() : pimpl_(nullptr) {}
 7337              		.loc 21 108 5 is_stmt 1 view .LVU1919
 7338              	.LBB1289:
 7339              	.LBB1290:
 7340              		.loc 21 108 33 is_stmt 0 view .LVU1920
 7341 004a C363     		str	r3, [r0, #60]
 7342              	.LVL434:
 7343              		.loc 21 108 33 view .LVU1921
 7344              	.LBE1290:
 7345              	.LBE1289:
 7346              	.LBE1288:
 7347              	.LBE1291:
 7348              	.LBE1292:
  29:sardinia.cpp  **** 
 7349              		.loc 17 29 11 view .LVU1922
 7350 004c 1049     		ldr	r1, .L489+56
 7351              	.LBE1294:
 7352              	.LBE1297:
 7353              		.loc 17 366 1 view .LVU1923
 7354 004e BDE80840 		pop	{r3, lr}
 7355              		.cfi_restore 14
 7356              		.cfi_restore 3
 7357              		.cfi_def_cfa_offset 0
 7358              	.LBB1298:
 7359              	.LBB1295:
  29:sardinia.cpp  **** 
 7360              		.loc 17 29 11 view .LVU1924
 7361 0052 FFF7FEBF 		b	__aeabi_atexit
 7362              	.LVL435:
 7363              	.L490:
 7364 0056 00BF     		.align	2
 7365              	.L489:
 7366 0058 00000000 		.word	__dso_handle
 7367 005c 00000000 		.word	_ZN5daisy7EncoderD1Ev
 7368 0060 00000000 		.word	.LANCHOR8
 7369 0064 00000000 		.word	_ZN5daisy10LcdHD44780D1Ev
 7370 0068 00000000 		.word	.LANCHOR28
 7371 006c 00000000 		.word	_ZN7daisysp6ChorusD1Ev
 7372 0070 00000000 		.word	chorus
 7373 0074 00000000 		.word	_ZN7daisysp9OverdriveD1Ev
 7374 0078 00000000 		.word	.LANCHOR30
 7375 007c 00000000 		.word	_ZN7daisysp7OnePoleD1Ev
 7376 0080 00000000 		.word	.LANCHOR31
 7377 0084 00000000 		.word	_ZN7daisysp3SvfD1Ev
 7378 0088 00000000 		.word	.LANCHOR33
 7379 008c 00000000 		.word	.LANCHOR36
 7380 0090 00000000 		.word	_ZN5daisy9DaisySeedD1Ev
 7381              	.LBE1295:
 7382              	.LBE1298:
 7383              		.cfi_endproc
 7384              	.LFE5282:
 7386              		.section	.init_array,"aw",%init_array
 7387              		.align	2
 7388 0000 00000000 		.word	_GLOBAL__sub_I_adcConfig(target1)
ARM GAS  /var/folders/m5/x8wc2gdj7z5cpgcqdsb_gkj40000gn/T//ccGxviRN.s 			page 199


 7389              		.global	testValInt
 7390              		.global	testValFloat
 7391              		.global	inputAmp
 7392              		.global	outputAmp
 7393              		.global	inputSig
 7394              		.global	sampleSig
 7395              		.global	outputMix
 7396              		.global	hw
 7397              		.global	effectValues
 7398              		.global	effectStates
 7399              		.global	currentEffect
 7400              		.global	lopass
 7401              		.global	odTone
 7402              		.global	overdrive
 7403              		.global	chorus
 7404              		.global	mode
 7405              		.global	lcd
 7406              		.global	spliceBufferFourLength
 7407              		.global	spliceBufferThreeLength
 7408              		.global	spliceBufferTwoLength
 7409              		.global	spliceBufferOneLength
 7410              		.global	spliceBufferReadIndexFraction
 7411              		.global	spliceBufferReadIndexInt
 7412              		.global	spliceBufferReadIndex
 7413              		.global	SpliceBufferIsPlaying
 7414              		.global	currentSpliceBuffer
 7415              		.global	baseFreq
 7416              		.global	isPlaying
 7417              		.global	isRecording
 7418              		.global	noteKey
 7419              		.global	currentKey
 7420              		.global	stopPoint
 7421              		.global	startPoint
 7422              		.global	keyStates
 7423              		.global	keyStopIndex
 7424              		.global	keyStartIndex
 7425              		.global	fullSampleReadIndexFraction
 7426              		.global	fullSampleReadIndexInt
 7427              		.global	fullSampleReadIndex
 7428              		.global	lengthTrack
 7429              		.global	recordingLength
 7430              		.global	writeIndex
 7431              		.global	readPitch
 7432              		.global	readFactor
 7433              		.global	readIndexFraction
 7434              		.global	readIndexInt
 7435              		.global	readIndex
 7436              		.global	spliceBufferFour
 7437              		.global	spliceBufferThree
 7438              		.global	spliceBufferTwo
 7439              		.global	spliceBufferOne
 7440              		.global	recordingBuffer
 7441              		.global	playButtonOverrule
 7442              		.global	prevControlButtonStates
 7443              		.global	controlButtonStates
 7444              		.global	encoderTurnVal
 7445              		.global	encoder
ARM GAS  /var/folders/m5/x8wc2gdj7z5cpgcqdsb_gkj40000gn/T//ccGxviRN.s 			page 200


 7446              		.global	adcConfig
 7447              		.section	.rodata
 7448              		.align	2
 7449              		.set	.LANCHOR27,. + 0
 7450              	.LC8:
 7451 0000 06       		.byte	6
 7452 0001 09       		.byte	9
 7453 0002 0000     		.space	2
 7454              	.LC9:
 7455 0004 03       		.byte	3
 7456 0005 0B       		.byte	11
 7457              		.section	.bss.SpliceBufferIsPlaying,"aw",%nobits
 7458              		.set	.LANCHOR44,. + 0
 7461              	SpliceBufferIsPlaying:
 7462 0000 00       		.space	1
 7463              		.section	.bss.adcConfig,"aw",%nobits
 7464              		.align	2
 7465              		.set	.LANCHOR7,. + 0
 7468              	adcConfig:
 7469 0000 00000000 		.space	108
 7469      00000000 
 7469      00000000 
 7469      00000000 
 7469      00000000 
 7470              		.section	.bss.chorus,"aw",%nobits
 7471              		.align	2
 7474              	chorus:
 7475 0000 00000000 		.space	19292
 7475      00000000 
 7475      00000000 
 7475      00000000 
 7475      00000000 
 7476              		.section	.bss.controlButtonStates,"aw",%nobits
 7477              		.align	2
 7478              		.set	.LANCHOR9,. + 0
 7481              	controlButtonStates:
 7482 0000 00000000 		.space	8
 7482      00000000 
 7483              		.section	.bss.currentEffect,"aw",%nobits
 7484              		.align	2
 7485              		.set	.LANCHOR35,. + 0
 7488              	currentEffect:
 7489 0000 00000000 		.space	4
 7490              		.section	.bss.currentKey,"aw",%nobits
 7491              		.align	2
 7492              		.set	.LANCHOR0,. + 0
 7495              	currentKey:
 7496 0000 00000000 		.space	4
 7497              		.section	.bss.effectStates,"aw",%nobits
 7498              		.align	2
 7499              		.set	.LANCHOR34,. + 0
 7502              	effectStates:
 7503 0000 000000   		.space	3
 7504              		.section	.bss.encoder,"aw",%nobits
 7505              		.align	2
 7506              		.set	.LANCHOR8,. + 0
 7509              	encoder:
ARM GAS  /var/folders/m5/x8wc2gdj7z5cpgcqdsb_gkj40000gn/T//ccGxviRN.s 			page 201


 7510 0000 00000000 		.space	40
 7510      00000000 
 7510      00000000 
 7510      00000000 
 7510      00000000 
 7511              		.section	.bss.encoderTurnVal,"aw",%nobits
 7512              		.align	2
 7515              	encoderTurnVal:
 7516 0000 00000000 		.space	4
 7517              		.section	.bss.fullSampleReadIndex,"aw",%nobits
 7518              		.align	2
 7519              		.set	.LANCHOR15,. + 0
 7522              	fullSampleReadIndex:
 7523 0000 00000000 		.space	4
 7524              		.section	.bss.fullSampleReadIndexFraction,"aw",%nobits
 7525              		.align	2
 7526              		.set	.LANCHOR18,. + 0
 7529              	fullSampleReadIndexFraction:
 7530 0000 00000000 		.space	4
 7531              		.section	.bss.fullSampleReadIndexInt,"aw",%nobits
 7532              		.align	2
 7533              		.set	.LANCHOR17,. + 0
 7536              	fullSampleReadIndexInt:
 7537 0000 00000000 		.space	4
 7538              		.section	.bss.hw,"aw",%nobits
 7539              		.align	2
 7540              		.set	.LANCHOR36,. + 0
 7543              	hw:
 7544 0000 00000000 		.space	64
 7544      00000000 
 7544      00000000 
 7544      00000000 
 7544      00000000 
 7545              		.section	.bss.inputSig,"aw",%nobits
 7546              		.align	2
 7547              		.set	.LANCHOR50,. + 0
 7550              	inputSig:
 7551 0000 00000000 		.space	4
 7552              		.section	.bss.isPlaying,"aw",%nobits
 7553              		.set	.LANCHOR43,. + 0
 7556              	isPlaying:
 7557 0000 00       		.space	1
 7558              		.section	.bss.isRecording,"aw",%nobits
 7559              		.set	.LANCHOR37,. + 0
 7562              	isRecording:
 7563 0000 00       		.space	1
 7564              		.section	.bss.keyStartIndex,"aw",%nobits
 7565              		.align	2
 7566              		.set	.LANCHOR2,. + 0
 7569              	keyStartIndex:
 7570 0000 00000000 		.space	128
 7570      00000000 
 7570      00000000 
 7570      00000000 
 7570      00000000 
 7571              		.section	.bss.keyStates,"aw",%nobits
 7572              		.align	2
ARM GAS  /var/folders/m5/x8wc2gdj7z5cpgcqdsb_gkj40000gn/T//ccGxviRN.s 			page 202


 7573              		.set	.LANCHOR1,. + 0
 7576              	keyStates:
 7577 0000 00000000 		.space	32
 7577      00000000 
 7577      00000000 
 7577      00000000 
 7577      00000000 
 7578              		.section	.bss.keyStopIndex,"aw",%nobits
 7579              		.align	2
 7580              		.set	.LANCHOR5,. + 0
 7583              	keyStopIndex:
 7584 0000 00000000 		.space	128
 7584      00000000 
 7584      00000000 
 7584      00000000 
 7584      00000000 
 7585              		.section	.bss.lcd,"aw",%nobits
 7586              		.align	2
 7587              		.set	.LANCHOR28,. + 0
 7590              	lcd:
 7591 0000 00000000 		.space	26
 7591      00000000 
 7591      00000000 
 7591      00000000 
 7591      00000000 
 7592              		.section	.bss.lengthTrack,"aw",%nobits
 7593              		.align	2
 7594              		.set	.LANCHOR39,. + 0
 7597              	lengthTrack:
 7598 0000 00000000 		.space	4
 7599              		.section	.bss.lopass,"aw",%nobits
 7600              		.align	2
 7601              		.set	.LANCHOR33,. + 0
 7604              	lopass:
 7605 0000 00000000 		.space	76
 7605      00000000 
 7605      00000000 
 7605      00000000 
 7605      00000000 
 7606              		.section	.bss.mode,"aw",%nobits
 7607              		.set	.LANCHOR29,. + 0
 7610              	mode:
 7611 0000 00       		.space	1
 7612              		.section	.bss.noteKey,"aw",%nobits
 7613              		.align	2
 7614              		.set	.LANCHOR45,. + 0
 7617              	noteKey:
 7618 0000 00000000 		.space	4
 7619              		.section	.bss.odTone,"aw",%nobits
 7620              		.align	2
 7621              		.set	.LANCHOR31,. + 0
 7624              	odTone:
 7625 0000 00000000 		.space	16
 7625      00000000 
 7625      00000000 
 7625      00000000 
 7626              		.section	.bss.outputMix,"aw",%nobits
ARM GAS  /var/folders/m5/x8wc2gdj7z5cpgcqdsb_gkj40000gn/T//ccGxviRN.s 			page 203


 7627              		.align	2
 7628              		.set	.LANCHOR49,. + 0
 7631              	outputMix:
 7632 0000 00000000 		.space	4
 7633              		.section	.bss.overdrive,"aw",%nobits
 7634              		.align	2
 7635              		.set	.LANCHOR30,. + 0
 7638              	overdrive:
 7639 0000 00000000 		.space	12
 7639      00000000 
 7639      00000000 
 7640              		.section	.bss.playButtonOverrule,"aw",%nobits
 7641              		.set	.LANCHOR41,. + 0
 7644              	playButtonOverrule:
 7645 0000 00       		.space	1
 7646              		.section	.bss.prevControlButtonStates,"aw",%nobits
 7647              		.align	2
 7648              		.set	.LANCHOR10,. + 0
 7651              	prevControlButtonStates:
 7652 0000 00000000 		.space	8
 7652      00000000 
 7653              		.section	.bss.readIndex,"aw",%nobits
 7654              		.align	2
 7655              		.set	.LANCHOR6,. + 0
 7658              	readIndex:
 7659 0000 00000000 		.space	4
 7660              		.section	.bss.readIndexFraction,"aw",%nobits
 7661              		.align	2
 7662              		.set	.LANCHOR14,. + 0
 7665              	readIndexFraction:
 7666 0000 00000000 		.space	4
 7667              		.section	.bss.readIndexInt,"aw",%nobits
 7668              		.align	2
 7669              		.set	.LANCHOR13,. + 0
 7672              	readIndexInt:
 7673 0000 00000000 		.space	4
 7674              		.section	.bss.readPitch,"aw",%nobits
 7675              		.align	2
 7678              	readPitch:
 7679 0000 00000000 		.space	4
 7680              		.section	.bss.sampleSig,"aw",%nobits
 7681              		.align	2
 7682              		.set	.LANCHOR48,. + 0
 7685              	sampleSig:
 7686 0000 00000000 		.space	4
 7687              		.section	.bss.spliceBufferReadIndex,"aw",%nobits
 7688              		.align	2
 7689              		.set	.LANCHOR19,. + 0
 7692              	spliceBufferReadIndex:
 7693 0000 00000000 		.space	4
 7694              		.section	.bss.spliceBufferReadIndexFraction,"aw",%nobits
 7695              		.align	2
 7696              		.set	.LANCHOR23,. + 0
 7699              	spliceBufferReadIndexFraction:
 7700 0000 00000000 		.space	4
 7701              		.section	.bss.spliceBufferReadIndexInt,"aw",%nobits
 7702              		.align	2
ARM GAS  /var/folders/m5/x8wc2gdj7z5cpgcqdsb_gkj40000gn/T//ccGxviRN.s 			page 204


 7703              		.set	.LANCHOR22,. + 0
 7706              	spliceBufferReadIndexInt:
 7707 0000 00000000 		.space	4
 7708              		.section	.bss.startPoint,"aw",%nobits
 7709              		.align	2
 7710              		.set	.LANCHOR3,. + 0
 7713              	startPoint:
 7714 0000 00000000 		.space	4
 7715              		.section	.bss.testValFloat,"aw",%nobits
 7716              		.align	2
 7717              		.set	.LANCHOR38,. + 0
 7720              	testValFloat:
 7721 0000 00000000 		.space	4
 7722              		.section	.bss.testValInt,"aw",%nobits
 7723              		.align	2
 7724              		.set	.LANCHOR40,. + 0
 7727              	testValInt:
 7728 0000 00000000 		.space	4
 7729              		.section	.bss.writeIndex,"aw",%nobits
 7730              		.align	2
 7731              		.set	.LANCHOR11,. + 0
 7734              	writeIndex:
 7735 0000 00000000 		.space	4
 7736              		.section	.data.baseFreq,"aw"
 7737              		.align	2
 7738              		.set	.LANCHOR20,. + 0
 7741              	baseFreq:
 7742 0000 0000DC43 		.word	1138491392
 7743              		.section	.data.currentSpliceBuffer,"aw"
 7744              		.align	2
 7745              		.set	.LANCHOR42,. + 0
 7748              	currentSpliceBuffer:
 7749 0000 01000000 		.word	1
 7750              		.section	.data.effectValues,"aw"
 7751              		.align	2
 7752              		.set	.LANCHOR32,. + 0
 7755              	effectValues:
 7756 0000 0000003F 		.word	1056964608
 7757 0004 00800944 		.word	1141473280
 7758 0008 0000003F 		.word	1056964608
 7759 000c 0000803F 		.word	1065353216
 7760 0010 00007A44 		.word	1148846080
 7761 0014 0000803E 		.word	1048576000
 7762              		.section	.data.inputAmp,"aw"
 7763              		.align	2
 7764              		.set	.LANCHOR47,. + 0
 7767              	inputAmp:
 7768 0000 0000803F 		.word	1065353216
 7769              		.section	.data.outputAmp,"aw"
 7770              		.align	2
 7771              		.set	.LANCHOR46,. + 0
 7774              	outputAmp:
 7775 0000 0000003F 		.word	1056964608
 7776              		.section	.data.readFactor,"aw"
 7777              		.align	2
 7778              		.set	.LANCHOR12,. + 0
 7781              	readFactor:
ARM GAS  /var/folders/m5/x8wc2gdj7z5cpgcqdsb_gkj40000gn/T//ccGxviRN.s 			page 205


 7782 0000 0000803F 		.word	1065353216
 7783              		.section	.data.recordingLength,"aw"
 7784              		.align	2
 7785              		.set	.LANCHOR16,. + 0
 7788              	recordingLength:
 7789 0000 00E45700 		.word	5760000
 7790              		.section	.data.spliceBufferFourLength,"aw"
 7791              		.align	2
 7792              		.set	.LANCHOR26,. + 0
 7795              	spliceBufferFourLength:
 7796 0000 00A60E00 		.word	960000
 7797              		.section	.data.spliceBufferOneLength,"aw"
 7798              		.align	2
 7799              		.set	.LANCHOR21,. + 0
 7802              	spliceBufferOneLength:
 7803 0000 00A60E00 		.word	960000
 7804              		.section	.data.spliceBufferThreeLength,"aw"
 7805              		.align	2
 7806              		.set	.LANCHOR25,. + 0
 7809              	spliceBufferThreeLength:
 7810 0000 00A60E00 		.word	960000
 7811              		.section	.data.spliceBufferTwoLength,"aw"
 7812              		.align	2
 7813              		.set	.LANCHOR24,. + 0
 7816              	spliceBufferTwoLength:
 7817 0000 00A60E00 		.word	960000
 7818              		.section	.data.stopPoint,"aw"
 7819              		.align	2
 7820              		.set	.LANCHOR4,. + 0
 7823              	stopPoint:
 7824 0000 00E45700 		.word	5760000
 7825              		.section	.sdram_bss,"aw"
 7826              		.align	2
 7829              	spliceBufferFour:
 7830 0000 00000000 		.space	3840000
 7830      00000000 
 7830      00000000 
 7830      00000000 
 7830      00000000 
 7833              	spliceBufferThree:
 7834 3a9800 00000000 		.space	3840000
 7834      00000000 
 7834      00000000 
 7834      00000000 
 7834      00000000 
 7837              	spliceBufferTwo:
 7838 753000 00000000 		.space	3840000
 7838      00000000 
 7838      00000000 
 7838      00000000 
 7838      00000000 
 7841              	spliceBufferOne:
 7842 afc800 00000000 		.space	3840000
 7842      00000000 
 7842      00000000 
 7842      00000000 
 7842      00000000 
ARM GAS  /var/folders/m5/x8wc2gdj7z5cpgcqdsb_gkj40000gn/T//ccGxviRN.s 			page 206


 7845              	recordingBuffer:
 7846 ea6000 00000000 		.space	23040000
 7846      00000000 
 7846      00000000 
 7846      00000000 
 7846      00000000 
 7847              		.text
 7848              	.Letext0:
 7849              		.file 22 "/Applications/ARM/arm-none-eabi/include/machine/_default_types.h"
 7850              		.file 23 "/Applications/ARM/arm-none-eabi/include/sys/_stdint.h"
 7851              		.file 24 "/Applications/ARM/arm-none-eabi/include/stdint.h"
 7852              		.file 25 "/Applications/ARM/lib/gcc/arm-none-eabi/10.3.1/include/stddef.h"
 7853              		.file 26 "/Applications/ARM/arm-none-eabi/include/c++/10.3.1/cmath"
 7854              		.file 27 "/Applications/ARM/arm-none-eabi/include/c++/10.3.1/bits/std_abs.h"
 7855              		.file 28 "/Applications/ARM/arm-none-eabi/include/c++/10.3.1/cstdlib"
 7856              		.file 29 "/Applications/ARM/arm-none-eabi/include/c++/10.3.1/cstdint"
 7857              		.file 30 "/Applications/ARM/arm-none-eabi/include/c++/10.3.1/type_traits"
 7858              		.file 31 "/Applications/ARM/arm-none-eabi/include/c++/10.3.1/debug/debug.h"
 7859              		.file 32 "/Applications/ARM/arm-none-eabi/include/c++/10.3.1/arm-none-eabi/thumb/v7e-m+dp/hard/bit
 7860              		.file 33 "/Applications/ARM/arm-none-eabi/include/c++/10.3.1/bits/algorithmfwd.h"
 7861              		.file 34 "/Applications/ARM/arm-none-eabi/include/c++/10.3.1/bits/stl_pair.h"
 7862              		.file 35 "/Applications/ARM/arm-none-eabi/include/c++/10.3.1/bits/exception_ptr.h"
 7863              		.file 36 "/Applications/ARM/arm-none-eabi/include/c++/10.3.1/cstdarg"
 7864              		.file 37 "/Applications/ARM/arm-none-eabi/include/c++/10.3.1/cstdio"
 7865              		.file 38 "/Applications/ARM/arm-none-eabi/include/c++/10.3.1/cstring"
 7866              		.file 39 "/Applications/ARM/arm-none-eabi/include/c++/10.3.1/cwchar"
 7867              		.file 40 "/Applications/ARM/arm-none-eabi/include/c++/10.3.1/clocale"
 7868              		.file 41 "/Applications/ARM/arm-none-eabi/include/c++/10.3.1/bits/basic_string.h"
 7869              		.file 42 "/Applications/ARM/arm-none-eabi/include/c++/10.3.1/bits/stl_iterator.h"
 7870              		.file 43 "/Applications/ARM/arm-none-eabi/include/c++/10.3.1/bits/predefined_ops.h"
 7871              		.file 44 "/Applications/ARM/arm-none-eabi/include/sys/_types.h"
 7872              		.file 45 "/Applications/ARM/arm-none-eabi/include/sys/reent.h"
 7873              		.file 46 "/Applications/ARM/arm-none-eabi/include/sys/lock.h"
 7874              		.file 47 "/Applications/ARM/arm-none-eabi/include/math.h"
 7875              		.file 48 "/Applications/ARM/arm-none-eabi/include/stdlib.h"
 7876              		.file 49 "/Applications/ARM/arm-none-eabi/include/c++/10.3.1/math.h"
 7877              		.file 50 "/Applications/ARM/arm-none-eabi/include/c++/10.3.1/stdlib.h"
 7878              		.file 51 "/Users/dominicfrugoli/Desktop/ProgrammingCode/DaisyCode/DaisyExamples/libDaisy/src/daisy
 7879              		.file 52 "/Users/dominicfrugoli/Desktop/ProgrammingCode/DaisyCode/DaisyExamples/libDaisy/src/per/t
 7880              		.file 53 "/Users/dominicfrugoli/Desktop/ProgrammingCode/DaisyCode/DaisyExamples/libDaisy/src/util/
 7881              		.file 54 "/Users/dominicfrugoli/Desktop/ProgrammingCode/DaisyCode/DaisyExamples/libDaisy/src/dev/m
 7882              		.file 55 "/Users/dominicfrugoli/Desktop/ProgrammingCode/DaisyCode/DaisyExamples/libDaisy/src/per/g
 7883              		.file 56 "/Users/dominicfrugoli/Desktop/ProgrammingCode/DaisyCode/DaisyExamples/libDaisy/src/dev/s
 7884              		.file 57 "/Applications/ARM/lib/gcc/arm-none-eabi/10.3.1/include/stdarg.h"
 7885              		.file 58 "/Applications/ARM/arm-none-eabi/include/stdio.h"
 7886              		.file 59 "/Applications/ARM/arm-none-eabi/include/string.h"
 7887              		.file 60 "/Users/dominicfrugoli/Desktop/ProgrammingCode/DaisyCode/DaisyExamples/DaisySP/Source/Con
 7888              		.file 61 "/Users/dominicfrugoli/Desktop/ProgrammingCode/DaisyCode/DaisyExamples/DaisySP/Source/Uti
 7889              		.file 62 "/Applications/ARM/arm-none-eabi/include/wchar.h"
 7890              		.file 63 "/Applications/ARM/arm-none-eabi/include/locale.h"
 7891              		.file 64 "/Users/dominicfrugoli/Desktop/ProgrammingCode/DaisyCode/DaisyExamples/libDaisy/src/dev/s
 7892              		.file 65 "<built-in>"
ARM GAS  /var/folders/m5/x8wc2gdj7z5cpgcqdsb_gkj40000gn/T//ccGxviRN.s 			page 207


DEFINED SYMBOLS
                            *ABS*:0000000000000000 sardinia.cpp
/var/folders/m5/x8wc2gdj7z5cpgcqdsb_gkj40000gn/T//ccGxviRN.s:19     .text._ZN5daisy7EncoderD2Ev:0000000000000000 $t
/var/folders/m5/x8wc2gdj7z5cpgcqdsb_gkj40000gn/T//ccGxviRN.s:26     .text._ZN5daisy7EncoderD2Ev:0000000000000000 _ZN5daisy7EncoderD2Ev
/var/folders/m5/x8wc2gdj7z5cpgcqdsb_gkj40000gn/T//ccGxviRN.s:26     .text._ZN5daisy7EncoderD2Ev:0000000000000000 _ZN5daisy7EncoderD1Ev
/var/folders/m5/x8wc2gdj7z5cpgcqdsb_gkj40000gn/T//ccGxviRN.s:49     .text._ZN5daisy10LcdHD44780D2Ev:0000000000000000 $t
/var/folders/m5/x8wc2gdj7z5cpgcqdsb_gkj40000gn/T//ccGxviRN.s:56     .text._ZN5daisy10LcdHD44780D2Ev:0000000000000000 _ZN5daisy10LcdHD44780D2Ev
/var/folders/m5/x8wc2gdj7z5cpgcqdsb_gkj40000gn/T//ccGxviRN.s:56     .text._ZN5daisy10LcdHD44780D2Ev:0000000000000000 _ZN5daisy10LcdHD44780D1Ev
/var/folders/m5/x8wc2gdj7z5cpgcqdsb_gkj40000gn/T//ccGxviRN.s:73     .text._ZN5daisy9DaisySeedD2Ev:0000000000000000 $t
/var/folders/m5/x8wc2gdj7z5cpgcqdsb_gkj40000gn/T//ccGxviRN.s:80     .text._ZN5daisy9DaisySeedD2Ev:0000000000000000 _ZN5daisy9DaisySeedD2Ev
/var/folders/m5/x8wc2gdj7z5cpgcqdsb_gkj40000gn/T//ccGxviRN.s:80     .text._ZN5daisy9DaisySeedD2Ev:0000000000000000 _ZN5daisy9DaisySeedD1Ev
/var/folders/m5/x8wc2gdj7z5cpgcqdsb_gkj40000gn/T//ccGxviRN.s:121    .text._ZN7daisysp3SvfD2Ev:0000000000000000 $t
/var/folders/m5/x8wc2gdj7z5cpgcqdsb_gkj40000gn/T//ccGxviRN.s:128    .text._ZN7daisysp3SvfD2Ev:0000000000000000 _ZN7daisysp3SvfD2Ev
/var/folders/m5/x8wc2gdj7z5cpgcqdsb_gkj40000gn/T//ccGxviRN.s:128    .text._ZN7daisysp3SvfD2Ev:0000000000000000 _ZN7daisysp3SvfD1Ev
/var/folders/m5/x8wc2gdj7z5cpgcqdsb_gkj40000gn/T//ccGxviRN.s:145    .text._ZN7daisysp6ChorusD2Ev:0000000000000000 $t
/var/folders/m5/x8wc2gdj7z5cpgcqdsb_gkj40000gn/T//ccGxviRN.s:152    .text._ZN7daisysp6ChorusD2Ev:0000000000000000 _ZN7daisysp6ChorusD2Ev
/var/folders/m5/x8wc2gdj7z5cpgcqdsb_gkj40000gn/T//ccGxviRN.s:152    .text._ZN7daisysp6ChorusD2Ev:0000000000000000 _ZN7daisysp6ChorusD1Ev
/var/folders/m5/x8wc2gdj7z5cpgcqdsb_gkj40000gn/T//ccGxviRN.s:169    .text._ZN7daisysp9OverdriveD2Ev:0000000000000000 $t
/var/folders/m5/x8wc2gdj7z5cpgcqdsb_gkj40000gn/T//ccGxviRN.s:176    .text._ZN7daisysp9OverdriveD2Ev:0000000000000000 _ZN7daisysp9OverdriveD2Ev
/var/folders/m5/x8wc2gdj7z5cpgcqdsb_gkj40000gn/T//ccGxviRN.s:176    .text._ZN7daisysp9OverdriveD2Ev:0000000000000000 _ZN7daisysp9OverdriveD1Ev
/var/folders/m5/x8wc2gdj7z5cpgcqdsb_gkj40000gn/T//ccGxviRN.s:193    .text._ZN7daisysp7OnePoleD2Ev:0000000000000000 $t
/var/folders/m5/x8wc2gdj7z5cpgcqdsb_gkj40000gn/T//ccGxviRN.s:200    .text._ZN7daisysp7OnePoleD2Ev:0000000000000000 _ZN7daisysp7OnePoleD2Ev
/var/folders/m5/x8wc2gdj7z5cpgcqdsb_gkj40000gn/T//ccGxviRN.s:200    .text._ZN7daisysp7OnePoleD2Ev:0000000000000000 _ZN7daisysp7OnePoleD1Ev
/var/folders/m5/x8wc2gdj7z5cpgcqdsb_gkj40000gn/T//ccGxviRN.s:217    .text._Z16AdvanceReadIndexv.part.0:0000000000000000 $t
/var/folders/m5/x8wc2gdj7z5cpgcqdsb_gkj40000gn/T//ccGxviRN.s:223    .text._Z16AdvanceReadIndexv.part.0:0000000000000000 _Z16AdvanceReadIndexv.part.0
/var/folders/m5/x8wc2gdj7z5cpgcqdsb_gkj40000gn/T//ccGxviRN.s:341    .text._Z16AdvanceReadIndexv.part.0:0000000000000048 $d
/var/folders/m5/x8wc2gdj7z5cpgcqdsb_gkj40000gn/T//ccGxviRN.s:352    .text._Z12InitControlsv:0000000000000000 $t
/var/folders/m5/x8wc2gdj7z5cpgcqdsb_gkj40000gn/T//ccGxviRN.s:359    .text._Z12InitControlsv:0000000000000000 _Z12InitControlsv
/var/folders/m5/x8wc2gdj7z5cpgcqdsb_gkj40000gn/T//ccGxviRN.s:553    .text._Z12InitControlsv:00000000000001d0 $d
/var/folders/m5/x8wc2gdj7z5cpgcqdsb_gkj40000gn/T//ccGxviRN.s:560    .text._Z10RisingEdgebb:0000000000000000 $t
/var/folders/m5/x8wc2gdj7z5cpgcqdsb_gkj40000gn/T//ccGxviRN.s:567    .text._Z10RisingEdgebb:0000000000000000 _Z10RisingEdgebb
/var/folders/m5/x8wc2gdj7z5cpgcqdsb_gkj40000gn/T//ccGxviRN.s:588    .text._Z11FallingEdgebb:0000000000000000 $t
/var/folders/m5/x8wc2gdj7z5cpgcqdsb_gkj40000gn/T//ccGxviRN.s:595    .text._Z11FallingEdgebb:0000000000000000 _Z11FallingEdgebb
/var/folders/m5/x8wc2gdj7z5cpgcqdsb_gkj40000gn/T//ccGxviRN.s:613    .text._Z25RisingEdge_ControlButtonsi:0000000000000000 $t
/var/folders/m5/x8wc2gdj7z5cpgcqdsb_gkj40000gn/T//ccGxviRN.s:620    .text._Z25RisingEdge_ControlButtonsi:0000000000000000 _Z25RisingEdge_ControlButtonsi
/var/folders/m5/x8wc2gdj7z5cpgcqdsb_gkj40000gn/T//ccGxviRN.s:649    .text._Z25RisingEdge_ControlButtonsi:0000000000000014 $d
/var/folders/m5/x8wc2gdj7z5cpgcqdsb_gkj40000gn/T//ccGxviRN.s:655    .text._Z26FallingEdge_ControlButtonsi:0000000000000000 $t
/var/folders/m5/x8wc2gdj7z5cpgcqdsb_gkj40000gn/T//ccGxviRN.s:662    .text._Z26FallingEdge_ControlButtonsi:0000000000000000 _Z26FallingEdge_ControlButtonsi
/var/folders/m5/x8wc2gdj7z5cpgcqdsb_gkj40000gn/T//ccGxviRN.s:692    .text._Z26FallingEdge_ControlButtonsi:0000000000000010 $d
/var/folders/m5/x8wc2gdj7z5cpgcqdsb_gkj40000gn/T//ccGxviRN.s:698    .text._Z13EncoderTurnedv:0000000000000000 $t
/var/folders/m5/x8wc2gdj7z5cpgcqdsb_gkj40000gn/T//ccGxviRN.s:705    .text._Z13EncoderTurnedv:0000000000000000 _Z13EncoderTurnedv
/var/folders/m5/x8wc2gdj7z5cpgcqdsb_gkj40000gn/T//ccGxviRN.s:746    .text._Z13EncoderTurnedv:0000000000000020 $d
/var/folders/m5/x8wc2gdj7z5cpgcqdsb_gkj40000gn/T//ccGxviRN.s:751    .text._Z13EncoderTurnedN5daisy7EncoderE:0000000000000000 $t
/var/folders/m5/x8wc2gdj7z5cpgcqdsb_gkj40000gn/T//ccGxviRN.s:758    .text._Z13EncoderTurnedN5daisy7EncoderE:0000000000000000 _Z13EncoderTurnedN5daisy7EncoderE
/var/folders/m5/x8wc2gdj7z5cpgcqdsb_gkj40000gn/T//ccGxviRN.s:802    .text._Z10InitBufferv:0000000000000000 $t
/var/folders/m5/x8wc2gdj7z5cpgcqdsb_gkj40000gn/T//ccGxviRN.s:809    .text._Z10InitBufferv:0000000000000000 _Z10InitBufferv
/var/folders/m5/x8wc2gdj7z5cpgcqdsb_gkj40000gn/T//ccGxviRN.s:881    .text._Z10InitBufferv:0000000000000040 $d
/var/folders/m5/x8wc2gdj7z5cpgcqdsb_gkj40000gn/T//ccGxviRN.s:7845   .sdram_bss:0000000000ea6000 recordingBuffer
/var/folders/m5/x8wc2gdj7z5cpgcqdsb_gkj40000gn/T//ccGxviRN.s:7841   .sdram_bss:0000000000afc800 spliceBufferOne
/var/folders/m5/x8wc2gdj7z5cpgcqdsb_gkj40000gn/T//ccGxviRN.s:7837   .sdram_bss:0000000000753000 spliceBufferTwo
/var/folders/m5/x8wc2gdj7z5cpgcqdsb_gkj40000gn/T//ccGxviRN.s:7833   .sdram_bss:00000000003a9800 spliceBufferThree
/var/folders/m5/x8wc2gdj7z5cpgcqdsb_gkj40000gn/T//ccGxviRN.s:7829   .sdram_bss:0000000000000000 spliceBufferFour
/var/folders/m5/x8wc2gdj7z5cpgcqdsb_gkj40000gn/T//ccGxviRN.s:894    .text._Z12RecordSamplef:0000000000000000 $t
/var/folders/m5/x8wc2gdj7z5cpgcqdsb_gkj40000gn/T//ccGxviRN.s:901    .text._Z12RecordSamplef:0000000000000000 _Z12RecordSamplef
/var/folders/m5/x8wc2gdj7z5cpgcqdsb_gkj40000gn/T//ccGxviRN.s:930    .text._Z12RecordSamplef:0000000000000014 $d
/var/folders/m5/x8wc2gdj7z5cpgcqdsb_gkj40000gn/T//ccGxviRN.s:936    .text._Z14ResetReadIndexv:0000000000000000 $t
/var/folders/m5/x8wc2gdj7z5cpgcqdsb_gkj40000gn/T//ccGxviRN.s:943    .text._Z14ResetReadIndexv:0000000000000000 _Z14ResetReadIndexv
ARM GAS  /var/folders/m5/x8wc2gdj7z5cpgcqdsb_gkj40000gn/T//ccGxviRN.s 			page 208


/var/folders/m5/x8wc2gdj7z5cpgcqdsb_gkj40000gn/T//ccGxviRN.s:962    .text._Z14ResetReadIndexv:0000000000000014 $d
/var/folders/m5/x8wc2gdj7z5cpgcqdsb_gkj40000gn/T//ccGxviRN.s:968    .text._Z16AdvanceReadIndexv:0000000000000000 $t
/var/folders/m5/x8wc2gdj7z5cpgcqdsb_gkj40000gn/T//ccGxviRN.s:975    .text._Z16AdvanceReadIndexv:0000000000000000 _Z16AdvanceReadIndexv
/var/folders/m5/x8wc2gdj7z5cpgcqdsb_gkj40000gn/T//ccGxviRN.s:1011   .text._Z16AdvanceReadIndexv:0000000000000030 $d
/var/folders/m5/x8wc2gdj7z5cpgcqdsb_gkj40000gn/T//ccGxviRN.s:1018   .text._Z9GetSamplev:0000000000000000 $t
/var/folders/m5/x8wc2gdj7z5cpgcqdsb_gkj40000gn/T//ccGxviRN.s:1025   .text._Z9GetSamplev:0000000000000000 _Z9GetSamplev
/var/folders/m5/x8wc2gdj7z5cpgcqdsb_gkj40000gn/T//ccGxviRN.s:1085   .text._Z9GetSamplev:0000000000000040 $d
/var/folders/m5/x8wc2gdj7z5cpgcqdsb_gkj40000gn/T//ccGxviRN.s:1093   .text._Z19FullSampleGetSamplev:0000000000000000 $t
/var/folders/m5/x8wc2gdj7z5cpgcqdsb_gkj40000gn/T//ccGxviRN.s:1100   .text._Z19FullSampleGetSamplev:0000000000000000 _Z19FullSampleGetSamplev
/var/folders/m5/x8wc2gdj7z5cpgcqdsb_gkj40000gn/T//ccGxviRN.s:1195   .text._Z19FullSampleGetSamplev:0000000000000078 $d
/var/folders/m5/x8wc2gdj7z5cpgcqdsb_gkj40000gn/T//ccGxviRN.s:1206   .text._Z21SpliceBufferGetSampleiii:0000000000000000 $t
/var/folders/m5/x8wc2gdj7z5cpgcqdsb_gkj40000gn/T//ccGxviRN.s:1213   .text._Z21SpliceBufferGetSampleiii:0000000000000000 _Z21SpliceBufferGetSampleiii
/var/folders/m5/x8wc2gdj7z5cpgcqdsb_gkj40000gn/T//ccGxviRN.s:1815   .text._Z21SpliceBufferGetSampleiii:000000000000029c $d
/var/folders/m5/x8wc2gdj7z5cpgcqdsb_gkj40000gn/T//ccGxviRN.s:1840   .text._Z17StoreSpliceBufferi:0000000000000000 $t
/var/folders/m5/x8wc2gdj7z5cpgcqdsb_gkj40000gn/T//ccGxviRN.s:1847   .text._Z17StoreSpliceBufferi:0000000000000000 _Z17StoreSpliceBufferi
/var/folders/m5/x8wc2gdj7z5cpgcqdsb_gkj40000gn/T//ccGxviRN.s:2709   .text._Z17StoreSpliceBufferi:00000000000002c8 $d
/var/folders/m5/x8wc2gdj7z5cpgcqdsb_gkj40000gn/T//ccGxviRN.s:2729   .text._Z15AnyKeyIsPressedv:0000000000000000 $t
/var/folders/m5/x8wc2gdj7z5cpgcqdsb_gkj40000gn/T//ccGxviRN.s:2736   .text._Z15AnyKeyIsPressedv:0000000000000000 _Z15AnyKeyIsPressedv
/var/folders/m5/x8wc2gdj7z5cpgcqdsb_gkj40000gn/T//ccGxviRN.s:2773   .text._Z15AnyKeyIsPressedv:0000000000000018 $d
/var/folders/m5/x8wc2gdj7z5cpgcqdsb_gkj40000gn/T//ccGxviRN.s:2778   .text._Z18FindNextPressedKeyi:0000000000000000 $t
/var/folders/m5/x8wc2gdj7z5cpgcqdsb_gkj40000gn/T//ccGxviRN.s:2785   .text._Z18FindNextPressedKeyi:0000000000000000 _Z18FindNextPressedKeyi
/var/folders/m5/x8wc2gdj7z5cpgcqdsb_gkj40000gn/T//ccGxviRN.s:2838   .text._Z18FindNextPressedKeyi:000000000000001c $d
/var/folders/m5/x8wc2gdj7z5cpgcqdsb_gkj40000gn/T//ccGxviRN.s:2843   .text._Z19FindFirstPressedKeyv:0000000000000000 $t
/var/folders/m5/x8wc2gdj7z5cpgcqdsb_gkj40000gn/T//ccGxviRN.s:2850   .text._Z19FindFirstPressedKeyv:0000000000000000 _Z19FindFirstPressedKeyv
/var/folders/m5/x8wc2gdj7z5cpgcqdsb_gkj40000gn/T//ccGxviRN.s:2894   .text._Z19FindFirstPressedKeyv:000000000000001c $d
/var/folders/m5/x8wc2gdj7z5cpgcqdsb_gkj40000gn/T//ccGxviRN.s:2899   .text._Z12SetKeyIndexsv:0000000000000000 $t
/var/folders/m5/x8wc2gdj7z5cpgcqdsb_gkj40000gn/T//ccGxviRN.s:2906   .text._Z12SetKeyIndexsv:0000000000000000 _Z12SetKeyIndexsv
/var/folders/m5/x8wc2gdj7z5cpgcqdsb_gkj40000gn/T//ccGxviRN.s:3078   .text._Z12SetKeyIndexsv:000000000000009c $d
/var/folders/m5/x8wc2gdj7z5cpgcqdsb_gkj40000gn/T//ccGxviRN.s:3094   .text._Z13GetStartPointv:0000000000000000 $t
/var/folders/m5/x8wc2gdj7z5cpgcqdsb_gkj40000gn/T//ccGxviRN.s:3101   .text._Z13GetStartPointv:0000000000000000 _Z13GetStartPointv
/var/folders/m5/x8wc2gdj7z5cpgcqdsb_gkj40000gn/T//ccGxviRN.s:3117   .text._Z13GetStartPointv:0000000000000008 $d
/var/folders/m5/x8wc2gdj7z5cpgcqdsb_gkj40000gn/T//ccGxviRN.s:3122   .text._Z12GetStopPointv:0000000000000000 $t
/var/folders/m5/x8wc2gdj7z5cpgcqdsb_gkj40000gn/T//ccGxviRN.s:3129   .text._Z12GetStopPointv:0000000000000000 _Z12GetStopPointv
/var/folders/m5/x8wc2gdj7z5cpgcqdsb_gkj40000gn/T//ccGxviRN.s:3145   .text._Z12GetStopPointv:0000000000000008 $d
/var/folders/m5/x8wc2gdj7z5cpgcqdsb_gkj40000gn/T//ccGxviRN.s:3150   .text._Z7InitLCDv:0000000000000000 $t
/var/folders/m5/x8wc2gdj7z5cpgcqdsb_gkj40000gn/T//ccGxviRN.s:3157   .text._Z7InitLCDv:0000000000000000 _Z7InitLCDv
/var/folders/m5/x8wc2gdj7z5cpgcqdsb_gkj40000gn/T//ccGxviRN.s:3235   .text._Z7InitLCDv:000000000000005c $d
/var/folders/m5/x8wc2gdj7z5cpgcqdsb_gkj40000gn/T//ccGxviRN.s:3241   .rodata._Z9PrintMenufPb.str1.4:0000000000000000 $d
/var/folders/m5/x8wc2gdj7z5cpgcqdsb_gkj40000gn/T//ccGxviRN.s:3263   .text._Z9PrintMenufPb:0000000000000000 $t
/var/folders/m5/x8wc2gdj7z5cpgcqdsb_gkj40000gn/T//ccGxviRN.s:3270   .text._Z9PrintMenufPb:0000000000000000 _Z9PrintMenufPb
/var/folders/m5/x8wc2gdj7z5cpgcqdsb_gkj40000gn/T//ccGxviRN.s:3441   .text._Z9PrintMenufPb:00000000000000b8 $d
/var/folders/m5/x8wc2gdj7z5cpgcqdsb_gkj40000gn/T//ccGxviRN.s:3454   .text._Z10UpdateModei:0000000000000000 $t
/var/folders/m5/x8wc2gdj7z5cpgcqdsb_gkj40000gn/T//ccGxviRN.s:3461   .text._Z10UpdateModei:0000000000000000 _Z10UpdateModei
/var/folders/m5/x8wc2gdj7z5cpgcqdsb_gkj40000gn/T//ccGxviRN.s:3486   .text._Z10UpdateModei:0000000000000010 $d
/var/folders/m5/x8wc2gdj7z5cpgcqdsb_gkj40000gn/T//ccGxviRN.s:3491   .text._Z11InitEffectsf:0000000000000000 $t
/var/folders/m5/x8wc2gdj7z5cpgcqdsb_gkj40000gn/T//ccGxviRN.s:3498   .text._Z11InitEffectsf:0000000000000000 _Z11InitEffectsf
/var/folders/m5/x8wc2gdj7z5cpgcqdsb_gkj40000gn/T//ccGxviRN.s:3712   .text._Z11InitEffectsf:00000000000000ac $d
/var/folders/m5/x8wc2gdj7z5cpgcqdsb_gkj40000gn/T//ccGxviRN.s:7474   .bss.chorus:0000000000000000 chorus
/var/folders/m5/x8wc2gdj7z5cpgcqdsb_gkj40000gn/T//ccGxviRN.s:3727   .text._Z14ProcessEffectsf:0000000000000000 $t
/var/folders/m5/x8wc2gdj7z5cpgcqdsb_gkj40000gn/T//ccGxviRN.s:3734   .text._Z14ProcessEffectsf:0000000000000000 _Z14ProcessEffectsf
/var/folders/m5/x8wc2gdj7z5cpgcqdsb_gkj40000gn/T//ccGxviRN.s:3891   .text._Z14ProcessEffectsf:000000000000009c $d
/var/folders/m5/x8wc2gdj7z5cpgcqdsb_gkj40000gn/T//ccGxviRN.s:3903   .text._Z23ProcessEffectParametersv:0000000000000000 $t
/var/folders/m5/x8wc2gdj7z5cpgcqdsb_gkj40000gn/T//ccGxviRN.s:3910   .text._Z23ProcessEffectParametersv:0000000000000000 _Z23ProcessEffectParametersv
/var/folders/m5/x8wc2gdj7z5cpgcqdsb_gkj40000gn/T//ccGxviRN.s:4038   .text._Z23ProcessEffectParametersv:0000000000000094 $d
/var/folders/m5/x8wc2gdj7z5cpgcqdsb_gkj40000gn/T//ccGxviRN.s:4052   .text._Z15IncrementEffecti:0000000000000000 $t
/var/folders/m5/x8wc2gdj7z5cpgcqdsb_gkj40000gn/T//ccGxviRN.s:4059   .text._Z15IncrementEffecti:0000000000000000 _Z15IncrementEffecti
/var/folders/m5/x8wc2gdj7z5cpgcqdsb_gkj40000gn/T//ccGxviRN.s:4099   .text._Z15IncrementEffecti:000000000000001c $d
ARM GAS  /var/folders/m5/x8wc2gdj7z5cpgcqdsb_gkj40000gn/T//ccGxviRN.s 			page 209


/var/folders/m5/x8wc2gdj7z5cpgcqdsb_gkj40000gn/T//ccGxviRN.s:4104   .text.startup.main:0000000000000000 $t
/var/folders/m5/x8wc2gdj7z5cpgcqdsb_gkj40000gn/T//ccGxviRN.s:4111   .text.startup.main:0000000000000000 main
/var/folders/m5/x8wc2gdj7z5cpgcqdsb_gkj40000gn/T//ccGxviRN.s:4208   .text.startup.main:000000000000006c $d
/var/folders/m5/x8wc2gdj7z5cpgcqdsb_gkj40000gn/T//ccGxviRN.s:6480   .text._Z13AudioCallbackPKPKfPPfj:0000000000000000 _Z13AudioCallbackPKPKfPPfj
/var/folders/m5/x8wc2gdj7z5cpgcqdsb_gkj40000gn/T//ccGxviRN.s:4218   .text._Z18RecordModeControlsv:0000000000000000 $t
/var/folders/m5/x8wc2gdj7z5cpgcqdsb_gkj40000gn/T//ccGxviRN.s:4225   .text._Z18RecordModeControlsv:0000000000000000 _Z18RecordModeControlsv
/var/folders/m5/x8wc2gdj7z5cpgcqdsb_gkj40000gn/T//ccGxviRN.s:4635   .text._Z18RecordModeControlsv:0000000000000118 $d
/var/folders/m5/x8wc2gdj7z5cpgcqdsb_gkj40000gn/T//ccGxviRN.s:4651   .text._Z16PlayModeControlsv:0000000000000000 $t
/var/folders/m5/x8wc2gdj7z5cpgcqdsb_gkj40000gn/T//ccGxviRN.s:4658   .text._Z16PlayModeControlsv:0000000000000000 _Z16PlayModeControlsv
/var/folders/m5/x8wc2gdj7z5cpgcqdsb_gkj40000gn/T//ccGxviRN.s:4822   .text._Z16PlayModeControlsv:0000000000000074 $d
/var/folders/m5/x8wc2gdj7z5cpgcqdsb_gkj40000gn/T//ccGxviRN.s:4832   .text._Z17ProcessControlsARv:0000000000000000 $t
/var/folders/m5/x8wc2gdj7z5cpgcqdsb_gkj40000gn/T//ccGxviRN.s:4839   .text._Z17ProcessControlsARv:0000000000000000 _Z17ProcessControlsARv
/var/folders/m5/x8wc2gdj7z5cpgcqdsb_gkj40000gn/T//ccGxviRN.s:5152   .text._Z17ProcessControlsARv:00000000000000c4 $d
/var/folders/m5/x8wc2gdj7z5cpgcqdsb_gkj40000gn/T//ccGxviRN.s:5166   .text._Z10UpdateKeysv:0000000000000000 $t
/var/folders/m5/x8wc2gdj7z5cpgcqdsb_gkj40000gn/T//ccGxviRN.s:5173   .text._Z10UpdateKeysv:0000000000000000 _Z10UpdateKeysv
/var/folders/m5/x8wc2gdj7z5cpgcqdsb_gkj40000gn/T//ccGxviRN.s:5378   .text._Z10UpdateKeysv:00000000000000d0 $d
/var/folders/m5/x8wc2gdj7z5cpgcqdsb_gkj40000gn/T//ccGxviRN.s:5389   .text._Z17ProcessControlsKRv:0000000000000000 $t
/var/folders/m5/x8wc2gdj7z5cpgcqdsb_gkj40000gn/T//ccGxviRN.s:5396   .text._Z17ProcessControlsKRv:0000000000000000 _Z17ProcessControlsKRv
/var/folders/m5/x8wc2gdj7z5cpgcqdsb_gkj40000gn/T//ccGxviRN.s:6456   .text._Z17ProcessControlsKRv:0000000000000204 $d
/var/folders/m5/x8wc2gdj7z5cpgcqdsb_gkj40000gn/T//ccGxviRN.s:6473   .text._Z13AudioCallbackPKPKfPPfj:0000000000000000 $t
/var/folders/m5/x8wc2gdj7z5cpgcqdsb_gkj40000gn/T//ccGxviRN.s:6913   .text._Z13AudioCallbackPKPKfPPfj:00000000000001a8 $d
/var/folders/m5/x8wc2gdj7z5cpgcqdsb_gkj40000gn/T//ccGxviRN.s:6939   .text._Z20UpdateControlButtonsv:0000000000000000 $t
/var/folders/m5/x8wc2gdj7z5cpgcqdsb_gkj40000gn/T//ccGxviRN.s:6946   .text._Z20UpdateControlButtonsv:0000000000000000 _Z20UpdateControlButtonsv
/var/folders/m5/x8wc2gdj7z5cpgcqdsb_gkj40000gn/T//ccGxviRN.s:7004   .text._Z20UpdateControlButtonsv:0000000000000030 $d
/var/folders/m5/x8wc2gdj7z5cpgcqdsb_gkj40000gn/T//ccGxviRN.s:7010   .text._Z25RecordControlButtonStatesv:0000000000000000 $t
/var/folders/m5/x8wc2gdj7z5cpgcqdsb_gkj40000gn/T//ccGxviRN.s:7017   .text._Z25RecordControlButtonStatesv:0000000000000000 _Z25RecordControlButtonStatesv
/var/folders/m5/x8wc2gdj7z5cpgcqdsb_gkj40000gn/T//ccGxviRN.s:7041   .text._Z25RecordControlButtonStatesv:0000000000000010 $d
/var/folders/m5/x8wc2gdj7z5cpgcqdsb_gkj40000gn/T//ccGxviRN.s:7047   .text._Z10ModeSelectv:0000000000000000 $t
/var/folders/m5/x8wc2gdj7z5cpgcqdsb_gkj40000gn/T//ccGxviRN.s:7054   .text._Z10ModeSelectv:0000000000000000 _Z10ModeSelectv
/var/folders/m5/x8wc2gdj7z5cpgcqdsb_gkj40000gn/T//ccGxviRN.s:7153   .text._Z10ModeSelectv:0000000000000024 $d
/var/folders/m5/x8wc2gdj7z5cpgcqdsb_gkj40000gn/T//ccGxviRN.s:7160   .text.startup._GLOBAL__sub_I_adcConfig:0000000000000000 $t
/var/folders/m5/x8wc2gdj7z5cpgcqdsb_gkj40000gn/T//ccGxviRN.s:7166   .text.startup._GLOBAL__sub_I_adcConfig:0000000000000000 _GLOBAL__sub_I_adcConfig
/var/folders/m5/x8wc2gdj7z5cpgcqdsb_gkj40000gn/T//ccGxviRN.s:7366   .text.startup._GLOBAL__sub_I_adcConfig:0000000000000058 $d
/var/folders/m5/x8wc2gdj7z5cpgcqdsb_gkj40000gn/T//ccGxviRN.s:7387   .init_array:0000000000000000 $d
/var/folders/m5/x8wc2gdj7z5cpgcqdsb_gkj40000gn/T//ccGxviRN.s:7727   .bss.testValInt:0000000000000000 testValInt
/var/folders/m5/x8wc2gdj7z5cpgcqdsb_gkj40000gn/T//ccGxviRN.s:7720   .bss.testValFloat:0000000000000000 testValFloat
/var/folders/m5/x8wc2gdj7z5cpgcqdsb_gkj40000gn/T//ccGxviRN.s:7767   .data.inputAmp:0000000000000000 inputAmp
/var/folders/m5/x8wc2gdj7z5cpgcqdsb_gkj40000gn/T//ccGxviRN.s:7774   .data.outputAmp:0000000000000000 outputAmp
/var/folders/m5/x8wc2gdj7z5cpgcqdsb_gkj40000gn/T//ccGxviRN.s:7550   .bss.inputSig:0000000000000000 inputSig
/var/folders/m5/x8wc2gdj7z5cpgcqdsb_gkj40000gn/T//ccGxviRN.s:7685   .bss.sampleSig:0000000000000000 sampleSig
/var/folders/m5/x8wc2gdj7z5cpgcqdsb_gkj40000gn/T//ccGxviRN.s:7631   .bss.outputMix:0000000000000000 outputMix
/var/folders/m5/x8wc2gdj7z5cpgcqdsb_gkj40000gn/T//ccGxviRN.s:7543   .bss.hw:0000000000000000 hw
/var/folders/m5/x8wc2gdj7z5cpgcqdsb_gkj40000gn/T//ccGxviRN.s:7755   .data.effectValues:0000000000000000 effectValues
/var/folders/m5/x8wc2gdj7z5cpgcqdsb_gkj40000gn/T//ccGxviRN.s:7502   .bss.effectStates:0000000000000000 effectStates
/var/folders/m5/x8wc2gdj7z5cpgcqdsb_gkj40000gn/T//ccGxviRN.s:7488   .bss.currentEffect:0000000000000000 currentEffect
/var/folders/m5/x8wc2gdj7z5cpgcqdsb_gkj40000gn/T//ccGxviRN.s:7604   .bss.lopass:0000000000000000 lopass
/var/folders/m5/x8wc2gdj7z5cpgcqdsb_gkj40000gn/T//ccGxviRN.s:7624   .bss.odTone:0000000000000000 odTone
/var/folders/m5/x8wc2gdj7z5cpgcqdsb_gkj40000gn/T//ccGxviRN.s:7638   .bss.overdrive:0000000000000000 overdrive
/var/folders/m5/x8wc2gdj7z5cpgcqdsb_gkj40000gn/T//ccGxviRN.s:7610   .bss.mode:0000000000000000 mode
/var/folders/m5/x8wc2gdj7z5cpgcqdsb_gkj40000gn/T//ccGxviRN.s:7590   .bss.lcd:0000000000000000 lcd
/var/folders/m5/x8wc2gdj7z5cpgcqdsb_gkj40000gn/T//ccGxviRN.s:7795   .data.spliceBufferFourLength:0000000000000000 spliceBufferFourLength
/var/folders/m5/x8wc2gdj7z5cpgcqdsb_gkj40000gn/T//ccGxviRN.s:7809   .data.spliceBufferThreeLength:0000000000000000 spliceBufferThreeLength
/var/folders/m5/x8wc2gdj7z5cpgcqdsb_gkj40000gn/T//ccGxviRN.s:7816   .data.spliceBufferTwoLength:0000000000000000 spliceBufferTwoLength
/var/folders/m5/x8wc2gdj7z5cpgcqdsb_gkj40000gn/T//ccGxviRN.s:7802   .data.spliceBufferOneLength:0000000000000000 spliceBufferOneLength
/var/folders/m5/x8wc2gdj7z5cpgcqdsb_gkj40000gn/T//ccGxviRN.s:7699   .bss.spliceBufferReadIndexFraction:0000000000000000 spliceBufferReadIndexFraction
/var/folders/m5/x8wc2gdj7z5cpgcqdsb_gkj40000gn/T//ccGxviRN.s:7706   .bss.spliceBufferReadIndexInt:0000000000000000 spliceBufferReadIndexInt
/var/folders/m5/x8wc2gdj7z5cpgcqdsb_gkj40000gn/T//ccGxviRN.s:7692   .bss.spliceBufferReadIndex:0000000000000000 spliceBufferReadIndex
ARM GAS  /var/folders/m5/x8wc2gdj7z5cpgcqdsb_gkj40000gn/T//ccGxviRN.s 			page 210


/var/folders/m5/x8wc2gdj7z5cpgcqdsb_gkj40000gn/T//ccGxviRN.s:7461   .bss.SpliceBufferIsPlaying:0000000000000000 SpliceBufferIsPlaying
/var/folders/m5/x8wc2gdj7z5cpgcqdsb_gkj40000gn/T//ccGxviRN.s:7748   .data.currentSpliceBuffer:0000000000000000 currentSpliceBuffer
/var/folders/m5/x8wc2gdj7z5cpgcqdsb_gkj40000gn/T//ccGxviRN.s:7741   .data.baseFreq:0000000000000000 baseFreq
/var/folders/m5/x8wc2gdj7z5cpgcqdsb_gkj40000gn/T//ccGxviRN.s:7556   .bss.isPlaying:0000000000000000 isPlaying
/var/folders/m5/x8wc2gdj7z5cpgcqdsb_gkj40000gn/T//ccGxviRN.s:7562   .bss.isRecording:0000000000000000 isRecording
/var/folders/m5/x8wc2gdj7z5cpgcqdsb_gkj40000gn/T//ccGxviRN.s:7617   .bss.noteKey:0000000000000000 noteKey
/var/folders/m5/x8wc2gdj7z5cpgcqdsb_gkj40000gn/T//ccGxviRN.s:7495   .bss.currentKey:0000000000000000 currentKey
/var/folders/m5/x8wc2gdj7z5cpgcqdsb_gkj40000gn/T//ccGxviRN.s:7823   .data.stopPoint:0000000000000000 stopPoint
/var/folders/m5/x8wc2gdj7z5cpgcqdsb_gkj40000gn/T//ccGxviRN.s:7713   .bss.startPoint:0000000000000000 startPoint
/var/folders/m5/x8wc2gdj7z5cpgcqdsb_gkj40000gn/T//ccGxviRN.s:7576   .bss.keyStates:0000000000000000 keyStates
/var/folders/m5/x8wc2gdj7z5cpgcqdsb_gkj40000gn/T//ccGxviRN.s:7583   .bss.keyStopIndex:0000000000000000 keyStopIndex
/var/folders/m5/x8wc2gdj7z5cpgcqdsb_gkj40000gn/T//ccGxviRN.s:7569   .bss.keyStartIndex:0000000000000000 keyStartIndex
/var/folders/m5/x8wc2gdj7z5cpgcqdsb_gkj40000gn/T//ccGxviRN.s:7529   .bss.fullSampleReadIndexFraction:0000000000000000 fullSampleReadIndexFraction
/var/folders/m5/x8wc2gdj7z5cpgcqdsb_gkj40000gn/T//ccGxviRN.s:7536   .bss.fullSampleReadIndexInt:0000000000000000 fullSampleReadIndexInt
/var/folders/m5/x8wc2gdj7z5cpgcqdsb_gkj40000gn/T//ccGxviRN.s:7522   .bss.fullSampleReadIndex:0000000000000000 fullSampleReadIndex
/var/folders/m5/x8wc2gdj7z5cpgcqdsb_gkj40000gn/T//ccGxviRN.s:7597   .bss.lengthTrack:0000000000000000 lengthTrack
/var/folders/m5/x8wc2gdj7z5cpgcqdsb_gkj40000gn/T//ccGxviRN.s:7788   .data.recordingLength:0000000000000000 recordingLength
/var/folders/m5/x8wc2gdj7z5cpgcqdsb_gkj40000gn/T//ccGxviRN.s:7734   .bss.writeIndex:0000000000000000 writeIndex
/var/folders/m5/x8wc2gdj7z5cpgcqdsb_gkj40000gn/T//ccGxviRN.s:7678   .bss.readPitch:0000000000000000 readPitch
/var/folders/m5/x8wc2gdj7z5cpgcqdsb_gkj40000gn/T//ccGxviRN.s:7781   .data.readFactor:0000000000000000 readFactor
/var/folders/m5/x8wc2gdj7z5cpgcqdsb_gkj40000gn/T//ccGxviRN.s:7665   .bss.readIndexFraction:0000000000000000 readIndexFraction
/var/folders/m5/x8wc2gdj7z5cpgcqdsb_gkj40000gn/T//ccGxviRN.s:7672   .bss.readIndexInt:0000000000000000 readIndexInt
/var/folders/m5/x8wc2gdj7z5cpgcqdsb_gkj40000gn/T//ccGxviRN.s:7658   .bss.readIndex:0000000000000000 readIndex
/var/folders/m5/x8wc2gdj7z5cpgcqdsb_gkj40000gn/T//ccGxviRN.s:7644   .bss.playButtonOverrule:0000000000000000 playButtonOverrule
/var/folders/m5/x8wc2gdj7z5cpgcqdsb_gkj40000gn/T//ccGxviRN.s:7651   .bss.prevControlButtonStates:0000000000000000 prevControlButtonStates
/var/folders/m5/x8wc2gdj7z5cpgcqdsb_gkj40000gn/T//ccGxviRN.s:7481   .bss.controlButtonStates:0000000000000000 controlButtonStates
/var/folders/m5/x8wc2gdj7z5cpgcqdsb_gkj40000gn/T//ccGxviRN.s:7515   .bss.encoderTurnVal:0000000000000000 encoderTurnVal
/var/folders/m5/x8wc2gdj7z5cpgcqdsb_gkj40000gn/T//ccGxviRN.s:7509   .bss.encoder:0000000000000000 encoder
/var/folders/m5/x8wc2gdj7z5cpgcqdsb_gkj40000gn/T//ccGxviRN.s:7468   .bss.adcConfig:0000000000000000 adcConfig
/var/folders/m5/x8wc2gdj7z5cpgcqdsb_gkj40000gn/T//ccGxviRN.s:7448   .rodata:0000000000000000 $d
/var/folders/m5/x8wc2gdj7z5cpgcqdsb_gkj40000gn/T//ccGxviRN.s:7462   .bss.SpliceBufferIsPlaying:0000000000000000 $d
/var/folders/m5/x8wc2gdj7z5cpgcqdsb_gkj40000gn/T//ccGxviRN.s:7464   .bss.adcConfig:0000000000000000 $d
/var/folders/m5/x8wc2gdj7z5cpgcqdsb_gkj40000gn/T//ccGxviRN.s:7471   .bss.chorus:0000000000000000 $d
/var/folders/m5/x8wc2gdj7z5cpgcqdsb_gkj40000gn/T//ccGxviRN.s:7477   .bss.controlButtonStates:0000000000000000 $d
/var/folders/m5/x8wc2gdj7z5cpgcqdsb_gkj40000gn/T//ccGxviRN.s:7484   .bss.currentEffect:0000000000000000 $d
/var/folders/m5/x8wc2gdj7z5cpgcqdsb_gkj40000gn/T//ccGxviRN.s:7491   .bss.currentKey:0000000000000000 $d
/var/folders/m5/x8wc2gdj7z5cpgcqdsb_gkj40000gn/T//ccGxviRN.s:7498   .bss.effectStates:0000000000000000 $d
/var/folders/m5/x8wc2gdj7z5cpgcqdsb_gkj40000gn/T//ccGxviRN.s:7505   .bss.encoder:0000000000000000 $d
/var/folders/m5/x8wc2gdj7z5cpgcqdsb_gkj40000gn/T//ccGxviRN.s:7512   .bss.encoderTurnVal:0000000000000000 $d
/var/folders/m5/x8wc2gdj7z5cpgcqdsb_gkj40000gn/T//ccGxviRN.s:7518   .bss.fullSampleReadIndex:0000000000000000 $d
/var/folders/m5/x8wc2gdj7z5cpgcqdsb_gkj40000gn/T//ccGxviRN.s:7525   .bss.fullSampleReadIndexFraction:0000000000000000 $d
/var/folders/m5/x8wc2gdj7z5cpgcqdsb_gkj40000gn/T//ccGxviRN.s:7532   .bss.fullSampleReadIndexInt:0000000000000000 $d
/var/folders/m5/x8wc2gdj7z5cpgcqdsb_gkj40000gn/T//ccGxviRN.s:7539   .bss.hw:0000000000000000 $d
/var/folders/m5/x8wc2gdj7z5cpgcqdsb_gkj40000gn/T//ccGxviRN.s:7546   .bss.inputSig:0000000000000000 $d
/var/folders/m5/x8wc2gdj7z5cpgcqdsb_gkj40000gn/T//ccGxviRN.s:7557   .bss.isPlaying:0000000000000000 $d
/var/folders/m5/x8wc2gdj7z5cpgcqdsb_gkj40000gn/T//ccGxviRN.s:7563   .bss.isRecording:0000000000000000 $d
/var/folders/m5/x8wc2gdj7z5cpgcqdsb_gkj40000gn/T//ccGxviRN.s:7565   .bss.keyStartIndex:0000000000000000 $d
/var/folders/m5/x8wc2gdj7z5cpgcqdsb_gkj40000gn/T//ccGxviRN.s:7572   .bss.keyStates:0000000000000000 $d
/var/folders/m5/x8wc2gdj7z5cpgcqdsb_gkj40000gn/T//ccGxviRN.s:7579   .bss.keyStopIndex:0000000000000000 $d
/var/folders/m5/x8wc2gdj7z5cpgcqdsb_gkj40000gn/T//ccGxviRN.s:7586   .bss.lcd:0000000000000000 $d
/var/folders/m5/x8wc2gdj7z5cpgcqdsb_gkj40000gn/T//ccGxviRN.s:7593   .bss.lengthTrack:0000000000000000 $d
/var/folders/m5/x8wc2gdj7z5cpgcqdsb_gkj40000gn/T//ccGxviRN.s:7600   .bss.lopass:0000000000000000 $d
/var/folders/m5/x8wc2gdj7z5cpgcqdsb_gkj40000gn/T//ccGxviRN.s:7611   .bss.mode:0000000000000000 $d
/var/folders/m5/x8wc2gdj7z5cpgcqdsb_gkj40000gn/T//ccGxviRN.s:7613   .bss.noteKey:0000000000000000 $d
/var/folders/m5/x8wc2gdj7z5cpgcqdsb_gkj40000gn/T//ccGxviRN.s:7620   .bss.odTone:0000000000000000 $d
/var/folders/m5/x8wc2gdj7z5cpgcqdsb_gkj40000gn/T//ccGxviRN.s:7627   .bss.outputMix:0000000000000000 $d
/var/folders/m5/x8wc2gdj7z5cpgcqdsb_gkj40000gn/T//ccGxviRN.s:7634   .bss.overdrive:0000000000000000 $d
ARM GAS  /var/folders/m5/x8wc2gdj7z5cpgcqdsb_gkj40000gn/T//ccGxviRN.s 			page 211


/var/folders/m5/x8wc2gdj7z5cpgcqdsb_gkj40000gn/T//ccGxviRN.s:7645   .bss.playButtonOverrule:0000000000000000 $d
/var/folders/m5/x8wc2gdj7z5cpgcqdsb_gkj40000gn/T//ccGxviRN.s:7647   .bss.prevControlButtonStates:0000000000000000 $d
/var/folders/m5/x8wc2gdj7z5cpgcqdsb_gkj40000gn/T//ccGxviRN.s:7654   .bss.readIndex:0000000000000000 $d
/var/folders/m5/x8wc2gdj7z5cpgcqdsb_gkj40000gn/T//ccGxviRN.s:7661   .bss.readIndexFraction:0000000000000000 $d
/var/folders/m5/x8wc2gdj7z5cpgcqdsb_gkj40000gn/T//ccGxviRN.s:7668   .bss.readIndexInt:0000000000000000 $d
/var/folders/m5/x8wc2gdj7z5cpgcqdsb_gkj40000gn/T//ccGxviRN.s:7675   .bss.readPitch:0000000000000000 $d
/var/folders/m5/x8wc2gdj7z5cpgcqdsb_gkj40000gn/T//ccGxviRN.s:7681   .bss.sampleSig:0000000000000000 $d
/var/folders/m5/x8wc2gdj7z5cpgcqdsb_gkj40000gn/T//ccGxviRN.s:7688   .bss.spliceBufferReadIndex:0000000000000000 $d
/var/folders/m5/x8wc2gdj7z5cpgcqdsb_gkj40000gn/T//ccGxviRN.s:7695   .bss.spliceBufferReadIndexFraction:0000000000000000 $d
/var/folders/m5/x8wc2gdj7z5cpgcqdsb_gkj40000gn/T//ccGxviRN.s:7702   .bss.spliceBufferReadIndexInt:0000000000000000 $d
/var/folders/m5/x8wc2gdj7z5cpgcqdsb_gkj40000gn/T//ccGxviRN.s:7709   .bss.startPoint:0000000000000000 $d
/var/folders/m5/x8wc2gdj7z5cpgcqdsb_gkj40000gn/T//ccGxviRN.s:7716   .bss.testValFloat:0000000000000000 $d
/var/folders/m5/x8wc2gdj7z5cpgcqdsb_gkj40000gn/T//ccGxviRN.s:7723   .bss.testValInt:0000000000000000 $d
/var/folders/m5/x8wc2gdj7z5cpgcqdsb_gkj40000gn/T//ccGxviRN.s:7730   .bss.writeIndex:0000000000000000 $d
/var/folders/m5/x8wc2gdj7z5cpgcqdsb_gkj40000gn/T//ccGxviRN.s:7737   .data.baseFreq:0000000000000000 $d
/var/folders/m5/x8wc2gdj7z5cpgcqdsb_gkj40000gn/T//ccGxviRN.s:7744   .data.currentSpliceBuffer:0000000000000000 $d
/var/folders/m5/x8wc2gdj7z5cpgcqdsb_gkj40000gn/T//ccGxviRN.s:7751   .data.effectValues:0000000000000000 $d
/var/folders/m5/x8wc2gdj7z5cpgcqdsb_gkj40000gn/T//ccGxviRN.s:7763   .data.inputAmp:0000000000000000 $d
/var/folders/m5/x8wc2gdj7z5cpgcqdsb_gkj40000gn/T//ccGxviRN.s:7770   .data.outputAmp:0000000000000000 $d
/var/folders/m5/x8wc2gdj7z5cpgcqdsb_gkj40000gn/T//ccGxviRN.s:7777   .data.readFactor:0000000000000000 $d
/var/folders/m5/x8wc2gdj7z5cpgcqdsb_gkj40000gn/T//ccGxviRN.s:7784   .data.recordingLength:0000000000000000 $d
/var/folders/m5/x8wc2gdj7z5cpgcqdsb_gkj40000gn/T//ccGxviRN.s:7791   .data.spliceBufferFourLength:0000000000000000 $d
/var/folders/m5/x8wc2gdj7z5cpgcqdsb_gkj40000gn/T//ccGxviRN.s:7798   .data.spliceBufferOneLength:0000000000000000 $d
/var/folders/m5/x8wc2gdj7z5cpgcqdsb_gkj40000gn/T//ccGxviRN.s:7805   .data.spliceBufferThreeLength:0000000000000000 $d
/var/folders/m5/x8wc2gdj7z5cpgcqdsb_gkj40000gn/T//ccGxviRN.s:7812   .data.spliceBufferTwoLength:0000000000000000 $d
/var/folders/m5/x8wc2gdj7z5cpgcqdsb_gkj40000gn/T//ccGxviRN.s:7819   .data.stopPoint:0000000000000000 $d
/var/folders/m5/x8wc2gdj7z5cpgcqdsb_gkj40000gn/T//ccGxviRN.s:7826   .sdram_bss:0000000000000000 $d
                           .group:0000000000000000 _ZN5daisy7EncoderD5Ev
                           .group:0000000000000000 _ZN5daisy10LcdHD44780D5Ev
                           .group:0000000000000000 _ZN5daisy9DaisySeedD5Ev
                           .group:0000000000000000 _ZN7daisysp3SvfD5Ev
                           .group:0000000000000000 _ZN7daisysp6ChorusD5Ev
                           .group:0000000000000000 _ZN7daisysp9OverdriveD5Ev
                           .group:0000000000000000 _ZN7daisysp7OnePoleD5Ev

UNDEFINED SYMBOLS
_ZN5daisy16AdcChannelConfig7InitMuxE12dsy_gpio_pinjS1_S1_S1_NS0_15ConversionSpeedE
_ZN5daisy7Encoder4InitE12dsy_gpio_pinS1_S1_f
memset
powf
_ZN5daisy10LcdHD447804InitERKNS0_6ConfigE
_ZN5daisy10LcdHD447805ClearEv
_ZN5daisy10LcdHD447809SetCursorEhh
_ZN5daisy10LcdHD447805PrintEPKc
_ZN7daisysp9Overdrive4InitEv
_ZN7daisysp9Overdrive8SetDriveEf
tanf
_ZN7daisysp6Chorus4InitEf
_ZN7daisysp6Chorus11SetLfoDepthEf
_ZN7daisysp6Chorus10SetLfoFreqEf
_ZN7daisysp3Svf4InitEf
_ZN7daisysp3Svf7SetFreqEf
_ZN7daisysp3Svf6SetResEf
_ZN7daisysp9Overdrive7ProcessEf
_ZN7daisysp6Chorus7ProcessEf
_ZN7daisysp3Svf7ProcessEf
_ZN5daisy9DaisySeed4InitEb
ARM GAS  /var/folders/m5/x8wc2gdj7z5cpgcqdsb_gkj40000gn/T//ccGxviRN.s 			page 212


_ZN5daisy9DaisySeed17SetAudioBlockSizeEj
_ZN5daisy9DaisySeed18SetAudioSampleRateENS_9SaiHandle6Config10SampleRateE
_ZN5daisy9DaisySeed15AudioSampleRateEv
_ZN5daisy9AdcHandle4InitEPNS_16AdcChannelConfigEjNS0_12OverSamplingE
_ZN5daisy9AdcHandle5StartEv
_ZN5daisy9DaisySeed10StartAudioEPFvPKPKfPPfjE
_ZN5daisy6System5DelayEm
_ZNK5daisy9AdcHandle11GetMuxFloatEhh
_ZN5daisy7Encoder8DebounceEv
__aeabi_atexit
__dso_handle
