ARM GAS  /var/folders/m5/x8wc2gdj7z5cpgcqdsb_gkj40000gn/T//ccPXNgbP.s 			page 1


   1              		.cpu cortex-m7
   2              		.arch armv7e-m
   3              		.fpu fpv5-d16
   4              		.eabi_attribute 28, 1
   5              		.eabi_attribute 20, 1
   6              		.eabi_attribute 21, 1
   7              		.eabi_attribute 23, 3
   8              		.eabi_attribute 24, 1
   9              		.eabi_attribute 25, 1
  10              		.eabi_attribute 26, 1
  11              		.eabi_attribute 30, 2
  12              		.eabi_attribute 34, 1
  13              		.eabi_attribute 18, 4
  14              		.file	"sardinia.cpp"
  15              		.text
  16              	.Ltext0:
  17              		.cfi_sections	.debug_frame
  18              		.section	.text._ZN5daisy6SwitchD2Ev,"axG",%progbits,_ZN5daisy6SwitchD5Ev,comdat
  19              		.align	1
  20              		.p2align 2,,3
  21              		.weak	_ZN5daisy6SwitchD2Ev
  22              		.syntax unified
  23              		.thumb
  24              		.thumb_func
  26              	_ZN5daisy6SwitchD2Ev:
  27              	.LVL0:
  28              	.LFB1640:
  29              		.file 1 "/Users/dominicfrugoli/Desktop/ProgrammingCode/DaisyCode/DaisyExamples/libDaisy/src/hid/sw
   1:/Users/dominicfrugoli/Desktop/ProgrammingCode/DaisyCode/DaisyExamples/libDaisy/src/hid/switch.h **** #pragma once
   2:/Users/dominicfrugoli/Desktop/ProgrammingCode/DaisyCode/DaisyExamples/libDaisy/src/hid/switch.h **** #ifndef DSY_SWITCH_H
   3:/Users/dominicfrugoli/Desktop/ProgrammingCode/DaisyCode/DaisyExamples/libDaisy/src/hid/switch.h **** #define DSY_SWITCH_H
   4:/Users/dominicfrugoli/Desktop/ProgrammingCode/DaisyCode/DaisyExamples/libDaisy/src/hid/switch.h **** #include "daisy_core.h"
   5:/Users/dominicfrugoli/Desktop/ProgrammingCode/DaisyCode/DaisyExamples/libDaisy/src/hid/switch.h **** #include "per/gpio.h"
   6:/Users/dominicfrugoli/Desktop/ProgrammingCode/DaisyCode/DaisyExamples/libDaisy/src/hid/switch.h **** #include "sys/system.h"
   7:/Users/dominicfrugoli/Desktop/ProgrammingCode/DaisyCode/DaisyExamples/libDaisy/src/hid/switch.h **** 
   8:/Users/dominicfrugoli/Desktop/ProgrammingCode/DaisyCode/DaisyExamples/libDaisy/src/hid/switch.h **** namespace daisy
   9:/Users/dominicfrugoli/Desktop/ProgrammingCode/DaisyCode/DaisyExamples/libDaisy/src/hid/switch.h **** {
  10:/Users/dominicfrugoli/Desktop/ProgrammingCode/DaisyCode/DaisyExamples/libDaisy/src/hid/switch.h **** /** 
  11:/Users/dominicfrugoli/Desktop/ProgrammingCode/DaisyCode/DaisyExamples/libDaisy/src/hid/switch.h ****     Generic Class for handling momentary/latching switches \n 
  12:/Users/dominicfrugoli/Desktop/ProgrammingCode/DaisyCode/DaisyExamples/libDaisy/src/hid/switch.h ****     Inspired/influenced by Mutable Instruments (pichenettes) Switch classes
  13:/Users/dominicfrugoli/Desktop/ProgrammingCode/DaisyCode/DaisyExamples/libDaisy/src/hid/switch.h ****     @author Stephen Hensley
  14:/Users/dominicfrugoli/Desktop/ProgrammingCode/DaisyCode/DaisyExamples/libDaisy/src/hid/switch.h ****     @date December 2019
  15:/Users/dominicfrugoli/Desktop/ProgrammingCode/DaisyCode/DaisyExamples/libDaisy/src/hid/switch.h ****     @ingroup controls
  16:/Users/dominicfrugoli/Desktop/ProgrammingCode/DaisyCode/DaisyExamples/libDaisy/src/hid/switch.h **** */
  17:/Users/dominicfrugoli/Desktop/ProgrammingCode/DaisyCode/DaisyExamples/libDaisy/src/hid/switch.h **** class Switch
  18:/Users/dominicfrugoli/Desktop/ProgrammingCode/DaisyCode/DaisyExamples/libDaisy/src/hid/switch.h **** {
  19:/Users/dominicfrugoli/Desktop/ProgrammingCode/DaisyCode/DaisyExamples/libDaisy/src/hid/switch.h ****   public:
  20:/Users/dominicfrugoli/Desktop/ProgrammingCode/DaisyCode/DaisyExamples/libDaisy/src/hid/switch.h ****     /** Specifies the expected behavior of the switch */
  21:/Users/dominicfrugoli/Desktop/ProgrammingCode/DaisyCode/DaisyExamples/libDaisy/src/hid/switch.h ****     enum Type
  22:/Users/dominicfrugoli/Desktop/ProgrammingCode/DaisyCode/DaisyExamples/libDaisy/src/hid/switch.h ****     {
  23:/Users/dominicfrugoli/Desktop/ProgrammingCode/DaisyCode/DaisyExamples/libDaisy/src/hid/switch.h ****         TYPE_TOGGLE,    /**< & */
  24:/Users/dominicfrugoli/Desktop/ProgrammingCode/DaisyCode/DaisyExamples/libDaisy/src/hid/switch.h ****         TYPE_MOMENTARY, /**< & */
  25:/Users/dominicfrugoli/Desktop/ProgrammingCode/DaisyCode/DaisyExamples/libDaisy/src/hid/switch.h ****     };
  26:/Users/dominicfrugoli/Desktop/ProgrammingCode/DaisyCode/DaisyExamples/libDaisy/src/hid/switch.h ****     /** Specifies whether the pressed is HIGH or LOW. */
  27:/Users/dominicfrugoli/Desktop/ProgrammingCode/DaisyCode/DaisyExamples/libDaisy/src/hid/switch.h ****     enum Polarity
  28:/Users/dominicfrugoli/Desktop/ProgrammingCode/DaisyCode/DaisyExamples/libDaisy/src/hid/switch.h ****     {
  29:/Users/dominicfrugoli/Desktop/ProgrammingCode/DaisyCode/DaisyExamples/libDaisy/src/hid/switch.h ****         POLARITY_NORMAL,   /**< & */
ARM GAS  /var/folders/m5/x8wc2gdj7z5cpgcqdsb_gkj40000gn/T//ccPXNgbP.s 			page 2


  30:/Users/dominicfrugoli/Desktop/ProgrammingCode/DaisyCode/DaisyExamples/libDaisy/src/hid/switch.h ****         POLARITY_INVERTED, /**< & */
  31:/Users/dominicfrugoli/Desktop/ProgrammingCode/DaisyCode/DaisyExamples/libDaisy/src/hid/switch.h ****     };
  32:/Users/dominicfrugoli/Desktop/ProgrammingCode/DaisyCode/DaisyExamples/libDaisy/src/hid/switch.h **** 
  33:/Users/dominicfrugoli/Desktop/ProgrammingCode/DaisyCode/DaisyExamples/libDaisy/src/hid/switch.h ****     /** Specifies whether to use built-in Pull Up/Down resistors to hold button at a given state wh
  34:/Users/dominicfrugoli/Desktop/ProgrammingCode/DaisyCode/DaisyExamples/libDaisy/src/hid/switch.h ****     enum Pull
  35:/Users/dominicfrugoli/Desktop/ProgrammingCode/DaisyCode/DaisyExamples/libDaisy/src/hid/switch.h ****     {
  36:/Users/dominicfrugoli/Desktop/ProgrammingCode/DaisyCode/DaisyExamples/libDaisy/src/hid/switch.h ****         PULL_UP,   /**< & */
  37:/Users/dominicfrugoli/Desktop/ProgrammingCode/DaisyCode/DaisyExamples/libDaisy/src/hid/switch.h ****         PULL_DOWN, /**< & */
  38:/Users/dominicfrugoli/Desktop/ProgrammingCode/DaisyCode/DaisyExamples/libDaisy/src/hid/switch.h ****         PULL_NONE, /**< & */
  39:/Users/dominicfrugoli/Desktop/ProgrammingCode/DaisyCode/DaisyExamples/libDaisy/src/hid/switch.h ****     };
  40:/Users/dominicfrugoli/Desktop/ProgrammingCode/DaisyCode/DaisyExamples/libDaisy/src/hid/switch.h **** 
  41:/Users/dominicfrugoli/Desktop/ProgrammingCode/DaisyCode/DaisyExamples/libDaisy/src/hid/switch.h ****     Switch() {}
  42:/Users/dominicfrugoli/Desktop/ProgrammingCode/DaisyCode/DaisyExamples/libDaisy/src/hid/switch.h ****     ~Switch() {}
  30              		.loc 1 42 5 view -0
  31              		.cfi_startproc
  32              		@ args = 0, pretend = 0, frame = 0
  33              		@ frame_needed = 0, uses_anonymous_args = 0
  34              		@ link register save eliminated.
  35              		.loc 1 42 16 is_stmt 0 view .LVU1
  36 0000 7047     		bx	lr
  37              		.cfi_endproc
  38              	.LFE1640:
  40              		.weak	_ZN5daisy6SwitchD1Ev
  41              		.thumb_set _ZN5daisy6SwitchD1Ev,_ZN5daisy6SwitchD2Ev
  42 0002 00BF     		.section	.text._ZN5daisy7EncoderD2Ev,"axG",%progbits,_ZN5daisy7EncoderD5Ev,comdat
  43              		.align	1
  44              		.p2align 2,,3
  45              		.weak	_ZN5daisy7EncoderD2Ev
  46              		.syntax unified
  47              		.thumb
  48              		.thumb_func
  50              	_ZN5daisy7EncoderD2Ev:
  51              	.LVL1:
  52              	.LFB1652:
  53              		.file 2 "/Users/dominicfrugoli/Desktop/ProgrammingCode/DaisyCode/DaisyExamples/libDaisy/src/hid/en
   1:/Users/dominicfrugoli/Desktop/ProgrammingCode/DaisyCode/DaisyExamples/libDaisy/src/hid/encoder.h **** #pragma once
   2:/Users/dominicfrugoli/Desktop/ProgrammingCode/DaisyCode/DaisyExamples/libDaisy/src/hid/encoder.h **** #ifndef DSY_ENCODER_H
   3:/Users/dominicfrugoli/Desktop/ProgrammingCode/DaisyCode/DaisyExamples/libDaisy/src/hid/encoder.h **** #define DSY_ENCODER_H
   4:/Users/dominicfrugoli/Desktop/ProgrammingCode/DaisyCode/DaisyExamples/libDaisy/src/hid/encoder.h **** #include "daisy_core.h"
   5:/Users/dominicfrugoli/Desktop/ProgrammingCode/DaisyCode/DaisyExamples/libDaisy/src/hid/encoder.h **** #include "per/gpio.h"
   6:/Users/dominicfrugoli/Desktop/ProgrammingCode/DaisyCode/DaisyExamples/libDaisy/src/hid/encoder.h **** #include "hid/switch.h"
   7:/Users/dominicfrugoli/Desktop/ProgrammingCode/DaisyCode/DaisyExamples/libDaisy/src/hid/encoder.h **** 
   8:/Users/dominicfrugoli/Desktop/ProgrammingCode/DaisyCode/DaisyExamples/libDaisy/src/hid/encoder.h **** namespace daisy
   9:/Users/dominicfrugoli/Desktop/ProgrammingCode/DaisyCode/DaisyExamples/libDaisy/src/hid/encoder.h **** {
  10:/Users/dominicfrugoli/Desktop/ProgrammingCode/DaisyCode/DaisyExamples/libDaisy/src/hid/encoder.h **** /** 
  11:/Users/dominicfrugoli/Desktop/ProgrammingCode/DaisyCode/DaisyExamples/libDaisy/src/hid/encoder.h ****     @brief Generic Class for handling Quadrature Encoders \n 
  12:/Users/dominicfrugoli/Desktop/ProgrammingCode/DaisyCode/DaisyExamples/libDaisy/src/hid/encoder.h ****     Inspired/influenced by Mutable Instruments (pichenettes) Encoder classes
  13:/Users/dominicfrugoli/Desktop/ProgrammingCode/DaisyCode/DaisyExamples/libDaisy/src/hid/encoder.h ****     @author Stephen Hensley
  14:/Users/dominicfrugoli/Desktop/ProgrammingCode/DaisyCode/DaisyExamples/libDaisy/src/hid/encoder.h ****     @date December 2019
  15:/Users/dominicfrugoli/Desktop/ProgrammingCode/DaisyCode/DaisyExamples/libDaisy/src/hid/encoder.h ****     @ingroup controls
  16:/Users/dominicfrugoli/Desktop/ProgrammingCode/DaisyCode/DaisyExamples/libDaisy/src/hid/encoder.h **** */
  17:/Users/dominicfrugoli/Desktop/ProgrammingCode/DaisyCode/DaisyExamples/libDaisy/src/hid/encoder.h **** class Encoder
  18:/Users/dominicfrugoli/Desktop/ProgrammingCode/DaisyCode/DaisyExamples/libDaisy/src/hid/encoder.h **** {
  19:/Users/dominicfrugoli/Desktop/ProgrammingCode/DaisyCode/DaisyExamples/libDaisy/src/hid/encoder.h ****   public:
  20:/Users/dominicfrugoli/Desktop/ProgrammingCode/DaisyCode/DaisyExamples/libDaisy/src/hid/encoder.h ****     Encoder() {}
  21:/Users/dominicfrugoli/Desktop/ProgrammingCode/DaisyCode/DaisyExamples/libDaisy/src/hid/encoder.h ****     ~Encoder() {}
  54              		.loc 2 21 5 is_stmt 1 view -0
ARM GAS  /var/folders/m5/x8wc2gdj7z5cpgcqdsb_gkj40000gn/T//ccPXNgbP.s 			page 3


  55              		.cfi_startproc
  56              		@ args = 0, pretend = 0, frame = 0
  57              		@ frame_needed = 0, uses_anonymous_args = 0
  58              		@ link register save eliminated.
  59              	.LBB224:
  60              	.LBI224:
  61              		.loc 1 42 5 view .LVU3
  62              		.loc 1 42 5 is_stmt 0 view .LVU4
  63              	.LBE224:
  64              		.loc 2 21 17 view .LVU5
  65 0000 7047     		bx	lr
  66              		.cfi_endproc
  67              	.LFE1652:
  69              		.weak	_ZN5daisy7EncoderD1Ev
  70              		.thumb_set _ZN5daisy7EncoderD1Ev,_ZN5daisy7EncoderD2Ev
  71 0002 00BF     		.section	.text._ZN5daisy10LcdHD44780D2Ev,"axG",%progbits,_ZN5daisy10LcdHD44780D5Ev,comdat
  72              		.align	1
  73              		.p2align 2,,3
  74              		.weak	_ZN5daisy10LcdHD44780D2Ev
  75              		.syntax unified
  76              		.thumb
  77              		.thumb_func
  79              	_ZN5daisy10LcdHD44780D2Ev:
  80              	.LVL2:
  81              	.LFB2017:
  82              		.file 3 "/Users/dominicfrugoli/Desktop/ProgrammingCode/DaisyCode/DaisyExamples/libDaisy/src/dev/lc
   1:/Users/dominicfrugoli/Desktop/ProgrammingCode/DaisyCode/DaisyExamples/libDaisy/src/dev/lcd_hd44780.h **** #pragma once
   2:/Users/dominicfrugoli/Desktop/ProgrammingCode/DaisyCode/DaisyExamples/libDaisy/src/dev/lcd_hd44780.h **** #ifndef DSY_LCD_HD44780_H
   3:/Users/dominicfrugoli/Desktop/ProgrammingCode/DaisyCode/DaisyExamples/libDaisy/src/dev/lcd_hd44780.h **** #define DSY_LCD_HD44780_H
   4:/Users/dominicfrugoli/Desktop/ProgrammingCode/DaisyCode/DaisyExamples/libDaisy/src/dev/lcd_hd44780.h **** 
   5:/Users/dominicfrugoli/Desktop/ProgrammingCode/DaisyCode/DaisyExamples/libDaisy/src/dev/lcd_hd44780.h **** #include "daisy_core.h"
   6:/Users/dominicfrugoli/Desktop/ProgrammingCode/DaisyCode/DaisyExamples/libDaisy/src/dev/lcd_hd44780.h **** #include "per/gpio.h"
   7:/Users/dominicfrugoli/Desktop/ProgrammingCode/DaisyCode/DaisyExamples/libDaisy/src/dev/lcd_hd44780.h **** 
   8:/Users/dominicfrugoli/Desktop/ProgrammingCode/DaisyCode/DaisyExamples/libDaisy/src/dev/lcd_hd44780.h **** 
   9:/Users/dominicfrugoli/Desktop/ProgrammingCode/DaisyCode/DaisyExamples/libDaisy/src/dev/lcd_hd44780.h **** namespace daisy
  10:/Users/dominicfrugoli/Desktop/ProgrammingCode/DaisyCode/DaisyExamples/libDaisy/src/dev/lcd_hd44780.h **** {
  11:/Users/dominicfrugoli/Desktop/ProgrammingCode/DaisyCode/DaisyExamples/libDaisy/src/dev/lcd_hd44780.h **** /**
  12:/Users/dominicfrugoli/Desktop/ProgrammingCode/DaisyCode/DaisyExamples/libDaisy/src/dev/lcd_hd44780.h ****    @brief Device Driver for 16x2 LCD panel. \n 
  13:/Users/dominicfrugoli/Desktop/ProgrammingCode/DaisyCode/DaisyExamples/libDaisy/src/dev/lcd_hd44780.h ****    HD44780 with 4 data lines. \n
  14:/Users/dominicfrugoli/Desktop/ProgrammingCode/DaisyCode/DaisyExamples/libDaisy/src/dev/lcd_hd44780.h ****    Example product: https://www.adafruit.com/product/181
  15:/Users/dominicfrugoli/Desktop/ProgrammingCode/DaisyCode/DaisyExamples/libDaisy/src/dev/lcd_hd44780.h ****    @author StaffanMelin
  16:/Users/dominicfrugoli/Desktop/ProgrammingCode/DaisyCode/DaisyExamples/libDaisy/src/dev/lcd_hd44780.h ****    @date March 2021
  17:/Users/dominicfrugoli/Desktop/ProgrammingCode/DaisyCode/DaisyExamples/libDaisy/src/dev/lcd_hd44780.h ****    @ingroup device
  18:/Users/dominicfrugoli/Desktop/ProgrammingCode/DaisyCode/DaisyExamples/libDaisy/src/dev/lcd_hd44780.h **** */
  19:/Users/dominicfrugoli/Desktop/ProgrammingCode/DaisyCode/DaisyExamples/libDaisy/src/dev/lcd_hd44780.h **** class LcdHD44780
  20:/Users/dominicfrugoli/Desktop/ProgrammingCode/DaisyCode/DaisyExamples/libDaisy/src/dev/lcd_hd44780.h **** {
  21:/Users/dominicfrugoli/Desktop/ProgrammingCode/DaisyCode/DaisyExamples/libDaisy/src/dev/lcd_hd44780.h ****   public:
  22:/Users/dominicfrugoli/Desktop/ProgrammingCode/DaisyCode/DaisyExamples/libDaisy/src/dev/lcd_hd44780.h ****     LcdHD44780() {}
  23:/Users/dominicfrugoli/Desktop/ProgrammingCode/DaisyCode/DaisyExamples/libDaisy/src/dev/lcd_hd44780.h ****     ~LcdHD44780() {}
  83              		.loc 3 23 5 is_stmt 1 view -0
  84              		.cfi_startproc
  85              		@ args = 0, pretend = 0, frame = 0
  86              		@ frame_needed = 0, uses_anonymous_args = 0
  87              		@ link register save eliminated.
  88              		.loc 3 23 20 is_stmt 0 view .LVU7
  89 0000 7047     		bx	lr
  90              		.cfi_endproc
ARM GAS  /var/folders/m5/x8wc2gdj7z5cpgcqdsb_gkj40000gn/T//ccPXNgbP.s 			page 4


  91              	.LFE2017:
  93              		.weak	_ZN5daisy10LcdHD44780D1Ev
  94              		.thumb_set _ZN5daisy10LcdHD44780D1Ev,_ZN5daisy10LcdHD44780D2Ev
  95 0002 00BF     		.section	.text._ZN5daisy9DaisySeedD2Ev,"axG",%progbits,_ZN5daisy9DaisySeedD5Ev,comdat
  96              		.align	1
  97              		.p2align 2,,3
  98              		.weak	_ZN5daisy9DaisySeedD2Ev
  99              		.syntax unified
 100              		.thumb
 101              		.thumb_func
 103              	_ZN5daisy9DaisySeedD2Ev:
 104              	.LVL3:
 105              	.LFB2556:
 106              		.file 4 "/Users/dominicfrugoli/Desktop/ProgrammingCode/DaisyCode/DaisyExamples/libDaisy/src/daisy_
   1:/Users/dominicfrugoli/Desktop/ProgrammingCode/DaisyCode/DaisyExamples/libDaisy/src/daisy_seed.h **** #pragma once
   2:/Users/dominicfrugoli/Desktop/ProgrammingCode/DaisyCode/DaisyExamples/libDaisy/src/daisy_seed.h **** #ifndef DSY_SEED_H
   3:/Users/dominicfrugoli/Desktop/ProgrammingCode/DaisyCode/DaisyExamples/libDaisy/src/daisy_seed.h **** #define DSY_SEED_H
   4:/Users/dominicfrugoli/Desktop/ProgrammingCode/DaisyCode/DaisyExamples/libDaisy/src/daisy_seed.h **** 
   5:/Users/dominicfrugoli/Desktop/ProgrammingCode/DaisyCode/DaisyExamples/libDaisy/src/daisy_seed.h **** #include "daisy.h"
   6:/Users/dominicfrugoli/Desktop/ProgrammingCode/DaisyCode/DaisyExamples/libDaisy/src/daisy_seed.h **** 
   7:/Users/dominicfrugoli/Desktop/ProgrammingCode/DaisyCode/DaisyExamples/libDaisy/src/daisy_seed.h **** //Uncomment this out if you're still using the rev2 hardware
   8:/Users/dominicfrugoli/Desktop/ProgrammingCode/DaisyCode/DaisyExamples/libDaisy/src/daisy_seed.h **** //#define SEED_REV2
   9:/Users/dominicfrugoli/Desktop/ProgrammingCode/DaisyCode/DaisyExamples/libDaisy/src/daisy_seed.h **** 
  10:/Users/dominicfrugoli/Desktop/ProgrammingCode/DaisyCode/DaisyExamples/libDaisy/src/daisy_seed.h **** namespace daisy
  11:/Users/dominicfrugoli/Desktop/ProgrammingCode/DaisyCode/DaisyExamples/libDaisy/src/daisy_seed.h **** {
  12:/Users/dominicfrugoli/Desktop/ProgrammingCode/DaisyCode/DaisyExamples/libDaisy/src/daisy_seed.h **** /**
  13:/Users/dominicfrugoli/Desktop/ProgrammingCode/DaisyCode/DaisyExamples/libDaisy/src/daisy_seed.h ****    @brief This is the higher-level interface for the Daisy board. \n 
  14:/Users/dominicfrugoli/Desktop/ProgrammingCode/DaisyCode/DaisyExamples/libDaisy/src/daisy_seed.h ****     All basic peripheral configuration/initialization is setup here. \n
  15:/Users/dominicfrugoli/Desktop/ProgrammingCode/DaisyCode/DaisyExamples/libDaisy/src/daisy_seed.h **** 
  16:/Users/dominicfrugoli/Desktop/ProgrammingCode/DaisyCode/DaisyExamples/libDaisy/src/daisy_seed.h ****    @ingroup boards
  17:/Users/dominicfrugoli/Desktop/ProgrammingCode/DaisyCode/DaisyExamples/libDaisy/src/daisy_seed.h **** */
  18:/Users/dominicfrugoli/Desktop/ProgrammingCode/DaisyCode/DaisyExamples/libDaisy/src/daisy_seed.h **** class DaisySeed
  19:/Users/dominicfrugoli/Desktop/ProgrammingCode/DaisyCode/DaisyExamples/libDaisy/src/daisy_seed.h **** {
  20:/Users/dominicfrugoli/Desktop/ProgrammingCode/DaisyCode/DaisyExamples/libDaisy/src/daisy_seed.h ****   public:
  21:/Users/dominicfrugoli/Desktop/ProgrammingCode/DaisyCode/DaisyExamples/libDaisy/src/daisy_seed.h ****     DaisySeed() {}
  22:/Users/dominicfrugoli/Desktop/ProgrammingCode/DaisyCode/DaisyExamples/libDaisy/src/daisy_seed.h ****     ~DaisySeed() {}
 107              		.loc 4 22 5 is_stmt 1 view -0
 108              		.cfi_startproc
 109              		@ args = 0, pretend = 0, frame = 0
 110              		@ frame_needed = 0, uses_anonymous_args = 0
 111              		@ link register save eliminated.
 112              	.LBB225:
 113              	.LBI225:
 114              		.file 5 "/Users/dominicfrugoli/Desktop/ProgrammingCode/DaisyCode/DaisyExamples/libDaisy/src/sys/sy
   1:/Users/dominicfrugoli/Desktop/ProgrammingCode/DaisyCode/DaisyExamples/libDaisy/src/sys/system.h **** #ifndef DSY_SYSTEM_H
   2:/Users/dominicfrugoli/Desktop/ProgrammingCode/DaisyCode/DaisyExamples/libDaisy/src/sys/system.h **** #define DSY_SYSTEM_H
   3:/Users/dominicfrugoli/Desktop/ProgrammingCode/DaisyCode/DaisyExamples/libDaisy/src/sys/system.h **** 
   4:/Users/dominicfrugoli/Desktop/ProgrammingCode/DaisyCode/DaisyExamples/libDaisy/src/sys/system.h **** #ifndef UNIT_TEST // for unit tests, a dummy implementation is provided below
   5:/Users/dominicfrugoli/Desktop/ProgrammingCode/DaisyCode/DaisyExamples/libDaisy/src/sys/system.h **** 
   6:/Users/dominicfrugoli/Desktop/ProgrammingCode/DaisyCode/DaisyExamples/libDaisy/src/sys/system.h **** #include <cstdint>
   7:/Users/dominicfrugoli/Desktop/ProgrammingCode/DaisyCode/DaisyExamples/libDaisy/src/sys/system.h **** #include "per/tim.h"
   8:/Users/dominicfrugoli/Desktop/ProgrammingCode/DaisyCode/DaisyExamples/libDaisy/src/sys/system.h **** 
   9:/Users/dominicfrugoli/Desktop/ProgrammingCode/DaisyCode/DaisyExamples/libDaisy/src/sys/system.h **** namespace daisy
  10:/Users/dominicfrugoli/Desktop/ProgrammingCode/DaisyCode/DaisyExamples/libDaisy/src/sys/system.h **** {
  11:/Users/dominicfrugoli/Desktop/ProgrammingCode/DaisyCode/DaisyExamples/libDaisy/src/sys/system.h **** /** A handle for interacting with the Core System.
  12:/Users/dominicfrugoli/Desktop/ProgrammingCode/DaisyCode/DaisyExamples/libDaisy/src/sys/system.h ****  ** This includes the Clock tree, MPU, global DMA initialization,
  13:/Users/dominicfrugoli/Desktop/ProgrammingCode/DaisyCode/DaisyExamples/libDaisy/src/sys/system.h ****  ** cache handling, and any other necessary global initiailzation
ARM GAS  /var/folders/m5/x8wc2gdj7z5cpgcqdsb_gkj40000gn/T//ccPXNgbP.s 			page 5


  14:/Users/dominicfrugoli/Desktop/ProgrammingCode/DaisyCode/DaisyExamples/libDaisy/src/sys/system.h ****  **
  15:/Users/dominicfrugoli/Desktop/ProgrammingCode/DaisyCode/DaisyExamples/libDaisy/src/sys/system.h ****  ** @author shensley
  16:/Users/dominicfrugoli/Desktop/ProgrammingCode/DaisyCode/DaisyExamples/libDaisy/src/sys/system.h ****  ** @ingroup system
  17:/Users/dominicfrugoli/Desktop/ProgrammingCode/DaisyCode/DaisyExamples/libDaisy/src/sys/system.h ****  */
  18:/Users/dominicfrugoli/Desktop/ProgrammingCode/DaisyCode/DaisyExamples/libDaisy/src/sys/system.h **** class System
  19:/Users/dominicfrugoli/Desktop/ProgrammingCode/DaisyCode/DaisyExamples/libDaisy/src/sys/system.h **** {
  20:/Users/dominicfrugoli/Desktop/ProgrammingCode/DaisyCode/DaisyExamples/libDaisy/src/sys/system.h ****   public:
  21:/Users/dominicfrugoli/Desktop/ProgrammingCode/DaisyCode/DaisyExamples/libDaisy/src/sys/system.h ****     /** Contains settings for initializing the System */
  22:/Users/dominicfrugoli/Desktop/ProgrammingCode/DaisyCode/DaisyExamples/libDaisy/src/sys/system.h ****     struct Config
  23:/Users/dominicfrugoli/Desktop/ProgrammingCode/DaisyCode/DaisyExamples/libDaisy/src/sys/system.h ****     {
  24:/Users/dominicfrugoli/Desktop/ProgrammingCode/DaisyCode/DaisyExamples/libDaisy/src/sys/system.h ****         /** Specifies the system clock frequency that feeds APB/AHB clocks, etc. */
  25:/Users/dominicfrugoli/Desktop/ProgrammingCode/DaisyCode/DaisyExamples/libDaisy/src/sys/system.h ****         enum class SysClkFreq
  26:/Users/dominicfrugoli/Desktop/ProgrammingCode/DaisyCode/DaisyExamples/libDaisy/src/sys/system.h ****         {
  27:/Users/dominicfrugoli/Desktop/ProgrammingCode/DaisyCode/DaisyExamples/libDaisy/src/sys/system.h ****             FREQ_400MHZ,
  28:/Users/dominicfrugoli/Desktop/ProgrammingCode/DaisyCode/DaisyExamples/libDaisy/src/sys/system.h ****             FREQ_480MHZ,
  29:/Users/dominicfrugoli/Desktop/ProgrammingCode/DaisyCode/DaisyExamples/libDaisy/src/sys/system.h ****         };
  30:/Users/dominicfrugoli/Desktop/ProgrammingCode/DaisyCode/DaisyExamples/libDaisy/src/sys/system.h **** 
  31:/Users/dominicfrugoli/Desktop/ProgrammingCode/DaisyCode/DaisyExamples/libDaisy/src/sys/system.h ****         /** Method to call on the struct to set to defaults
  32:/Users/dominicfrugoli/Desktop/ProgrammingCode/DaisyCode/DaisyExamples/libDaisy/src/sys/system.h ****          ** CPU Freq set to 400MHz
  33:/Users/dominicfrugoli/Desktop/ProgrammingCode/DaisyCode/DaisyExamples/libDaisy/src/sys/system.h ****          ** Cache Enabled
  34:/Users/dominicfrugoli/Desktop/ProgrammingCode/DaisyCode/DaisyExamples/libDaisy/src/sys/system.h ****          ** */
  35:/Users/dominicfrugoli/Desktop/ProgrammingCode/DaisyCode/DaisyExamples/libDaisy/src/sys/system.h ****         void Defaults()
  36:/Users/dominicfrugoli/Desktop/ProgrammingCode/DaisyCode/DaisyExamples/libDaisy/src/sys/system.h ****         {
  37:/Users/dominicfrugoli/Desktop/ProgrammingCode/DaisyCode/DaisyExamples/libDaisy/src/sys/system.h ****             cpu_freq    = SysClkFreq::FREQ_400MHZ;
  38:/Users/dominicfrugoli/Desktop/ProgrammingCode/DaisyCode/DaisyExamples/libDaisy/src/sys/system.h ****             use_dcache  = true;
  39:/Users/dominicfrugoli/Desktop/ProgrammingCode/DaisyCode/DaisyExamples/libDaisy/src/sys/system.h ****             use_icache  = true;
  40:/Users/dominicfrugoli/Desktop/ProgrammingCode/DaisyCode/DaisyExamples/libDaisy/src/sys/system.h ****             skip_clocks = false;
  41:/Users/dominicfrugoli/Desktop/ProgrammingCode/DaisyCode/DaisyExamples/libDaisy/src/sys/system.h ****         }
  42:/Users/dominicfrugoli/Desktop/ProgrammingCode/DaisyCode/DaisyExamples/libDaisy/src/sys/system.h **** 
  43:/Users/dominicfrugoli/Desktop/ProgrammingCode/DaisyCode/DaisyExamples/libDaisy/src/sys/system.h ****         /** Method to call on the struct to set to boost mode:
  44:/Users/dominicfrugoli/Desktop/ProgrammingCode/DaisyCode/DaisyExamples/libDaisy/src/sys/system.h ****          ** CPU Freq set to 480MHz
  45:/Users/dominicfrugoli/Desktop/ProgrammingCode/DaisyCode/DaisyExamples/libDaisy/src/sys/system.h ****          ** Cache Enabled
  46:/Users/dominicfrugoli/Desktop/ProgrammingCode/DaisyCode/DaisyExamples/libDaisy/src/sys/system.h ****          ** */
  47:/Users/dominicfrugoli/Desktop/ProgrammingCode/DaisyCode/DaisyExamples/libDaisy/src/sys/system.h ****         void Boost()
  48:/Users/dominicfrugoli/Desktop/ProgrammingCode/DaisyCode/DaisyExamples/libDaisy/src/sys/system.h ****         {
  49:/Users/dominicfrugoli/Desktop/ProgrammingCode/DaisyCode/DaisyExamples/libDaisy/src/sys/system.h ****             cpu_freq    = SysClkFreq::FREQ_480MHZ;
  50:/Users/dominicfrugoli/Desktop/ProgrammingCode/DaisyCode/DaisyExamples/libDaisy/src/sys/system.h ****             use_dcache  = true;
  51:/Users/dominicfrugoli/Desktop/ProgrammingCode/DaisyCode/DaisyExamples/libDaisy/src/sys/system.h ****             use_icache  = true;
  52:/Users/dominicfrugoli/Desktop/ProgrammingCode/DaisyCode/DaisyExamples/libDaisy/src/sys/system.h ****             skip_clocks = false;
  53:/Users/dominicfrugoli/Desktop/ProgrammingCode/DaisyCode/DaisyExamples/libDaisy/src/sys/system.h ****         }
  54:/Users/dominicfrugoli/Desktop/ProgrammingCode/DaisyCode/DaisyExamples/libDaisy/src/sys/system.h **** 
  55:/Users/dominicfrugoli/Desktop/ProgrammingCode/DaisyCode/DaisyExamples/libDaisy/src/sys/system.h ****         SysClkFreq cpu_freq;
  56:/Users/dominicfrugoli/Desktop/ProgrammingCode/DaisyCode/DaisyExamples/libDaisy/src/sys/system.h ****         bool       use_dcache;
  57:/Users/dominicfrugoli/Desktop/ProgrammingCode/DaisyCode/DaisyExamples/libDaisy/src/sys/system.h ****         bool       use_icache;
  58:/Users/dominicfrugoli/Desktop/ProgrammingCode/DaisyCode/DaisyExamples/libDaisy/src/sys/system.h ****         bool       skip_clocks;
  59:/Users/dominicfrugoli/Desktop/ProgrammingCode/DaisyCode/DaisyExamples/libDaisy/src/sys/system.h ****     };
  60:/Users/dominicfrugoli/Desktop/ProgrammingCode/DaisyCode/DaisyExamples/libDaisy/src/sys/system.h **** 
  61:/Users/dominicfrugoli/Desktop/ProgrammingCode/DaisyCode/DaisyExamples/libDaisy/src/sys/system.h ****     /** Describes the different regions of memory available to the Daisy */
  62:/Users/dominicfrugoli/Desktop/ProgrammingCode/DaisyCode/DaisyExamples/libDaisy/src/sys/system.h ****     enum MemoryRegion
  63:/Users/dominicfrugoli/Desktop/ProgrammingCode/DaisyCode/DaisyExamples/libDaisy/src/sys/system.h ****     {
  64:/Users/dominicfrugoli/Desktop/ProgrammingCode/DaisyCode/DaisyExamples/libDaisy/src/sys/system.h ****         INTERNAL_FLASH = 0,
  65:/Users/dominicfrugoli/Desktop/ProgrammingCode/DaisyCode/DaisyExamples/libDaisy/src/sys/system.h ****         ITCMRAM,
  66:/Users/dominicfrugoli/Desktop/ProgrammingCode/DaisyCode/DaisyExamples/libDaisy/src/sys/system.h ****         DTCMRAM,
  67:/Users/dominicfrugoli/Desktop/ProgrammingCode/DaisyCode/DaisyExamples/libDaisy/src/sys/system.h ****         SRAM_D1,
  68:/Users/dominicfrugoli/Desktop/ProgrammingCode/DaisyCode/DaisyExamples/libDaisy/src/sys/system.h ****         SRAM_D2,
  69:/Users/dominicfrugoli/Desktop/ProgrammingCode/DaisyCode/DaisyExamples/libDaisy/src/sys/system.h ****         SRAM_D3,
  70:/Users/dominicfrugoli/Desktop/ProgrammingCode/DaisyCode/DaisyExamples/libDaisy/src/sys/system.h ****         SDRAM,
ARM GAS  /var/folders/m5/x8wc2gdj7z5cpgcqdsb_gkj40000gn/T//ccPXNgbP.s 			page 6


  71:/Users/dominicfrugoli/Desktop/ProgrammingCode/DaisyCode/DaisyExamples/libDaisy/src/sys/system.h ****         QSPI,
  72:/Users/dominicfrugoli/Desktop/ProgrammingCode/DaisyCode/DaisyExamples/libDaisy/src/sys/system.h ****         INVALID_ADDRESS,
  73:/Users/dominicfrugoli/Desktop/ProgrammingCode/DaisyCode/DaisyExamples/libDaisy/src/sys/system.h ****     };
  74:/Users/dominicfrugoli/Desktop/ProgrammingCode/DaisyCode/DaisyExamples/libDaisy/src/sys/system.h **** 
  75:/Users/dominicfrugoli/Desktop/ProgrammingCode/DaisyCode/DaisyExamples/libDaisy/src/sys/system.h ****     /** Bootloader struct for controlling bootloading parameters */
  76:/Users/dominicfrugoli/Desktop/ProgrammingCode/DaisyCode/DaisyExamples/libDaisy/src/sys/system.h ****     struct BootInfo
  77:/Users/dominicfrugoli/Desktop/ProgrammingCode/DaisyCode/DaisyExamples/libDaisy/src/sys/system.h ****     {
  78:/Users/dominicfrugoli/Desktop/ProgrammingCode/DaisyCode/DaisyExamples/libDaisy/src/sys/system.h ****         enum class Type : uint32_t
  79:/Users/dominicfrugoli/Desktop/ProgrammingCode/DaisyCode/DaisyExamples/libDaisy/src/sys/system.h ****         {
  80:/Users/dominicfrugoli/Desktop/ProgrammingCode/DaisyCode/DaisyExamples/libDaisy/src/sys/system.h ****             INVALID      = 0x00000000,
  81:/Users/dominicfrugoli/Desktop/ProgrammingCode/DaisyCode/DaisyExamples/libDaisy/src/sys/system.h ****             JUMP         = 0xDEADBEEF,
  82:/Users/dominicfrugoli/Desktop/ProgrammingCode/DaisyCode/DaisyExamples/libDaisy/src/sys/system.h ****             SKIP_TIMEOUT = 0x5AFEB007,
  83:/Users/dominicfrugoli/Desktop/ProgrammingCode/DaisyCode/DaisyExamples/libDaisy/src/sys/system.h ****             INF_TIMEOUT  = 0xB0074EFA,
  84:/Users/dominicfrugoli/Desktop/ProgrammingCode/DaisyCode/DaisyExamples/libDaisy/src/sys/system.h ****         } status;
  85:/Users/dominicfrugoli/Desktop/ProgrammingCode/DaisyCode/DaisyExamples/libDaisy/src/sys/system.h ****         uint32_t data;
  86:/Users/dominicfrugoli/Desktop/ProgrammingCode/DaisyCode/DaisyExamples/libDaisy/src/sys/system.h ****         enum class Version : uint32_t
  87:/Users/dominicfrugoli/Desktop/ProgrammingCode/DaisyCode/DaisyExamples/libDaisy/src/sys/system.h ****         {
  88:/Users/dominicfrugoli/Desktop/ProgrammingCode/DaisyCode/DaisyExamples/libDaisy/src/sys/system.h ****             LT_v6_0 = 0, // Less than v6.0
  89:/Users/dominicfrugoli/Desktop/ProgrammingCode/DaisyCode/DaisyExamples/libDaisy/src/sys/system.h ****             NONE,        // No bootloader present
  90:/Users/dominicfrugoli/Desktop/ProgrammingCode/DaisyCode/DaisyExamples/libDaisy/src/sys/system.h ****             v6_0,        // v6.0
  91:/Users/dominicfrugoli/Desktop/ProgrammingCode/DaisyCode/DaisyExamples/libDaisy/src/sys/system.h ****             v6_1,        // v6.1 or greater
  92:/Users/dominicfrugoli/Desktop/ProgrammingCode/DaisyCode/DaisyExamples/libDaisy/src/sys/system.h ****             LAST
  93:/Users/dominicfrugoli/Desktop/ProgrammingCode/DaisyCode/DaisyExamples/libDaisy/src/sys/system.h ****         } version;
  94:/Users/dominicfrugoli/Desktop/ProgrammingCode/DaisyCode/DaisyExamples/libDaisy/src/sys/system.h ****     };
  95:/Users/dominicfrugoli/Desktop/ProgrammingCode/DaisyCode/DaisyExamples/libDaisy/src/sys/system.h **** 
  96:/Users/dominicfrugoli/Desktop/ProgrammingCode/DaisyCode/DaisyExamples/libDaisy/src/sys/system.h ****     System() {}
  97:/Users/dominicfrugoli/Desktop/ProgrammingCode/DaisyCode/DaisyExamples/libDaisy/src/sys/system.h ****     ~System() {}
 115              		.loc 5 97 5 view .LVU9
 116              		.loc 5 97 5 is_stmt 0 view .LVU10
 117              	.LBE225:
 118              	.LBB226:
 119              	.LBI226:
 120              		.file 6 "/Users/dominicfrugoli/Desktop/ProgrammingCode/DaisyCode/DaisyExamples/libDaisy/src/hid/us
   1:/Users/dominicfrugoli/Desktop/ProgrammingCode/DaisyCode/DaisyExamples/libDaisy/src/hid/usb.h **** #pragma once
   2:/Users/dominicfrugoli/Desktop/ProgrammingCode/DaisyCode/DaisyExamples/libDaisy/src/hid/usb.h **** #ifndef DSY_HID_USB_H
   3:/Users/dominicfrugoli/Desktop/ProgrammingCode/DaisyCode/DaisyExamples/libDaisy/src/hid/usb.h **** #define DSY_HID_USB_H
   4:/Users/dominicfrugoli/Desktop/ProgrammingCode/DaisyCode/DaisyExamples/libDaisy/src/hid/usb.h **** #include <stdint.h>
   5:/Users/dominicfrugoli/Desktop/ProgrammingCode/DaisyCode/DaisyExamples/libDaisy/src/hid/usb.h **** #include <stdlib.h>
   6:/Users/dominicfrugoli/Desktop/ProgrammingCode/DaisyCode/DaisyExamples/libDaisy/src/hid/usb.h **** 
   7:/Users/dominicfrugoli/Desktop/ProgrammingCode/DaisyCode/DaisyExamples/libDaisy/src/hid/usb.h **** namespace daisy
   8:/Users/dominicfrugoli/Desktop/ProgrammingCode/DaisyCode/DaisyExamples/libDaisy/src/hid/usb.h **** /** @addtogroup human_interface
   9:/Users/dominicfrugoli/Desktop/ProgrammingCode/DaisyCode/DaisyExamples/libDaisy/src/hid/usb.h ****     @{
  10:/Users/dominicfrugoli/Desktop/ProgrammingCode/DaisyCode/DaisyExamples/libDaisy/src/hid/usb.h **** */
  11:/Users/dominicfrugoli/Desktop/ProgrammingCode/DaisyCode/DaisyExamples/libDaisy/src/hid/usb.h **** 
  12:/Users/dominicfrugoli/Desktop/ProgrammingCode/DaisyCode/DaisyExamples/libDaisy/src/hid/usb.h **** {
  13:/Users/dominicfrugoli/Desktop/ProgrammingCode/DaisyCode/DaisyExamples/libDaisy/src/hid/usb.h **** /** 
  14:/Users/dominicfrugoli/Desktop/ProgrammingCode/DaisyCode/DaisyExamples/libDaisy/src/hid/usb.h ****     @brief Interface for initializing and using the USB Peripherals on the daisy
  15:/Users/dominicfrugoli/Desktop/ProgrammingCode/DaisyCode/DaisyExamples/libDaisy/src/hid/usb.h ****     @author Stephen Hensley
  16:/Users/dominicfrugoli/Desktop/ProgrammingCode/DaisyCode/DaisyExamples/libDaisy/src/hid/usb.h ****     @date December 2019
  17:/Users/dominicfrugoli/Desktop/ProgrammingCode/DaisyCode/DaisyExamples/libDaisy/src/hid/usb.h **** */
  18:/Users/dominicfrugoli/Desktop/ProgrammingCode/DaisyCode/DaisyExamples/libDaisy/src/hid/usb.h **** class UsbHandle
  19:/Users/dominicfrugoli/Desktop/ProgrammingCode/DaisyCode/DaisyExamples/libDaisy/src/hid/usb.h **** {
  20:/Users/dominicfrugoli/Desktop/ProgrammingCode/DaisyCode/DaisyExamples/libDaisy/src/hid/usb.h ****   public:
  21:/Users/dominicfrugoli/Desktop/ProgrammingCode/DaisyCode/DaisyExamples/libDaisy/src/hid/usb.h ****     /** Return values for USBHandle Functions */
  22:/Users/dominicfrugoli/Desktop/ProgrammingCode/DaisyCode/DaisyExamples/libDaisy/src/hid/usb.h ****     enum class Result
  23:/Users/dominicfrugoli/Desktop/ProgrammingCode/DaisyCode/DaisyExamples/libDaisy/src/hid/usb.h ****     {
  24:/Users/dominicfrugoli/Desktop/ProgrammingCode/DaisyCode/DaisyExamples/libDaisy/src/hid/usb.h ****         OK,
ARM GAS  /var/folders/m5/x8wc2gdj7z5cpgcqdsb_gkj40000gn/T//ccPXNgbP.s 			page 7


  25:/Users/dominicfrugoli/Desktop/ProgrammingCode/DaisyCode/DaisyExamples/libDaisy/src/hid/usb.h ****         ERR,
  26:/Users/dominicfrugoli/Desktop/ProgrammingCode/DaisyCode/DaisyExamples/libDaisy/src/hid/usb.h ****     };
  27:/Users/dominicfrugoli/Desktop/ProgrammingCode/DaisyCode/DaisyExamples/libDaisy/src/hid/usb.h **** 
  28:/Users/dominicfrugoli/Desktop/ProgrammingCode/DaisyCode/DaisyExamples/libDaisy/src/hid/usb.h ****     /** Specified which of the two USB Peripherals to initialize. */
  29:/Users/dominicfrugoli/Desktop/ProgrammingCode/DaisyCode/DaisyExamples/libDaisy/src/hid/usb.h ****     enum UsbPeriph
  30:/Users/dominicfrugoli/Desktop/ProgrammingCode/DaisyCode/DaisyExamples/libDaisy/src/hid/usb.h ****     {
  31:/Users/dominicfrugoli/Desktop/ProgrammingCode/DaisyCode/DaisyExamples/libDaisy/src/hid/usb.h ****         FS_INTERNAL, /**< Internal pin */
  32:/Users/dominicfrugoli/Desktop/ProgrammingCode/DaisyCode/DaisyExamples/libDaisy/src/hid/usb.h ****         FS_EXTERNAL, /**< FS External D+ pin is Pin 38 (GPIO32). FS External D- pin is Pin 37 (GPIO
  33:/Users/dominicfrugoli/Desktop/ProgrammingCode/DaisyCode/DaisyExamples/libDaisy/src/hid/usb.h ****         FS_BOTH,     /**< Both */
  34:/Users/dominicfrugoli/Desktop/ProgrammingCode/DaisyCode/DaisyExamples/libDaisy/src/hid/usb.h ****     };
  35:/Users/dominicfrugoli/Desktop/ProgrammingCode/DaisyCode/DaisyExamples/libDaisy/src/hid/usb.h **** 
  36:/Users/dominicfrugoli/Desktop/ProgrammingCode/DaisyCode/DaisyExamples/libDaisy/src/hid/usb.h **** 
  37:/Users/dominicfrugoli/Desktop/ProgrammingCode/DaisyCode/DaisyExamples/libDaisy/src/hid/usb.h ****     /** Function called upon reception of a buffer */
  38:/Users/dominicfrugoli/Desktop/ProgrammingCode/DaisyCode/DaisyExamples/libDaisy/src/hid/usb.h ****     typedef void (*ReceiveCallback)(uint8_t* buff, uint32_t* len);
  39:/Users/dominicfrugoli/Desktop/ProgrammingCode/DaisyCode/DaisyExamples/libDaisy/src/hid/usb.h **** 
  40:/Users/dominicfrugoli/Desktop/ProgrammingCode/DaisyCode/DaisyExamples/libDaisy/src/hid/usb.h ****     UsbHandle() {}
  41:/Users/dominicfrugoli/Desktop/ProgrammingCode/DaisyCode/DaisyExamples/libDaisy/src/hid/usb.h **** 
  42:/Users/dominicfrugoli/Desktop/ProgrammingCode/DaisyCode/DaisyExamples/libDaisy/src/hid/usb.h ****     ~UsbHandle() {}
 121              		.loc 6 42 5 is_stmt 1 view .LVU11
 122              		.loc 6 42 5 is_stmt 0 view .LVU12
 123              	.LBE226:
 124              	.LBB227:
 125              	.LBI227:
 126              		.file 7 "/Users/dominicfrugoli/Desktop/ProgrammingCode/DaisyCode/DaisyExamples/libDaisy/src/per/ad
   1:/Users/dominicfrugoli/Desktop/ProgrammingCode/DaisyCode/DaisyExamples/libDaisy/src/per/adc.h **** #pragma once
   2:/Users/dominicfrugoli/Desktop/ProgrammingCode/DaisyCode/DaisyExamples/libDaisy/src/per/adc.h **** #ifndef DSY_ADC_H
   3:/Users/dominicfrugoli/Desktop/ProgrammingCode/DaisyCode/DaisyExamples/libDaisy/src/per/adc.h **** #define DSY_ADC_H /**< Macro */
   4:/Users/dominicfrugoli/Desktop/ProgrammingCode/DaisyCode/DaisyExamples/libDaisy/src/per/adc.h **** #include <stdint.h>
   5:/Users/dominicfrugoli/Desktop/ProgrammingCode/DaisyCode/DaisyExamples/libDaisy/src/per/adc.h **** #include <stdlib.h>
   6:/Users/dominicfrugoli/Desktop/ProgrammingCode/DaisyCode/DaisyExamples/libDaisy/src/per/adc.h **** #include "daisy_core.h"
   7:/Users/dominicfrugoli/Desktop/ProgrammingCode/DaisyCode/DaisyExamples/libDaisy/src/per/adc.h **** #include "per/gpio.h"
   8:/Users/dominicfrugoli/Desktop/ProgrammingCode/DaisyCode/DaisyExamples/libDaisy/src/per/adc.h **** 
   9:/Users/dominicfrugoli/Desktop/ProgrammingCode/DaisyCode/DaisyExamples/libDaisy/src/per/adc.h **** #define DSY_ADC_MAX_CHANNELS 16 /**< Maximum number of ADC channels */
  10:/Users/dominicfrugoli/Desktop/ProgrammingCode/DaisyCode/DaisyExamples/libDaisy/src/per/adc.h **** 
  11:/Users/dominicfrugoli/Desktop/ProgrammingCode/DaisyCode/DaisyExamples/libDaisy/src/per/adc.h **** namespace daisy
  12:/Users/dominicfrugoli/Desktop/ProgrammingCode/DaisyCode/DaisyExamples/libDaisy/src/per/adc.h **** {
  13:/Users/dominicfrugoli/Desktop/ProgrammingCode/DaisyCode/DaisyExamples/libDaisy/src/per/adc.h **** /** @addtogroup per_analog
  14:/Users/dominicfrugoli/Desktop/ProgrammingCode/DaisyCode/DaisyExamples/libDaisy/src/per/adc.h ****     @{
  15:/Users/dominicfrugoli/Desktop/ProgrammingCode/DaisyCode/DaisyExamples/libDaisy/src/per/adc.h **** */
  16:/Users/dominicfrugoli/Desktop/ProgrammingCode/DaisyCode/DaisyExamples/libDaisy/src/per/adc.h **** 
  17:/Users/dominicfrugoli/Desktop/ProgrammingCode/DaisyCode/DaisyExamples/libDaisy/src/per/adc.h **** /* While there may not be many configuration options here,
  18:/Users/dominicfrugoli/Desktop/ProgrammingCode/DaisyCode/DaisyExamples/libDaisy/src/per/adc.h **** using a struct like this allows us to add more configuration
  19:/Users/dominicfrugoli/Desktop/ProgrammingCode/DaisyCode/DaisyExamples/libDaisy/src/per/adc.h **** later without breaking existing functionality.
  20:/Users/dominicfrugoli/Desktop/ProgrammingCode/DaisyCode/DaisyExamples/libDaisy/src/per/adc.h **** */
  21:/Users/dominicfrugoli/Desktop/ProgrammingCode/DaisyCode/DaisyExamples/libDaisy/src/per/adc.h **** 
  22:/Users/dominicfrugoli/Desktop/ProgrammingCode/DaisyCode/DaisyExamples/libDaisy/src/per/adc.h **** /** @brief   Configuration Structure for an ADC Channel 
  23:/Users/dominicfrugoli/Desktop/ProgrammingCode/DaisyCode/DaisyExamples/libDaisy/src/per/adc.h ****  *  @details This can be used to configure a a single input, 
  24:/Users/dominicfrugoli/Desktop/ProgrammingCode/DaisyCode/DaisyExamples/libDaisy/src/per/adc.h ****  *           or a multiplexed input, allowing up to 8 inputs on 
  25:/Users/dominicfrugoli/Desktop/ProgrammingCode/DaisyCode/DaisyExamples/libDaisy/src/per/adc.h ****  *           one channel.
  26:/Users/dominicfrugoli/Desktop/ProgrammingCode/DaisyCode/DaisyExamples/libDaisy/src/per/adc.h ****  *  @note    Sharing data lines to multiple muxes _is_ possible, but
  27:/Users/dominicfrugoli/Desktop/ProgrammingCode/DaisyCode/DaisyExamples/libDaisy/src/per/adc.h ****  *           each channel sharing data lines must be set to the maximum
  28:/Users/dominicfrugoli/Desktop/ProgrammingCode/DaisyCode/DaisyExamples/libDaisy/src/per/adc.h ****  *           number of channels, even if some multiplexers have fewer
  29:/Users/dominicfrugoli/Desktop/ProgrammingCode/DaisyCode/DaisyExamples/libDaisy/src/per/adc.h ****  *           inputs connected.
  30:/Users/dominicfrugoli/Desktop/ProgrammingCode/DaisyCode/DaisyExamples/libDaisy/src/per/adc.h **** */
  31:/Users/dominicfrugoli/Desktop/ProgrammingCode/DaisyCode/DaisyExamples/libDaisy/src/per/adc.h **** struct AdcChannelConfig
  32:/Users/dominicfrugoli/Desktop/ProgrammingCode/DaisyCode/DaisyExamples/libDaisy/src/per/adc.h **** {
  33:/Users/dominicfrugoli/Desktop/ProgrammingCode/DaisyCode/DaisyExamples/libDaisy/src/per/adc.h ****     /** Which pin to use for multiplexing */
ARM GAS  /var/folders/m5/x8wc2gdj7z5cpgcqdsb_gkj40000gn/T//ccPXNgbP.s 			page 8


  34:/Users/dominicfrugoli/Desktop/ProgrammingCode/DaisyCode/DaisyExamples/libDaisy/src/per/adc.h ****     enum MuxPin
  35:/Users/dominicfrugoli/Desktop/ProgrammingCode/DaisyCode/DaisyExamples/libDaisy/src/per/adc.h ****     {
  36:/Users/dominicfrugoli/Desktop/ProgrammingCode/DaisyCode/DaisyExamples/libDaisy/src/per/adc.h ****         MUX_SEL_0,    /**< & */
  37:/Users/dominicfrugoli/Desktop/ProgrammingCode/DaisyCode/DaisyExamples/libDaisy/src/per/adc.h ****         MUX_SEL_1,    /**< & */
  38:/Users/dominicfrugoli/Desktop/ProgrammingCode/DaisyCode/DaisyExamples/libDaisy/src/per/adc.h ****         MUX_SEL_2,    /**< & */
  39:/Users/dominicfrugoli/Desktop/ProgrammingCode/DaisyCode/DaisyExamples/libDaisy/src/per/adc.h ****         MUX_SEL_LAST, /**< & */
  40:/Users/dominicfrugoli/Desktop/ProgrammingCode/DaisyCode/DaisyExamples/libDaisy/src/per/adc.h ****     };
  41:/Users/dominicfrugoli/Desktop/ProgrammingCode/DaisyCode/DaisyExamples/libDaisy/src/per/adc.h **** 
  42:/Users/dominicfrugoli/Desktop/ProgrammingCode/DaisyCode/DaisyExamples/libDaisy/src/per/adc.h ****     /** \brief per channel conversion speed added to fixed time based on bitdepth, etc. */
  43:/Users/dominicfrugoli/Desktop/ProgrammingCode/DaisyCode/DaisyExamples/libDaisy/src/per/adc.h ****     enum ConversionSpeed
  44:/Users/dominicfrugoli/Desktop/ProgrammingCode/DaisyCode/DaisyExamples/libDaisy/src/per/adc.h ****     {
  45:/Users/dominicfrugoli/Desktop/ProgrammingCode/DaisyCode/DaisyExamples/libDaisy/src/per/adc.h ****         SPEED_1CYCLES_5,
  46:/Users/dominicfrugoli/Desktop/ProgrammingCode/DaisyCode/DaisyExamples/libDaisy/src/per/adc.h ****         SPEED_2CYCLES_5,
  47:/Users/dominicfrugoli/Desktop/ProgrammingCode/DaisyCode/DaisyExamples/libDaisy/src/per/adc.h ****         SPEED_8CYCLES_5,
  48:/Users/dominicfrugoli/Desktop/ProgrammingCode/DaisyCode/DaisyExamples/libDaisy/src/per/adc.h ****         SPEED_16CYCLES_5,
  49:/Users/dominicfrugoli/Desktop/ProgrammingCode/DaisyCode/DaisyExamples/libDaisy/src/per/adc.h ****         SPEED_32CYCLES_5,
  50:/Users/dominicfrugoli/Desktop/ProgrammingCode/DaisyCode/DaisyExamples/libDaisy/src/per/adc.h ****         SPEED_64CYCLES_5,
  51:/Users/dominicfrugoli/Desktop/ProgrammingCode/DaisyCode/DaisyExamples/libDaisy/src/per/adc.h ****         SPEED_387CYCLES_5,
  52:/Users/dominicfrugoli/Desktop/ProgrammingCode/DaisyCode/DaisyExamples/libDaisy/src/per/adc.h ****         SPEED_810CYCLES_5,
  53:/Users/dominicfrugoli/Desktop/ProgrammingCode/DaisyCode/DaisyExamples/libDaisy/src/per/adc.h ****     };
  54:/Users/dominicfrugoli/Desktop/ProgrammingCode/DaisyCode/DaisyExamples/libDaisy/src/per/adc.h **** 
  55:/Users/dominicfrugoli/Desktop/ProgrammingCode/DaisyCode/DaisyExamples/libDaisy/src/per/adc.h ****     /** Initializes a single ADC pin as an ADC. 
  56:/Users/dominicfrugoli/Desktop/ProgrammingCode/DaisyCode/DaisyExamples/libDaisy/src/per/adc.h ****     \param pin Pin to init.
  57:/Users/dominicfrugoli/Desktop/ProgrammingCode/DaisyCode/DaisyExamples/libDaisy/src/per/adc.h ****     \param speed conversion speed for this pin defaults to 8.5 cycles
  58:/Users/dominicfrugoli/Desktop/ProgrammingCode/DaisyCode/DaisyExamples/libDaisy/src/per/adc.h ****      */
  59:/Users/dominicfrugoli/Desktop/ProgrammingCode/DaisyCode/DaisyExamples/libDaisy/src/per/adc.h ****     void InitSingle(dsy_gpio_pin pin, ConversionSpeed speed = SPEED_8CYCLES_5);
  60:/Users/dominicfrugoli/Desktop/ProgrammingCode/DaisyCode/DaisyExamples/libDaisy/src/per/adc.h **** 
  61:/Users/dominicfrugoli/Desktop/ProgrammingCode/DaisyCode/DaisyExamples/libDaisy/src/per/adc.h ****     /** 
  62:/Users/dominicfrugoli/Desktop/ProgrammingCode/DaisyCode/DaisyExamples/libDaisy/src/per/adc.h ****     Initializes a single ADC pin as a Multiplexed ADC.
  63:/Users/dominicfrugoli/Desktop/ProgrammingCode/DaisyCode/DaisyExamples/libDaisy/src/per/adc.h ****     Requires a CD405X Multiplexer connected to the pin.
  64:/Users/dominicfrugoli/Desktop/ProgrammingCode/DaisyCode/DaisyExamples/libDaisy/src/per/adc.h ****     You only need to supply the mux pins that are required,
  65:/Users/dominicfrugoli/Desktop/ProgrammingCode/DaisyCode/DaisyExamples/libDaisy/src/per/adc.h ****     e.g. a 4052 mux would only require mux_0 and mux_1.
  66:/Users/dominicfrugoli/Desktop/ProgrammingCode/DaisyCode/DaisyExamples/libDaisy/src/per/adc.h ****     Internal Callbacks handle the pin addressing.
  67:/Users/dominicfrugoli/Desktop/ProgrammingCode/DaisyCode/DaisyExamples/libDaisy/src/per/adc.h ****     \param adc_pin &
  68:/Users/dominicfrugoli/Desktop/ProgrammingCode/DaisyCode/DaisyExamples/libDaisy/src/per/adc.h ****     \param mux_channels must be 1-8
  69:/Users/dominicfrugoli/Desktop/ProgrammingCode/DaisyCode/DaisyExamples/libDaisy/src/per/adc.h ****     \param mux_0 First mux pin
  70:/Users/dominicfrugoli/Desktop/ProgrammingCode/DaisyCode/DaisyExamples/libDaisy/src/per/adc.h ****     \param mux_1 Second mux pin
  71:/Users/dominicfrugoli/Desktop/ProgrammingCode/DaisyCode/DaisyExamples/libDaisy/src/per/adc.h ****     \param mux_2 Third mux pin
  72:/Users/dominicfrugoli/Desktop/ProgrammingCode/DaisyCode/DaisyExamples/libDaisy/src/per/adc.h ****     \param speed conversion speed for this pin defaults to 8.5 cycles
  73:/Users/dominicfrugoli/Desktop/ProgrammingCode/DaisyCode/DaisyExamples/libDaisy/src/per/adc.h ****     */
  74:/Users/dominicfrugoli/Desktop/ProgrammingCode/DaisyCode/DaisyExamples/libDaisy/src/per/adc.h ****     void InitMux(dsy_gpio_pin    adc_pin,
  75:/Users/dominicfrugoli/Desktop/ProgrammingCode/DaisyCode/DaisyExamples/libDaisy/src/per/adc.h ****                  size_t          mux_channels,
  76:/Users/dominicfrugoli/Desktop/ProgrammingCode/DaisyCode/DaisyExamples/libDaisy/src/per/adc.h ****                  dsy_gpio_pin    mux_0,
  77:/Users/dominicfrugoli/Desktop/ProgrammingCode/DaisyCode/DaisyExamples/libDaisy/src/per/adc.h ****                  dsy_gpio_pin    mux_1 = {DSY_GPIOX, 0},
  78:/Users/dominicfrugoli/Desktop/ProgrammingCode/DaisyCode/DaisyExamples/libDaisy/src/per/adc.h ****                  dsy_gpio_pin    mux_2 = {DSY_GPIOX, 0},
  79:/Users/dominicfrugoli/Desktop/ProgrammingCode/DaisyCode/DaisyExamples/libDaisy/src/per/adc.h ****                  ConversionSpeed speed = SPEED_8CYCLES_5);
  80:/Users/dominicfrugoli/Desktop/ProgrammingCode/DaisyCode/DaisyExamples/libDaisy/src/per/adc.h **** 
  81:/Users/dominicfrugoli/Desktop/ProgrammingCode/DaisyCode/DaisyExamples/libDaisy/src/per/adc.h ****     dsy_gpio        pin_;                   /**< & */
  82:/Users/dominicfrugoli/Desktop/ProgrammingCode/DaisyCode/DaisyExamples/libDaisy/src/per/adc.h ****     dsy_gpio        mux_pin_[MUX_SEL_LAST]; /**< & */
  83:/Users/dominicfrugoli/Desktop/ProgrammingCode/DaisyCode/DaisyExamples/libDaisy/src/per/adc.h ****     uint8_t         mux_channels_;          /**< & */
  84:/Users/dominicfrugoli/Desktop/ProgrammingCode/DaisyCode/DaisyExamples/libDaisy/src/per/adc.h ****     ConversionSpeed speed_;
  85:/Users/dominicfrugoli/Desktop/ProgrammingCode/DaisyCode/DaisyExamples/libDaisy/src/per/adc.h **** };
  86:/Users/dominicfrugoli/Desktop/ProgrammingCode/DaisyCode/DaisyExamples/libDaisy/src/per/adc.h **** 
  87:/Users/dominicfrugoli/Desktop/ProgrammingCode/DaisyCode/DaisyExamples/libDaisy/src/per/adc.h **** /**
  88:/Users/dominicfrugoli/Desktop/ProgrammingCode/DaisyCode/DaisyExamples/libDaisy/src/per/adc.h ****    @brief Handler for analog to digital conversion
  89:/Users/dominicfrugoli/Desktop/ProgrammingCode/DaisyCode/DaisyExamples/libDaisy/src/per/adc.h **** */
  90:/Users/dominicfrugoli/Desktop/ProgrammingCode/DaisyCode/DaisyExamples/libDaisy/src/per/adc.h **** class AdcHandle
ARM GAS  /var/folders/m5/x8wc2gdj7z5cpgcqdsb_gkj40000gn/T//ccPXNgbP.s 			page 9


  91:/Users/dominicfrugoli/Desktop/ProgrammingCode/DaisyCode/DaisyExamples/libDaisy/src/per/adc.h **** {
  92:/Users/dominicfrugoli/Desktop/ProgrammingCode/DaisyCode/DaisyExamples/libDaisy/src/per/adc.h ****   public:
  93:/Users/dominicfrugoli/Desktop/ProgrammingCode/DaisyCode/DaisyExamples/libDaisy/src/per/adc.h ****     /** Supported oversampling amounts */
  94:/Users/dominicfrugoli/Desktop/ProgrammingCode/DaisyCode/DaisyExamples/libDaisy/src/per/adc.h ****     enum OverSampling
  95:/Users/dominicfrugoli/Desktop/ProgrammingCode/DaisyCode/DaisyExamples/libDaisy/src/per/adc.h ****     {
  96:/Users/dominicfrugoli/Desktop/ProgrammingCode/DaisyCode/DaisyExamples/libDaisy/src/per/adc.h ****         OVS_NONE, /**< & */
  97:/Users/dominicfrugoli/Desktop/ProgrammingCode/DaisyCode/DaisyExamples/libDaisy/src/per/adc.h ****         OVS_4,    /**< & */
  98:/Users/dominicfrugoli/Desktop/ProgrammingCode/DaisyCode/DaisyExamples/libDaisy/src/per/adc.h ****         OVS_8,    /**< & */
  99:/Users/dominicfrugoli/Desktop/ProgrammingCode/DaisyCode/DaisyExamples/libDaisy/src/per/adc.h ****         OVS_16,   /**< & */
 100:/Users/dominicfrugoli/Desktop/ProgrammingCode/DaisyCode/DaisyExamples/libDaisy/src/per/adc.h ****         OVS_32,   /**< & */
 101:/Users/dominicfrugoli/Desktop/ProgrammingCode/DaisyCode/DaisyExamples/libDaisy/src/per/adc.h ****         OVS_64,   /**< & */
 102:/Users/dominicfrugoli/Desktop/ProgrammingCode/DaisyCode/DaisyExamples/libDaisy/src/per/adc.h ****         OVS_128,  /**< & */
 103:/Users/dominicfrugoli/Desktop/ProgrammingCode/DaisyCode/DaisyExamples/libDaisy/src/per/adc.h ****         OVS_256,  /**< & */
 104:/Users/dominicfrugoli/Desktop/ProgrammingCode/DaisyCode/DaisyExamples/libDaisy/src/per/adc.h ****         OVS_512,  /**< & */
 105:/Users/dominicfrugoli/Desktop/ProgrammingCode/DaisyCode/DaisyExamples/libDaisy/src/per/adc.h ****         OVS_1024, /**< & */
 106:/Users/dominicfrugoli/Desktop/ProgrammingCode/DaisyCode/DaisyExamples/libDaisy/src/per/adc.h ****         OVS_LAST, /**< & */
 107:/Users/dominicfrugoli/Desktop/ProgrammingCode/DaisyCode/DaisyExamples/libDaisy/src/per/adc.h ****     };
 108:/Users/dominicfrugoli/Desktop/ProgrammingCode/DaisyCode/DaisyExamples/libDaisy/src/per/adc.h **** 
 109:/Users/dominicfrugoli/Desktop/ProgrammingCode/DaisyCode/DaisyExamples/libDaisy/src/per/adc.h ****     AdcHandle() {}
 110:/Users/dominicfrugoli/Desktop/ProgrammingCode/DaisyCode/DaisyExamples/libDaisy/src/per/adc.h ****     ~AdcHandle() {}
 127              		.loc 7 110 5 is_stmt 1 view .LVU13
 128              		.loc 7 110 5 is_stmt 0 view .LVU14
 129              	.LBE227:
 130              	.LBB228:
 131              	.LBI228:
 132              		.file 8 "/Users/dominicfrugoli/Desktop/ProgrammingCode/DaisyCode/DaisyExamples/libDaisy/src/hid/au
   1:/Users/dominicfrugoli/Desktop/ProgrammingCode/DaisyCode/DaisyExamples/libDaisy/src/hid/audio.h **** #ifndef DSY_AUDIO_H
   2:/Users/dominicfrugoli/Desktop/ProgrammingCode/DaisyCode/DaisyExamples/libDaisy/src/hid/audio.h **** #define DSY_AUDIO_H /**< & */
   3:/Users/dominicfrugoli/Desktop/ProgrammingCode/DaisyCode/DaisyExamples/libDaisy/src/hid/audio.h **** 
   4:/Users/dominicfrugoli/Desktop/ProgrammingCode/DaisyCode/DaisyExamples/libDaisy/src/hid/audio.h **** #include "per/sai.h"
   5:/Users/dominicfrugoli/Desktop/ProgrammingCode/DaisyCode/DaisyExamples/libDaisy/src/hid/audio.h **** 
   6:/Users/dominicfrugoli/Desktop/ProgrammingCode/DaisyCode/DaisyExamples/libDaisy/src/hid/audio.h **** namespace daisy
   7:/Users/dominicfrugoli/Desktop/ProgrammingCode/DaisyCode/DaisyExamples/libDaisy/src/hid/audio.h **** {
   8:/Users/dominicfrugoli/Desktop/ProgrammingCode/DaisyCode/DaisyExamples/libDaisy/src/hid/audio.h **** /** @brief Audio Engine Handle
   9:/Users/dominicfrugoli/Desktop/ProgrammingCode/DaisyCode/DaisyExamples/libDaisy/src/hid/audio.h ****  *  @ingroup audio 
  10:/Users/dominicfrugoli/Desktop/ProgrammingCode/DaisyCode/DaisyExamples/libDaisy/src/hid/audio.h ****  *  @details This class allows for higher level access to an audio engine.
  11:/Users/dominicfrugoli/Desktop/ProgrammingCode/DaisyCode/DaisyExamples/libDaisy/src/hid/audio.h ****  *           If you're using a SOM like the DaisySeed or DaisyPatchSM (or any 
  12:/Users/dominicfrugoli/Desktop/ProgrammingCode/DaisyCode/DaisyExamples/libDaisy/src/hid/audio.h ****  *            board that includes one of those objects) then the intialization
  13:/Users/dominicfrugoli/Desktop/ProgrammingCode/DaisyCode/DaisyExamples/libDaisy/src/hid/audio.h ****  *            is already taken  care of.
  14:/Users/dominicfrugoli/Desktop/ProgrammingCode/DaisyCode/DaisyExamples/libDaisy/src/hid/audio.h ****  *           If you're setting up your own custom hardware, or need to make changes
  15:/Users/dominicfrugoli/Desktop/ProgrammingCode/DaisyCode/DaisyExamples/libDaisy/src/hid/audio.h ****  *           you will have to take the following steps:
  16:/Users/dominicfrugoli/Desktop/ProgrammingCode/DaisyCode/DaisyExamples/libDaisy/src/hid/audio.h ****  *             1. Create and Initialize an SaiHandle or two depending on your requirements
  17:/Users/dominicfrugoli/Desktop/ProgrammingCode/DaisyCode/DaisyExamples/libDaisy/src/hid/audio.h ****  *             2. Initialize the Audio Handle with the desired settings and the Initialized SaiHand
  18:/Users/dominicfrugoli/Desktop/ProgrammingCode/DaisyCode/DaisyExamples/libDaisy/src/hid/audio.h ****  *             3. If the connected codec requires special configuration or initialization, do so
  19:/Users/dominicfrugoli/Desktop/ProgrammingCode/DaisyCode/DaisyExamples/libDaisy/src/hid/audio.h ****  *             4. Write a callback method using either the AudioCallback or the InterleavingAudioCa
  20:/Users/dominicfrugoli/Desktop/ProgrammingCode/DaisyCode/DaisyExamples/libDaisy/src/hid/audio.h ****  *             5. Start the Audio using one of the StartAudio function
  21:/Users/dominicfrugoli/Desktop/ProgrammingCode/DaisyCode/DaisyExamples/libDaisy/src/hid/audio.h ****  */
  22:/Users/dominicfrugoli/Desktop/ProgrammingCode/DaisyCode/DaisyExamples/libDaisy/src/hid/audio.h **** class AudioHandle
  23:/Users/dominicfrugoli/Desktop/ProgrammingCode/DaisyCode/DaisyExamples/libDaisy/src/hid/audio.h **** {
  24:/Users/dominicfrugoli/Desktop/ProgrammingCode/DaisyCode/DaisyExamples/libDaisy/src/hid/audio.h ****   public:
  25:/Users/dominicfrugoli/Desktop/ProgrammingCode/DaisyCode/DaisyExamples/libDaisy/src/hid/audio.h ****     /** Manually configurable details about the Audio Engine */
  26:/Users/dominicfrugoli/Desktop/ProgrammingCode/DaisyCode/DaisyExamples/libDaisy/src/hid/audio.h ****     /** TODO: Figure out how to get samplerate in here. */
  27:/Users/dominicfrugoli/Desktop/ProgrammingCode/DaisyCode/DaisyExamples/libDaisy/src/hid/audio.h ****     struct Config
  28:/Users/dominicfrugoli/Desktop/ProgrammingCode/DaisyCode/DaisyExamples/libDaisy/src/hid/audio.h ****     {
  29:/Users/dominicfrugoli/Desktop/ProgrammingCode/DaisyCode/DaisyExamples/libDaisy/src/hid/audio.h ****         /** number of samples to process per callback */
  30:/Users/dominicfrugoli/Desktop/ProgrammingCode/DaisyCode/DaisyExamples/libDaisy/src/hid/audio.h ****         size_t blocksize;
  31:/Users/dominicfrugoli/Desktop/ProgrammingCode/DaisyCode/DaisyExamples/libDaisy/src/hid/audio.h **** 
ARM GAS  /var/folders/m5/x8wc2gdj7z5cpgcqdsb_gkj40000gn/T//ccPXNgbP.s 			page 10


  32:/Users/dominicfrugoli/Desktop/ProgrammingCode/DaisyCode/DaisyExamples/libDaisy/src/hid/audio.h ****         /**< Sample rate of audio */
  33:/Users/dominicfrugoli/Desktop/ProgrammingCode/DaisyCode/DaisyExamples/libDaisy/src/hid/audio.h ****         SaiHandle::Config::SampleRate samplerate;
  34:/Users/dominicfrugoli/Desktop/ProgrammingCode/DaisyCode/DaisyExamples/libDaisy/src/hid/audio.h **** 
  35:/Users/dominicfrugoli/Desktop/ProgrammingCode/DaisyCode/DaisyExamples/libDaisy/src/hid/audio.h ****         /** factor for adjustment before and after callback for hardware that may have extra headro
  36:/Users/dominicfrugoli/Desktop/ProgrammingCode/DaisyCode/DaisyExamples/libDaisy/src/hid/audio.h ****         float postgain;
  37:/Users/dominicfrugoli/Desktop/ProgrammingCode/DaisyCode/DaisyExamples/libDaisy/src/hid/audio.h **** 
  38:/Users/dominicfrugoli/Desktop/ProgrammingCode/DaisyCode/DaisyExamples/libDaisy/src/hid/audio.h ****         /** factor for additional one-sided compensation to audio path for hardware that may
  39:/Users/dominicfrugoli/Desktop/ProgrammingCode/DaisyCode/DaisyExamples/libDaisy/src/hid/audio.h ****          *  have unequal input/output ranges
  40:/Users/dominicfrugoli/Desktop/ProgrammingCode/DaisyCode/DaisyExamples/libDaisy/src/hid/audio.h ****          */
  41:/Users/dominicfrugoli/Desktop/ProgrammingCode/DaisyCode/DaisyExamples/libDaisy/src/hid/audio.h ****         float output_compensation;
  42:/Users/dominicfrugoli/Desktop/ProgrammingCode/DaisyCode/DaisyExamples/libDaisy/src/hid/audio.h **** 
  43:/Users/dominicfrugoli/Desktop/ProgrammingCode/DaisyCode/DaisyExamples/libDaisy/src/hid/audio.h ****         /** Sets default values for config struct */
  44:/Users/dominicfrugoli/Desktop/ProgrammingCode/DaisyCode/DaisyExamples/libDaisy/src/hid/audio.h ****         Config()
  45:/Users/dominicfrugoli/Desktop/ProgrammingCode/DaisyCode/DaisyExamples/libDaisy/src/hid/audio.h ****         : blocksize(48),
  46:/Users/dominicfrugoli/Desktop/ProgrammingCode/DaisyCode/DaisyExamples/libDaisy/src/hid/audio.h ****           samplerate(SaiHandle::Config::SampleRate::SAI_48KHZ),
  47:/Users/dominicfrugoli/Desktop/ProgrammingCode/DaisyCode/DaisyExamples/libDaisy/src/hid/audio.h ****           postgain(1.f),
  48:/Users/dominicfrugoli/Desktop/ProgrammingCode/DaisyCode/DaisyExamples/libDaisy/src/hid/audio.h ****           output_compensation(1.f)
  49:/Users/dominicfrugoli/Desktop/ProgrammingCode/DaisyCode/DaisyExamples/libDaisy/src/hid/audio.h ****         {
  50:/Users/dominicfrugoli/Desktop/ProgrammingCode/DaisyCode/DaisyExamples/libDaisy/src/hid/audio.h ****         }
  51:/Users/dominicfrugoli/Desktop/ProgrammingCode/DaisyCode/DaisyExamples/libDaisy/src/hid/audio.h ****     };
  52:/Users/dominicfrugoli/Desktop/ProgrammingCode/DaisyCode/DaisyExamples/libDaisy/src/hid/audio.h **** 
  53:/Users/dominicfrugoli/Desktop/ProgrammingCode/DaisyCode/DaisyExamples/libDaisy/src/hid/audio.h ****     enum class Result
  54:/Users/dominicfrugoli/Desktop/ProgrammingCode/DaisyCode/DaisyExamples/libDaisy/src/hid/audio.h ****     {
  55:/Users/dominicfrugoli/Desktop/ProgrammingCode/DaisyCode/DaisyExamples/libDaisy/src/hid/audio.h ****         OK,
  56:/Users/dominicfrugoli/Desktop/ProgrammingCode/DaisyCode/DaisyExamples/libDaisy/src/hid/audio.h ****         ERR,
  57:/Users/dominicfrugoli/Desktop/ProgrammingCode/DaisyCode/DaisyExamples/libDaisy/src/hid/audio.h ****     };
  58:/Users/dominicfrugoli/Desktop/ProgrammingCode/DaisyCode/DaisyExamples/libDaisy/src/hid/audio.h **** 
  59:/Users/dominicfrugoli/Desktop/ProgrammingCode/DaisyCode/DaisyExamples/libDaisy/src/hid/audio.h ****     /** Non-Interleaving input buffer
  60:/Users/dominicfrugoli/Desktop/ProgrammingCode/DaisyCode/DaisyExamples/libDaisy/src/hid/audio.h ****      * Buffer arranged by float[chn][sample] 
  61:/Users/dominicfrugoli/Desktop/ProgrammingCode/DaisyCode/DaisyExamples/libDaisy/src/hid/audio.h ****      * const so that the user can't modify the input
  62:/Users/dominicfrugoli/Desktop/ProgrammingCode/DaisyCode/DaisyExamples/libDaisy/src/hid/audio.h ****      */
  63:/Users/dominicfrugoli/Desktop/ProgrammingCode/DaisyCode/DaisyExamples/libDaisy/src/hid/audio.h ****     typedef const float* const* InputBuffer;
  64:/Users/dominicfrugoli/Desktop/ProgrammingCode/DaisyCode/DaisyExamples/libDaisy/src/hid/audio.h **** 
  65:/Users/dominicfrugoli/Desktop/ProgrammingCode/DaisyCode/DaisyExamples/libDaisy/src/hid/audio.h ****     /** Non-Interleaving output buffer
  66:/Users/dominicfrugoli/Desktop/ProgrammingCode/DaisyCode/DaisyExamples/libDaisy/src/hid/audio.h ****      * Arranged by float[chn][sample] 
  67:/Users/dominicfrugoli/Desktop/ProgrammingCode/DaisyCode/DaisyExamples/libDaisy/src/hid/audio.h ****      */
  68:/Users/dominicfrugoli/Desktop/ProgrammingCode/DaisyCode/DaisyExamples/libDaisy/src/hid/audio.h ****     typedef float** OutputBuffer;
  69:/Users/dominicfrugoli/Desktop/ProgrammingCode/DaisyCode/DaisyExamples/libDaisy/src/hid/audio.h **** 
  70:/Users/dominicfrugoli/Desktop/ProgrammingCode/DaisyCode/DaisyExamples/libDaisy/src/hid/audio.h ****     /** Type for a Non-Interleaving audio callback 
  71:/Users/dominicfrugoli/Desktop/ProgrammingCode/DaisyCode/DaisyExamples/libDaisy/src/hid/audio.h ****      * Non-Interleaving audio callbacks in daisy will be of this type
  72:/Users/dominicfrugoli/Desktop/ProgrammingCode/DaisyCode/DaisyExamples/libDaisy/src/hid/audio.h ****      */
  73:/Users/dominicfrugoli/Desktop/ProgrammingCode/DaisyCode/DaisyExamples/libDaisy/src/hid/audio.h ****     typedef void (*AudioCallback)(InputBuffer  in,
  74:/Users/dominicfrugoli/Desktop/ProgrammingCode/DaisyCode/DaisyExamples/libDaisy/src/hid/audio.h ****                                   OutputBuffer out,
  75:/Users/dominicfrugoli/Desktop/ProgrammingCode/DaisyCode/DaisyExamples/libDaisy/src/hid/audio.h ****                                   size_t       size);
  76:/Users/dominicfrugoli/Desktop/ProgrammingCode/DaisyCode/DaisyExamples/libDaisy/src/hid/audio.h **** 
  77:/Users/dominicfrugoli/Desktop/ProgrammingCode/DaisyCode/DaisyExamples/libDaisy/src/hid/audio.h ****     /** Interleaving Input buffer
  78:/Users/dominicfrugoli/Desktop/ProgrammingCode/DaisyCode/DaisyExamples/libDaisy/src/hid/audio.h ****      ** audio is prepared as { L0, R0, L1, R1, . . . LN, RN }]
  79:/Users/dominicfrugoli/Desktop/ProgrammingCode/DaisyCode/DaisyExamples/libDaisy/src/hid/audio.h ****      ** this is const, as the user shouldn't modify it
  80:/Users/dominicfrugoli/Desktop/ProgrammingCode/DaisyCode/DaisyExamples/libDaisy/src/hid/audio.h ****     */
  81:/Users/dominicfrugoli/Desktop/ProgrammingCode/DaisyCode/DaisyExamples/libDaisy/src/hid/audio.h ****     typedef const float* InterleavingInputBuffer;
  82:/Users/dominicfrugoli/Desktop/ProgrammingCode/DaisyCode/DaisyExamples/libDaisy/src/hid/audio.h **** 
  83:/Users/dominicfrugoli/Desktop/ProgrammingCode/DaisyCode/DaisyExamples/libDaisy/src/hid/audio.h ****     /** Interleaving Output buffer 
  84:/Users/dominicfrugoli/Desktop/ProgrammingCode/DaisyCode/DaisyExamples/libDaisy/src/hid/audio.h ****      ** audio is prepared as { L0, R0, L1, R1, . . . LN, RN }
  85:/Users/dominicfrugoli/Desktop/ProgrammingCode/DaisyCode/DaisyExamples/libDaisy/src/hid/audio.h ****     */
  86:/Users/dominicfrugoli/Desktop/ProgrammingCode/DaisyCode/DaisyExamples/libDaisy/src/hid/audio.h ****     typedef float* InterleavingOutputBuffer;
  87:/Users/dominicfrugoli/Desktop/ProgrammingCode/DaisyCode/DaisyExamples/libDaisy/src/hid/audio.h **** 
  88:/Users/dominicfrugoli/Desktop/ProgrammingCode/DaisyCode/DaisyExamples/libDaisy/src/hid/audio.h ****     /** Interleaving Audio Callback 
ARM GAS  /var/folders/m5/x8wc2gdj7z5cpgcqdsb_gkj40000gn/T//ccPXNgbP.s 			page 11


  89:/Users/dominicfrugoli/Desktop/ProgrammingCode/DaisyCode/DaisyExamples/libDaisy/src/hid/audio.h ****      * Interleaving audio callbacks in daisy must be of this type
  90:/Users/dominicfrugoli/Desktop/ProgrammingCode/DaisyCode/DaisyExamples/libDaisy/src/hid/audio.h ****      */
  91:/Users/dominicfrugoli/Desktop/ProgrammingCode/DaisyCode/DaisyExamples/libDaisy/src/hid/audio.h ****     typedef void (*InterleavingAudioCallback)(InterleavingInputBuffer  in,
  92:/Users/dominicfrugoli/Desktop/ProgrammingCode/DaisyCode/DaisyExamples/libDaisy/src/hid/audio.h ****                                               InterleavingOutputBuffer out,
  93:/Users/dominicfrugoli/Desktop/ProgrammingCode/DaisyCode/DaisyExamples/libDaisy/src/hid/audio.h ****                                               size_t                   size);
  94:/Users/dominicfrugoli/Desktop/ProgrammingCode/DaisyCode/DaisyExamples/libDaisy/src/hid/audio.h **** 
  95:/Users/dominicfrugoli/Desktop/ProgrammingCode/DaisyCode/DaisyExamples/libDaisy/src/hid/audio.h ****     AudioHandle() : pimpl_(nullptr) {}
  96:/Users/dominicfrugoli/Desktop/ProgrammingCode/DaisyCode/DaisyExamples/libDaisy/src/hid/audio.h ****     ~AudioHandle() {}
 133              		.loc 8 96 5 is_stmt 1 view .LVU15
 134              		.loc 8 96 5 is_stmt 0 view .LVU16
 135              	.LBE228:
 136              		.loc 4 22 19 view .LVU17
 137 0000 7047     		bx	lr
 138              		.cfi_endproc
 139              	.LFE2556:
 141              		.weak	_ZN5daisy9DaisySeedD1Ev
 142              		.thumb_set _ZN5daisy9DaisySeedD1Ev,_ZN5daisy9DaisySeedD2Ev
 143 0002 00BF     		.section	.text._Z16AdvanceReadIndexv.part.0,"ax",%progbits
 144              		.align	1
 145              		.p2align 2,,3
 146              		.syntax unified
 147              		.thumb
 148              		.thumb_func
 150              	_Z16AdvanceReadIndexv.part.0:
 151              	.LFB5280:
 152              		.file 9 "sampleengine.h"
   1:sampleengine.h **** // ================================
   2:sampleengine.h **** // COMPANY: Feni Design
   3:sampleengine.h **** // AUTHOR: Dominic Frugoli
   4:sampleengine.h **** // CREATE DATE: 9/15/2024
   5:sampleengine.h **** // PROJECT: Fall 2024 Independent Project
   6:sampleengine.h **** // HEADER FILE FOR USE WITH: "sardinia.cpp"
   7:sampleengine.h **** // SPECIAL NOTES: Code is meant for Electrosmith Daisy microcontroller
   8:sampleengine.h **** // ================================
   9:sampleengine.h **** 
  10:sampleengine.h **** 
  11:sampleengine.h **** using namespace daisy;
  12:sampleengine.h **** using namespace daisy::seed;
  13:sampleengine.h **** using namespace daisysp;
  14:sampleengine.h **** 
  15:sampleengine.h **** 
  16:sampleengine.h **** 
  17:sampleengine.h **** 
  18:sampleengine.h **** // |Audio Objects|---------------------------------------------------------------------------------
  19:sampleengine.h **** 
  20:sampleengine.h **** #define MAX_RECORD_SIZE (48000 * 120) // 60 seconds of floats at 48 khz
  21:sampleengine.h **** #define MAX_SPLICE_SIZE (48000 * 20) // 5 seconds of floats at 48 khz
  22:sampleengine.h **** float DSY_SDRAM_BSS recordingBuffer[MAX_RECORD_SIZE];
  23:sampleengine.h **** float DSY_SDRAM_BSS spliceBufferOne[MAX_SPLICE_SIZE];
  24:sampleengine.h **** float DSY_SDRAM_BSS spliceBufferTwo[MAX_SPLICE_SIZE];
  25:sampleengine.h **** float DSY_SDRAM_BSS spliceBufferThree[MAX_SPLICE_SIZE];
  26:sampleengine.h **** float DSY_SDRAM_BSS spliceBufferFour[MAX_SPLICE_SIZE];
  27:sampleengine.h **** 
  28:sampleengine.h **** float readIndex = 0; // index for reading buffer
  29:sampleengine.h **** uint32_t readIndexInt;
  30:sampleengine.h **** float readIndexFraction;
  31:sampleengine.h **** float readFactor = 1; // playback speed
ARM GAS  /var/folders/m5/x8wc2gdj7z5cpgcqdsb_gkj40000gn/T//ccPXNgbP.s 			page 12


  32:sampleengine.h **** float readPitch;
  33:sampleengine.h **** uint32_t writeIndex = 0; // index for writing into buffer
  34:sampleengine.h **** uint32_t recordingLength = MAX_RECORD_SIZE; // tracks size of sample recording
  35:sampleengine.h **** uint32_t lengthTrack = 0; // for tracking recording size while recording
  36:sampleengine.h **** 
  37:sampleengine.h **** float fullSampleReadIndex = 0.0f;
  38:sampleengine.h **** uint32_t fullSampleReadIndexInt;
  39:sampleengine.h **** float fullSampleReadIndexFraction;
  40:sampleengine.h **** 
  41:sampleengine.h **** uint32_t keyStartIndex[numKeyPads];
  42:sampleengine.h **** uint32_t keyStopIndex[numKeyPads];
  43:sampleengine.h **** bool keyStates[numKeyPads];
  44:sampleengine.h **** uint32_t startPoint = 0;
  45:sampleengine.h **** uint32_t stopPoint = MAX_RECORD_SIZE;
  46:sampleengine.h **** int currentKey = 0;
  47:sampleengine.h **** 
  48:sampleengine.h **** bool isRecording = false;
  49:sampleengine.h **** bool isPlaying = false;
  50:sampleengine.h **** 
  51:sampleengine.h **** bool SpliceBufferOneIsPlaying = false;
  52:sampleengine.h **** 
  53:sampleengine.h **** float spliceBufferOneReadIndex = 0.0f;
  54:sampleengine.h **** uint32_t spliceBufferOneReadIndexInt;
  55:sampleengine.h **** float spliceBufferOneReadIndexFraction;
  56:sampleengine.h **** uint32_t spliceBufferOneLength = MAX_SPLICE_SIZE;
  57:sampleengine.h **** 
  58:sampleengine.h **** 
  59:sampleengine.h **** // |Init Functions|--------------------------------------------------------------------------------
  60:sampleengine.h **** 
  61:sampleengine.h **** void InitBuffer();
  62:sampleengine.h **** int FindNextPressedKey(int key);
  63:sampleengine.h **** void RecordSample(float sample);
  64:sampleengine.h **** void ResetReadIndex();
  65:sampleengine.h **** void AdvanceReadIndex();
  66:sampleengine.h **** float GetSample();
  67:sampleengine.h **** float FullSampleGetSample();
  68:sampleengine.h **** void StoreSpliceBufferOne();
  69:sampleengine.h **** void StoreSpliceBufferTwo();
  70:sampleengine.h **** void StoreSpliceBufferThree();
  71:sampleengine.h **** void StoreSpliceBufferFour();
  72:sampleengine.h **** bool AnyKeyIsPressed();
  73:sampleengine.h **** void SetKeyIndexs();
  74:sampleengine.h **** uint32_t GetStartPoint();
  75:sampleengine.h **** uint32_t GetStopPoint();
  76:sampleengine.h **** 
  77:sampleengine.h **** void InitBuffer()
  78:sampleengine.h **** {
  79:sampleengine.h ****     readIndex = 0.0f;
  80:sampleengine.h ****     for(uint32_t i = 0; i < MAX_RECORD_SIZE; i++) // initializes buffer to all 0s
  81:sampleengine.h ****     {
  82:sampleengine.h ****         recordingBuffer[i] = 0.0f;
  83:sampleengine.h ****     }
  84:sampleengine.h ****     for (uint32_t i = 0; i < MAX_SPLICE_SIZE; i++)
  85:sampleengine.h ****     {
  86:sampleengine.h ****         spliceBufferOne[i] = 0.0f;
  87:sampleengine.h ****         spliceBufferTwo[i] = 0.0f;
  88:sampleengine.h ****         spliceBufferThree[i] = 0.0f;
ARM GAS  /var/folders/m5/x8wc2gdj7z5cpgcqdsb_gkj40000gn/T//ccPXNgbP.s 			page 13


  89:sampleengine.h ****         spliceBufferFour[i] = 0.0f;
  90:sampleengine.h ****     }
  91:sampleengine.h **** }
  92:sampleengine.h **** 
  93:sampleengine.h **** void RecordSample(float sample) // Records sample from argument and moves forward write index
  94:sampleengine.h **** {
  95:sampleengine.h ****     recordingBuffer[writeIndex] = sample;
  96:sampleengine.h ****     writeIndex++;
  97:sampleengine.h **** }
  98:sampleengine.h **** 
  99:sampleengine.h **** void ResetReadIndex()
 100:sampleengine.h **** {
 101:sampleengine.h ****     readIndex = startPoint;
 102:sampleengine.h **** }
 103:sampleengine.h **** 
 104:sampleengine.h **** void AdvanceReadIndex()
 153              		.loc 9 104 6 is_stmt 1 view -0
 154              		.cfi_startproc
 155              		@ args = 0, pretend = 0, frame = 0
 156              		@ frame_needed = 0, uses_anonymous_args = 0
 157              		@ link register save eliminated.
 105:sampleengine.h **** {
 106:sampleengine.h ****     readIndex += readFactor;
 107:sampleengine.h **** 
 108:sampleengine.h ****     if(readIndex >= stopPoint)
 109:sampleengine.h ****     {
 110:sampleengine.h ****         currentKey = FindNextPressedKey(currentKey);
 158              		.loc 9 110 9 view .LVU19
 104:sampleengine.h **** {
 159              		.loc 9 104 6 is_stmt 0 view .LVU20
 160 0000 30B4     		push	{r4, r5}
 161              		.cfi_def_cfa_offset 8
 162              		.cfi_offset 4, -8
 163              		.cfi_offset 5, -4
 164              		.loc 9 110 40 view .LVU21
 165 0002 114C     		ldr	r4, .L13
 166 0004 2022     		movs	r2, #32
 167 0006 1148     		ldr	r0, .L13+4
 168 0008 2368     		ldr	r3, [r4]
 169              	.LVL4:
 170              	.LBB236:
 171              	.LBI236:
 111:sampleengine.h ****         startPoint = keyStartIndex[currentKey];
 112:sampleengine.h ****         stopPoint = keyStopIndex[currentKey];
 113:sampleengine.h ****         ResetReadIndex();
 114:sampleengine.h ****     }
 115:sampleengine.h **** }
 116:sampleengine.h **** 
 117:sampleengine.h **** float GetSample()
 118:sampleengine.h **** {
 119:sampleengine.h ****     float a, b, out;
 120:sampleengine.h **** 
 121:sampleengine.h ****     readIndexInt = static_cast<int32_t>(readIndex);
 122:sampleengine.h **** 	readIndexFraction = readIndex - readIndexInt;
 123:sampleengine.h **** 
 124:sampleengine.h **** 	a = recordingBuffer[readIndexInt]; // current sample
 125:sampleengine.h **** 	b = recordingBuffer[readIndexInt + 1]; // next sample
ARM GAS  /var/folders/m5/x8wc2gdj7z5cpgcqdsb_gkj40000gn/T//ccPXNgbP.s 			page 14


 126:sampleengine.h **** 	out = a + (b - a) * readIndexFraction; // Linear Interpolation
 127:sampleengine.h **** 
 128:sampleengine.h ****     return out;
 129:sampleengine.h **** }
 130:sampleengine.h **** 
 131:sampleengine.h **** float FullSampleGetSample()
 132:sampleengine.h **** {
 133:sampleengine.h ****     fullSampleReadIndex += readFactor;
 134:sampleengine.h ****     if(fullSampleReadIndex > recordingLength) 
 135:sampleengine.h ****     {
 136:sampleengine.h ****         fullSampleReadIndex = 0;
 137:sampleengine.h ****     }
 138:sampleengine.h **** 
 139:sampleengine.h ****     float a, b, out;
 140:sampleengine.h ****     fullSampleReadIndexInt = static_cast<int32_t>(fullSampleReadIndex);
 141:sampleengine.h ****     fullSampleReadIndexFraction = fullSampleReadIndex - fullSampleReadIndexInt;
 142:sampleengine.h ****     a = recordingBuffer[fullSampleReadIndexInt]; // current sample
 143:sampleengine.h ****     b = recordingBuffer[fullSampleReadIndexInt + 1]; // next sample
 144:sampleengine.h ****     out = a + (b - a) * fullSampleReadIndexFraction; // Linear Interpolation
 145:sampleengine.h **** 
 146:sampleengine.h ****     return out;
 147:sampleengine.h **** }
 148:sampleengine.h **** 
 149:sampleengine.h **** void StoreSpliceBufferOne()
 150:sampleengine.h **** {
 151:sampleengine.h ****     readIndex = startPoint;
 152:sampleengine.h ****     float startSample = startPoint;
 153:sampleengine.h ****     for (uint32_t i = 0; i < MAX_SPLICE_SIZE; i++)
 154:sampleengine.h ****     {
 155:sampleengine.h ****         spliceBufferOne[i] = GetSample();
 156:sampleengine.h ****         AdvanceReadIndex();
 157:sampleengine.h ****         if(readIndex == startSample)
 158:sampleengine.h ****         {
 159:sampleengine.h ****             spliceBufferOneLength = i;
 160:sampleengine.h ****             break;
 161:sampleengine.h ****         }
 162:sampleengine.h ****     }
 163:sampleengine.h ****     readIndex = startPoint;
 164:sampleengine.h **** }
 165:sampleengine.h **** 
 166:sampleengine.h **** float SpliceBufferOneGetSample()
 167:sampleengine.h **** {
 168:sampleengine.h ****     spliceBufferOneReadIndex += readFactor;
 169:sampleengine.h ****     if(spliceBufferOneReadIndex > spliceBufferOneLength) 
 170:sampleengine.h ****     {
 171:sampleengine.h ****         spliceBufferOneReadIndex = 0;
 172:sampleengine.h ****     }
 173:sampleengine.h **** 
 174:sampleengine.h ****     float a, b, out;
 175:sampleengine.h ****     spliceBufferOneReadIndexInt = static_cast<int32_t>(spliceBufferOneReadIndex);
 176:sampleengine.h ****     spliceBufferOneReadIndexFraction = spliceBufferOneReadIndex - spliceBufferOneReadIndexInt;
 177:sampleengine.h ****     a = spliceBufferOne[spliceBufferOneReadIndexInt]; // current sample
 178:sampleengine.h ****     b = spliceBufferOne[spliceBufferOneReadIndexInt + 1]; // next sample
 179:sampleengine.h ****     out = a + (b - a) * spliceBufferOneReadIndexFraction; // Linear Interpolation
 180:sampleengine.h **** 
 181:sampleengine.h ****     return out;
 182:sampleengine.h **** }
ARM GAS  /var/folders/m5/x8wc2gdj7z5cpgcqdsb_gkj40000gn/T//ccPXNgbP.s 			page 15


 183:sampleengine.h **** 
 184:sampleengine.h **** void StoreSpliceBufferTwo()
 185:sampleengine.h **** {
 186:sampleengine.h ****     readIndex = startPoint;
 187:sampleengine.h ****     float startSample = startPoint;
 188:sampleengine.h ****     for (uint32_t i = 0; i < MAX_SPLICE_SIZE; i++)
 189:sampleengine.h ****     {
 190:sampleengine.h ****         spliceBufferTwo[i] = GetSample();
 191:sampleengine.h ****         AdvanceReadIndex();
 192:sampleengine.h ****         if(readIndex == startSample)
 193:sampleengine.h ****         {
 194:sampleengine.h ****             break;
 195:sampleengine.h ****         }
 196:sampleengine.h ****     }
 197:sampleengine.h ****     readIndex = startPoint;
 198:sampleengine.h **** }
 199:sampleengine.h **** 
 200:sampleengine.h **** void StoreSpliceBufferThree()
 201:sampleengine.h **** {
 202:sampleengine.h ****     readIndex = startPoint;
 203:sampleengine.h ****     float startSample = startPoint;
 204:sampleengine.h ****     for (uint32_t i = 0; i < MAX_SPLICE_SIZE; i++)
 205:sampleengine.h ****     {
 206:sampleengine.h ****         spliceBufferThree[i] = GetSample();
 207:sampleengine.h ****         AdvanceReadIndex();
 208:sampleengine.h ****         if(readIndex == startSample)
 209:sampleengine.h ****         {
 210:sampleengine.h ****             break;
 211:sampleengine.h ****         }
 212:sampleengine.h ****     }
 213:sampleengine.h ****     readIndex = startPoint;
 214:sampleengine.h **** }
 215:sampleengine.h **** 
 216:sampleengine.h **** void StoreSpliceBufferFour()
 217:sampleengine.h **** {
 218:sampleengine.h ****     readIndex = startPoint;
 219:sampleengine.h ****     float startSample = startPoint;
 220:sampleengine.h ****     for (uint32_t i = 0; i < MAX_SPLICE_SIZE; i++)
 221:sampleengine.h ****     {
 222:sampleengine.h ****         spliceBufferFour[i] = GetSample();
 223:sampleengine.h ****         AdvanceReadIndex();
 224:sampleengine.h ****         if(readIndex == startSample)
 225:sampleengine.h ****         {
 226:sampleengine.h ****             break;
 227:sampleengine.h ****         }
 228:sampleengine.h ****     }
 229:sampleengine.h ****     readIndex = startPoint;
 230:sampleengine.h **** }
 231:sampleengine.h **** 
 232:sampleengine.h **** bool AnyKeyIsPressed()
 233:sampleengine.h **** {
 234:sampleengine.h ****     for(int i = 0; i < numKeyPads; i++)
 235:sampleengine.h ****     {
 236:sampleengine.h ****         if(keyStates[i])
 237:sampleengine.h ****         {
 238:sampleengine.h ****             return true;
 239:sampleengine.h ****         }
ARM GAS  /var/folders/m5/x8wc2gdj7z5cpgcqdsb_gkj40000gn/T//ccPXNgbP.s 			page 16


 240:sampleengine.h ****     }
 241:sampleengine.h ****     return false;
 242:sampleengine.h **** }
 243:sampleengine.h **** 
 244:sampleengine.h **** int FindNextPressedKey(int key)
 172              		.loc 9 244 5 is_stmt 1 view .LVU22
 173              	.LBB237:
 174              	.LBB238:
 245:sampleengine.h **** {
 246:sampleengine.h ****     int nextKey = key;
 247:sampleengine.h ****     for(int i = 0; i < numKeyPads; i++)
 175              		.loc 9 247 22 view .LVU23
 176 000a 01E0     		b	.L9
 177              	.LVL5:
 178              	.L12:
 179              		.loc 9 247 22 is_stmt 0 view .LVU24
 180 000c 013A     		subs	r2, r2, #1
 181              	.LVL6:
 182              		.loc 9 247 22 view .LVU25
 183 000e 06D0     		beq	.L8
 184              	.LVL7:
 185              	.L9:
 248:sampleengine.h ****     {
 249:sampleengine.h ****         nextKey++;
 186              		.loc 9 249 9 is_stmt 1 view .LVU26
 247:sampleengine.h ****     {
 187              		.loc 9 247 5 view .LVU27
 188              		.loc 9 249 16 is_stmt 0 view .LVU28
 189 0010 0133     		adds	r3, r3, #1
 190              	.LVL8:
 250:sampleengine.h ****         if(nextKey >= numKeyPads)
 191              		.loc 9 250 9 is_stmt 1 view .LVU29
 251:sampleengine.h ****         {
 252:sampleengine.h ****             nextKey = 0;
 192              		.loc 9 252 21 is_stmt 0 view .LVU30
 193 0012 202B     		cmp	r3, #32
 194 0014 A8BF     		it	ge
 195 0016 0023     		movge	r3, #0
 196              	.LVL9:
 253:sampleengine.h ****         }
 254:sampleengine.h ****         if(keyStates[nextKey])
 197              		.loc 9 254 9 is_stmt 1 view .LVU31
 247:sampleengine.h ****     {
 198              		.loc 9 247 22 view .LVU32
 199              		.loc 9 254 9 is_stmt 0 view .LVU33
 200 0018 C15C     		ldrb	r1, [r0, r3]	@ zero_extendqisi2
 201 001a 0029     		cmp	r1, #0
 202 001c F6D0     		beq	.L12
 203              	.LVL10:
 204              	.L8:
 205              		.loc 9 254 9 view .LVU34
 206              	.LBE238:
 255:sampleengine.h ****         {
 256:sampleengine.h ****             break;
 257:sampleengine.h ****         }
 258:sampleengine.h ****     }
 259:sampleengine.h ****     return nextKey;
ARM GAS  /var/folders/m5/x8wc2gdj7z5cpgcqdsb_gkj40000gn/T//ccPXNgbP.s 			page 17


 207              		.loc 9 259 5 is_stmt 1 view .LVU35
 208              		.loc 9 259 5 is_stmt 0 view .LVU36
 209              	.LBE237:
 210              	.LBE236:
 111:sampleengine.h ****         stopPoint = keyStopIndex[currentKey];
 211              		.loc 9 111 46 view .LVU37
 212 001e 0C4A     		ldr	r2, .L13+8
 112:sampleengine.h ****         ResetReadIndex();
 213              		.loc 9 112 44 view .LVU38
 214 0020 0C48     		ldr	r0, .L13+12
 111:sampleengine.h ****         stopPoint = keyStopIndex[currentKey];
 215              		.loc 9 111 46 view .LVU39
 216 0022 52F82320 		ldr	r2, [r2, r3, lsl #2]
 111:sampleengine.h ****         stopPoint = keyStopIndex[currentKey];
 217              		.loc 9 111 20 view .LVU40
 218 0026 0C4D     		ldr	r5, .L13+16
 219              	.LBB239:
 220              	.LBB240:
 101:sampleengine.h **** }
 221              		.loc 9 101 15 view .LVU41
 222 0028 07EE902A 		vmov	s15, r2	@ int
 223              	.LBE240:
 224              	.LBE239:
 112:sampleengine.h ****         ResetReadIndex();
 225              		.loc 9 112 19 view .LVU42
 226 002c 50F82300 		ldr	r0, [r0, r3, lsl #2]
 110:sampleengine.h ****         startPoint = keyStartIndex[currentKey];
 227              		.loc 9 110 20 view .LVU43
 228 0030 2360     		str	r3, [r4]
 111:sampleengine.h ****         stopPoint = keyStopIndex[currentKey];
 229              		.loc 9 111 9 is_stmt 1 view .LVU44
 230              	.LBB244:
 231              	.LBB241:
 101:sampleengine.h **** }
 232              		.loc 9 101 15 is_stmt 0 view .LVU45
 233 0032 F8EE677A 		vcvt.f32.u32	s15, s15
 234              	.LBE241:
 235              	.LBE244:
 112:sampleengine.h ****         ResetReadIndex();
 236              		.loc 9 112 19 view .LVU46
 237 0036 0949     		ldr	r1, .L13+20
 238              	.LBB245:
 239              	.LBB242:
 101:sampleengine.h **** }
 240              		.loc 9 101 15 view .LVU47
 241 0038 094B     		ldr	r3, .L13+24
 242              	.LBE242:
 243              	.LBE245:
 111:sampleengine.h ****         stopPoint = keyStopIndex[currentKey];
 244              		.loc 9 111 20 view .LVU48
 245 003a 2A60     		str	r2, [r5]
 112:sampleengine.h ****         ResetReadIndex();
 246              		.loc 9 112 9 is_stmt 1 view .LVU49
 112:sampleengine.h ****         ResetReadIndex();
 247              		.loc 9 112 19 is_stmt 0 view .LVU50
 248 003c 0860     		str	r0, [r1]
 113:sampleengine.h ****     }
ARM GAS  /var/folders/m5/x8wc2gdj7z5cpgcqdsb_gkj40000gn/T//ccPXNgbP.s 			page 18


 249              		.loc 9 113 9 is_stmt 1 view .LVU51
 250              	.LBB246:
 251              	.LBI239:
  99:sampleengine.h **** {
 252              		.loc 9 99 6 view .LVU52
 253              	.LBB243:
 101:sampleengine.h **** }
 254              		.loc 9 101 5 view .LVU53
 101:sampleengine.h **** }
 255              		.loc 9 101 15 is_stmt 0 view .LVU54
 256 003e C3ED007A 		vstr.32	s15, [r3]
 257              	.LBE243:
 258              	.LBE246:
 115:sampleengine.h **** 
 259              		.loc 9 115 1 view .LVU55
 260 0042 30BC     		pop	{r4, r5}
 261              		.cfi_restore 5
 262              		.cfi_restore 4
 263              		.cfi_def_cfa_offset 0
 264 0044 7047     		bx	lr
 265              	.L14:
 266 0046 00BF     		.align	2
 267              	.L13:
 268 0048 00000000 		.word	.LANCHOR0
 269 004c 00000000 		.word	.LANCHOR1
 270 0050 00000000 		.word	.LANCHOR2
 271 0054 00000000 		.word	.LANCHOR5
 272 0058 00000000 		.word	.LANCHOR3
 273 005c 00000000 		.word	.LANCHOR4
 274 0060 00000000 		.word	.LANCHOR6
 275              		.cfi_endproc
 276              	.LFE5280:
 278              		.section	.text._Z12InitControlsv,"ax",%progbits
 279              		.align	1
 280              		.p2align 2,,3
 281              		.global	_Z12InitControlsv
 282              		.syntax unified
 283              		.thumb
 284              		.thumb_func
 286              	_Z12InitControlsv:
 287              	.LFB4682:
 288              		.file 10 "hardware.h"
   1:hardware.h    **** // ================================
   2:hardware.h    **** // COMPANY: Feni Design
   3:hardware.h    **** // AUTHOR: Dominic Frugoli
   4:hardware.h    **** // CREATE DATE: 8/25/2024
   5:hardware.h    **** // PROJECT: Fall 2024 Independent Project
   6:hardware.h    **** // HEADER FILE FOR USE WITH: "sardinia.cpp"
   7:hardware.h    **** // SPECIAL NOTES: Code is meant for Electrosmith Daisy microcontroller
   8:hardware.h    **** // ================================
   9:hardware.h    **** 
  10:hardware.h    **** 
  11:hardware.h    **** using namespace daisy;
  12:hardware.h    **** using namespace daisy::seed;
  13:hardware.h    **** 
  14:hardware.h    **** 
  15:hardware.h    **** // |Pin Declarations|------------------------------------------------------------------------------
ARM GAS  /var/folders/m5/x8wc2gdj7z5cpgcqdsb_gkj40000gn/T//ccPXNgbP.s 			page 19


  16:hardware.h    **** // Setting up pin locations for all hardware
  17:hardware.h    **** 
  18:hardware.h    **** #define numKeyPads 32
  19:hardware.h    **** 
  20:hardware.h    **** #define knobMuxPin A0
  21:hardware.h    **** #define keypadMuxPin_Row1 A1
  22:hardware.h    **** #define keypadMuxPin_Row2 A2
  23:hardware.h    **** #define keypadMuxPin_Row3 A3
  24:hardware.h    **** #define keypadMuxPin_Row4 A4
  25:hardware.h    **** #define buttonMuxPin A5 // 0: play, 1: record, 2: ???, 3: ???, 4: ModeOne, 5: ModeTwo, 6: ModeThree
  26:hardware.h    **** 
  27:hardware.h    **** #define muxConPin1 D1
  28:hardware.h    **** #define muxConPin2 D2
  29:hardware.h    **** #define muxConPin3 D3
  30:hardware.h    **** 
  31:hardware.h    **** #define encoderPinA D11
  32:hardware.h    **** #define encoderPinB D10
  33:hardware.h    **** #define encoderPinClick D12
  34:hardware.h    **** 
  35:hardware.h    **** #define playButtonPin D14 
  36:hardware.h    **** #define recButtonPin D13
  37:hardware.h    **** 
  38:hardware.h    **** 
  39:hardware.h    **** // |ADC Config Setup|------------------------------------------------------------------------------
  40:hardware.h    **** // Setting up ADC system for Daisy
  41:hardware.h    **** 
  42:hardware.h    **** enum AdcChannel // Just add knobs before last NUM_ADC_CHANNELS as needed
  43:hardware.h    **** {
  44:hardware.h    **** 	knobMux,
  45:hardware.h    **** 	keypadMuxOne,
  46:hardware.h    **** 	keypadMuxTwo,
  47:hardware.h    **** 	keypadMuxThree,
  48:hardware.h    **** 	keypadMuxFour,
  49:hardware.h    **** 	buttonMux,
  50:hardware.h    **** 	NUM_ADC_CHANNELS // Enum allows for auto tracking the amount
  51:hardware.h    **** };
  52:hardware.h    **** 
  53:hardware.h    **** 
  54:hardware.h    **** // |Hardware Object Instantiations|----------------------------------------------------------------
  55:hardware.h    **** // Instantiating objects for hardware control classes
  56:hardware.h    **** 
  57:hardware.h    **** AdcChannelConfig adcConfig[NUM_ADC_CHANNELS]; // array size for number of ADC channels you need
  58:hardware.h    **** 
  59:hardware.h    **** 
  60:hardware.h    **** Encoder encoder;
  61:hardware.h    **** Switch playButton;
  62:hardware.h    **** Switch recButton;
  63:hardware.h    **** 
  64:hardware.h    **** 
  65:hardware.h    **** // |Variable Declarations|-------------------------------------------------------------------------
  66:hardware.h    **** // Variables for all values that need to be stored
  67:hardware.h    **** 
  68:hardware.h    **** 
  69:hardware.h    **** int encoderTurnVal;
  70:hardware.h    **** 
  71:hardware.h    **** // 0: play, 1: record, 2: ???, 3: ???, 4: ModeOne, 5: ModeTwo, 6: ModeThree, 7: ModeFour
  72:hardware.h    **** bool controlButtonStates[8] = {false, false, false, false, false, false, false, false};
ARM GAS  /var/folders/m5/x8wc2gdj7z5cpgcqdsb_gkj40000gn/T//ccPXNgbP.s 			page 20


  73:hardware.h    **** bool prevControlButtonStates[8] = {false, false, false, false, false, false, false, false};
  74:hardware.h    **** 
  75:hardware.h    **** bool playButtonOverrule; // For when the playing sample off of play button pressed (overrules keypa
  76:hardware.h    **** 
  77:hardware.h    **** 
  78:hardware.h    **** // |Function Declarations|-------------------------------------------------------------------------
  79:hardware.h    **** // Function declarations for any functions needed
  80:hardware.h    **** 
  81:hardware.h    **** void ProcessControlsKR(); // For controls that only need to be processed every audio block
  82:hardware.h    **** void ProcessControlsAR(); // For controls that need to process every sample
  83:hardware.h    **** 
  84:hardware.h    **** void InitControls()
  85:hardware.h    **** {
 289              		.loc 10 85 1 is_stmt 1 view -0
 290              		.cfi_startproc
 291              		@ args = 0, pretend = 0, frame = 128
 292              		@ frame_needed = 0, uses_anonymous_args = 0
  86:hardware.h    **** 	adcConfig[knobMux].InitMux(knobMuxPin, 8, muxConPin1, muxConPin2, muxConPin3);
 293              		.loc 10 86 2 view .LVU57
  85:hardware.h    **** 	adcConfig[knobMux].InitMux(knobMuxPin, 8, muxConPin1, muxConPin2, muxConPin3);
 294              		.loc 10 85 1 is_stmt 0 view .LVU58
 295 0000 2DE9F04F 		push	{r4, r5, r6, r7, r8, r9, r10, fp, lr}
 296              		.cfi_def_cfa_offset 36
 297              		.cfi_offset 4, -36
 298              		.cfi_offset 5, -32
 299              		.cfi_offset 6, -28
 300              		.cfi_offset 7, -24
 301              		.cfi_offset 8, -20
 302              		.cfi_offset 9, -16
 303              		.cfi_offset 10, -12
 304              		.cfi_offset 11, -8
 305              		.cfi_offset 14, -4
 306              		.loc 10 86 28 view .LVU59
 307 0004 0224     		movs	r4, #2
  85:hardware.h    **** 	adcConfig[knobMux].InitMux(knobMuxPin, 8, muxConPin1, muxConPin2, muxConPin3);
 308              		.loc 10 85 1 view .LVU60
 309 0006 A5B0     		sub	sp, sp, #148
 310              		.cfi_def_cfa_offset 184
 311              		.loc 10 86 28 view .LVU61
 312 0008 0926     		movs	r6, #9
 313 000a 4FF00A09 		mov	r9, #10
 314 000e 8DF82840 		strb	r4, [sp, #40]
 315 0012 4FF00B08 		mov	r8, #11
 316 0016 8DF82960 		strb	r6, [sp, #41]
 317 001a 4FF0000A 		mov	r10, #0
 318 001e BDF82830 		ldrh	r3, [sp, #40]
 319 0022 0822     		movs	r2, #8
 320 0024 764F     		ldr	r7, .L17
  87:hardware.h    **** 	adcConfig[keypadMuxOne].InitMux(keypadMuxPin_Row1, 8, muxConPin1, muxConPin2, muxConPin3);
  88:hardware.h    **** 	adcConfig[keypadMuxTwo].InitMux(keypadMuxPin_Row2, 8, muxConPin1, muxConPin2, muxConPin3);
 321              		.loc 10 88 33 view .LVU62
 322 0026 0125     		movs	r5, #1
  86:hardware.h    **** 	adcConfig[keypadMuxOne].InitMux(keypadMuxPin_Row1, 8, muxConPin1, muxConPin2, muxConPin3);
 323              		.loc 10 86 28 view .LVU63
 324 0028 8DF82440 		strb	r4, [sp, #36]
  89:hardware.h    **** 	adcConfig[keypadMuxThree].InitMux(keypadMuxPin_Row3, 8, muxConPin1, muxConPin2, muxConPin3);
 325              		.loc 10 89 35 view .LVU64
ARM GAS  /var/folders/m5/x8wc2gdj7z5cpgcqdsb_gkj40000gn/T//ccPXNgbP.s 			page 21


 326 002c 4FF0070B 		mov	fp, #7
  86:hardware.h    **** 	adcConfig[keypadMuxOne].InitMux(keypadMuxPin_Row1, 8, muxConPin1, muxConPin2, muxConPin3);
 327              		.loc 10 86 28 view .LVU65
 328 0030 8DF82590 		strb	r9, [sp, #37]
 329 0034 3846     		mov	r0, r7
 330 0036 ADF80430 		strh	r3, [sp, #4]	@ movhi
 331 003a BDF82430 		ldrh	r3, [sp, #36]
 332 003e 8DF81DA0 		strb	r10, [sp, #29]
 333 0042 8DF81C40 		strb	r4, [sp, #28]
 334 0046 8DF82040 		strb	r4, [sp, #32]
 335 004a 8DF82180 		strb	r8, [sp, #33]
 336 004e 0799     		ldr	r1, [sp, #28]
 337 0050 ADF80030 		strh	r3, [sp]	@ movhi
 338 0054 0294     		str	r4, [sp, #8]
 339 0056 089B     		ldr	r3, [sp, #32]
 340 0058 FFF7FEFF 		bl	_ZN5daisy16AdcChannelConfig7InitMuxE12dsy_gpio_pinjS1_S1_S1_NS0_15ConversionSpeedE
 341              	.LVL11:
  87:hardware.h    **** 	adcConfig[keypadMuxOne].InitMux(keypadMuxPin_Row1, 8, muxConPin1, muxConPin2, muxConPin3);
 342              		.loc 10 87 2 is_stmt 1 view .LVU66
  87:hardware.h    **** 	adcConfig[keypadMuxOne].InitMux(keypadMuxPin_Row1, 8, muxConPin1, muxConPin2, muxConPin3);
 343              		.loc 10 87 33 is_stmt 0 view .LVU67
 344 005c 0323     		movs	r3, #3
 345 005e 8DF83840 		strb	r4, [sp, #56]
 346 0062 07F11200 		add	r0, r7, #18
 347 0066 8DF82D30 		strb	r3, [sp, #45]
 348 006a 0822     		movs	r2, #8
 349 006c 8DF83960 		strb	r6, [sp, #57]
 350 0070 BDF83830 		ldrh	r3, [sp, #56]
 351 0074 8DF83440 		strb	r4, [sp, #52]
 352 0078 8DF83590 		strb	r9, [sp, #53]
 353 007c ADF80430 		strh	r3, [sp, #4]	@ movhi
 354 0080 BDF83430 		ldrh	r3, [sp, #52]
 355 0084 8DF82CA0 		strb	r10, [sp, #44]
 356 0088 8DF83040 		strb	r4, [sp, #48]
 357 008c 8DF83180 		strb	r8, [sp, #49]
 358 0090 0B99     		ldr	r1, [sp, #44]
 359 0092 ADF80030 		strh	r3, [sp]	@ movhi
 360 0096 0294     		str	r4, [sp, #8]
 361 0098 0C9B     		ldr	r3, [sp, #48]
 362 009a FFF7FEFF 		bl	_ZN5daisy16AdcChannelConfig7InitMuxE12dsy_gpio_pinjS1_S1_S1_NS0_15ConversionSpeedE
 363              	.LVL12:
  88:hardware.h    **** 	adcConfig[keypadMuxThree].InitMux(keypadMuxPin_Row3, 8, muxConPin1, muxConPin2, muxConPin3);
 364              		.loc 10 88 2 is_stmt 1 view .LVU68
  88:hardware.h    **** 	adcConfig[keypadMuxThree].InitMux(keypadMuxPin_Row3, 8, muxConPin1, muxConPin2, muxConPin3);
 365              		.loc 10 88 33 is_stmt 0 view .LVU69
 366 009e 8DF84840 		strb	r4, [sp, #72]
 367 00a2 8DF84960 		strb	r6, [sp, #73]
 368 00a6 07F12400 		add	r0, r7, #36
 369 00aa BDF84830 		ldrh	r3, [sp, #72]
 370 00ae 0822     		movs	r2, #8
 371 00b0 8DF84440 		strb	r4, [sp, #68]
 372 00b4 8DF84590 		strb	r9, [sp, #69]
 373 00b8 ADF80430 		strh	r3, [sp, #4]	@ movhi
 374 00bc BDF84430 		ldrh	r3, [sp, #68]
 375 00c0 8DF84040 		strb	r4, [sp, #64]
 376 00c4 8DF84180 		strb	r8, [sp, #65]
 377 00c8 8DF83C50 		strb	r5, [sp, #60]
ARM GAS  /var/folders/m5/x8wc2gdj7z5cpgcqdsb_gkj40000gn/T//ccPXNgbP.s 			page 22


 378 00cc 8DF83D50 		strb	r5, [sp, #61]
 379 00d0 0F99     		ldr	r1, [sp, #60]
 380 00d2 ADF80030 		strh	r3, [sp]	@ movhi
 381 00d6 0294     		str	r4, [sp, #8]
 382 00d8 109B     		ldr	r3, [sp, #64]
 383 00da FFF7FEFF 		bl	_ZN5daisy16AdcChannelConfig7InitMuxE12dsy_gpio_pinjS1_S1_S1_NS0_15ConversionSpeedE
 384              	.LVL13:
 385              		.loc 10 89 2 is_stmt 1 view .LVU70
 386              		.loc 10 89 35 is_stmt 0 view .LVU71
 387 00de 8DF85840 		strb	r4, [sp, #88]
 388 00e2 8DF85960 		strb	r6, [sp, #89]
 389 00e6 07F13600 		add	r0, r7, #54
 390 00ea BDF85830 		ldrh	r3, [sp, #88]
 391 00ee 0822     		movs	r2, #8
 392 00f0 8DF85440 		strb	r4, [sp, #84]
 393 00f4 8DF85590 		strb	r9, [sp, #85]
 394 00f8 ADF80430 		strh	r3, [sp, #4]	@ movhi
 395 00fc BDF85430 		ldrh	r3, [sp, #84]
 396 0100 8DF84CA0 		strb	r10, [sp, #76]
 397 0104 8DF85040 		strb	r4, [sp, #80]
 398 0108 8DF85180 		strb	r8, [sp, #81]
 399 010c 8DF84DB0 		strb	fp, [sp, #77]
 400 0110 1399     		ldr	r1, [sp, #76]
 401 0112 ADF80030 		strh	r3, [sp]	@ movhi
 402 0116 0294     		str	r4, [sp, #8]
 403 0118 149B     		ldr	r3, [sp, #80]
 404 011a FFF7FEFF 		bl	_ZN5daisy16AdcChannelConfig7InitMuxE12dsy_gpio_pinjS1_S1_S1_NS0_15ConversionSpeedE
 405              	.LVL14:
  90:hardware.h    **** 	adcConfig[keypadMuxFour].InitMux(keypadMuxPin_Row4, 8, muxConPin1, muxConPin2, muxConPin3);
 406              		.loc 10 90 2 is_stmt 1 view .LVU72
 407              		.loc 10 90 34 is_stmt 0 view .LVU73
 408 011e 8DF86840 		strb	r4, [sp, #104]
 409 0122 8DF86960 		strb	r6, [sp, #105]
 410 0126 07F14800 		add	r0, r7, #72
 411 012a BDF86830 		ldrh	r3, [sp, #104]
 412 012e 0822     		movs	r2, #8
 413 0130 8DF85CA0 		strb	r10, [sp, #92]
 414 0134 4FF0060A 		mov	r10, #6
 415 0138 8DF86440 		strb	r4, [sp, #100]
 416 013c 8DF86590 		strb	r9, [sp, #101]
 417 0140 ADF80430 		strh	r3, [sp, #4]	@ movhi
 418 0144 BDF86430 		ldrh	r3, [sp, #100]
 419 0148 8DF86040 		strb	r4, [sp, #96]
 420 014c 8DF86180 		strb	r8, [sp, #97]
 421 0150 8DF85DA0 		strb	r10, [sp, #93]
 422 0154 1799     		ldr	r1, [sp, #92]
 423 0156 ADF80030 		strh	r3, [sp]	@ movhi
 424 015a 0294     		str	r4, [sp, #8]
 425 015c 189B     		ldr	r3, [sp, #96]
 426 015e FFF7FEFF 		bl	_ZN5daisy16AdcChannelConfig7InitMuxE12dsy_gpio_pinjS1_S1_S1_NS0_15ConversionSpeedE
 427              	.LVL15:
  91:hardware.h    **** 	adcConfig[buttonMux].InitMux(buttonMuxPin, 8, muxConPin1, muxConPin2, muxConPin3);
 428              		.loc 10 91 2 is_stmt 1 view .LVU74
 429              		.loc 10 91 30 is_stmt 0 view .LVU75
 430 0162 8DF87840 		strb	r4, [sp, #120]
 431 0166 8DF87960 		strb	r6, [sp, #121]
 432 016a 0822     		movs	r2, #8
ARM GAS  /var/folders/m5/x8wc2gdj7z5cpgcqdsb_gkj40000gn/T//ccPXNgbP.s 			page 23


 433 016c BDF87830 		ldrh	r3, [sp, #120]
 434 0170 07F15A00 		add	r0, r7, #90
 435 0174 8DF87590 		strb	r9, [sp, #117]
 436 0178 8DF87440 		strb	r4, [sp, #116]
 437 017c ADF80430 		strh	r3, [sp, #4]	@ movhi
 438 0180 BDF87430 		ldrh	r3, [sp, #116]
 439 0184 8DF87180 		strb	r8, [sp, #113]
 440 0188 8DF86C40 		strb	r4, [sp, #108]
 441 018c 8DF86D50 		strb	r5, [sp, #109]
 442 0190 8DF87040 		strb	r4, [sp, #112]
 443 0194 1B99     		ldr	r1, [sp, #108]
 444 0196 ADF80030 		strh	r3, [sp]	@ movhi
 445 019a 0294     		str	r4, [sp, #8]
 446 019c 1C9B     		ldr	r3, [sp, #112]
 447 019e FFF7FEFF 		bl	_ZN5daisy16AdcChannelConfig7InitMuxE12dsy_gpio_pinjS1_S1_S1_NS0_15ConversionSpeedE
 448              	.LVL16:
  92:hardware.h    **** 
  93:hardware.h    **** 	playButton.Init(playButtonPin, 1000.0f);
 449              		.loc 10 93 2 is_stmt 1 view .LVU76
 450              		.loc 10 93 17 is_stmt 0 view .LVU77
 451 01a2 9FED180A 		vldr.32	s0, .L17+4
 452 01a6 8DF87C50 		strb	r5, [sp, #124]
 453 01aa 8DF87DB0 		strb	fp, [sp, #125]
 454 01ae 1F99     		ldr	r1, [sp, #124]
 455 01b0 1548     		ldr	r0, .L17+8
 456 01b2 8DED050A 		vstr.32	s0, [sp, #20]	@ int
 457 01b6 FFF7FEFF 		bl	_ZN5daisy6Switch4InitE12dsy_gpio_pinf
 458              	.LVL17:
  94:hardware.h    **** 	recButton.Init(recButtonPin, 1000.0f);
 459              		.loc 10 94 2 is_stmt 1 view .LVU78
 460              		.loc 10 94 16 is_stmt 0 view .LVU79
 461 01ba 8DF88050 		strb	r5, [sp, #128]
 462 01be 8DF881A0 		strb	r10, [sp, #129]
 463 01c2 9DED050A 		vldr.32	s0, [sp, #20]	@ int
 464 01c6 2099     		ldr	r1, [sp, #128]
 465 01c8 1048     		ldr	r0, .L17+12
 466 01ca FFF7FEFF 		bl	_ZN5daisy6Switch4InitE12dsy_gpio_pinf
 467              	.LVL18:
  95:hardware.h    **** 	encoder.Init(encoderPinA, encoderPinB, encoderPinClick);
 468              		.loc 10 95 2 is_stmt 1 view .LVU80
 469              		.loc 10 95 14 is_stmt 0 view .LVU81
 470 01ce 0822     		movs	r2, #8
 471 01d0 0523     		movs	r3, #5
 472 01d2 8DF88450 		strb	r5, [sp, #132]
 473 01d6 8DF88520 		strb	r2, [sp, #133]
 474 01da 8DF88850 		strb	r5, [sp, #136]
 475 01de 8DF88930 		strb	r3, [sp, #137]
 476 01e2 8DF88C50 		strb	r5, [sp, #140]
 477 01e6 8DF88D60 		strb	r6, [sp, #141]
 478 01ea 9FED090A 		vldr.32	s0, .L17+16
 479 01ee 2199     		ldr	r1, [sp, #132]
 480 01f0 0848     		ldr	r0, .L17+20
 481 01f2 DDE92223 		ldrd	r2, r3, [sp, #136]
  96:hardware.h    **** 
  97:hardware.h    **** }
 482              		.loc 10 97 1 view .LVU82
 483 01f6 25B0     		add	sp, sp, #148
ARM GAS  /var/folders/m5/x8wc2gdj7z5cpgcqdsb_gkj40000gn/T//ccPXNgbP.s 			page 24


 484              		.cfi_def_cfa_offset 36
 485              		@ sp needed
 486 01f8 BDE8F04F 		pop	{r4, r5, r6, r7, r8, r9, r10, fp, lr}
 487              		.cfi_restore 14
 488              		.cfi_restore 11
 489              		.cfi_restore 10
 490              		.cfi_restore 9
 491              		.cfi_restore 8
 492              		.cfi_restore 7
 493              		.cfi_restore 6
 494              		.cfi_restore 5
 495              		.cfi_restore 4
 496              		.cfi_def_cfa_offset 0
  95:hardware.h    **** 	encoder.Init(encoderPinA, encoderPinB, encoderPinClick);
 497              		.loc 10 95 14 view .LVU83
 498 01fc FFF7FEBF 		b	_ZN5daisy7Encoder4InitE12dsy_gpio_pinS1_S1_f
 499              	.LVL19:
 500              	.L18:
 501              		.align	2
 502              	.L17:
 503 0200 00000000 		.word	.LANCHOR7
 504 0204 00007A44 		.word	1148846080
 505 0208 00000000 		.word	.LANCHOR8
 506 020c 00000000 		.word	.LANCHOR9
 507 0210 00000000 		.word	0
 508 0214 00000000 		.word	.LANCHOR10
 509              		.cfi_endproc
 510              	.LFE4682:
 512              		.section	.text._Z10RisingEdgebb,"ax",%progbits
 513              		.align	1
 514              		.p2align 2,,3
 515              		.global	_Z10RisingEdgebb
 516              		.syntax unified
 517              		.thumb
 518              		.thumb_func
 520              	_Z10RisingEdgebb:
 521              	.LVL20:
 522              	.LFB4683:
  98:hardware.h    **** 
  99:hardware.h    **** bool RisingEdge(bool buttonState, bool previousButtonState)
 100:hardware.h    **** {
 523              		.loc 10 100 1 is_stmt 1 view -0
 524              		.cfi_startproc
 525              		@ args = 0, pretend = 0, frame = 0
 526              		@ frame_needed = 0, uses_anonymous_args = 0
 527              		@ link register save eliminated.
 101:hardware.h    **** 	if(buttonState == true && previousButtonState == false)
 528              		.loc 10 101 2 view .LVU85
 529              		.loc 10 101 25 is_stmt 0 view .LVU86
 530 0000 81F00101 		eor	r1, r1, #1
 531              	.LVL21:
 102:hardware.h    **** 	{
 103:hardware.h    **** 		return true;
 104:hardware.h    **** 	}
 105:hardware.h    **** 	else
 106:hardware.h    **** 	{
 107:hardware.h    **** 		return false;
ARM GAS  /var/folders/m5/x8wc2gdj7z5cpgcqdsb_gkj40000gn/T//ccPXNgbP.s 			page 25


 108:hardware.h    **** 	}
 109:hardware.h    **** }
 532              		.loc 10 109 1 view .LVU87
 533 0004 0840     		ands	r0, r0, r1
 534              	.LVL22:
 535              		.loc 10 109 1 view .LVU88
 536 0006 7047     		bx	lr
 537              		.cfi_endproc
 538              	.LFE4683:
 540              		.section	.text._Z11FallingEdgebb,"ax",%progbits
 541              		.align	1
 542              		.p2align 2,,3
 543              		.global	_Z11FallingEdgebb
 544              		.syntax unified
 545              		.thumb
 546              		.thumb_func
 548              	_Z11FallingEdgebb:
 549              	.LVL23:
 550              	.LFB4684:
 110:hardware.h    **** 
 111:hardware.h    **** bool FallingEdge(bool buttonState, bool previousButtonState)
 112:hardware.h    **** {
 551              		.loc 10 112 1 is_stmt 1 view -0
 552              		.cfi_startproc
 553              		@ args = 0, pretend = 0, frame = 0
 554              		@ frame_needed = 0, uses_anonymous_args = 0
 555              		@ link register save eliminated.
 113:hardware.h    **** 	if(buttonState == false && previousButtonState == true)
 556              		.loc 10 113 2 view .LVU90
 557 0000 80F00100 		eor	r0, r0, #1
 558              	.LVL24:
 114:hardware.h    **** 	{
 115:hardware.h    **** 		return true;
 116:hardware.h    **** 	}
 117:hardware.h    **** 	else
 118:hardware.h    **** 	{
 119:hardware.h    **** 		return false;
 120:hardware.h    **** 	}
 121:hardware.h    **** }
 559              		.loc 10 121 1 is_stmt 0 view .LVU91
 560 0004 0840     		ands	r0, r0, r1
 561 0006 7047     		bx	lr
 562              		.cfi_endproc
 563              	.LFE4684:
 565              		.section	.text._Z25RisingEdge_ControlButtonsi,"ax",%progbits
 566              		.align	1
 567              		.p2align 2,,3
 568              		.global	_Z25RisingEdge_ControlButtonsi
 569              		.syntax unified
 570              		.thumb
 571              		.thumb_func
 573              	_Z25RisingEdge_ControlButtonsi:
 574              	.LVL25:
 575              	.LFB4685:
 122:hardware.h    **** 
 123:hardware.h    **** bool RisingEdge_ControlButtons(int buttonNum)
 124:hardware.h    **** {
ARM GAS  /var/folders/m5/x8wc2gdj7z5cpgcqdsb_gkj40000gn/T//ccPXNgbP.s 			page 26


 576              		.loc 10 124 1 is_stmt 1 view -0
 577              		.cfi_startproc
 578              		@ args = 0, pretend = 0, frame = 0
 579              		@ frame_needed = 0, uses_anonymous_args = 0
 580              		@ link register save eliminated.
 125:hardware.h    **** 	if(controlButtonStates[buttonNum] == true && prevControlButtonStates[buttonNum] == false)
 581              		.loc 10 125 2 view .LVU93
 582              		.loc 10 125 34 is_stmt 0 view .LVU94
 583 0000 044A     		ldr	r2, .L26
 124:hardware.h    **** 	if(controlButtonStates[buttonNum] == true && prevControlButtonStates[buttonNum] == false)
 584              		.loc 10 124 1 view .LVU95
 585 0002 0346     		mov	r3, r0
 586              		.loc 10 125 34 view .LVU96
 587 0004 105C     		ldrb	r0, [r2, r0]	@ zero_extendqisi2
 588              	.LVL26:
 589              		.loc 10 125 2 view .LVU97
 590 0006 18B1     		cbz	r0, .L22
 591              		.loc 10 125 80 discriminator 1 view .LVU98
 592 0008 034A     		ldr	r2, .L26+4
 593              		.loc 10 125 44 discriminator 1 view .LVU99
 594 000a D05C     		ldrb	r0, [r2, r3]	@ zero_extendqisi2
 595 000c 80F00100 		eor	r0, r0, #1
 596              	.L22:
 126:hardware.h    **** 	{
 127:hardware.h    **** 		return true;
 128:hardware.h    **** 	}
 129:hardware.h    **** 	else
 130:hardware.h    **** 	{
 131:hardware.h    **** 		return false;
 132:hardware.h    **** 	}
 133:hardware.h    **** }
 597              		.loc 10 133 1 view .LVU100
 598 0010 7047     		bx	lr
 599              	.L27:
 600 0012 00BF     		.align	2
 601              	.L26:
 602 0014 00000000 		.word	.LANCHOR11
 603 0018 00000000 		.word	.LANCHOR12
 604              		.cfi_endproc
 605              	.LFE4685:
 607              		.section	.text._Z26FallingEdge_ControlButtonsi,"ax",%progbits
 608              		.align	1
 609              		.p2align 2,,3
 610              		.global	_Z26FallingEdge_ControlButtonsi
 611              		.syntax unified
 612              		.thumb
 613              		.thumb_func
 615              	_Z26FallingEdge_ControlButtonsi:
 616              	.LVL27:
 617              	.LFB4686:
 134:hardware.h    **** 
 135:hardware.h    **** bool FallingEdge_ControlButtons(int buttonNum)
 136:hardware.h    **** {
 618              		.loc 10 136 1 is_stmt 1 view -0
 619              		.cfi_startproc
 620              		@ args = 0, pretend = 0, frame = 0
 621              		@ frame_needed = 0, uses_anonymous_args = 0
ARM GAS  /var/folders/m5/x8wc2gdj7z5cpgcqdsb_gkj40000gn/T//ccPXNgbP.s 			page 27


 622              		@ link register save eliminated.
 137:hardware.h    **** 	if(controlButtonStates[buttonNum] == false && prevControlButtonStates[buttonNum] == true)
 623              		.loc 10 137 2 view .LVU102
 624              		.loc 10 137 34 is_stmt 0 view .LVU103
 625 0000 034B     		ldr	r3, .L31
 626              		.loc 10 137 2 view .LVU104
 627 0002 1B5C     		ldrb	r3, [r3, r0]	@ zero_extendqisi2
 628 0004 13B9     		cbnz	r3, .L30
 629              		.loc 10 137 81 discriminator 1 view .LVU105
 630 0006 034B     		ldr	r3, .L31+4
 631 0008 185C     		ldrb	r0, [r3, r0]	@ zero_extendqisi2
 632              	.LVL28:
 633              		.loc 10 137 81 discriminator 1 view .LVU106
 634 000a 7047     		bx	lr
 635              	.LVL29:
 636              	.L30:
 138:hardware.h    **** 	{
 139:hardware.h    **** 		return true;
 140:hardware.h    **** 	}
 141:hardware.h    **** 	else
 142:hardware.h    **** 	{
 143:hardware.h    **** 		return false;
 637              		.loc 10 143 10 view .LVU107
 638 000c 0020     		movs	r0, #0
 639              	.LVL30:
 144:hardware.h    **** 	}
 145:hardware.h    **** }
 640              		.loc 10 145 1 view .LVU108
 641 000e 7047     		bx	lr
 642              	.L32:
 643              		.align	2
 644              	.L31:
 645 0010 00000000 		.word	.LANCHOR11
 646 0014 00000000 		.word	.LANCHOR12
 647              		.cfi_endproc
 648              	.LFE4686:
 650              		.section	.text._Z13EncoderTurnedv,"ax",%progbits
 651              		.align	1
 652              		.p2align 2,,3
 653              		.global	_Z13EncoderTurnedv
 654              		.syntax unified
 655              		.thumb
 656              		.thumb_func
 658              	_Z13EncoderTurnedv:
 659              	.LFB4687:
 146:hardware.h    **** 
 147:hardware.h    **** bool EncoderTurned()
 148:hardware.h    **** {
 660              		.loc 10 148 1 is_stmt 1 view -0
 661              		.cfi_startproc
 662              		@ args = 0, pretend = 0, frame = 0
 663              		@ frame_needed = 0, uses_anonymous_args = 0
 664              		@ link register save eliminated.
 149:hardware.h    **** 	float encoderInc = encoder.Increment();
 665              		.loc 10 149 2 view .LVU110
 666              	.LVL31:
 667              	.LBB247:
ARM GAS  /var/folders/m5/x8wc2gdj7z5cpgcqdsb_gkj40000gn/T//ccPXNgbP.s 			page 28


 668              	.LBI247:
  22:/Users/dominicfrugoli/Desktop/ProgrammingCode/DaisyCode/DaisyExamples/libDaisy/src/hid/encoder.h **** 
  23:/Users/dominicfrugoli/Desktop/ProgrammingCode/DaisyCode/DaisyExamples/libDaisy/src/hid/encoder.h ****     /** Initializes the encoder with the specified hardware pins.
  24:/Users/dominicfrugoli/Desktop/ProgrammingCode/DaisyCode/DaisyExamples/libDaisy/src/hid/encoder.h ****      * Update rate is to be deprecated in a future release
  25:/Users/dominicfrugoli/Desktop/ProgrammingCode/DaisyCode/DaisyExamples/libDaisy/src/hid/encoder.h ****      */
  26:/Users/dominicfrugoli/Desktop/ProgrammingCode/DaisyCode/DaisyExamples/libDaisy/src/hid/encoder.h ****     void Init(dsy_gpio_pin a,
  27:/Users/dominicfrugoli/Desktop/ProgrammingCode/DaisyCode/DaisyExamples/libDaisy/src/hid/encoder.h ****               dsy_gpio_pin b,
  28:/Users/dominicfrugoli/Desktop/ProgrammingCode/DaisyCode/DaisyExamples/libDaisy/src/hid/encoder.h ****               dsy_gpio_pin click,
  29:/Users/dominicfrugoli/Desktop/ProgrammingCode/DaisyCode/DaisyExamples/libDaisy/src/hid/encoder.h ****               float        update_rate = 0.f);
  30:/Users/dominicfrugoli/Desktop/ProgrammingCode/DaisyCode/DaisyExamples/libDaisy/src/hid/encoder.h ****     /** Called at update_rate to debounce and handle timing for the switch.
  31:/Users/dominicfrugoli/Desktop/ProgrammingCode/DaisyCode/DaisyExamples/libDaisy/src/hid/encoder.h ****      * In order for events not to be missed, its important that the Edge/Pressed checks be made at 
  32:/Users/dominicfrugoli/Desktop/ProgrammingCode/DaisyCode/DaisyExamples/libDaisy/src/hid/encoder.h ****      */
  33:/Users/dominicfrugoli/Desktop/ProgrammingCode/DaisyCode/DaisyExamples/libDaisy/src/hid/encoder.h ****     void Debounce();
  34:/Users/dominicfrugoli/Desktop/ProgrammingCode/DaisyCode/DaisyExamples/libDaisy/src/hid/encoder.h **** 
  35:/Users/dominicfrugoli/Desktop/ProgrammingCode/DaisyCode/DaisyExamples/libDaisy/src/hid/encoder.h ****     /** Returns +1 if the encoder was turned clockwise, -1 if it was turned counter-clockwise, or 0
  36:/Users/dominicfrugoli/Desktop/ProgrammingCode/DaisyCode/DaisyExamples/libDaisy/src/hid/encoder.h ****     inline int32_t Increment() const { return updated_ ? inc_ : 0; }
 669              		.loc 2 36 20 view .LVU111
 670              	.LBB248:
 671              		.loc 2 36 40 view .LVU112
 672              		.loc 2 36 47 is_stmt 0 view .LVU113
 673 0000 074B     		ldr	r3, .L38
 674 0002 1879     		ldrb	r0, [r3, #4]	@ zero_extendqisi2
 675              		.loc 2 36 56 view .LVU114
 676 0004 50B1     		cbz	r0, .L34
 677              	.LVL32:
 678              		.loc 2 36 56 view .LVU115
 679              	.LBE248:
 680              	.LBE247:
 150:hardware.h    **** 	if(encoderInc != 0)
 681              		.loc 10 150 2 is_stmt 1 view .LVU116
 149:hardware.h    **** 	float encoderInc = encoder.Increment();
 682              		.loc 10 149 39 is_stmt 0 view .LVU117
 683 0006 D3ED097A 		vldr.32	s15, [r3, #36]	@ int
 684 000a F8EEE77A 		vcvt.f32.s32	s15, s15
 685              	.LVL33:
 686              		.loc 10 150 2 view .LVU118
 687 000e F5EE407A 		vcmp.f32	s15, #0
 688 0012 F1EE10FA 		vmrs	APSR_nzcv, FPSCR
 689 0016 14BF     		ite	ne
 690 0018 0120     		movne	r0, #1
 691 001a 0020     		moveq	r0, #0
 692              	.LVL34:
 693              	.L34:
 151:hardware.h    **** 	{
 152:hardware.h    **** 		return true;
 153:hardware.h    **** 	}
 154:hardware.h    **** 	else
 155:hardware.h    **** 	{
 156:hardware.h    **** 		return false;
 157:hardware.h    **** 	}
 158:hardware.h    **** }
 694              		.loc 10 158 1 view .LVU119
 695 001c 7047     		bx	lr
 696              	.L39:
 697 001e 00BF     		.align	2
 698              	.L38:
 699 0020 00000000 		.word	.LANCHOR10
ARM GAS  /var/folders/m5/x8wc2gdj7z5cpgcqdsb_gkj40000gn/T//ccPXNgbP.s 			page 29


 700              		.cfi_endproc
 701              	.LFE4687:
 703              		.section	.text._Z13EncoderTurnedN5daisy7EncoderE,"ax",%progbits
 704              		.align	1
 705              		.p2align 2,,3
 706              		.global	_Z13EncoderTurnedN5daisy7EncoderE
 707              		.syntax unified
 708              		.thumb
 709              		.thumb_func
 711              	_Z13EncoderTurnedN5daisy7EncoderE:
 712              	.LVL35:
 713              	.LFB4688:
 159:hardware.h    **** 
 160:hardware.h    **** bool EncoderTurned(Encoder enc)
 161:hardware.h    **** {
 714              		.loc 10 161 1 is_stmt 1 view -0
 715              		.cfi_startproc
 716              		@ args = 0, pretend = 0, frame = 0
 717              		@ frame_needed = 0, uses_anonymous_args = 0
 718              		@ link register save eliminated.
 162:hardware.h    **** 	float encoderInc = enc.Increment();
 719              		.loc 10 162 2 view .LVU121
 720              	.LBB249:
 721              	.LBI249:
 722              		.loc 2 36 20 view .LVU122
 723              	.LBB250:
 724              		.loc 2 36 40 view .LVU123
 725              		.loc 2 36 47 is_stmt 0 view .LVU124
 726 0000 0379     		ldrb	r3, [r0, #4]	@ zero_extendqisi2
 727              		.loc 2 36 56 view .LVU125
 728 0002 53B1     		cbz	r3, .L41
 729              	.LVL36:
 730              		.loc 2 36 56 view .LVU126
 731              	.LBE250:
 732              	.LBE249:
 163:hardware.h    **** 	if(encoderInc != 0)
 733              		.loc 10 163 2 is_stmt 1 view .LVU127
 162:hardware.h    **** 	float encoderInc = enc.Increment();
 734              		.loc 10 162 35 is_stmt 0 view .LVU128
 735 0004 D0ED097A 		vldr.32	s15, [r0, #36]	@ int
 736 0008 F8EEE77A 		vcvt.f32.s32	s15, s15
 737              	.LVL37:
 738              		.loc 10 163 2 view .LVU129
 739 000c F5EE407A 		vcmp.f32	s15, #0
 740 0010 F1EE10FA 		vmrs	APSR_nzcv, FPSCR
 741 0014 14BF     		ite	ne
 742 0016 0123     		movne	r3, #1
 743 0018 0023     		moveq	r3, #0
 744              	.LVL38:
 745              	.L41:
 164:hardware.h    **** 	{
 165:hardware.h    **** 		encoderInc = 0;
 166:hardware.h    **** 		return true;
 167:hardware.h    **** 	}
 168:hardware.h    **** 	else
 169:hardware.h    **** 	{
 170:hardware.h    **** 		encoderInc = 0;
ARM GAS  /var/folders/m5/x8wc2gdj7z5cpgcqdsb_gkj40000gn/T//ccPXNgbP.s 			page 30


 171:hardware.h    **** 		return false;
 172:hardware.h    **** 	}
 173:hardware.h    **** }...
 746              		.loc 10 173 1 view .LVU130
 747 001a 1846     		mov	r0, r3
 748              	.LVL39:
 749              		.loc 10 173 1 view .LVU131
 750 001c 7047     		bx	lr
 751              		.cfi_endproc
 752              	.LFE4688:
 754 001e 00BF     		.section	.text._Z10InitBufferv,"ax",%progbits
 755              		.align	1
 756              		.p2align 2,,3
 757              		.global	_Z10InitBufferv
 758              		.syntax unified
 759              		.thumb
 760              		.thumb_func
 762              	_Z10InitBufferv:
 763              	.LFB4689:
  78:sampleengine.h ****     readIndex = 0.0f;
 764              		.loc 9 78 1 is_stmt 1 view -0
 765              		.cfi_startproc
 766              		@ args = 0, pretend = 0, frame = 0
 767              		@ frame_needed = 0, uses_anonymous_args = 0
  79:sampleengine.h ****     for(uint32_t i = 0; i < MAX_RECORD_SIZE; i++) // initializes buffer to all 0s
 768              		.loc 9 79 5 view .LVU133
  79:sampleengine.h ****     for(uint32_t i = 0; i < MAX_RECORD_SIZE; i++) // initializes buffer to all 0s
 769              		.loc 9 79 15 is_stmt 0 view .LVU134
 770 0000 0F4B     		ldr	r3, .L47
 771 0002 0020     		movs	r0, #0
 772              	.LBB251:
  82:sampleengine.h ****     }
 773              		.loc 9 82 28 view .LVU135
 774 0004 0F4A     		ldr	r2, .L47+4
 775 0006 0021     		movs	r1, #0
 776              	.LBE251:
  78:sampleengine.h ****     readIndex = 0.0f;
 777              		.loc 9 78 1 view .LVU136
 778 0008 10B5     		push	{r4, lr}
 779              		.cfi_def_cfa_offset 8
 780              		.cfi_offset 4, -8
 781              		.cfi_offset 14, -4
 782              	.LBB252:
  86:sampleengine.h ****         spliceBufferTwo[i] = 0.0f;
 783              		.loc 9 86 28 view .LVU137
 784 000a 0F4C     		ldr	r4, .L47+8
 785              	.LBE252:
  79:sampleengine.h ****     for(uint32_t i = 0; i < MAX_RECORD_SIZE; i++) // initializes buffer to all 0s
 786              		.loc 9 79 15 view .LVU138
 787 000c 1860     		str	r0, [r3]	@ float
  80:sampleengine.h ****     {
 788              		.loc 9 80 5 is_stmt 1 view .LVU139
 789              	.LVL40:
 790              	.LBB253:
  80:sampleengine.h ****     {
 791              		.loc 9 80 27 view .LVU140
  82:sampleengine.h ****     }
ARM GAS  /var/folders/m5/x8wc2gdj7z5cpgcqdsb_gkj40000gn/T//ccPXNgbP.s 			page 31


 792              		.loc 9 82 28 is_stmt 0 view .LVU141
 793 000e 0F48     		ldr	r0, .L47+12
 794 0010 FFF7FEFF 		bl	memset
 795              	.LVL41:
  82:sampleengine.h ****     }
 796              		.loc 9 82 28 view .LVU142
 797              	.LBE253:
 798              	.LBB254:
  86:sampleengine.h ****         spliceBufferTwo[i] = 0.0f;
 799              		.loc 9 86 28 view .LVU143
 800 0014 2246     		mov	r2, r4
 801 0016 0021     		movs	r1, #0
 802 0018 0D48     		ldr	r0, .L47+16
 803 001a FFF7FEFF 		bl	memset
 804              	.LVL42:
  87:sampleengine.h ****         spliceBufferThree[i] = 0.0f;
 805              		.loc 9 87 28 view .LVU144
 806 001e 2246     		mov	r2, r4
 807 0020 0021     		movs	r1, #0
 808 0022 0C48     		ldr	r0, .L47+20
 809 0024 FFF7FEFF 		bl	memset
 810              	.LVL43:
  88:sampleengine.h ****         spliceBufferFour[i] = 0.0f;
 811              		.loc 9 88 30 view .LVU145
 812 0028 2246     		mov	r2, r4
 813 002a 0021     		movs	r1, #0
 814 002c 0A48     		ldr	r0, .L47+24
 815 002e FFF7FEFF 		bl	memset
 816              	.LVL44:
  89:sampleengine.h ****     }
 817              		.loc 9 89 29 view .LVU146
 818 0032 2246     		mov	r2, r4
 819 0034 0021     		movs	r1, #0
 820 0036 0948     		ldr	r0, .L47+28
 821              	.LBE254:
  91:sampleengine.h **** 
 822              		.loc 9 91 1 view .LVU147
 823 0038 BDE81040 		pop	{r4, lr}
 824              		.cfi_restore 14
 825              		.cfi_restore 4
 826              		.cfi_def_cfa_offset 0
 827              	.LBB255:
  89:sampleengine.h ****     }
 828              		.loc 9 89 29 view .LVU148
 829 003c FFF7FEBF 		b	memset
 830              	.LVL45:
 831              	.L48:
 832              		.align	2
 833              	.L47:
 834 0040 00000000 		.word	.LANCHOR6
 835 0044 00905F01 		.word	23040000
 836 0048 00983A00 		.word	3840000
 837 004c 00000000 		.word	recordingBuffer
 838 0050 00000000 		.word	spliceBufferOne
 839 0054 00000000 		.word	spliceBufferTwo
 840 0058 00000000 		.word	spliceBufferThree
 841 005c 00000000 		.word	spliceBufferFour
ARM GAS  /var/folders/m5/x8wc2gdj7z5cpgcqdsb_gkj40000gn/T//ccPXNgbP.s 			page 32


 842              	.LBE255:
 843              		.cfi_endproc
 844              	.LFE4689:
 846              		.section	.text._Z12RecordSamplef,"ax",%progbits
 847              		.align	1
 848              		.p2align 2,,3
 849              		.global	_Z12RecordSamplef
 850              		.syntax unified
 851              		.thumb
 852              		.thumb_func
 854              	_Z12RecordSamplef:
 855              	.LVL46:
 856              	.LFB4690:
  94:sampleengine.h ****     recordingBuffer[writeIndex] = sample;
 857              		.loc 9 94 1 is_stmt 1 view -0
 858              		.cfi_startproc
 859              		@ args = 0, pretend = 0, frame = 0
 860              		@ frame_needed = 0, uses_anonymous_args = 0
 861              		@ link register save eliminated.
  95:sampleengine.h ****     writeIndex++;
 862              		.loc 9 95 5 view .LVU150
  95:sampleengine.h ****     writeIndex++;
 863              		.loc 9 95 31 is_stmt 0 view .LVU151
 864 0000 0449     		ldr	r1, .L50
  95:sampleengine.h ****     writeIndex++;
 865              		.loc 9 95 33 view .LVU152
 866 0002 054A     		ldr	r2, .L50+4
  95:sampleengine.h ****     writeIndex++;
 867              		.loc 9 95 31 view .LVU153
 868 0004 0B68     		ldr	r3, [r1]
  95:sampleengine.h ****     writeIndex++;
 869              		.loc 9 95 33 view .LVU154
 870 0006 02EB8302 		add	r2, r2, r3, lsl #2
  96:sampleengine.h **** }
 871              		.loc 9 96 15 view .LVU155
 872 000a 0133     		adds	r3, r3, #1
  95:sampleengine.h ****     writeIndex++;
 873              		.loc 9 95 33 view .LVU156
 874 000c 82ED000A 		vstr.32	s0, [r2]
  96:sampleengine.h **** }
 875              		.loc 9 96 5 is_stmt 1 view .LVU157
  96:sampleengine.h **** }
 876              		.loc 9 96 15 is_stmt 0 view .LVU158
 877 0010 0B60     		str	r3, [r1]
  97:sampleengine.h **** 
 878              		.loc 9 97 1 view .LVU159
 879 0012 7047     		bx	lr
 880              	.L51:
 881              		.align	2
 882              	.L50:
 883 0014 00000000 		.word	.LANCHOR13
 884 0018 00000000 		.word	recordingBuffer
 885              		.cfi_endproc
 886              	.LFE4690:
 888              		.section	.text._Z14ResetReadIndexv,"ax",%progbits
 889              		.align	1
 890              		.p2align 2,,3
ARM GAS  /var/folders/m5/x8wc2gdj7z5cpgcqdsb_gkj40000gn/T//ccPXNgbP.s 			page 33


 891              		.global	_Z14ResetReadIndexv
 892              		.syntax unified
 893              		.thumb
 894              		.thumb_func
 896              	_Z14ResetReadIndexv:
 897              	.LFB4691:
 100:sampleengine.h ****     readIndex = startPoint;
 898              		.loc 9 100 1 is_stmt 1 view -0
 899              		.cfi_startproc
 900              		@ args = 0, pretend = 0, frame = 0
 901              		@ frame_needed = 0, uses_anonymous_args = 0
 902              		@ link register save eliminated.
 101:sampleengine.h **** }
 903              		.loc 9 101 5 view .LVU161
 101:sampleengine.h **** }
 904              		.loc 9 101 15 is_stmt 0 view .LVU162
 905 0000 044A     		ldr	r2, .L53
 906 0002 054B     		ldr	r3, .L53+4
 907 0004 D2ED007A 		vldr.32	s15, [r2]	@ int
 908 0008 F8EE677A 		vcvt.f32.u32	s15, s15
 909 000c C3ED007A 		vstr.32	s15, [r3]
 102:sampleengine.h **** 
 910              		.loc 9 102 1 view .LVU163
 911 0010 7047     		bx	lr
 912              	.L54:
 913 0012 00BF     		.align	2
 914              	.L53:
 915 0014 00000000 		.word	.LANCHOR3
 916 0018 00000000 		.word	.LANCHOR6
 917              		.cfi_endproc
 918              	.LFE4691:
 920              		.section	.text._Z16AdvanceReadIndexv,"ax",%progbits
 921              		.align	1
 922              		.p2align 2,,3
 923              		.global	_Z16AdvanceReadIndexv
 924              		.syntax unified
 925              		.thumb
 926              		.thumb_func
 928              	_Z16AdvanceReadIndexv:
 929              	.LFB4692:
 105:sampleengine.h ****     readIndex += readFactor;
 930              		.loc 9 105 1 is_stmt 1 view -0
 931              		.cfi_startproc
 932              		@ args = 0, pretend = 0, frame = 0
 933              		@ frame_needed = 0, uses_anonymous_args = 0
 934              		@ link register save eliminated.
 106:sampleengine.h **** 
 935              		.loc 9 106 5 view .LVU165
 106:sampleengine.h **** 
 936              		.loc 9 106 15 is_stmt 0 view .LVU166
 937 0000 0B4B     		ldr	r3, .L60
 938 0002 0C49     		ldr	r1, .L60+4
 108:sampleengine.h ****     {
 939              		.loc 9 108 18 view .LVU167
 940 0004 0C4A     		ldr	r2, .L60+8
 106:sampleengine.h **** 
 941              		.loc 9 106 15 view .LVU168
ARM GAS  /var/folders/m5/x8wc2gdj7z5cpgcqdsb_gkj40000gn/T//ccPXNgbP.s 			page 34


 942 0006 D3ED007A 		vldr.32	s15, [r3]
 943 000a D1ED006A 		vldr.32	s13, [r1]
 108:sampleengine.h ****     {
 944              		.loc 9 108 18 view .LVU169
 945 000e 92ED007A 		vldr.32	s14, [r2]	@ int
 106:sampleengine.h **** 
 946              		.loc 9 106 15 view .LVU170
 947 0012 77EEA67A 		vadd.f32	s15, s15, s13
 108:sampleengine.h ****     {
 948              		.loc 9 108 18 view .LVU171
 949 0016 B8EE477A 		vcvt.f32.u32	s14, s14
 106:sampleengine.h **** 
 950              		.loc 9 106 15 view .LVU172
 951 001a C3ED007A 		vstr.32	s15, [r3]
 108:sampleengine.h ****     {
 952              		.loc 9 108 5 is_stmt 1 view .LVU173
 953 001e F4EEC77A 		vcmpe.f32	s15, s14
 954 0022 F1EE10FA 		vmrs	APSR_nzcv, FPSCR
 955 0026 01DB     		blt	.L59
 956 0028 FFF7FEBF 		b	_Z16AdvanceReadIndexv.part.0
 957              	.LVL47:
 958              	.L59:
 115:sampleengine.h **** 
 959              		.loc 9 115 1 is_stmt 0 view .LVU174
 960 002c 7047     		bx	lr
 961              	.L61:
 962 002e 00BF     		.align	2
 963              	.L60:
 964 0030 00000000 		.word	.LANCHOR6
 965 0034 00000000 		.word	.LANCHOR14
 966 0038 00000000 		.word	.LANCHOR4
 967              		.cfi_endproc
 968              	.LFE4692:
 970              		.section	.text._Z9GetSamplev,"ax",%progbits
 971              		.align	1
 972              		.p2align 2,,3
 973              		.global	_Z9GetSamplev
 974              		.syntax unified
 975              		.thumb
 976              		.thumb_func
 978              	_Z9GetSamplev:
 979              	.LFB4693:
 118:sampleengine.h ****     float a, b, out;
 980              		.loc 9 118 1 is_stmt 1 view -0
 981              		.cfi_startproc
 982              		@ args = 0, pretend = 0, frame = 0
 983              		@ frame_needed = 0, uses_anonymous_args = 0
 984              		@ link register save eliminated.
 119:sampleengine.h **** 
 985              		.loc 9 119 5 view .LVU176
 121:sampleengine.h **** 	readIndexFraction = readIndex - readIndexInt;
 986              		.loc 9 121 5 view .LVU177
 121:sampleengine.h **** 	readIndexFraction = readIndex - readIndexInt;
 987              		.loc 9 121 20 is_stmt 0 view .LVU178
 988 0000 0F4A     		ldr	r2, .L64
 124:sampleengine.h **** 	b = recordingBuffer[readIndexInt + 1]; // next sample
 989              		.loc 9 124 4 view .LVU179
ARM GAS  /var/folders/m5/x8wc2gdj7z5cpgcqdsb_gkj40000gn/T//ccPXNgbP.s 			page 35


 990 0002 104B     		ldr	r3, .L64+4
 121:sampleengine.h **** 	readIndexFraction = readIndex - readIndexInt;
 991              		.loc 9 121 20 view .LVU180
 992 0004 D2ED007A 		vldr.32	s15, [r2]
 122:sampleengine.h **** 
 993              		.loc 9 122 20 view .LVU181
 994 0008 0F49     		ldr	r1, .L64+8
 121:sampleengine.h **** 	readIndexFraction = readIndex - readIndexInt;
 995              		.loc 9 121 20 view .LVU182
 996 000a BDEEE77A 		vcvt.s32.f32	s14, s15
 118:sampleengine.h ****     float a, b, out;
 997              		.loc 9 118 1 view .LVU183
 998 000e 10B4     		push	{r4}
 999              		.cfi_def_cfa_offset 4
 1000              		.cfi_offset 4, -4
 121:sampleengine.h **** 	readIndexFraction = readIndex - readIndexInt;
 1001              		.loc 9 121 20 view .LVU184
 1002 0010 17EE102A 		vmov	r2, s14	@ int
 121:sampleengine.h **** 	readIndexFraction = readIndex - readIndexInt;
 1003              		.loc 9 121 18 view .LVU185
 1004 0014 0D4C     		ldr	r4, .L64+12
 122:sampleengine.h **** 
 1005              		.loc 9 122 32 view .LVU186
 1006 0016 F8EE476A 		vcvt.f32.u32	s13, s14
 124:sampleengine.h **** 	b = recordingBuffer[readIndexInt + 1]; // next sample
 1007              		.loc 9 124 4 view .LVU187
 1008 001a 03EB8200 		add	r0, r3, r2, lsl #2
 121:sampleengine.h **** 	readIndexFraction = readIndex - readIndexInt;
 1009              		.loc 9 121 18 view .LVU188
 1010 001e 84ED007A 		vstr.32	s14, [r4]	@ int
 122:sampleengine.h **** 
 1011              		.loc 9 122 2 is_stmt 1 view .LVU189
 129:sampleengine.h **** 
 1012              		.loc 9 129 1 is_stmt 0 view .LVU190
 1013 0022 5DF8044B 		ldr	r4, [sp], #4
 1014              		.cfi_restore 4
 1015              		.cfi_def_cfa_offset 0
 124:sampleengine.h **** 	b = recordingBuffer[readIndexInt + 1]; // next sample
 1016              		.loc 9 124 4 view .LVU191
 1017 0026 90ED000A 		vldr.32	s0, [r0]
 122:sampleengine.h **** 
 1018              		.loc 9 122 32 view .LVU192
 1019 002a 77EEE67A 		vsub.f32	s15, s15, s13
 126:sampleengine.h **** 
 1020              		.loc 9 126 15 view .LVU193
 1021 002e 90ED017A 		vldr.32	s14, [r0, #4]
 1022 0032 37EE407A 		vsub.f32	s14, s14, s0
 122:sampleengine.h **** 
 1023              		.loc 9 122 20 view .LVU194
 1024 0036 C1ED007A 		vstr.32	s15, [r1]
 124:sampleengine.h **** 	b = recordingBuffer[readIndexInt + 1]; // next sample
 1025              		.loc 9 124 2 is_stmt 1 view .LVU195
 1026              	.LVL48:
 125:sampleengine.h **** 	out = a + (b - a) * readIndexFraction; // Linear Interpolation
 1027              		.loc 9 125 2 view .LVU196
 126:sampleengine.h **** 
 1028              		.loc 9 126 2 view .LVU197
ARM GAS  /var/folders/m5/x8wc2gdj7z5cpgcqdsb_gkj40000gn/T//ccPXNgbP.s 			page 36


 128:sampleengine.h **** }
 1029              		.loc 9 128 5 view .LVU198
 129:sampleengine.h **** 
 1030              		.loc 9 129 1 is_stmt 0 view .LVU199
 1031 003a A7EE870A 		vfma.f32	s0, s15, s14
 1032              	.LVL49:
 129:sampleengine.h **** 
 1033              		.loc 9 129 1 view .LVU200
 1034 003e 7047     		bx	lr
 1035              	.L65:
 1036              		.align	2
 1037              	.L64:
 1038 0040 00000000 		.word	.LANCHOR6
 1039 0044 00000000 		.word	recordingBuffer
 1040 0048 00000000 		.word	.LANCHOR16
 1041 004c 00000000 		.word	.LANCHOR15
 1042              		.cfi_endproc
 1043              	.LFE4693:
 1045              		.section	.text._Z19FullSampleGetSamplev,"ax",%progbits
 1046              		.align	1
 1047              		.p2align 2,,3
 1048              		.global	_Z19FullSampleGetSamplev
 1049              		.syntax unified
 1050              		.thumb
 1051              		.thumb_func
 1053              	_Z19FullSampleGetSamplev:
 1054              	.LFB4694:
 132:sampleengine.h ****     fullSampleReadIndex += readFactor;
 1055              		.loc 9 132 1 is_stmt 1 view -0
 1056              		.cfi_startproc
 1057              		@ args = 0, pretend = 0, frame = 0
 1058              		@ frame_needed = 0, uses_anonymous_args = 0
 1059              		@ link register save eliminated.
 133:sampleengine.h ****     if(fullSampleReadIndex > recordingLength) 
 1060              		.loc 9 133 5 view .LVU202
 133:sampleengine.h ****     if(fullSampleReadIndex > recordingLength) 
 1061              		.loc 9 133 25 is_stmt 0 view .LVU203
 1062 0000 1D4B     		ldr	r3, .L70
 1063 0002 1E49     		ldr	r1, .L70+4
 134:sampleengine.h ****     {
 1064              		.loc 9 134 28 view .LVU204
 1065 0004 1E4A     		ldr	r2, .L70+8
 133:sampleengine.h ****     if(fullSampleReadIndex > recordingLength) 
 1066              		.loc 9 133 25 view .LVU205
 1067 0006 D3ED007A 		vldr.32	s15, [r3]
 1068 000a D1ED006A 		vldr.32	s13, [r1]
 134:sampleengine.h ****     {
 1069              		.loc 9 134 28 view .LVU206
 1070 000e 92ED007A 		vldr.32	s14, [r2]	@ int
 133:sampleengine.h ****     if(fullSampleReadIndex > recordingLength) 
 1071              		.loc 9 133 25 view .LVU207
 1072 0012 77EEA67A 		vadd.f32	s15, s15, s13
 134:sampleengine.h ****     {
 1073              		.loc 9 134 28 view .LVU208
 1074 0016 B8EE477A 		vcvt.f32.u32	s14, s14
 132:sampleengine.h ****     fullSampleReadIndex += readFactor;
 1075              		.loc 9 132 1 view .LVU209
ARM GAS  /var/folders/m5/x8wc2gdj7z5cpgcqdsb_gkj40000gn/T//ccPXNgbP.s 			page 37


 1076 001a 10B4     		push	{r4}
 1077              		.cfi_def_cfa_offset 4
 1078              		.cfi_offset 4, -4
 134:sampleengine.h ****     {
 1079              		.loc 9 134 5 view .LVU210
 1080 001c F4EEC77A 		vcmpe.f32	s15, s14
 133:sampleengine.h ****     if(fullSampleReadIndex > recordingLength) 
 1081              		.loc 9 133 25 view .LVU211
 1082 0020 C3ED007A 		vstr.32	s15, [r3]
 134:sampleengine.h ****     {
 1083              		.loc 9 134 5 is_stmt 1 view .LVU212
 1084 0024 F1EE10FA 		vmrs	APSR_nzcv, FPSCR
 1085 0028 1DDC     		bgt	.L67
 140:sampleengine.h ****     fullSampleReadIndexFraction = fullSampleReadIndex - fullSampleReadIndexInt;
 1086              		.loc 9 140 30 is_stmt 0 view .LVU213
 1087 002a BDEEE77A 		vcvt.s32.f32	s14, s15
 1088 002e 17EE101A 		vmov	r1, s14	@ int
 141:sampleengine.h ****     a = recordingBuffer[fullSampleReadIndexInt]; // current sample
 1089              		.loc 9 141 55 view .LVU214
 1090 0032 B8EE477A 		vcvt.f32.u32	s14, s14
 143:sampleengine.h ****     out = a + (b - a) * fullSampleReadIndexFraction; // Linear Interpolation
 1091              		.loc 9 143 48 view .LVU215
 1092 0036 4A1C     		adds	r2, r1, #1
 141:sampleengine.h ****     a = recordingBuffer[fullSampleReadIndexInt]; // current sample
 1093              		.loc 9 141 55 view .LVU216
 1094 0038 77EEC77A 		vsub.f32	s15, s15, s14
 1095              	.L68:
 139:sampleengine.h ****     fullSampleReadIndexInt = static_cast<int32_t>(fullSampleReadIndex);
 1096              		.loc 9 139 5 is_stmt 1 view .LVU217
 140:sampleengine.h ****     fullSampleReadIndexFraction = fullSampleReadIndex - fullSampleReadIndexInt;
 1097              		.loc 9 140 5 view .LVU218
 142:sampleengine.h ****     b = recordingBuffer[fullSampleReadIndexInt + 1]; // next sample
 1098              		.loc 9 142 7 is_stmt 0 view .LVU219
 1099 003c 114B     		ldr	r3, .L70+12
 140:sampleengine.h ****     fullSampleReadIndexFraction = fullSampleReadIndex - fullSampleReadIndexInt;
 1100              		.loc 9 140 28 view .LVU220
 1101 003e 124C     		ldr	r4, .L70+16
 143:sampleengine.h ****     out = a + (b - a) * fullSampleReadIndexFraction; // Linear Interpolation
 1102              		.loc 9 143 7 view .LVU221
 1103 0040 03EB8202 		add	r2, r3, r2, lsl #2
 141:sampleengine.h ****     a = recordingBuffer[fullSampleReadIndexInt]; // current sample
 1104              		.loc 9 141 33 view .LVU222
 1105 0044 1148     		ldr	r0, .L70+20
 142:sampleengine.h ****     b = recordingBuffer[fullSampleReadIndexInt + 1]; // next sample
 1106              		.loc 9 142 7 view .LVU223
 1107 0046 03EB8103 		add	r3, r3, r1, lsl #2
 140:sampleengine.h ****     fullSampleReadIndexFraction = fullSampleReadIndex - fullSampleReadIndexInt;
 1108              		.loc 9 140 28 view .LVU224
 1109 004a 2160     		str	r1, [r4]
 141:sampleengine.h ****     a = recordingBuffer[fullSampleReadIndexInt]; // current sample
 1110              		.loc 9 141 5 is_stmt 1 view .LVU225
 144:sampleengine.h **** 
 1111              		.loc 9 144 18 is_stmt 0 view .LVU226
 1112 004c 92ED007A 		vldr.32	s14, [r2]
 142:sampleengine.h ****     b = recordingBuffer[fullSampleReadIndexInt + 1]; // next sample
 1113              		.loc 9 142 7 view .LVU227
 1114 0050 93ED000A 		vldr.32	s0, [r3]
ARM GAS  /var/folders/m5/x8wc2gdj7z5cpgcqdsb_gkj40000gn/T//ccPXNgbP.s 			page 38


 147:sampleengine.h **** 
 1115              		.loc 9 147 1 view .LVU228
 1116 0054 5DF8044B 		ldr	r4, [sp], #4
 1117              		.cfi_remember_state
 1118              		.cfi_restore 4
 1119              		.cfi_def_cfa_offset 0
 144:sampleengine.h **** 
 1120              		.loc 9 144 18 view .LVU229
 1121 0058 37EE407A 		vsub.f32	s14, s14, s0
 141:sampleengine.h ****     a = recordingBuffer[fullSampleReadIndexInt]; // current sample
 1122              		.loc 9 141 33 view .LVU230
 1123 005c C0ED007A 		vstr.32	s15, [r0]
 142:sampleengine.h ****     b = recordingBuffer[fullSampleReadIndexInt + 1]; // next sample
 1124              		.loc 9 142 5 is_stmt 1 view .LVU231
 1125              	.LVL50:
 143:sampleengine.h ****     out = a + (b - a) * fullSampleReadIndexFraction; // Linear Interpolation
 1126              		.loc 9 143 5 view .LVU232
 144:sampleengine.h **** 
 1127              		.loc 9 144 5 view .LVU233
 146:sampleengine.h **** }
 1128              		.loc 9 146 5 view .LVU234
 147:sampleengine.h **** 
 1129              		.loc 9 147 1 is_stmt 0 view .LVU235
 1130 0060 A7EE270A 		vfma.f32	s0, s14, s15
 1131              	.LVL51:
 147:sampleengine.h **** 
 1132              		.loc 9 147 1 view .LVU236
 1133 0064 7047     		bx	lr
 1134              	.LVL52:
 1135              	.L67:
 1136              		.cfi_restore_state
 136:sampleengine.h ****     }
 1137              		.loc 9 136 9 is_stmt 1 view .LVU237
 136:sampleengine.h ****     }
 1138              		.loc 9 136 29 is_stmt 0 view .LVU238
 1139 0066 9FED0A7A 		vldr.32	s14, .L70+24
 1140 006a 0122     		movs	r2, #1
 1141 006c 0021     		movs	r1, #0
 1142 006e F0EE477A 		vmov.f32	s15, s14
 1143 0072 83ED007A 		vstr.32	s14, [r3]
 1144 0076 E1E7     		b	.L68
 1145              	.L71:
 1146              		.align	2
 1147              	.L70:
 1148 0078 00000000 		.word	.LANCHOR17
 1149 007c 00000000 		.word	.LANCHOR14
 1150 0080 00000000 		.word	.LANCHOR18
 1151 0084 00000000 		.word	recordingBuffer
 1152 0088 00000000 		.word	.LANCHOR19
 1153 008c 00000000 		.word	.LANCHOR20
 1154 0090 00000000 		.word	0
 1155              		.cfi_endproc
 1156              	.LFE4694:
 1158              		.section	.text._Z20StoreSpliceBufferOnev,"ax",%progbits
 1159              		.align	1
 1160              		.p2align 2,,3
 1161              		.global	_Z20StoreSpliceBufferOnev
ARM GAS  /var/folders/m5/x8wc2gdj7z5cpgcqdsb_gkj40000gn/T//ccPXNgbP.s 			page 39


 1162              		.syntax unified
 1163              		.thumb
 1164              		.thumb_func
 1166              	_Z20StoreSpliceBufferOnev:
 1167              	.LFB4695:
 150:sampleengine.h ****     readIndex = startPoint;
 1168              		.loc 9 150 1 is_stmt 1 view -0
 1169              		.cfi_startproc
 1170              		@ args = 0, pretend = 0, frame = 0
 1171              		@ frame_needed = 0, uses_anonymous_args = 0
 151:sampleengine.h ****     float startSample = startPoint;
 1172              		.loc 9 151 5 view .LVU240
 150:sampleengine.h ****     readIndex = startPoint;
 1173              		.loc 9 150 1 is_stmt 0 view .LVU241
 1174 0000 2DE9F043 		push	{r4, r5, r6, r7, r8, r9, lr}
 1175              		.cfi_def_cfa_offset 28
 1176              		.cfi_offset 4, -28
 1177              		.cfi_offset 5, -24
 1178              		.cfi_offset 6, -20
 1179              		.cfi_offset 7, -16
 1180              		.cfi_offset 8, -12
 1181              		.cfi_offset 9, -8
 1182              		.cfi_offset 14, -4
 151:sampleengine.h ****     float startSample = startPoint;
 1183              		.loc 9 151 15 view .LVU242
 1184 0004 454F     		ldr	r7, .L94
 1185              	.LBB268:
 1186              	.LBB269:
 1187              	.LBB270:
 106:sampleengine.h **** 
 1188              		.loc 9 106 15 view .LVU243
 1189 0006 4FF00009 		mov	r9, #0
 1190 000a 454B     		ldr	r3, .L94+4
 1191              	.LBE270:
 1192              	.LBE269:
 1193              	.LBE268:
 151:sampleengine.h ****     float startSample = startPoint;
 1194              		.loc 9 151 15 view .LVU244
 1195 000c 3868     		ldr	r0, [r7]
 1196              	.LBB304:
 153:sampleengine.h ****     {
 1197              		.loc 9 153 19 view .LVU245
 1198 000e CC46     		mov	ip, r9
 1199 0010 DFF83881 		ldr	r8, .L94+48
 1200              	.LBE304:
 151:sampleengine.h ****     float startSample = startPoint;
 1201              		.loc 9 151 15 view .LVU246
 1202 0014 07EE900A 		vmov	s15, r0	@ int
 1203 0018 DFF834E1 		ldr	lr, .L94+52
 1204              	.LBB305:
 1205              	.LBB289:
 1206              	.LBB282:
 106:sampleengine.h **** 
 1207              		.loc 9 106 15 view .LVU247
 1208 001c D3ED003A 		vldr.32	s7, [r3]
 1209              	.LBE282:
 1210              	.LBE289:
ARM GAS  /var/folders/m5/x8wc2gdj7z5cpgcqdsb_gkj40000gn/T//ccPXNgbP.s 			page 40


 1211              	.LBE305:
 151:sampleengine.h ****     float startSample = startPoint;
 1212              		.loc 9 151 15 view .LVU248
 1213 0020 F8EE674A 		vcvt.f32.u32	s9, s15
 1214 0024 98ED005A 		vldr.32	s10, [r8]	@ int
 1215 0028 DEF80030 		ldr	r3, [lr]
 1216 002c 3D4E     		ldr	r6, .L94+8
 1217 002e B0EE644A 		vmov.f32	s8, s9
 152:sampleengine.h ****     for (uint32_t i = 0; i < MAX_SPLICE_SIZE; i++)
 1218              		.loc 9 152 5 is_stmt 1 view .LVU249
 1219              	.LVL53:
 153:sampleengine.h ****     {
 1220              		.loc 9 153 5 view .LVU250
 1221              	.LBB306:
 153:sampleengine.h ****     {
 1222              		.loc 9 153 28 view .LVU251
 1223 0032 3D4D     		ldr	r5, .L94+12
 1224              	.LBB290:
 1225              	.LBB283:
 106:sampleengine.h **** 
 1226              		.loc 9 106 15 is_stmt 0 view .LVU252
 1227 0034 F0EE647A 		vmov.f32	s15, s9
 1228              	.LVL54:
 1229              	.L81:
 106:sampleengine.h **** 
 1230              		.loc 9 106 15 view .LVU253
 1231              	.LBE283:
 1232              	.LBE290:
 155:sampleengine.h ****         AdvanceReadIndex();
 1233              		.loc 9 155 9 is_stmt 1 view .LVU254
 1234              	.LBB291:
 1235              	.LBI291:
 117:sampleengine.h **** {
 1236              		.loc 9 117 7 view .LVU255
 1237              	.LBB292:
 119:sampleengine.h **** 
 1238              		.loc 9 119 5 view .LVU256
 121:sampleengine.h **** 	readIndexFraction = readIndex - readIndexInt;
 1239              		.loc 9 121 5 view .LVU257
 121:sampleengine.h **** 	readIndexFraction = readIndex - readIndexInt;
 1240              		.loc 9 121 20 is_stmt 0 view .LVU258
 1241 0038 BDEEE77A 		vcvt.s32.f32	s14, s15
 1242              	.LBE292:
 1243              	.LBE291:
 1244              	.LBB296:
 1245              	.LBB284:
 108:sampleengine.h ****     {
 1246              		.loc 9 108 18 view .LVU259
 1247 003c B8EE456A 		vcvt.f32.u32	s12, s10
 1248              	.LBE284:
 1249              	.LBE296:
 1250              	.LBB297:
 1251              	.LBB293:
 121:sampleengine.h **** 	readIndexFraction = readIndex - readIndexInt;
 1252              		.loc 9 121 20 view .LVU260
 1253 0040 17EE104A 		vmov	r4, s14	@ int
 122:sampleengine.h **** 
ARM GAS  /var/folders/m5/x8wc2gdj7z5cpgcqdsb_gkj40000gn/T//ccPXNgbP.s 			page 41


 1254              		.loc 9 122 2 is_stmt 1 view .LVU261
 122:sampleengine.h **** 
 1255              		.loc 9 122 32 is_stmt 0 view .LVU262
 1256 0044 F8EE476A 		vcvt.f32.u32	s13, s14
 124:sampleengine.h **** 	b = recordingBuffer[readIndexInt + 1]; // next sample
 1257              		.loc 9 124 4 view .LVU263
 1258 0048 05EB8401 		add	r1, r5, r4, lsl #2
 122:sampleengine.h **** 
 1259              		.loc 9 122 32 view .LVU264
 1260 004c 77EEE66A 		vsub.f32	s13, s15, s13
 124:sampleengine.h **** 	b = recordingBuffer[readIndexInt + 1]; // next sample
 1261              		.loc 9 124 2 is_stmt 1 view .LVU265
 124:sampleengine.h **** 	b = recordingBuffer[readIndexInt + 1]; // next sample
 1262              		.loc 9 124 4 is_stmt 0 view .LVU266
 1263 0050 91ED007A 		vldr.32	s14, [r1]
 1264              	.LVL55:
 125:sampleengine.h **** 	out = a + (b - a) * readIndexFraction; // Linear Interpolation
 1265              		.loc 9 125 2 is_stmt 1 view .LVU267
 126:sampleengine.h **** 
 1266              		.loc 9 126 2 view .LVU268
 1267              	.LBE293:
 1268              	.LBE297:
 1269              	.LBB298:
 1270              	.LBB285:
 106:sampleengine.h **** 
 1271              		.loc 9 106 15 is_stmt 0 view .LVU269
 1272 0054 77EEA37A 		vadd.f32	s15, s15, s7
 1273              	.LBE285:
 1274              	.LBE298:
 1275              	.LBB299:
 1276              	.LBB294:
 126:sampleengine.h **** 
 1277              		.loc 9 126 15 view .LVU270
 1278 0058 D1ED015A 		vldr.32	s11, [r1, #4]
 1279 005c 75EEC75A 		vsub.f32	s11, s11, s14
 1280              	.LBE294:
 1281              	.LBE299:
 1282              	.LBB300:
 1283              	.LBB286:
 108:sampleengine.h ****     {
 1284              		.loc 9 108 5 view .LVU271
 1285 0060 F4EEC67A 		vcmpe.f32	s15, s12
 1286              	.LBE286:
 1287              	.LBE300:
 1288              	.LBB301:
 1289              	.LBB295:
 126:sampleengine.h **** 
 1290              		.loc 9 126 6 view .LVU272
 1291 0064 A6EEA57A 		vfma.f32	s14, s13, s11
 1292              	.LVL56:
 128:sampleengine.h **** }
 1293              		.loc 9 128 5 is_stmt 1 view .LVU273
 128:sampleengine.h **** }
 1294              		.loc 9 128 5 is_stmt 0 view .LVU274
 1295              	.LBE295:
 1296              	.LBE301:
 1297              	.LBB302:
ARM GAS  /var/folders/m5/x8wc2gdj7z5cpgcqdsb_gkj40000gn/T//ccPXNgbP.s 			page 42


 1298              	.LBB287:
 108:sampleengine.h ****     {
 1299              		.loc 9 108 5 view .LVU275
 1300 0068 F1EE10FA 		vmrs	APSR_nzcv, FPSCR
 1301              	.LBE287:
 1302              	.LBE302:
 155:sampleengine.h ****         AdvanceReadIndex();
 1303              		.loc 9 155 28 view .LVU276
 1304 006c A6EC017A 		vstmia.32	r6!, {s14}
 156:sampleengine.h ****         if(readIndex == startSample)
 1305              		.loc 9 156 9 is_stmt 1 view .LVU277
 1306              	.LBB303:
 1307              	.LBI269:
 104:sampleengine.h **** {
 1308              		.loc 9 104 6 view .LVU278
 1309              	.LBB288:
 106:sampleengine.h **** 
 1310              		.loc 9 106 5 view .LVU279
 108:sampleengine.h ****     {
 1311              		.loc 9 108 5 view .LVU280
 1312 0070 1BDB     		blt	.L73
 1313 0072 2022     		movs	r2, #32
 1314 0074 2D48     		ldr	r0, .L94+16
 1315 0076 01E0     		b	.L77
 1316              	.LVL57:
 1317              	.L92:
 1318              	.LBB271:
 1319              	.LBB272:
 1320              	.LBB273:
 1321              	.LBB274:
 1322              	.LBB275:
 247:sampleengine.h ****     {
 1323              		.loc 9 247 22 is_stmt 0 view .LVU281
 1324 0078 013A     		subs	r2, r2, #1
 1325              	.LVL58:
 247:sampleengine.h ****     {
 1326              		.loc 9 247 22 view .LVU282
 1327 007a 06D0     		beq	.L76
 1328              	.LVL59:
 1329              	.L77:
 249:sampleengine.h ****         if(nextKey >= numKeyPads)
 1330              		.loc 9 249 9 is_stmt 1 view .LVU283
 247:sampleengine.h ****     {
 1331              		.loc 9 247 5 view .LVU284
 249:sampleengine.h ****         if(nextKey >= numKeyPads)
 1332              		.loc 9 249 16 is_stmt 0 view .LVU285
 1333 007c 0133     		adds	r3, r3, #1
 1334              	.LVL60:
 250:sampleengine.h ****         {
 1335              		.loc 9 250 9 is_stmt 1 view .LVU286
 252:sampleengine.h ****         }
 1336              		.loc 9 252 21 is_stmt 0 view .LVU287
 1337 007e 202B     		cmp	r3, #32
 1338 0080 A8BF     		it	ge
 1339 0082 0023     		movge	r3, #0
 1340              	.LVL61:
 254:sampleengine.h ****         {
ARM GAS  /var/folders/m5/x8wc2gdj7z5cpgcqdsb_gkj40000gn/T//ccPXNgbP.s 			page 43


 1341              		.loc 9 254 9 is_stmt 1 view .LVU288
 247:sampleengine.h ****     {
 1342              		.loc 9 247 22 view .LVU289
 254:sampleengine.h ****         {
 1343              		.loc 9 254 9 is_stmt 0 view .LVU290
 1344 0084 C15C     		ldrb	r1, [r0, r3]	@ zero_extendqisi2
 1345 0086 0029     		cmp	r1, #0
 1346 0088 F6D0     		beq	.L92
 1347              	.LVL62:
 1348              	.L76:
 254:sampleengine.h ****         {
 1349              		.loc 9 254 9 view .LVU291
 1350              	.LBE275:
 1351              		.loc 9 259 5 is_stmt 1 view .LVU292
 1352              		.loc 9 259 5 is_stmt 0 view .LVU293
 1353              	.LBE274:
 1354              	.LBE273:
 111:sampleengine.h ****         stopPoint = keyStopIndex[currentKey];
 1355              		.loc 9 111 9 is_stmt 1 view .LVU294
 111:sampleengine.h ****         stopPoint = keyStopIndex[currentKey];
 1356              		.loc 9 111 46 is_stmt 0 view .LVU295
 1357 008a 2949     		ldr	r1, .L94+20
 1358              	.LBB276:
 1359              	.LBB277:
 102:sampleengine.h **** 
 1360              		.loc 9 102 1 view .LVU296
 1361 008c 4FF00109 		mov	r9, #1
 1362              	.LBE277:
 1363              	.LBE276:
 112:sampleengine.h ****         ResetReadIndex();
 1364              		.loc 9 112 44 view .LVU297
 1365 0090 284A     		ldr	r2, .L94+24
 111:sampleengine.h ****         stopPoint = keyStopIndex[currentKey];
 1366              		.loc 9 111 46 view .LVU298
 1367 0092 51F82300 		ldr	r0, [r1, r3, lsl #2]
 112:sampleengine.h ****         ResetReadIndex();
 1368              		.loc 9 112 9 is_stmt 1 view .LVU299
 112:sampleengine.h ****         ResetReadIndex();
 1369              		.loc 9 112 44 is_stmt 0 view .LVU300
 1370 0096 02EB8302 		add	r2, r2, r3, lsl #2
 1371              	.LBB280:
 1372              	.LBB278:
 101:sampleengine.h **** }
 1373              		.loc 9 101 15 view .LVU301
 1374 009a 07EE900A 		vmov	s15, r0	@ int
 1375              	.LBE278:
 1376              	.LBE280:
 112:sampleengine.h ****         ResetReadIndex();
 1377              		.loc 9 112 44 view .LVU302
 1378 009e 92ED005A 		vldr.32	s10, [r2]	@ int
 113:sampleengine.h ****     }
 1379              		.loc 9 113 9 is_stmt 1 view .LVU303
 1380              	.LBB281:
 1381              	.LBI276:
  99:sampleengine.h **** {
 1382              		.loc 9 99 6 view .LVU304
 1383              	.LBB279:
ARM GAS  /var/folders/m5/x8wc2gdj7z5cpgcqdsb_gkj40000gn/T//ccPXNgbP.s 			page 44


 101:sampleengine.h **** }
 1384              		.loc 9 101 5 view .LVU305
 101:sampleengine.h **** }
 1385              		.loc 9 101 15 is_stmt 0 view .LVU306
 1386 00a2 F8EE674A 		vcvt.f32.u32	s9, s15
 1387 00a6 F0EE647A 		vmov.f32	s15, s9
 1388              	.L73:
 1389              	.LBE279:
 1390              	.LBE281:
 1391              	.LBE272:
 1392              	.LBE271:
 1393              	.LBE288:
 1394              	.LBE303:
 157:sampleengine.h ****         {
 1395              		.loc 9 157 9 is_stmt 1 view .LVU307
 1396 00aa B4EE674A 		vcmp.f32	s8, s15
 1397 00ae F1EE10FA 		vmrs	APSR_nzcv, FPSCR
 1398 00b2 1AD0     		beq	.L93
 153:sampleengine.h ****     {
 1399              		.loc 9 153 5 discriminator 2 view .LVU308
 1400 00b4 0CF1010C 		add	ip, ip, #1
 1401              	.LVL63:
 153:sampleengine.h ****     {
 1402              		.loc 9 153 28 discriminator 2 view .LVU309
 1403 00b8 1F4A     		ldr	r2, .L94+28
 1404 00ba 9445     		cmp	ip, r2
 1405 00bc BCD1     		bne	.L81
 1406 00be 1F49     		ldr	r1, .L94+32
 1407 00c0 1F4A     		ldr	r2, .L94+36
 1408 00c2 0C60     		str	r4, [r1]
 1409 00c4 1F49     		ldr	r1, .L94+40
 1410 00c6 C2ED007A 		vstr.32	s15, [r2]
 1411 00ca C1ED006A 		vstr.32	s13, [r1]
 1412 00ce B9F1000F 		cmp	r9, #0
 1413 00d2 1FD0     		beq	.L80
 1414              	.LBE306:
 163:sampleengine.h **** }
 1415              		.loc 9 163 15 is_stmt 0 view .LVU310
 1416 00d4 B0EE644A 		vmov.f32	s8, s9
 1417              	.LVL64:
 163:sampleengine.h **** }
 1418              		.loc 9 163 15 view .LVU311
 1419 00d8 88ED005A 		vstr.32	s10, [r8]	@ int
 1420 00dc CEF80030 		str	r3, [lr]
 1421 00e0 3860     		str	r0, [r7]
 1422              	.LVL65:
 163:sampleengine.h **** }
 1423              		.loc 9 163 5 is_stmt 1 view .LVU312
 163:sampleengine.h **** }
 1424              		.loc 9 163 15 is_stmt 0 view .LVU313
 1425 00e2 82ED004A 		vstr.32	s8, [r2]
 164:sampleengine.h **** 
 1426              		.loc 9 164 1 view .LVU314
 1427 00e6 BDE8F083 		pop	{r4, r5, r6, r7, r8, r9, pc}
 1428              	.LVL66:
 1429              	.L93:
 164:sampleengine.h **** 
ARM GAS  /var/folders/m5/x8wc2gdj7z5cpgcqdsb_gkj40000gn/T//ccPXNgbP.s 			page 45


 1430              		.loc 9 164 1 view .LVU315
 1431 00ea 1449     		ldr	r1, .L94+32
 1432 00ec 144A     		ldr	r2, .L94+36
 1433 00ee 0C60     		str	r4, [r1]
 1434 00f0 1449     		ldr	r1, .L94+40
 1435 00f2 C2ED007A 		vstr.32	s15, [r2]
 1436 00f6 C1ED006A 		vstr.32	s13, [r1]
 1437 00fa B9F1000F 		cmp	r9, #0
 1438 00fe 06D0     		beq	.L79
 163:sampleengine.h **** }
 1439              		.loc 9 163 15 view .LVU316
 1440 0100 B0EE644A 		vmov.f32	s8, s9
 1441              	.LVL67:
 163:sampleengine.h **** }
 1442              		.loc 9 163 15 view .LVU317
 1443 0104 CEF80030 		str	r3, [lr]
 1444 0108 88ED005A 		vstr.32	s10, [r8]	@ int
 1445 010c 3860     		str	r0, [r7]
 1446              	.LVL68:
 1447              	.L79:
 1448              	.LBB307:
 159:sampleengine.h ****             break;
 1449              		.loc 9 159 13 is_stmt 1 view .LVU318
 159:sampleengine.h ****             break;
 1450              		.loc 9 159 35 is_stmt 0 view .LVU319
 1451 010e 0E4B     		ldr	r3, .L94+44
 1452 0110 C3F800C0 		str	ip, [r3]
 160:sampleengine.h ****         }
 1453              		.loc 9 160 13 is_stmt 1 view .LVU320
 1454              	.L80:
 160:sampleengine.h ****         }
 1455              		.loc 9 160 13 is_stmt 0 view .LVU321
 1456              	.LBE307:
 163:sampleengine.h **** }
 1457              		.loc 9 163 5 is_stmt 1 view .LVU322
 163:sampleengine.h **** }
 1458              		.loc 9 163 15 is_stmt 0 view .LVU323
 1459 0114 82ED004A 		vstr.32	s8, [r2]
 164:sampleengine.h **** 
 1460              		.loc 9 164 1 view .LVU324
 1461 0118 BDE8F083 		pop	{r4, r5, r6, r7, r8, r9, pc}
 1462              	.L95:
 1463              		.align	2
 1464              	.L94:
 1465 011c 00000000 		.word	.LANCHOR3
 1466 0120 00000000 		.word	.LANCHOR14
 1467 0124 00000000 		.word	spliceBufferOne
 1468 0128 00000000 		.word	recordingBuffer
 1469 012c 00000000 		.word	.LANCHOR1
 1470 0130 00000000 		.word	.LANCHOR2
 1471 0134 00000000 		.word	.LANCHOR5
 1472 0138 00A60E00 		.word	960000
 1473 013c 00000000 		.word	.LANCHOR15
 1474 0140 00000000 		.word	.LANCHOR6
 1475 0144 00000000 		.word	.LANCHOR16
 1476 0148 00000000 		.word	.LANCHOR21
 1477 014c 00000000 		.word	.LANCHOR4
ARM GAS  /var/folders/m5/x8wc2gdj7z5cpgcqdsb_gkj40000gn/T//ccPXNgbP.s 			page 46


 1478 0150 00000000 		.word	.LANCHOR0
 1479              		.cfi_endproc
 1480              	.LFE4695:
 1482              		.section	.text._Z24SpliceBufferOneGetSamplev,"ax",%progbits
 1483              		.align	1
 1484              		.p2align 2,,3
 1485              		.global	_Z24SpliceBufferOneGetSamplev
 1486              		.syntax unified
 1487              		.thumb
 1488              		.thumb_func
 1490              	_Z24SpliceBufferOneGetSamplev:
 1491              	.LFB4696:
 167:sampleengine.h ****     spliceBufferOneReadIndex += readFactor;
 1492              		.loc 9 167 1 is_stmt 1 view -0
 1493              		.cfi_startproc
 1494              		@ args = 0, pretend = 0, frame = 0
 1495              		@ frame_needed = 0, uses_anonymous_args = 0
 1496              		@ link register save eliminated.
 168:sampleengine.h ****     if(spliceBufferOneReadIndex > spliceBufferOneLength) 
 1497              		.loc 9 168 5 view .LVU326
 168:sampleengine.h ****     if(spliceBufferOneReadIndex > spliceBufferOneLength) 
 1498              		.loc 9 168 30 is_stmt 0 view .LVU327
 1499 0000 1D4B     		ldr	r3, .L100
 1500 0002 1E49     		ldr	r1, .L100+4
 169:sampleengine.h ****     {
 1501              		.loc 9 169 33 view .LVU328
 1502 0004 1E4A     		ldr	r2, .L100+8
 168:sampleengine.h ****     if(spliceBufferOneReadIndex > spliceBufferOneLength) 
 1503              		.loc 9 168 30 view .LVU329
 1504 0006 D3ED007A 		vldr.32	s15, [r3]
 1505 000a D1ED006A 		vldr.32	s13, [r1]
 169:sampleengine.h ****     {
 1506              		.loc 9 169 33 view .LVU330
 1507 000e 92ED007A 		vldr.32	s14, [r2]	@ int
 168:sampleengine.h ****     if(spliceBufferOneReadIndex > spliceBufferOneLength) 
 1508              		.loc 9 168 30 view .LVU331
 1509 0012 77EEA67A 		vadd.f32	s15, s15, s13
 169:sampleengine.h ****     {
 1510              		.loc 9 169 33 view .LVU332
 1511 0016 B8EE477A 		vcvt.f32.u32	s14, s14
 167:sampleengine.h ****     spliceBufferOneReadIndex += readFactor;
 1512              		.loc 9 167 1 view .LVU333
 1513 001a 10B4     		push	{r4}
 1514              		.cfi_def_cfa_offset 4
 1515              		.cfi_offset 4, -4
 169:sampleengine.h ****     {
 1516              		.loc 9 169 5 view .LVU334
 1517 001c F4EEC77A 		vcmpe.f32	s15, s14
 168:sampleengine.h ****     if(spliceBufferOneReadIndex > spliceBufferOneLength) 
 1518              		.loc 9 168 30 view .LVU335
 1519 0020 C3ED007A 		vstr.32	s15, [r3]
 169:sampleengine.h ****     {
 1520              		.loc 9 169 5 is_stmt 1 view .LVU336
 1521 0024 F1EE10FA 		vmrs	APSR_nzcv, FPSCR
 1522 0028 1DDC     		bgt	.L97
 175:sampleengine.h ****     spliceBufferOneReadIndexFraction = spliceBufferOneReadIndex - spliceBufferOneReadIndexInt;
 1523              		.loc 9 175 35 is_stmt 0 view .LVU337
ARM GAS  /var/folders/m5/x8wc2gdj7z5cpgcqdsb_gkj40000gn/T//ccPXNgbP.s 			page 47


 1524 002a BDEEE77A 		vcvt.s32.f32	s14, s15
 1525 002e 17EE101A 		vmov	r1, s14	@ int
 176:sampleengine.h ****     a = spliceBufferOne[spliceBufferOneReadIndexInt]; // current sample
 1526              		.loc 9 176 65 view .LVU338
 1527 0032 B8EE477A 		vcvt.f32.u32	s14, s14
 178:sampleengine.h ****     out = a + (b - a) * spliceBufferOneReadIndexFraction; // Linear Interpolation
 1528              		.loc 9 178 53 view .LVU339
 1529 0036 4A1C     		adds	r2, r1, #1
 176:sampleengine.h ****     a = spliceBufferOne[spliceBufferOneReadIndexInt]; // current sample
 1530              		.loc 9 176 65 view .LVU340
 1531 0038 77EEC77A 		vsub.f32	s15, s15, s14
 1532              	.L98:
 174:sampleengine.h ****     spliceBufferOneReadIndexInt = static_cast<int32_t>(spliceBufferOneReadIndex);
 1533              		.loc 9 174 5 is_stmt 1 view .LVU341
 175:sampleengine.h ****     spliceBufferOneReadIndexFraction = spliceBufferOneReadIndex - spliceBufferOneReadIndexInt;
 1534              		.loc 9 175 5 view .LVU342
 177:sampleengine.h ****     b = spliceBufferOne[spliceBufferOneReadIndexInt + 1]; // next sample
 1535              		.loc 9 177 7 is_stmt 0 view .LVU343
 1536 003c 114B     		ldr	r3, .L100+12
 175:sampleengine.h ****     spliceBufferOneReadIndexFraction = spliceBufferOneReadIndex - spliceBufferOneReadIndexInt;
 1537              		.loc 9 175 33 view .LVU344
 1538 003e 124C     		ldr	r4, .L100+16
 178:sampleengine.h ****     out = a + (b - a) * spliceBufferOneReadIndexFraction; // Linear Interpolation
 1539              		.loc 9 178 7 view .LVU345
 1540 0040 03EB8202 		add	r2, r3, r2, lsl #2
 176:sampleengine.h ****     a = spliceBufferOne[spliceBufferOneReadIndexInt]; // current sample
 1541              		.loc 9 176 38 view .LVU346
 1542 0044 1148     		ldr	r0, .L100+20
 177:sampleengine.h ****     b = spliceBufferOne[spliceBufferOneReadIndexInt + 1]; // next sample
 1543              		.loc 9 177 7 view .LVU347
 1544 0046 03EB8103 		add	r3, r3, r1, lsl #2
 175:sampleengine.h ****     spliceBufferOneReadIndexFraction = spliceBufferOneReadIndex - spliceBufferOneReadIndexInt;
 1545              		.loc 9 175 33 view .LVU348
 1546 004a 2160     		str	r1, [r4]
 176:sampleengine.h ****     a = spliceBufferOne[spliceBufferOneReadIndexInt]; // current sample
 1547              		.loc 9 176 5 is_stmt 1 view .LVU349
 179:sampleengine.h **** 
 1548              		.loc 9 179 18 is_stmt 0 view .LVU350
 1549 004c 92ED007A 		vldr.32	s14, [r2]
 177:sampleengine.h ****     b = spliceBufferOne[spliceBufferOneReadIndexInt + 1]; // next sample
 1550              		.loc 9 177 7 view .LVU351
 1551 0050 93ED000A 		vldr.32	s0, [r3]
 182:sampleengine.h **** 
 1552              		.loc 9 182 1 view .LVU352
 1553 0054 5DF8044B 		ldr	r4, [sp], #4
 1554              		.cfi_remember_state
 1555              		.cfi_restore 4
 1556              		.cfi_def_cfa_offset 0
 179:sampleengine.h **** 
 1557              		.loc 9 179 18 view .LVU353
 1558 0058 37EE407A 		vsub.f32	s14, s14, s0
 176:sampleengine.h ****     a = spliceBufferOne[spliceBufferOneReadIndexInt]; // current sample
 1559              		.loc 9 176 38 view .LVU354
 1560 005c C0ED007A 		vstr.32	s15, [r0]
 177:sampleengine.h ****     b = spliceBufferOne[spliceBufferOneReadIndexInt + 1]; // next sample
 1561              		.loc 9 177 5 is_stmt 1 view .LVU355
 1562              	.LVL69:
ARM GAS  /var/folders/m5/x8wc2gdj7z5cpgcqdsb_gkj40000gn/T//ccPXNgbP.s 			page 48


 178:sampleengine.h ****     out = a + (b - a) * spliceBufferOneReadIndexFraction; // Linear Interpolation
 1563              		.loc 9 178 5 view .LVU356
 179:sampleengine.h **** 
 1564              		.loc 9 179 5 view .LVU357
 181:sampleengine.h **** }
 1565              		.loc 9 181 5 view .LVU358
 182:sampleengine.h **** 
 1566              		.loc 9 182 1 is_stmt 0 view .LVU359
 1567 0060 A7EE270A 		vfma.f32	s0, s14, s15
 1568              	.LVL70:
 182:sampleengine.h **** 
 1569              		.loc 9 182 1 view .LVU360
 1570 0064 7047     		bx	lr
 1571              	.LVL71:
 1572              	.L97:
 1573              		.cfi_restore_state
 171:sampleengine.h ****     }
 1574              		.loc 9 171 9 is_stmt 1 view .LVU361
 171:sampleengine.h ****     }
 1575              		.loc 9 171 34 is_stmt 0 view .LVU362
 1576 0066 9FED0A7A 		vldr.32	s14, .L100+24
 1577 006a 0122     		movs	r2, #1
 1578 006c 0021     		movs	r1, #0
 1579 006e F0EE477A 		vmov.f32	s15, s14
 1580 0072 83ED007A 		vstr.32	s14, [r3]
 1581 0076 E1E7     		b	.L98
 1582              	.L101:
 1583              		.align	2
 1584              	.L100:
 1585 0078 00000000 		.word	.LANCHOR22
 1586 007c 00000000 		.word	.LANCHOR14
 1587 0080 00000000 		.word	.LANCHOR21
 1588 0084 00000000 		.word	spliceBufferOne
 1589 0088 00000000 		.word	.LANCHOR23
 1590 008c 00000000 		.word	.LANCHOR24
 1591 0090 00000000 		.word	0
 1592              		.cfi_endproc
 1593              	.LFE4696:
 1595              		.section	.text._Z20StoreSpliceBufferTwov,"ax",%progbits
 1596              		.align	1
 1597              		.p2align 2,,3
 1598              		.global	_Z20StoreSpliceBufferTwov
 1599              		.syntax unified
 1600              		.thumb
 1601              		.thumb_func
 1603              	_Z20StoreSpliceBufferTwov:
 1604              	.LFB4697:
 185:sampleengine.h ****     readIndex = startPoint;
 1605              		.loc 9 185 1 is_stmt 1 view -0
 1606              		.cfi_startproc
 1607              		@ args = 0, pretend = 0, frame = 0
 1608              		@ frame_needed = 0, uses_anonymous_args = 0
 186:sampleengine.h ****     float startSample = startPoint;
 1609              		.loc 9 186 5 view .LVU364
 186:sampleengine.h ****     float startSample = startPoint;
 1610              		.loc 9 186 15 is_stmt 0 view .LVU365
 1611 0000 DFF810C1 		ldr	ip, .L124+40
ARM GAS  /var/folders/m5/x8wc2gdj7z5cpgcqdsb_gkj40000gn/T//ccPXNgbP.s 			page 49


 1612              	.LBB320:
 1613              	.LBB321:
 1614              	.LBB322:
 106:sampleengine.h **** 
 1615              		.loc 9 106 15 view .LVU366
 1616 0004 394B     		ldr	r3, .L124
 1617              	.LBE322:
 1618              	.LBE321:
 1619              	.LBE320:
 186:sampleengine.h ****     float startSample = startPoint;
 1620              		.loc 9 186 15 view .LVU367
 1621 0006 DCF80000 		ldr	r0, [ip]
 1622              	.LBB356:
 1623              	.LBB341:
 1624              	.LBB334:
 106:sampleengine.h **** 
 1625              		.loc 9 106 15 view .LVU368
 1626 000a D3ED003A 		vldr.32	s7, [r3]
 1627              	.LBE334:
 1628              	.LBE341:
 1629              	.LBE356:
 186:sampleengine.h ****     float startSample = startPoint;
 1630              		.loc 9 186 15 view .LVU369
 1631 000e 07EE900A 		vmov	s15, r0	@ int
 1632 0012 F8EE674A 		vcvt.f32.u32	s9, s15
 185:sampleengine.h ****     readIndex = startPoint;
 1633              		.loc 9 185 1 view .LVU370
 1634 0016 2DE9F043 		push	{r4, r5, r6, r7, r8, r9, lr}
 1635              		.cfi_def_cfa_offset 28
 1636              		.cfi_offset 4, -28
 1637              		.cfi_offset 5, -24
 1638              		.cfi_offset 6, -20
 1639              		.cfi_offset 7, -16
 1640              		.cfi_offset 8, -12
 1641              		.cfi_offset 9, -8
 1642              		.cfi_offset 14, -4
 1643 001a DFF8FC80 		ldr	r8, .L124+44
 186:sampleengine.h ****     float startSample = startPoint;
 1644              		.loc 9 186 15 view .LVU371
 1645 001e B0EE644A 		vmov.f32	s8, s9
 187:sampleengine.h ****     for (uint32_t i = 0; i < MAX_SPLICE_SIZE; i++)
 1646              		.loc 9 187 5 is_stmt 1 view .LVU372
 1647              	.LVL72:
 188:sampleengine.h ****     {
 1648              		.loc 9 188 5 view .LVU373
 1649              	.LBB357:
 188:sampleengine.h ****     {
 1650              		.loc 9 188 28 view .LVU374
 1651 0022 DFF8F8E0 		ldr	lr, .L124+48
 1652              	.LBB342:
 1653              	.LBB335:
 106:sampleengine.h **** 
 1654              		.loc 9 106 15 is_stmt 0 view .LVU375
 1655 0026 F0EE647A 		vmov.f32	s15, s9
 1656 002a 98ED005A 		vldr.32	s10, [r8]	@ int
 1657 002e 4FF00009 		mov	r9, #0
 1658 0032 DEF80030 		ldr	r3, [lr]
ARM GAS  /var/folders/m5/x8wc2gdj7z5cpgcqdsb_gkj40000gn/T//ccPXNgbP.s 			page 50


 1659 0036 2E4D     		ldr	r5, .L124+4
 1660 0038 2E4F     		ldr	r7, .L124+8
 1661 003a 2F4E     		ldr	r6, .L124+12
 1662              	.LVL73:
 1663              	.L110:
 106:sampleengine.h **** 
 1664              		.loc 9 106 15 view .LVU376
 1665              	.LBE335:
 1666              	.LBE342:
 190:sampleengine.h ****         AdvanceReadIndex();
 1667              		.loc 9 190 9 is_stmt 1 view .LVU377
 1668              	.LBB343:
 1669              	.LBI343:
 117:sampleengine.h **** {
 1670              		.loc 9 117 7 view .LVU378
 1671              	.LBB344:
 119:sampleengine.h **** 
 1672              		.loc 9 119 5 view .LVU379
 121:sampleengine.h **** 	readIndexFraction = readIndex - readIndexInt;
 1673              		.loc 9 121 5 view .LVU380
 121:sampleengine.h **** 	readIndexFraction = readIndex - readIndexInt;
 1674              		.loc 9 121 20 is_stmt 0 view .LVU381
 1675 003c BDEEE77A 		vcvt.s32.f32	s14, s15
 1676              	.LBE344:
 1677              	.LBE343:
 1678              	.LBB348:
 1679              	.LBB336:
 108:sampleengine.h ****     {
 1680              		.loc 9 108 18 view .LVU382
 1681 0040 B8EE456A 		vcvt.f32.u32	s12, s10
 1682              	.LBE336:
 1683              	.LBE348:
 1684              	.LBB349:
 1685              	.LBB345:
 121:sampleengine.h **** 	readIndexFraction = readIndex - readIndexInt;
 1686              		.loc 9 121 20 view .LVU383
 1687 0044 17EE104A 		vmov	r4, s14	@ int
 122:sampleengine.h **** 
 1688              		.loc 9 122 2 is_stmt 1 view .LVU384
 122:sampleengine.h **** 
 1689              		.loc 9 122 32 is_stmt 0 view .LVU385
 1690 0048 F8EE476A 		vcvt.f32.u32	s13, s14
 124:sampleengine.h **** 	b = recordingBuffer[readIndexInt + 1]; // next sample
 1691              		.loc 9 124 4 view .LVU386
 1692 004c 06EB8401 		add	r1, r6, r4, lsl #2
 122:sampleengine.h **** 
 1693              		.loc 9 122 32 view .LVU387
 1694 0050 77EEE66A 		vsub.f32	s13, s15, s13
 124:sampleengine.h **** 	b = recordingBuffer[readIndexInt + 1]; // next sample
 1695              		.loc 9 124 2 is_stmt 1 view .LVU388
 124:sampleengine.h **** 	b = recordingBuffer[readIndexInt + 1]; // next sample
 1696              		.loc 9 124 4 is_stmt 0 view .LVU389
 1697 0054 91ED007A 		vldr.32	s14, [r1]
 1698              	.LVL74:
 125:sampleengine.h **** 	out = a + (b - a) * readIndexFraction; // Linear Interpolation
 1699              		.loc 9 125 2 is_stmt 1 view .LVU390
 126:sampleengine.h **** 
ARM GAS  /var/folders/m5/x8wc2gdj7z5cpgcqdsb_gkj40000gn/T//ccPXNgbP.s 			page 51


 1700              		.loc 9 126 2 view .LVU391
 1701              	.LBE345:
 1702              	.LBE349:
 1703              	.LBB350:
 1704              	.LBB337:
 106:sampleengine.h **** 
 1705              		.loc 9 106 15 is_stmt 0 view .LVU392
 1706 0058 77EEA37A 		vadd.f32	s15, s15, s7
 1707              	.LBE337:
 1708              	.LBE350:
 1709              	.LBB351:
 1710              	.LBB346:
 126:sampleengine.h **** 
 1711              		.loc 9 126 15 view .LVU393
 1712 005c D1ED015A 		vldr.32	s11, [r1, #4]
 1713 0060 75EEC75A 		vsub.f32	s11, s11, s14
 1714              	.LBE346:
 1715              	.LBE351:
 1716              	.LBB352:
 1717              	.LBB338:
 108:sampleengine.h ****     {
 1718              		.loc 9 108 5 view .LVU394
 1719 0064 F4EEC67A 		vcmpe.f32	s15, s12
 1720              	.LBE338:
 1721              	.LBE352:
 1722              	.LBB353:
 1723              	.LBB347:
 126:sampleengine.h **** 
 1724              		.loc 9 126 6 view .LVU395
 1725 0068 A6EEA57A 		vfma.f32	s14, s13, s11
 1726              	.LVL75:
 128:sampleengine.h **** }
 1727              		.loc 9 128 5 is_stmt 1 view .LVU396
 128:sampleengine.h **** }
 1728              		.loc 9 128 5 is_stmt 0 view .LVU397
 1729              	.LBE347:
 1730              	.LBE353:
 1731              	.LBB354:
 1732              	.LBB339:
 108:sampleengine.h ****     {
 1733              		.loc 9 108 5 view .LVU398
 1734 006c F1EE10FA 		vmrs	APSR_nzcv, FPSCR
 1735              	.LBE339:
 1736              	.LBE354:
 190:sampleengine.h ****         AdvanceReadIndex();
 1737              		.loc 9 190 28 view .LVU399
 1738 0070 A5EC017A 		vstmia.32	r5!, {s14}
 191:sampleengine.h ****         if(readIndex == startSample)
 1739              		.loc 9 191 9 is_stmt 1 view .LVU400
 1740              	.LBB355:
 1741              	.LBI321:
 104:sampleengine.h **** {
 1742              		.loc 9 104 6 view .LVU401
 1743              	.LBB340:
 106:sampleengine.h **** 
 1744              		.loc 9 106 5 view .LVU402
 108:sampleengine.h ****     {
ARM GAS  /var/folders/m5/x8wc2gdj7z5cpgcqdsb_gkj40000gn/T//ccPXNgbP.s 			page 52


 1745              		.loc 9 108 5 view .LVU403
 1746 0074 1BDB     		blt	.L103
 1747 0076 2022     		movs	r2, #32
 1748 0078 2048     		ldr	r0, .L124+16
 1749 007a 01E0     		b	.L107
 1750              	.LVL76:
 1751              	.L123:
 1752              	.LBB323:
 1753              	.LBB324:
 1754              	.LBB325:
 1755              	.LBB326:
 1756              	.LBB327:
 247:sampleengine.h ****     {
 1757              		.loc 9 247 22 is_stmt 0 view .LVU404
 1758 007c 013A     		subs	r2, r2, #1
 1759              	.LVL77:
 247:sampleengine.h ****     {
 1760              		.loc 9 247 22 view .LVU405
 1761 007e 06D0     		beq	.L106
 1762              	.LVL78:
 1763              	.L107:
 249:sampleengine.h ****         if(nextKey >= numKeyPads)
 1764              		.loc 9 249 9 is_stmt 1 view .LVU406
 247:sampleengine.h ****     {
 1765              		.loc 9 247 5 view .LVU407
 249:sampleengine.h ****         if(nextKey >= numKeyPads)
 1766              		.loc 9 249 16 is_stmt 0 view .LVU408
 1767 0080 0133     		adds	r3, r3, #1
 1768              	.LVL79:
 250:sampleengine.h ****         {
 1769              		.loc 9 250 9 is_stmt 1 view .LVU409
 252:sampleengine.h ****         }
 1770              		.loc 9 252 21 is_stmt 0 view .LVU410
 1771 0082 202B     		cmp	r3, #32
 1772 0084 A8BF     		it	ge
 1773 0086 0023     		movge	r3, #0
 1774              	.LVL80:
 254:sampleengine.h ****         {
 1775              		.loc 9 254 9 is_stmt 1 view .LVU411
 247:sampleengine.h ****     {
 1776              		.loc 9 247 22 view .LVU412
 254:sampleengine.h ****         {
 1777              		.loc 9 254 9 is_stmt 0 view .LVU413
 1778 0088 C15C     		ldrb	r1, [r0, r3]	@ zero_extendqisi2
 1779 008a 0029     		cmp	r1, #0
 1780 008c F6D0     		beq	.L123
 1781              	.LVL81:
 1782              	.L106:
 254:sampleengine.h ****         {
 1783              		.loc 9 254 9 view .LVU414
 1784              	.LBE327:
 1785              		.loc 9 259 5 is_stmt 1 view .LVU415
 1786              		.loc 9 259 5 is_stmt 0 view .LVU416
 1787              	.LBE326:
 1788              	.LBE325:
 111:sampleengine.h ****         stopPoint = keyStopIndex[currentKey];
 1789              		.loc 9 111 9 is_stmt 1 view .LVU417
ARM GAS  /var/folders/m5/x8wc2gdj7z5cpgcqdsb_gkj40000gn/T//ccPXNgbP.s 			page 53


 111:sampleengine.h ****         stopPoint = keyStopIndex[currentKey];
 1790              		.loc 9 111 46 is_stmt 0 view .LVU418
 1791 008e 1C49     		ldr	r1, .L124+20
 1792              	.LBB328:
 1793              	.LBB329:
 102:sampleengine.h **** 
 1794              		.loc 9 102 1 view .LVU419
 1795 0090 4FF00109 		mov	r9, #1
 1796              	.LBE329:
 1797              	.LBE328:
 112:sampleengine.h ****         ResetReadIndex();
 1798              		.loc 9 112 44 view .LVU420
 1799 0094 1B4A     		ldr	r2, .L124+24
 111:sampleengine.h ****         stopPoint = keyStopIndex[currentKey];
 1800              		.loc 9 111 46 view .LVU421
 1801 0096 51F82300 		ldr	r0, [r1, r3, lsl #2]
 112:sampleengine.h ****         ResetReadIndex();
 1802              		.loc 9 112 9 is_stmt 1 view .LVU422
 112:sampleengine.h ****         ResetReadIndex();
 1803              		.loc 9 112 44 is_stmt 0 view .LVU423
 1804 009a 02EB8302 		add	r2, r2, r3, lsl #2
 1805              	.LBB332:
 1806              	.LBB330:
 101:sampleengine.h **** }
 1807              		.loc 9 101 15 view .LVU424
 1808 009e 07EE900A 		vmov	s15, r0	@ int
 1809              	.LBE330:
 1810              	.LBE332:
 112:sampleengine.h ****         ResetReadIndex();
 1811              		.loc 9 112 44 view .LVU425
 1812 00a2 92ED005A 		vldr.32	s10, [r2]	@ int
 113:sampleengine.h ****     }
 1813              		.loc 9 113 9 is_stmt 1 view .LVU426
 1814              	.LBB333:
 1815              	.LBI328:
  99:sampleengine.h **** {
 1816              		.loc 9 99 6 view .LVU427
 1817              	.LBB331:
 101:sampleengine.h **** }
 1818              		.loc 9 101 5 view .LVU428
 101:sampleengine.h **** }
 1819              		.loc 9 101 15 is_stmt 0 view .LVU429
 1820 00a6 F8EE674A 		vcvt.f32.u32	s9, s15
 1821 00aa F0EE647A 		vmov.f32	s15, s9
 1822              	.L103:
 1823              	.LBE331:
 1824              	.LBE333:
 1825              	.LBE324:
 1826              	.LBE323:
 1827              	.LBE340:
 1828              	.LBE355:
 192:sampleengine.h ****         {
 1829              		.loc 9 192 9 is_stmt 1 view .LVU430
 1830 00ae B4EE674A 		vcmp.f32	s8, s15
 1831 00b2 F1EE10FA 		vmrs	APSR_nzcv, FPSCR
 1832 00b6 01D0     		beq	.L122
 188:sampleengine.h ****     {
ARM GAS  /var/folders/m5/x8wc2gdj7z5cpgcqdsb_gkj40000gn/T//ccPXNgbP.s 			page 54


 1833              		.loc 9 188 5 discriminator 2 view .LVU431
 188:sampleengine.h ****     {
 1834              		.loc 9 188 28 discriminator 2 view .LVU432
 1835 00b8 BD42     		cmp	r5, r7
 1836 00ba BFD1     		bne	.L110
 1837              	.L122:
 1838 00bc 1249     		ldr	r1, .L124+28
 1839 00be 134A     		ldr	r2, .L124+32
 1840 00c0 0C60     		str	r4, [r1]
 1841 00c2 1349     		ldr	r1, .L124+36
 1842 00c4 C2ED007A 		vstr.32	s15, [r2]
 1843 00c8 C1ED006A 		vstr.32	s13, [r1]
 1844 00cc B9F1000F 		cmp	r9, #0
 1845 00d0 07D0     		beq	.L109
 1846              	.LBE357:
 197:sampleengine.h **** }
 1847              		.loc 9 197 15 is_stmt 0 view .LVU433
 1848 00d2 B0EE644A 		vmov.f32	s8, s9
 1849              	.LVL82:
 197:sampleengine.h **** }
 1850              		.loc 9 197 15 view .LVU434
 1851 00d6 88ED005A 		vstr.32	s10, [r8]	@ int
 1852 00da CEF80030 		str	r3, [lr]
 1853 00de CCF80000 		str	r0, [ip]
 1854              	.LVL83:
 1855              	.L109:
 197:sampleengine.h **** }
 1856              		.loc 9 197 5 is_stmt 1 view .LVU435
 197:sampleengine.h **** }
 1857              		.loc 9 197 15 is_stmt 0 view .LVU436
 1858 00e2 82ED004A 		vstr.32	s8, [r2]
 198:sampleengine.h **** 
 1859              		.loc 9 198 1 view .LVU437
 1860 00e6 BDE8F083 		pop	{r4, r5, r6, r7, r8, r9, pc}
 1861              	.L125:
 1862 00ea 00BF     		.align	2
 1863              	.L124:
 1864 00ec 00000000 		.word	.LANCHOR14
 1865 00f0 00000000 		.word	spliceBufferTwo
 1866 00f4 00983A00 		.word	spliceBufferTwo+3840000
 1867 00f8 00000000 		.word	recordingBuffer
 1868 00fc 00000000 		.word	.LANCHOR1
 1869 0100 00000000 		.word	.LANCHOR2
 1870 0104 00000000 		.word	.LANCHOR5
 1871 0108 00000000 		.word	.LANCHOR15
 1872 010c 00000000 		.word	.LANCHOR6
 1873 0110 00000000 		.word	.LANCHOR16
 1874 0114 00000000 		.word	.LANCHOR3
 1875 0118 00000000 		.word	.LANCHOR4
 1876 011c 00000000 		.word	.LANCHOR0
 1877              		.cfi_endproc
 1878              	.LFE4697:
 1880              		.section	.text._Z22StoreSpliceBufferThreev,"ax",%progbits
 1881              		.align	1
 1882              		.p2align 2,,3
 1883              		.global	_Z22StoreSpliceBufferThreev
 1884              		.syntax unified
ARM GAS  /var/folders/m5/x8wc2gdj7z5cpgcqdsb_gkj40000gn/T//ccPXNgbP.s 			page 55


 1885              		.thumb
 1886              		.thumb_func
 1888              	_Z22StoreSpliceBufferThreev:
 1889              	.LFB4698:
 201:sampleengine.h ****     readIndex = startPoint;
 1890              		.loc 9 201 1 is_stmt 1 view -0
 1891              		.cfi_startproc
 1892              		@ args = 0, pretend = 0, frame = 0
 1893              		@ frame_needed = 0, uses_anonymous_args = 0
 202:sampleengine.h ****     float startSample = startPoint;
 1894              		.loc 9 202 5 view .LVU439
 202:sampleengine.h ****     float startSample = startPoint;
 1895              		.loc 9 202 15 is_stmt 0 view .LVU440
 1896 0000 DFF810C1 		ldr	ip, .L148+40
 1897              	.LBB370:
 1898              	.LBB371:
 1899              	.LBB372:
 106:sampleengine.h **** 
 1900              		.loc 9 106 15 view .LVU441
 1901 0004 394B     		ldr	r3, .L148
 1902              	.LBE372:
 1903              	.LBE371:
 1904              	.LBE370:
 202:sampleengine.h ****     float startSample = startPoint;
 1905              		.loc 9 202 15 view .LVU442
 1906 0006 DCF80000 		ldr	r0, [ip]
 1907              	.LBB406:
 1908              	.LBB391:
 1909              	.LBB384:
 106:sampleengine.h **** 
 1910              		.loc 9 106 15 view .LVU443
 1911 000a D3ED003A 		vldr.32	s7, [r3]
 1912              	.LBE384:
 1913              	.LBE391:
 1914              	.LBE406:
 202:sampleengine.h ****     float startSample = startPoint;
 1915              		.loc 9 202 15 view .LVU444
 1916 000e 07EE900A 		vmov	s15, r0	@ int
 1917 0012 F8EE674A 		vcvt.f32.u32	s9, s15
 201:sampleengine.h ****     readIndex = startPoint;
 1918              		.loc 9 201 1 view .LVU445
 1919 0016 2DE9F043 		push	{r4, r5, r6, r7, r8, r9, lr}
 1920              		.cfi_def_cfa_offset 28
 1921              		.cfi_offset 4, -28
 1922              		.cfi_offset 5, -24
 1923              		.cfi_offset 6, -20
 1924              		.cfi_offset 7, -16
 1925              		.cfi_offset 8, -12
 1926              		.cfi_offset 9, -8
 1927              		.cfi_offset 14, -4
 1928 001a DFF8FC80 		ldr	r8, .L148+44
 202:sampleengine.h ****     float startSample = startPoint;
 1929              		.loc 9 202 15 view .LVU446
 1930 001e B0EE644A 		vmov.f32	s8, s9
 203:sampleengine.h ****     for (uint32_t i = 0; i < MAX_SPLICE_SIZE; i++)
 1931              		.loc 9 203 5 is_stmt 1 view .LVU447
 1932              	.LVL84:
ARM GAS  /var/folders/m5/x8wc2gdj7z5cpgcqdsb_gkj40000gn/T//ccPXNgbP.s 			page 56


 204:sampleengine.h ****     {
 1933              		.loc 9 204 5 view .LVU448
 1934              	.LBB407:
 204:sampleengine.h ****     {
 1935              		.loc 9 204 28 view .LVU449
 1936 0022 DFF8F8E0 		ldr	lr, .L148+48
 1937              	.LBB392:
 1938              	.LBB385:
 106:sampleengine.h **** 
 1939              		.loc 9 106 15 is_stmt 0 view .LVU450
 1940 0026 F0EE647A 		vmov.f32	s15, s9
 1941 002a 98ED005A 		vldr.32	s10, [r8]	@ int
 1942 002e 4FF00009 		mov	r9, #0
 1943 0032 DEF80030 		ldr	r3, [lr]
 1944 0036 2E4D     		ldr	r5, .L148+4
 1945 0038 2E4F     		ldr	r7, .L148+8
 1946 003a 2F4E     		ldr	r6, .L148+12
 1947              	.LVL85:
 1948              	.L134:
 106:sampleengine.h **** 
 1949              		.loc 9 106 15 view .LVU451
 1950              	.LBE385:
 1951              	.LBE392:
 206:sampleengine.h ****         AdvanceReadIndex();
 1952              		.loc 9 206 9 is_stmt 1 view .LVU452
 1953              	.LBB393:
 1954              	.LBI393:
 117:sampleengine.h **** {
 1955              		.loc 9 117 7 view .LVU453
 1956              	.LBB394:
 119:sampleengine.h **** 
 1957              		.loc 9 119 5 view .LVU454
 121:sampleengine.h **** 	readIndexFraction = readIndex - readIndexInt;
 1958              		.loc 9 121 5 view .LVU455
 121:sampleengine.h **** 	readIndexFraction = readIndex - readIndexInt;
 1959              		.loc 9 121 20 is_stmt 0 view .LVU456
 1960 003c BDEEE77A 		vcvt.s32.f32	s14, s15
 1961              	.LBE394:
 1962              	.LBE393:
 1963              	.LBB398:
 1964              	.LBB386:
 108:sampleengine.h ****     {
 1965              		.loc 9 108 18 view .LVU457
 1966 0040 B8EE456A 		vcvt.f32.u32	s12, s10
 1967              	.LBE386:
 1968              	.LBE398:
 1969              	.LBB399:
 1970              	.LBB395:
 121:sampleengine.h **** 	readIndexFraction = readIndex - readIndexInt;
 1971              		.loc 9 121 20 view .LVU458
 1972 0044 17EE104A 		vmov	r4, s14	@ int
 122:sampleengine.h **** 
 1973              		.loc 9 122 2 is_stmt 1 view .LVU459
 122:sampleengine.h **** 
 1974              		.loc 9 122 32 is_stmt 0 view .LVU460
 1975 0048 F8EE476A 		vcvt.f32.u32	s13, s14
 124:sampleengine.h **** 	b = recordingBuffer[readIndexInt + 1]; // next sample
ARM GAS  /var/folders/m5/x8wc2gdj7z5cpgcqdsb_gkj40000gn/T//ccPXNgbP.s 			page 57


 1976              		.loc 9 124 4 view .LVU461
 1977 004c 06EB8401 		add	r1, r6, r4, lsl #2
 122:sampleengine.h **** 
 1978              		.loc 9 122 32 view .LVU462
 1979 0050 77EEE66A 		vsub.f32	s13, s15, s13
 124:sampleengine.h **** 	b = recordingBuffer[readIndexInt + 1]; // next sample
 1980              		.loc 9 124 2 is_stmt 1 view .LVU463
 124:sampleengine.h **** 	b = recordingBuffer[readIndexInt + 1]; // next sample
 1981              		.loc 9 124 4 is_stmt 0 view .LVU464
 1982 0054 91ED007A 		vldr.32	s14, [r1]
 1983              	.LVL86:
 125:sampleengine.h **** 	out = a + (b - a) * readIndexFraction; // Linear Interpolation
 1984              		.loc 9 125 2 is_stmt 1 view .LVU465
 126:sampleengine.h **** 
 1985              		.loc 9 126 2 view .LVU466
 1986              	.LBE395:
 1987              	.LBE399:
 1988              	.LBB400:
 1989              	.LBB387:
 106:sampleengine.h **** 
 1990              		.loc 9 106 15 is_stmt 0 view .LVU467
 1991 0058 77EEA37A 		vadd.f32	s15, s15, s7
 1992              	.LBE387:
 1993              	.LBE400:
 1994              	.LBB401:
 1995              	.LBB396:
 126:sampleengine.h **** 
 1996              		.loc 9 126 15 view .LVU468
 1997 005c D1ED015A 		vldr.32	s11, [r1, #4]
 1998 0060 75EEC75A 		vsub.f32	s11, s11, s14
 1999              	.LBE396:
 2000              	.LBE401:
 2001              	.LBB402:
 2002              	.LBB388:
 108:sampleengine.h ****     {
 2003              		.loc 9 108 5 view .LVU469
 2004 0064 F4EEC67A 		vcmpe.f32	s15, s12
 2005              	.LBE388:
 2006              	.LBE402:
 2007              	.LBB403:
 2008              	.LBB397:
 126:sampleengine.h **** 
 2009              		.loc 9 126 6 view .LVU470
 2010 0068 A6EEA57A 		vfma.f32	s14, s13, s11
 2011              	.LVL87:
 128:sampleengine.h **** }
 2012              		.loc 9 128 5 is_stmt 1 view .LVU471
 128:sampleengine.h **** }
 2013              		.loc 9 128 5 is_stmt 0 view .LVU472
 2014              	.LBE397:
 2015              	.LBE403:
 2016              	.LBB404:
 2017              	.LBB389:
 108:sampleengine.h ****     {
 2018              		.loc 9 108 5 view .LVU473
 2019 006c F1EE10FA 		vmrs	APSR_nzcv, FPSCR
 2020              	.LBE389:
ARM GAS  /var/folders/m5/x8wc2gdj7z5cpgcqdsb_gkj40000gn/T//ccPXNgbP.s 			page 58


 2021              	.LBE404:
 206:sampleengine.h ****         AdvanceReadIndex();
 2022              		.loc 9 206 30 view .LVU474
 2023 0070 A5EC017A 		vstmia.32	r5!, {s14}
 207:sampleengine.h ****         if(readIndex == startSample)
 2024              		.loc 9 207 9 is_stmt 1 view .LVU475
 2025              	.LBB405:
 2026              	.LBI371:
 104:sampleengine.h **** {
 2027              		.loc 9 104 6 view .LVU476
 2028              	.LBB390:
 106:sampleengine.h **** 
 2029              		.loc 9 106 5 view .LVU477
 108:sampleengine.h ****     {
 2030              		.loc 9 108 5 view .LVU478
 2031 0074 1BDB     		blt	.L127
 2032 0076 2022     		movs	r2, #32
 2033 0078 2048     		ldr	r0, .L148+16
 2034 007a 01E0     		b	.L131
 2035              	.LVL88:
 2036              	.L147:
 2037              	.LBB373:
 2038              	.LBB374:
 2039              	.LBB375:
 2040              	.LBB376:
 2041              	.LBB377:
 247:sampleengine.h ****     {
 2042              		.loc 9 247 22 is_stmt 0 view .LVU479
 2043 007c 013A     		subs	r2, r2, #1
 2044              	.LVL89:
 247:sampleengine.h ****     {
 2045              		.loc 9 247 22 view .LVU480
 2046 007e 06D0     		beq	.L130
 2047              	.LVL90:
 2048              	.L131:
 249:sampleengine.h ****         if(nextKey >= numKeyPads)
 2049              		.loc 9 249 9 is_stmt 1 view .LVU481
 247:sampleengine.h ****     {
 2050              		.loc 9 247 5 view .LVU482
 249:sampleengine.h ****         if(nextKey >= numKeyPads)
 2051              		.loc 9 249 16 is_stmt 0 view .LVU483
 2052 0080 0133     		adds	r3, r3, #1
 2053              	.LVL91:
 250:sampleengine.h ****         {
 2054              		.loc 9 250 9 is_stmt 1 view .LVU484
 252:sampleengine.h ****         }
 2055              		.loc 9 252 21 is_stmt 0 view .LVU485
 2056 0082 202B     		cmp	r3, #32
 2057 0084 A8BF     		it	ge
 2058 0086 0023     		movge	r3, #0
 2059              	.LVL92:
 254:sampleengine.h ****         {
 2060              		.loc 9 254 9 is_stmt 1 view .LVU486
 247:sampleengine.h ****     {
 2061              		.loc 9 247 22 view .LVU487
 254:sampleengine.h ****         {
 2062              		.loc 9 254 9 is_stmt 0 view .LVU488
ARM GAS  /var/folders/m5/x8wc2gdj7z5cpgcqdsb_gkj40000gn/T//ccPXNgbP.s 			page 59


 2063 0088 C15C     		ldrb	r1, [r0, r3]	@ zero_extendqisi2
 2064 008a 0029     		cmp	r1, #0
 2065 008c F6D0     		beq	.L147
 2066              	.LVL93:
 2067              	.L130:
 254:sampleengine.h ****         {
 2068              		.loc 9 254 9 view .LVU489
 2069              	.LBE377:
 2070              		.loc 9 259 5 is_stmt 1 view .LVU490
 2071              		.loc 9 259 5 is_stmt 0 view .LVU491
 2072              	.LBE376:
 2073              	.LBE375:
 111:sampleengine.h ****         stopPoint = keyStopIndex[currentKey];
 2074              		.loc 9 111 9 is_stmt 1 view .LVU492
 111:sampleengine.h ****         stopPoint = keyStopIndex[currentKey];
 2075              		.loc 9 111 46 is_stmt 0 view .LVU493
 2076 008e 1C49     		ldr	r1, .L148+20
 2077              	.LBB378:
 2078              	.LBB379:
 102:sampleengine.h **** 
 2079              		.loc 9 102 1 view .LVU494
 2080 0090 4FF00109 		mov	r9, #1
 2081              	.LBE379:
 2082              	.LBE378:
 112:sampleengine.h ****         ResetReadIndex();
 2083              		.loc 9 112 44 view .LVU495
 2084 0094 1B4A     		ldr	r2, .L148+24
 111:sampleengine.h ****         stopPoint = keyStopIndex[currentKey];
 2085              		.loc 9 111 46 view .LVU496
 2086 0096 51F82300 		ldr	r0, [r1, r3, lsl #2]
 112:sampleengine.h ****         ResetReadIndex();
 2087              		.loc 9 112 9 is_stmt 1 view .LVU497
 112:sampleengine.h ****         ResetReadIndex();
 2088              		.loc 9 112 44 is_stmt 0 view .LVU498
 2089 009a 02EB8302 		add	r2, r2, r3, lsl #2
 2090              	.LBB382:
 2091              	.LBB380:
 101:sampleengine.h **** }
 2092              		.loc 9 101 15 view .LVU499
 2093 009e 07EE900A 		vmov	s15, r0	@ int
 2094              	.LBE380:
 2095              	.LBE382:
 112:sampleengine.h ****         ResetReadIndex();
 2096              		.loc 9 112 44 view .LVU500
 2097 00a2 92ED005A 		vldr.32	s10, [r2]	@ int
 113:sampleengine.h ****     }
 2098              		.loc 9 113 9 is_stmt 1 view .LVU501
 2099              	.LBB383:
 2100              	.LBI378:
  99:sampleengine.h **** {
 2101              		.loc 9 99 6 view .LVU502
 2102              	.LBB381:
 101:sampleengine.h **** }
 2103              		.loc 9 101 5 view .LVU503
 101:sampleengine.h **** }
 2104              		.loc 9 101 15 is_stmt 0 view .LVU504
 2105 00a6 F8EE674A 		vcvt.f32.u32	s9, s15
ARM GAS  /var/folders/m5/x8wc2gdj7z5cpgcqdsb_gkj40000gn/T//ccPXNgbP.s 			page 60


 2106 00aa F0EE647A 		vmov.f32	s15, s9
 2107              	.L127:
 2108              	.LBE381:
 2109              	.LBE383:
 2110              	.LBE374:
 2111              	.LBE373:
 2112              	.LBE390:
 2113              	.LBE405:
 208:sampleengine.h ****         {
 2114              		.loc 9 208 9 is_stmt 1 view .LVU505
 2115 00ae B4EE674A 		vcmp.f32	s8, s15
 2116 00b2 F1EE10FA 		vmrs	APSR_nzcv, FPSCR
 2117 00b6 01D0     		beq	.L146
 204:sampleengine.h ****     {
 2118              		.loc 9 204 5 discriminator 2 view .LVU506
 204:sampleengine.h ****     {
 2119              		.loc 9 204 28 discriminator 2 view .LVU507
 2120 00b8 BD42     		cmp	r5, r7
 2121 00ba BFD1     		bne	.L134
 2122              	.L146:
 2123 00bc 1249     		ldr	r1, .L148+28
 2124 00be 134A     		ldr	r2, .L148+32
 2125 00c0 0C60     		str	r4, [r1]
 2126 00c2 1349     		ldr	r1, .L148+36
 2127 00c4 C2ED007A 		vstr.32	s15, [r2]
 2128 00c8 C1ED006A 		vstr.32	s13, [r1]
 2129 00cc B9F1000F 		cmp	r9, #0
 2130 00d0 07D0     		beq	.L133
 2131              	.LBE407:
 213:sampleengine.h **** }
 2132              		.loc 9 213 15 is_stmt 0 view .LVU508
 2133 00d2 B0EE644A 		vmov.f32	s8, s9
 2134              	.LVL94:
 213:sampleengine.h **** }
 2135              		.loc 9 213 15 view .LVU509
 2136 00d6 88ED005A 		vstr.32	s10, [r8]	@ int
 2137 00da CEF80030 		str	r3, [lr]
 2138 00de CCF80000 		str	r0, [ip]
 2139              	.LVL95:
 2140              	.L133:
 213:sampleengine.h **** }
 2141              		.loc 9 213 5 is_stmt 1 view .LVU510
 213:sampleengine.h **** }
 2142              		.loc 9 213 15 is_stmt 0 view .LVU511
 2143 00e2 82ED004A 		vstr.32	s8, [r2]
 214:sampleengine.h **** 
 2144              		.loc 9 214 1 view .LVU512
 2145 00e6 BDE8F083 		pop	{r4, r5, r6, r7, r8, r9, pc}
 2146              	.L149:
 2147 00ea 00BF     		.align	2
 2148              	.L148:
 2149 00ec 00000000 		.word	.LANCHOR14
 2150 00f0 00000000 		.word	spliceBufferThree
 2151 00f4 00983A00 		.word	spliceBufferThree+3840000
 2152 00f8 00000000 		.word	recordingBuffer
 2153 00fc 00000000 		.word	.LANCHOR1
 2154 0100 00000000 		.word	.LANCHOR2
ARM GAS  /var/folders/m5/x8wc2gdj7z5cpgcqdsb_gkj40000gn/T//ccPXNgbP.s 			page 61


 2155 0104 00000000 		.word	.LANCHOR5
 2156 0108 00000000 		.word	.LANCHOR15
 2157 010c 00000000 		.word	.LANCHOR6
 2158 0110 00000000 		.word	.LANCHOR16
 2159 0114 00000000 		.word	.LANCHOR3
 2160 0118 00000000 		.word	.LANCHOR4
 2161 011c 00000000 		.word	.LANCHOR0
 2162              		.cfi_endproc
 2163              	.LFE4698:
 2165              		.section	.text._Z21StoreSpliceBufferFourv,"ax",%progbits
 2166              		.align	1
 2167              		.p2align 2,,3
 2168              		.global	_Z21StoreSpliceBufferFourv
 2169              		.syntax unified
 2170              		.thumb
 2171              		.thumb_func
 2173              	_Z21StoreSpliceBufferFourv:
 2174              	.LFB4699:
 217:sampleengine.h ****     readIndex = startPoint;
 2175              		.loc 9 217 1 is_stmt 1 view -0
 2176              		.cfi_startproc
 2177              		@ args = 0, pretend = 0, frame = 0
 2178              		@ frame_needed = 0, uses_anonymous_args = 0
 218:sampleengine.h ****     float startSample = startPoint;
 2179              		.loc 9 218 5 view .LVU514
 218:sampleengine.h ****     float startSample = startPoint;
 2180              		.loc 9 218 15 is_stmt 0 view .LVU515
 2181 0000 DFF810C1 		ldr	ip, .L172+40
 2182              	.LBB420:
 2183              	.LBB421:
 2184              	.LBB422:
 106:sampleengine.h **** 
 2185              		.loc 9 106 15 view .LVU516
 2186 0004 394B     		ldr	r3, .L172
 2187              	.LBE422:
 2188              	.LBE421:
 2189              	.LBE420:
 218:sampleengine.h ****     float startSample = startPoint;
 2190              		.loc 9 218 15 view .LVU517
 2191 0006 DCF80000 		ldr	r0, [ip]
 2192              	.LBB456:
 2193              	.LBB441:
 2194              	.LBB434:
 106:sampleengine.h **** 
 2195              		.loc 9 106 15 view .LVU518
 2196 000a D3ED003A 		vldr.32	s7, [r3]
 2197              	.LBE434:
 2198              	.LBE441:
 2199              	.LBE456:
 218:sampleengine.h ****     float startSample = startPoint;
 2200              		.loc 9 218 15 view .LVU519
 2201 000e 07EE900A 		vmov	s15, r0	@ int
 2202 0012 F8EE674A 		vcvt.f32.u32	s9, s15
 217:sampleengine.h ****     readIndex = startPoint;
 2203              		.loc 9 217 1 view .LVU520
 2204 0016 2DE9F043 		push	{r4, r5, r6, r7, r8, r9, lr}
 2205              		.cfi_def_cfa_offset 28
ARM GAS  /var/folders/m5/x8wc2gdj7z5cpgcqdsb_gkj40000gn/T//ccPXNgbP.s 			page 62


 2206              		.cfi_offset 4, -28
 2207              		.cfi_offset 5, -24
 2208              		.cfi_offset 6, -20
 2209              		.cfi_offset 7, -16
 2210              		.cfi_offset 8, -12
 2211              		.cfi_offset 9, -8
 2212              		.cfi_offset 14, -4
 2213 001a DFF8FC80 		ldr	r8, .L172+44
 218:sampleengine.h ****     float startSample = startPoint;
 2214              		.loc 9 218 15 view .LVU521
 2215 001e B0EE644A 		vmov.f32	s8, s9
 219:sampleengine.h ****     for (uint32_t i = 0; i < MAX_SPLICE_SIZE; i++)
 2216              		.loc 9 219 5 is_stmt 1 view .LVU522
 2217              	.LVL96:
 220:sampleengine.h ****     {
 2218              		.loc 9 220 5 view .LVU523
 2219              	.LBB457:
 220:sampleengine.h ****     {
 2220              		.loc 9 220 28 view .LVU524
 2221 0022 DFF8F8E0 		ldr	lr, .L172+48
 2222              	.LBB442:
 2223              	.LBB435:
 106:sampleengine.h **** 
 2224              		.loc 9 106 15 is_stmt 0 view .LVU525
 2225 0026 F0EE647A 		vmov.f32	s15, s9
 2226 002a 98ED005A 		vldr.32	s10, [r8]	@ int
 2227 002e 4FF00009 		mov	r9, #0
 2228 0032 DEF80030 		ldr	r3, [lr]
 2229 0036 2E4D     		ldr	r5, .L172+4
 2230 0038 2E4F     		ldr	r7, .L172+8
 2231 003a 2F4E     		ldr	r6, .L172+12
 2232              	.LVL97:
 2233              	.L158:
 106:sampleengine.h **** 
 2234              		.loc 9 106 15 view .LVU526
 2235              	.LBE435:
 2236              	.LBE442:
 222:sampleengine.h ****         AdvanceReadIndex();
 2237              		.loc 9 222 9 is_stmt 1 view .LVU527
 2238              	.LBB443:
 2239              	.LBI443:
 117:sampleengine.h **** {
 2240              		.loc 9 117 7 view .LVU528
 2241              	.LBB444:
 119:sampleengine.h **** 
 2242              		.loc 9 119 5 view .LVU529
 121:sampleengine.h **** 	readIndexFraction = readIndex - readIndexInt;
 2243              		.loc 9 121 5 view .LVU530
 121:sampleengine.h **** 	readIndexFraction = readIndex - readIndexInt;
 2244              		.loc 9 121 20 is_stmt 0 view .LVU531
 2245 003c BDEEE77A 		vcvt.s32.f32	s14, s15
 2246              	.LBE444:
 2247              	.LBE443:
 2248              	.LBB448:
 2249              	.LBB436:
 108:sampleengine.h ****     {
 2250              		.loc 9 108 18 view .LVU532
ARM GAS  /var/folders/m5/x8wc2gdj7z5cpgcqdsb_gkj40000gn/T//ccPXNgbP.s 			page 63


 2251 0040 B8EE456A 		vcvt.f32.u32	s12, s10
 2252              	.LBE436:
 2253              	.LBE448:
 2254              	.LBB449:
 2255              	.LBB445:
 121:sampleengine.h **** 	readIndexFraction = readIndex - readIndexInt;
 2256              		.loc 9 121 20 view .LVU533
 2257 0044 17EE104A 		vmov	r4, s14	@ int
 122:sampleengine.h **** 
 2258              		.loc 9 122 2 is_stmt 1 view .LVU534
 122:sampleengine.h **** 
 2259              		.loc 9 122 32 is_stmt 0 view .LVU535
 2260 0048 F8EE476A 		vcvt.f32.u32	s13, s14
 124:sampleengine.h **** 	b = recordingBuffer[readIndexInt + 1]; // next sample
 2261              		.loc 9 124 4 view .LVU536
 2262 004c 06EB8401 		add	r1, r6, r4, lsl #2
 122:sampleengine.h **** 
 2263              		.loc 9 122 32 view .LVU537
 2264 0050 77EEE66A 		vsub.f32	s13, s15, s13
 124:sampleengine.h **** 	b = recordingBuffer[readIndexInt + 1]; // next sample
 2265              		.loc 9 124 2 is_stmt 1 view .LVU538
 124:sampleengine.h **** 	b = recordingBuffer[readIndexInt + 1]; // next sample
 2266              		.loc 9 124 4 is_stmt 0 view .LVU539
 2267 0054 91ED007A 		vldr.32	s14, [r1]
 2268              	.LVL98:
 125:sampleengine.h **** 	out = a + (b - a) * readIndexFraction; // Linear Interpolation
 2269              		.loc 9 125 2 is_stmt 1 view .LVU540
 126:sampleengine.h **** 
 2270              		.loc 9 126 2 view .LVU541
 2271              	.LBE445:
 2272              	.LBE449:
 2273              	.LBB450:
 2274              	.LBB437:
 106:sampleengine.h **** 
 2275              		.loc 9 106 15 is_stmt 0 view .LVU542
 2276 0058 77EEA37A 		vadd.f32	s15, s15, s7
 2277              	.LBE437:
 2278              	.LBE450:
 2279              	.LBB451:
 2280              	.LBB446:
 126:sampleengine.h **** 
 2281              		.loc 9 126 15 view .LVU543
 2282 005c D1ED015A 		vldr.32	s11, [r1, #4]
 2283 0060 75EEC75A 		vsub.f32	s11, s11, s14
 2284              	.LBE446:
 2285              	.LBE451:
 2286              	.LBB452:
 2287              	.LBB438:
 108:sampleengine.h ****     {
 2288              		.loc 9 108 5 view .LVU544
 2289 0064 F4EEC67A 		vcmpe.f32	s15, s12
 2290              	.LBE438:
 2291              	.LBE452:
 2292              	.LBB453:
 2293              	.LBB447:
 126:sampleengine.h **** 
 2294              		.loc 9 126 6 view .LVU545
ARM GAS  /var/folders/m5/x8wc2gdj7z5cpgcqdsb_gkj40000gn/T//ccPXNgbP.s 			page 64


 2295 0068 A6EEA57A 		vfma.f32	s14, s13, s11
 2296              	.LVL99:
 128:sampleengine.h **** }
 2297              		.loc 9 128 5 is_stmt 1 view .LVU546
 128:sampleengine.h **** }
 2298              		.loc 9 128 5 is_stmt 0 view .LVU547
 2299              	.LBE447:
 2300              	.LBE453:
 2301              	.LBB454:
 2302              	.LBB439:
 108:sampleengine.h ****     {
 2303              		.loc 9 108 5 view .LVU548
 2304 006c F1EE10FA 		vmrs	APSR_nzcv, FPSCR
 2305              	.LBE439:
 2306              	.LBE454:
 222:sampleengine.h ****         AdvanceReadIndex();
 2307              		.loc 9 222 29 view .LVU549
 2308 0070 A5EC017A 		vstmia.32	r5!, {s14}
 223:sampleengine.h ****         if(readIndex == startSample)
 2309              		.loc 9 223 9 is_stmt 1 view .LVU550
 2310              	.LBB455:
 2311              	.LBI421:
 104:sampleengine.h **** {
 2312              		.loc 9 104 6 view .LVU551
 2313              	.LBB440:
 106:sampleengine.h **** 
 2314              		.loc 9 106 5 view .LVU552
 108:sampleengine.h ****     {
 2315              		.loc 9 108 5 view .LVU553
 2316 0074 1BDB     		blt	.L151
 2317 0076 2022     		movs	r2, #32
 2318 0078 2048     		ldr	r0, .L172+16
 2319 007a 01E0     		b	.L155
 2320              	.LVL100:
 2321              	.L171:
 2322              	.LBB423:
 2323              	.LBB424:
 2324              	.LBB425:
 2325              	.LBB426:
 2326              	.LBB427:
 247:sampleengine.h ****     {
 2327              		.loc 9 247 22 is_stmt 0 view .LVU554
 2328 007c 013A     		subs	r2, r2, #1
 2329              	.LVL101:
 247:sampleengine.h ****     {
 2330              		.loc 9 247 22 view .LVU555
 2331 007e 06D0     		beq	.L154
 2332              	.LVL102:
 2333              	.L155:
 249:sampleengine.h ****         if(nextKey >= numKeyPads)
 2334              		.loc 9 249 9 is_stmt 1 view .LVU556
 247:sampleengine.h ****     {
 2335              		.loc 9 247 5 view .LVU557
 249:sampleengine.h ****         if(nextKey >= numKeyPads)
 2336              		.loc 9 249 16 is_stmt 0 view .LVU558
 2337 0080 0133     		adds	r3, r3, #1
 2338              	.LVL103:
ARM GAS  /var/folders/m5/x8wc2gdj7z5cpgcqdsb_gkj40000gn/T//ccPXNgbP.s 			page 65


 250:sampleengine.h ****         {
 2339              		.loc 9 250 9 is_stmt 1 view .LVU559
 252:sampleengine.h ****         }
 2340              		.loc 9 252 21 is_stmt 0 view .LVU560
 2341 0082 202B     		cmp	r3, #32
 2342 0084 A8BF     		it	ge
 2343 0086 0023     		movge	r3, #0
 2344              	.LVL104:
 254:sampleengine.h ****         {
 2345              		.loc 9 254 9 is_stmt 1 view .LVU561
 247:sampleengine.h ****     {
 2346              		.loc 9 247 22 view .LVU562
 254:sampleengine.h ****         {
 2347              		.loc 9 254 9 is_stmt 0 view .LVU563
 2348 0088 C15C     		ldrb	r1, [r0, r3]	@ zero_extendqisi2
 2349 008a 0029     		cmp	r1, #0
 2350 008c F6D0     		beq	.L171
 2351              	.LVL105:
 2352              	.L154:
 254:sampleengine.h ****         {
 2353              		.loc 9 254 9 view .LVU564
 2354              	.LBE427:
 2355              		.loc 9 259 5 is_stmt 1 view .LVU565
 2356              		.loc 9 259 5 is_stmt 0 view .LVU566
 2357              	.LBE426:
 2358              	.LBE425:
 111:sampleengine.h ****         stopPoint = keyStopIndex[currentKey];
 2359              		.loc 9 111 9 is_stmt 1 view .LVU567
 111:sampleengine.h ****         stopPoint = keyStopIndex[currentKey];
 2360              		.loc 9 111 46 is_stmt 0 view .LVU568
 2361 008e 1C49     		ldr	r1, .L172+20
 2362              	.LBB428:
 2363              	.LBB429:
 102:sampleengine.h **** 
 2364              		.loc 9 102 1 view .LVU569
 2365 0090 4FF00109 		mov	r9, #1
 2366              	.LBE429:
 2367              	.LBE428:
 112:sampleengine.h ****         ResetReadIndex();
 2368              		.loc 9 112 44 view .LVU570
 2369 0094 1B4A     		ldr	r2, .L172+24
 111:sampleengine.h ****         stopPoint = keyStopIndex[currentKey];
 2370              		.loc 9 111 46 view .LVU571
 2371 0096 51F82300 		ldr	r0, [r1, r3, lsl #2]
 112:sampleengine.h ****         ResetReadIndex();
 2372              		.loc 9 112 9 is_stmt 1 view .LVU572
 112:sampleengine.h ****         ResetReadIndex();
 2373              		.loc 9 112 44 is_stmt 0 view .LVU573
 2374 009a 02EB8302 		add	r2, r2, r3, lsl #2
 2375              	.LBB432:
 2376              	.LBB430:
 101:sampleengine.h **** }
 2377              		.loc 9 101 15 view .LVU574
 2378 009e 07EE900A 		vmov	s15, r0	@ int
 2379              	.LBE430:
 2380              	.LBE432:
 112:sampleengine.h ****         ResetReadIndex();
ARM GAS  /var/folders/m5/x8wc2gdj7z5cpgcqdsb_gkj40000gn/T//ccPXNgbP.s 			page 66


 2381              		.loc 9 112 44 view .LVU575
 2382 00a2 92ED005A 		vldr.32	s10, [r2]	@ int
 113:sampleengine.h ****     }
 2383              		.loc 9 113 9 is_stmt 1 view .LVU576
 2384              	.LBB433:
 2385              	.LBI428:
  99:sampleengine.h **** {
 2386              		.loc 9 99 6 view .LVU577
 2387              	.LBB431:
 101:sampleengine.h **** }
 2388              		.loc 9 101 5 view .LVU578
 101:sampleengine.h **** }
 2389              		.loc 9 101 15 is_stmt 0 view .LVU579
 2390 00a6 F8EE674A 		vcvt.f32.u32	s9, s15
 2391 00aa F0EE647A 		vmov.f32	s15, s9
 2392              	.L151:
 2393              	.LBE431:
 2394              	.LBE433:
 2395              	.LBE424:
 2396              	.LBE423:
 2397              	.LBE440:
 2398              	.LBE455:
 224:sampleengine.h ****         {
 2399              		.loc 9 224 9 is_stmt 1 view .LVU580
 2400 00ae B4EE674A 		vcmp.f32	s8, s15
 2401 00b2 F1EE10FA 		vmrs	APSR_nzcv, FPSCR
 2402 00b6 01D0     		beq	.L170
 220:sampleengine.h ****     {
 2403              		.loc 9 220 5 discriminator 2 view .LVU581
 220:sampleengine.h ****     {
 2404              		.loc 9 220 28 discriminator 2 view .LVU582
 2405 00b8 BD42     		cmp	r5, r7
 2406 00ba BFD1     		bne	.L158
 2407              	.L170:
 2408 00bc 1249     		ldr	r1, .L172+28
 2409 00be 134A     		ldr	r2, .L172+32
 2410 00c0 0C60     		str	r4, [r1]
 2411 00c2 1349     		ldr	r1, .L172+36
 2412 00c4 C2ED007A 		vstr.32	s15, [r2]
 2413 00c8 C1ED006A 		vstr.32	s13, [r1]
 2414 00cc B9F1000F 		cmp	r9, #0
 2415 00d0 07D0     		beq	.L157
 2416              	.LBE457:
 229:sampleengine.h **** }
 2417              		.loc 9 229 15 is_stmt 0 view .LVU583
 2418 00d2 B0EE644A 		vmov.f32	s8, s9
 2419              	.LVL106:
 229:sampleengine.h **** }
 2420              		.loc 9 229 15 view .LVU584
 2421 00d6 88ED005A 		vstr.32	s10, [r8]	@ int
 2422 00da CEF80030 		str	r3, [lr]
 2423 00de CCF80000 		str	r0, [ip]
 2424              	.LVL107:
 2425              	.L157:
 229:sampleengine.h **** }
 2426              		.loc 9 229 5 is_stmt 1 view .LVU585
 229:sampleengine.h **** }
ARM GAS  /var/folders/m5/x8wc2gdj7z5cpgcqdsb_gkj40000gn/T//ccPXNgbP.s 			page 67


 2427              		.loc 9 229 15 is_stmt 0 view .LVU586
 2428 00e2 82ED004A 		vstr.32	s8, [r2]
 230:sampleengine.h **** 
 2429              		.loc 9 230 1 view .LVU587
 2430 00e6 BDE8F083 		pop	{r4, r5, r6, r7, r8, r9, pc}
 2431              	.L173:
 2432 00ea 00BF     		.align	2
 2433              	.L172:
 2434 00ec 00000000 		.word	.LANCHOR14
 2435 00f0 00000000 		.word	spliceBufferFour
 2436 00f4 00983A00 		.word	spliceBufferFour+3840000
 2437 00f8 00000000 		.word	recordingBuffer
 2438 00fc 00000000 		.word	.LANCHOR1
 2439 0100 00000000 		.word	.LANCHOR2
 2440 0104 00000000 		.word	.LANCHOR5
 2441 0108 00000000 		.word	.LANCHOR15
 2442 010c 00000000 		.word	.LANCHOR6
 2443 0110 00000000 		.word	.LANCHOR16
 2444 0114 00000000 		.word	.LANCHOR3
 2445 0118 00000000 		.word	.LANCHOR4
 2446 011c 00000000 		.word	.LANCHOR0
 2447              		.cfi_endproc
 2448              	.LFE4699:
 2450              		.section	.text._Z15AnyKeyIsPressedv,"ax",%progbits
 2451              		.align	1
 2452              		.p2align 2,,3
 2453              		.global	_Z15AnyKeyIsPressedv
 2454              		.syntax unified
 2455              		.thumb
 2456              		.thumb_func
 2458              	_Z15AnyKeyIsPressedv:
 2459              	.LFB4700:
 233:sampleengine.h ****     for(int i = 0; i < numKeyPads; i++)
 2460              		.loc 9 233 1 is_stmt 1 view -0
 2461              		.cfi_startproc
 2462              		@ args = 0, pretend = 0, frame = 0
 2463              		@ frame_needed = 0, uses_anonymous_args = 0
 2464              		@ link register save eliminated.
 234:sampleengine.h ****     {
 2465              		.loc 9 234 5 view .LVU589
 2466              	.LVL108:
 2467              	.LBB458:
 234:sampleengine.h ****     {
 2468              		.loc 9 234 22 view .LVU590
 2469 0000 054B     		ldr	r3, .L179
 2470 0002 03F12002 		add	r2, r3, #32
 2471 0006 01E0     		b	.L176
 2472              	.LVL109:
 2473              	.L178:
 234:sampleengine.h ****     {
 2474              		.loc 9 234 22 is_stmt 0 discriminator 2 view .LVU591
 2475 0008 9342     		cmp	r3, r2
 2476 000a 03D0     		beq	.L175
 2477              	.LVL110:
 2478              	.L176:
 236:sampleengine.h ****         {
 2479              		.loc 9 236 9 is_stmt 1 view .LVU592
ARM GAS  /var/folders/m5/x8wc2gdj7z5cpgcqdsb_gkj40000gn/T//ccPXNgbP.s 			page 68


 234:sampleengine.h ****     {
 2480              		.loc 9 234 5 view .LVU593
 236:sampleengine.h ****         {
 2481              		.loc 9 236 23 is_stmt 0 view .LVU594
 2482 000c 13F8010B 		ldrb	r0, [r3], #1	@ zero_extendqisi2
 2483              	.LVL111:
 234:sampleengine.h ****     {
 2484              		.loc 9 234 22 is_stmt 1 view .LVU595
 236:sampleengine.h ****         {
 2485              		.loc 9 236 9 is_stmt 0 view .LVU596
 2486 0010 0028     		cmp	r0, #0
 2487 0012 F9D0     		beq	.L178
 2488              	.L175:
 2489              	.LBE458:
 242:sampleengine.h **** 
 2490              		.loc 9 242 1 view .LVU597
 2491 0014 7047     		bx	lr
 2492              	.L180:
 2493 0016 00BF     		.align	2
 2494              	.L179:
 2495 0018 00000000 		.word	.LANCHOR1
 2496              		.cfi_endproc
 2497              	.LFE4700:
 2499              		.section	.text._Z18FindNextPressedKeyi,"ax",%progbits
 2500              		.align	1
 2501              		.p2align 2,,3
 2502              		.global	_Z18FindNextPressedKeyi
 2503              		.syntax unified
 2504              		.thumb
 2505              		.thumb_func
 2507              	_Z18FindNextPressedKeyi:
 2508              	.LVL112:
 2509              	.LFB4701:
 245:sampleengine.h ****     int nextKey = key;
 2510              		.loc 9 245 1 is_stmt 1 view -0
 2511              		.cfi_startproc
 2512              		@ args = 0, pretend = 0, frame = 0
 2513              		@ frame_needed = 0, uses_anonymous_args = 0
 2514              		@ link register save eliminated.
 246:sampleengine.h ****     for(int i = 0; i < numKeyPads; i++)
 2515              		.loc 9 246 5 view .LVU599
 245:sampleengine.h ****     int nextKey = key;
 2516              		.loc 9 245 1 is_stmt 0 view .LVU600
 2517 0000 2023     		movs	r3, #32
 2518 0002 0649     		ldr	r1, .L187
 2519              	.LVL113:
 247:sampleengine.h ****     {
 2520              		.loc 9 247 5 is_stmt 1 view .LVU601
 2521              	.LBB460:
 247:sampleengine.h ****     {
 2522              		.loc 9 247 22 view .LVU602
 2523 0004 01E0     		b	.L184
 2524              	.LVL114:
 2525              	.L186:
 247:sampleengine.h ****     {
 2526              		.loc 9 247 22 is_stmt 0 discriminator 2 view .LVU603
 2527 0006 013B     		subs	r3, r3, #1
ARM GAS  /var/folders/m5/x8wc2gdj7z5cpgcqdsb_gkj40000gn/T//ccPXNgbP.s 			page 69


 2528              	.LVL115:
 247:sampleengine.h ****     {
 2529              		.loc 9 247 22 discriminator 2 view .LVU604
 2530 0008 06D0     		beq	.L183
 2531              	.LVL116:
 2532              	.L184:
 249:sampleengine.h ****         if(nextKey >= numKeyPads)
 2533              		.loc 9 249 9 is_stmt 1 view .LVU605
 247:sampleengine.h ****     {
 2534              		.loc 9 247 5 view .LVU606
 249:sampleengine.h ****         if(nextKey >= numKeyPads)
 2535              		.loc 9 249 16 is_stmt 0 view .LVU607
 2536 000a 0130     		adds	r0, r0, #1
 2537              	.LVL117:
 250:sampleengine.h ****         {
 2538              		.loc 9 250 9 is_stmt 1 view .LVU608
 252:sampleengine.h ****         }
 2539              		.loc 9 252 21 is_stmt 0 view .LVU609
 2540 000c 2028     		cmp	r0, #32
 2541 000e A8BF     		it	ge
 2542 0010 0020     		movge	r0, #0
 2543              	.LVL118:
 254:sampleengine.h ****         {
 2544              		.loc 9 254 9 is_stmt 1 view .LVU610
 247:sampleengine.h ****     {
 2545              		.loc 9 247 22 view .LVU611
 254:sampleengine.h ****         {
 2546              		.loc 9 254 9 is_stmt 0 view .LVU612
 2547 0012 0A5C     		ldrb	r2, [r1, r0]	@ zero_extendqisi2
 2548 0014 002A     		cmp	r2, #0
 2549 0016 F6D0     		beq	.L186
 2550              	.LVL119:
 2551              	.L183:
 254:sampleengine.h ****         {
 2552              		.loc 9 254 9 view .LVU613
 2553              	.LBE460:
 2554              		.loc 9 259 5 is_stmt 1 view .LVU614
 260:sampleengine.h **** }
 2555              		.loc 9 260 1 is_stmt 0 view .LVU615
 2556 0018 7047     		bx	lr
 2557              	.L188:
 2558 001a 00BF     		.align	2
 2559              	.L187:
 2560 001c 00000000 		.word	.LANCHOR1
 2561              		.cfi_endproc
 2562              	.LFE4701:
 2564              		.section	.text._Z12SetKeyIndexsv,"ax",%progbits
 2565              		.align	1
 2566              		.p2align 2,,3
 2567              		.global	_Z12SetKeyIndexsv
 2568              		.syntax unified
 2569              		.thumb
 2570              		.thumb_func
 2572              	_Z12SetKeyIndexsv:
 2573              	.LFB4702:
 261:sampleengine.h **** 
 262:sampleengine.h **** void SetKeyIndexs()
ARM GAS  /var/folders/m5/x8wc2gdj7z5cpgcqdsb_gkj40000gn/T//ccPXNgbP.s 			page 70


 263:sampleengine.h **** {
 2574              		.loc 9 263 1 is_stmt 1 view -0
 2575              		.cfi_startproc
 2576              		@ args = 0, pretend = 0, frame = 0
 2577              		@ frame_needed = 0, uses_anonymous_args = 0
 2578              		@ link register save eliminated.
 264:sampleengine.h ****     float fraction;
 2579              		.loc 9 264 5 view .LVU617
 265:sampleengine.h ****     auto recordingLengthFloat = static_cast<float>(recordingLength);
 2580              		.loc 9 265 5 view .LVU618
 2581              		.loc 9 265 33 is_stmt 0 view .LVU619
 2582 0000 2648     		ldr	r0, .L198
 2583              	.LBB467:
 266:sampleengine.h ****     for(int i = 0; i < numKeyPads; i++)
 2584              		.loc 9 266 13 view .LVU620
 2585 0002 0023     		movs	r3, #0
 2586 0004 2649     		ldr	r1, .L198+4
 2587              	.LBE467:
 265:sampleengine.h ****     auto recordingLengthFloat = static_cast<float>(recordingLength);
 2588              		.loc 9 265 10 view .LVU621
 2589 0006 90ED006A 		vldr.32	s12, [r0]	@ int
 2590 000a 264A     		ldr	r2, .L198+8
 2591 000c B8EE466A 		vcvt.f32.u32	s12, s12
 2592              	.LVL120:
 2593              		.loc 9 266 5 is_stmt 1 view .LVU622
 2594              	.LBB468:
 2595              		.loc 9 266 22 view .LVU623
 2596 0010 DFED256A 		vldr.32	s13, .L198+12
 2597              	.LBE468:
 263:sampleengine.h ****     float fraction;
 2598              		.loc 9 263 1 is_stmt 0 view .LVU624
 2599 0014 10B4     		push	{r4}
 2600              		.cfi_def_cfa_offset 4
 2601              		.cfi_offset 4, -4
 2602              	.LVL121:
 2603              	.L190:
 2604              	.LBB469:
 267:sampleengine.h ****     {
 268:sampleengine.h ****         fraction = static_cast<float>(i) / static_cast<float>(numKeyPads);
 2605              		.loc 9 268 9 is_stmt 1 discriminator 2 view .LVU625
 269:sampleengine.h ****         keyStartIndex[i] = static_cast<uint32_t>((recordingLengthFloat * fraction) + 1.0f);
 2606              		.loc 9 269 9 discriminator 2 view .LVU626
 268:sampleengine.h ****         keyStartIndex[i] = static_cast<uint32_t>((recordingLengthFloat * fraction) + 1.0f);
 2607              		.loc 9 268 18 is_stmt 0 discriminator 2 view .LVU627
 2608 0016 DFED257A 		vldr.32	s15, .L198+16
 270:sampleengine.h ****         fraction = static_cast<float>(i + 1) / static_cast<float>(numKeyPads);
 2609              		.loc 9 270 41 discriminator 2 view .LVU628
 2610 001a 0133     		adds	r3, r3, #1
 2611              	.LVL122:
 269:sampleengine.h ****         keyStartIndex[i] = static_cast<uint32_t>((recordingLengthFloat * fraction) + 1.0f);
 2612              		.loc 9 269 84 discriminator 2 view .LVU629
 2613 001c B7EE007A 		vmov.f32	s14, #1.0e+0
 268:sampleengine.h ****         keyStartIndex[i] = static_cast<uint32_t>((recordingLengthFloat * fraction) + 1.0f);
 2614              		.loc 9 268 18 discriminator 2 view .LVU630
 2615 0020 66EEA75A 		vmul.f32	s11, s13, s15
 2616              		.loc 9 270 20 discriminator 2 view .LVU631
 2617 0024 06EE903A 		vmov	s13, r3	@ int
ARM GAS  /var/folders/m5/x8wc2gdj7z5cpgcqdsb_gkj40000gn/T//ccPXNgbP.s 			page 71


 266:sampleengine.h ****     {
 2618              		.loc 9 266 22 discriminator 2 view .LVU632
 2619 0028 202B     		cmp	r3, #32
 2620              		.loc 9 270 20 discriminator 2 view .LVU633
 2621 002a F8EEE66A 		vcvt.f32.s32	s13, s13
 269:sampleengine.h ****         fraction = static_cast<float>(i + 1) / static_cast<float>(numKeyPads);
 2622              		.loc 9 269 84 discriminator 2 view .LVU634
 2623 002e A6EE257A 		vfma.f32	s14, s12, s11
 2624              		.loc 9 270 18 discriminator 2 view .LVU635
 2625 0032 66EEA77A 		vmul.f32	s15, s13, s15
 271:sampleengine.h ****         keyStopIndex[i] = static_cast<uint32_t>(recordingLengthFloat * fraction);
 2626              		.loc 9 271 70 discriminator 2 view .LVU636
 2627 0036 67EE867A 		vmul.f32	s15, s15, s12
 269:sampleengine.h ****         fraction = static_cast<float>(i + 1) / static_cast<float>(numKeyPads);
 2628              		.loc 9 269 28 discriminator 2 view .LVU637
 2629 003a BCEEC77A 		vcvt.u32.f32	s14, s14
 2630              		.loc 9 271 27 discriminator 2 view .LVU638
 2631 003e FCEEE77A 		vcvt.u32.f32	s15, s15
 269:sampleengine.h ****         fraction = static_cast<float>(i + 1) / static_cast<float>(numKeyPads);
 2632              		.loc 9 269 28 discriminator 2 view .LVU639
 2633 0042 17EE100A 		vmov	r0, s14	@ int
 2634 0046 41F8040F 		str	r0, [r1, #4]!
 270:sampleengine.h ****         keyStopIndex[i] = static_cast<uint32_t>(recordingLengthFloat * fraction);
 2635              		.loc 9 270 9 is_stmt 1 discriminator 2 view .LVU640
 2636              	.LVL123:
 2637              		.loc 9 271 9 discriminator 2 view .LVU641
 2638              		.loc 9 271 27 is_stmt 0 discriminator 2 view .LVU642
 2639 004a 17EE900A 		vmov	r0, s15	@ int
 2640 004e 42F8040F 		str	r0, [r2, #4]!
 266:sampleengine.h ****     {
 2641              		.loc 9 266 5 is_stmt 1 discriminator 2 view .LVU643
 2642              	.LVL124:
 266:sampleengine.h ****     {
 2643              		.loc 9 266 22 discriminator 2 view .LVU644
 2644 0052 E0D1     		bne	.L190
 2645              	.LBE469:
 2646              	.LBB470:
 2647              	.LBB471:
 246:sampleengine.h ****     for(int i = 0; i < numKeyPads; i++)
 2648              		.loc 9 246 9 is_stmt 0 view .LVU645
 2649 0054 4FF0FF32 		mov	r2, #-1
 2650 0058 1548     		ldr	r0, .L198+20
 2651 005a 01E0     		b	.L193
 2652              	.LVL125:
 2653              	.L197:
 2654              	.LBB472:
 247:sampleengine.h ****     {
 2655              		.loc 9 247 22 view .LVU646
 2656 005c 013B     		subs	r3, r3, #1
 2657 005e 06D0     		beq	.L192
 2658              	.LVL126:
 2659              	.L193:
 249:sampleengine.h ****         if(nextKey >= numKeyPads)
 2660              		.loc 9 249 9 is_stmt 1 view .LVU647
 247:sampleengine.h ****     {
 2661              		.loc 9 247 5 view .LVU648
 249:sampleengine.h ****         if(nextKey >= numKeyPads)
ARM GAS  /var/folders/m5/x8wc2gdj7z5cpgcqdsb_gkj40000gn/T//ccPXNgbP.s 			page 72


 2662              		.loc 9 249 16 is_stmt 0 view .LVU649
 2663 0060 0132     		adds	r2, r2, #1
 2664              	.LVL127:
 250:sampleengine.h ****         {
 2665              		.loc 9 250 9 is_stmt 1 view .LVU650
 252:sampleengine.h ****         }
 2666              		.loc 9 252 21 is_stmt 0 view .LVU651
 2667 0062 202A     		cmp	r2, #32
 2668 0064 A8BF     		it	ge
 2669 0066 0022     		movge	r2, #0
 2670              	.LVL128:
 254:sampleengine.h ****         {
 2671              		.loc 9 254 9 is_stmt 1 view .LVU652
 247:sampleengine.h ****     {
 2672              		.loc 9 247 22 view .LVU653
 254:sampleengine.h ****         {
 2673              		.loc 9 254 9 is_stmt 0 view .LVU654
 2674 0068 815C     		ldrb	r1, [r0, r2]	@ zero_extendqisi2
 2675 006a 0029     		cmp	r1, #0
 2676 006c F6D0     		beq	.L197
 2677              	.L192:
 254:sampleengine.h ****         {
 2678              		.loc 9 254 9 view .LVU655
 2679              	.LBE472:
 259:sampleengine.h **** }
 2680              		.loc 9 259 5 is_stmt 1 view .LVU656
 2681              	.LVL129:
 259:sampleengine.h **** }
 2682              		.loc 9 259 5 is_stmt 0 view .LVU657
 2683              	.LBE471:
 2684              	.LBE470:
 272:sampleengine.h ****     }
 273:sampleengine.h ****     currentKey = FindNextPressedKey(-1);
 274:sampleengine.h ****     startPoint = keyStartIndex[currentKey];
 2685              		.loc 9 274 42 view .LVU658
 2686 006e 114B     		ldr	r3, .L198+24
 273:sampleengine.h ****     startPoint = keyStartIndex[currentKey];
 2687              		.loc 9 273 16 view .LVU659
 2688 0070 114C     		ldr	r4, .L198+28
 2689              		.loc 9 274 42 view .LVU660
 2690 0072 53F82230 		ldr	r3, [r3, r2, lsl #2]
 275:sampleengine.h ****     stopPoint = keyStopIndex[currentKey];
 2691              		.loc 9 275 40 view .LVU661
 2692 0076 1149     		ldr	r1, .L198+32
 2693              	.LBB473:
 2694              	.LBB474:
 101:sampleengine.h **** }
 2695              		.loc 9 101 15 view .LVU662
 2696 0078 07EE903A 		vmov	s15, r3	@ int
 2697              	.LBE474:
 2698              	.LBE473:
 274:sampleengine.h ****     stopPoint = keyStopIndex[currentKey];
 2699              		.loc 9 274 16 view .LVU663
 2700 007c 1048     		ldr	r0, .L198+36
 2701              		.loc 9 275 15 view .LVU664
 2702 007e 51F82210 		ldr	r1, [r1, r2, lsl #2]
 2703              	.LBB478:
ARM GAS  /var/folders/m5/x8wc2gdj7z5cpgcqdsb_gkj40000gn/T//ccPXNgbP.s 			page 73


 2704              	.LBB475:
 101:sampleengine.h **** }
 2705              		.loc 9 101 15 view .LVU665
 2706 0082 F8EE677A 		vcvt.f32.u32	s15, s15
 2707              	.LBE475:
 2708              	.LBE478:
 273:sampleengine.h ****     startPoint = keyStartIndex[currentKey];
 2709              		.loc 9 273 16 view .LVU666
 2710 0086 2260     		str	r2, [r4]
 274:sampleengine.h ****     stopPoint = keyStopIndex[currentKey];
 2711              		.loc 9 274 5 is_stmt 1 view .LVU667
 274:sampleengine.h ****     stopPoint = keyStopIndex[currentKey];
 2712              		.loc 9 274 16 is_stmt 0 view .LVU668
 2713 0088 0360     		str	r3, [r0]
 2714              		.loc 9 275 5 is_stmt 1 view .LVU669
 2715              		.loc 9 275 15 is_stmt 0 view .LVU670
 2716 008a 0E4A     		ldr	r2, .L198+40
 2717              	.LBB479:
 2718              	.LBB476:
 101:sampleengine.h **** }
 2719              		.loc 9 101 15 view .LVU671
 2720 008c 0E4B     		ldr	r3, .L198+44
 2721              	.LBE476:
 2722              	.LBE479:
 276:sampleengine.h ****     ResetReadIndex();
 277:sampleengine.h **** }
 2723              		.loc 9 277 1 view .LVU672
 2724 008e 5DF8044B 		ldr	r4, [sp], #4
 2725              		.cfi_restore 4
 2726              		.cfi_def_cfa_offset 0
 275:sampleengine.h ****     ResetReadIndex();
 2727              		.loc 9 275 15 view .LVU673
 2728 0092 1160     		str	r1, [r2]
 276:sampleengine.h ****     ResetReadIndex();
 2729              		.loc 9 276 5 is_stmt 1 view .LVU674
 2730              	.LBB480:
 2731              	.LBI473:
  99:sampleengine.h **** {
 2732              		.loc 9 99 6 view .LVU675
 2733              	.LBB477:
 101:sampleengine.h **** }
 2734              		.loc 9 101 5 view .LVU676
 101:sampleengine.h **** }
 2735              		.loc 9 101 15 is_stmt 0 view .LVU677
 2736 0094 C3ED007A 		vstr.32	s15, [r3]
 2737              	.LBE477:
 2738              	.LBE480:
 2739              		.loc 9 277 1 view .LVU678
 2740 0098 7047     		bx	lr
 2741              	.L199:
 2742 009a 00BF     		.align	2
 2743              	.L198:
 2744 009c 00000000 		.word	.LANCHOR18
 2745 00a0 FCFFFFFF 		.word	.LANCHOR2-4
 2746 00a4 FCFFFFFF 		.word	.LANCHOR5-4
 2747 00a8 00000000 		.word	0
 2748 00ac 0000003D 		.word	1023410176
ARM GAS  /var/folders/m5/x8wc2gdj7z5cpgcqdsb_gkj40000gn/T//ccPXNgbP.s 			page 74


 2749 00b0 00000000 		.word	.LANCHOR1
 2750 00b4 00000000 		.word	.LANCHOR2
 2751 00b8 00000000 		.word	.LANCHOR0
 2752 00bc 00000000 		.word	.LANCHOR5
 2753 00c0 00000000 		.word	.LANCHOR3
 2754 00c4 00000000 		.word	.LANCHOR4
 2755 00c8 00000000 		.word	.LANCHOR6
 2756              		.cfi_endproc
 2757              	.LFE4702:
 2759              		.section	.text._Z13GetStartPointv,"ax",%progbits
 2760              		.align	1
 2761              		.p2align 2,,3
 2762              		.global	_Z13GetStartPointv
 2763              		.syntax unified
 2764              		.thumb
 2765              		.thumb_func
 2767              	_Z13GetStartPointv:
 2768              	.LFB4703:
 278:sampleengine.h **** 
 279:sampleengine.h **** uint32_t GetStartPoint()
 280:sampleengine.h **** {
 2769              		.loc 9 280 1 is_stmt 1 view -0
 2770              		.cfi_startproc
 2771              		@ args = 0, pretend = 0, frame = 0
 2772              		@ frame_needed = 0, uses_anonymous_args = 0
 2773              		@ link register save eliminated.
 281:sampleengine.h ****     return keyStartIndex[1];
 2774              		.loc 9 281 5 view .LVU680
 2775              		.loc 9 281 27 is_stmt 0 view .LVU681
 2776 0000 014B     		ldr	r3, .L201
 282:sampleengine.h **** }
 2777              		.loc 9 282 1 view .LVU682
 2778 0002 5868     		ldr	r0, [r3, #4]
 2779 0004 7047     		bx	lr
 2780              	.L202:
 2781 0006 00BF     		.align	2
 2782              	.L201:
 2783 0008 00000000 		.word	.LANCHOR2
 2784              		.cfi_endproc
 2785              	.LFE4703:
 2787              		.section	.text._Z12GetStopPointv,"ax",%progbits
 2788              		.align	1
 2789              		.p2align 2,,3
 2790              		.global	_Z12GetStopPointv
 2791              		.syntax unified
 2792              		.thumb
 2793              		.thumb_func
 2795              	_Z12GetStopPointv:
 2796              	.LFB4704:
 283:sampleengine.h **** 
 284:sampleengine.h **** uint32_t GetStopPoint() // check if it works with just one stop point then change it
 285:sampleengine.h **** {
 2797              		.loc 9 285 1 is_stmt 1 view -0
 2798              		.cfi_startproc
 2799              		@ args = 0, pretend = 0, frame = 0
 2800              		@ frame_needed = 0, uses_anonymous_args = 0
 2801              		@ link register save eliminated.
ARM GAS  /var/folders/m5/x8wc2gdj7z5cpgcqdsb_gkj40000gn/T//ccPXNgbP.s 			page 75


 286:sampleengine.h ****     return keyStopIndex[1];
 2802              		.loc 9 286 5 view .LVU684
 2803              		.loc 9 286 26 is_stmt 0 view .LVU685
 2804 0000 014B     		ldr	r3, .L204
 287:sampleengine.h **** }
 2805              		.loc 9 287 1 view .LVU686
 2806 0002 5868     		ldr	r0, [r3, #4]
 2807 0004 7047     		bx	lr
 2808              	.L205:
 2809 0006 00BF     		.align	2
 2810              	.L204:
 2811 0008 00000000 		.word	.LANCHOR5
 2812              		.cfi_endproc
 2813              	.LFE4704:
 2815              		.section	.text._Z7InitLCDv,"ax",%progbits
 2816              		.align	1
 2817              		.p2align 2,,3
 2818              		.global	_Z7InitLCDv
 2819              		.syntax unified
 2820              		.thumb
 2821              		.thumb_func
 2823              	_Z7InitLCDv:
 2824              	.LFB4705:
 2825              		.file 11 "display.h"
   1:display.h     **** // ================================
   2:display.h     **** // COMPANY: Feni Design
   3:display.h     **** // AUTHOR: Dominic Frugoli
   4:display.h     **** // CREATE DATE: 10/04/2024
   5:display.h     **** // PROJECT: Fall 2024 Independent Project
   6:display.h     **** // HEADER FILE FOR USE WITH: "sardinia.cpp"
   7:display.h     **** // SPECIAL NOTES: Code is meant for Electrosmith Daisy microcontroller
   8:display.h     **** // ================================
   9:display.h     **** 
  10:display.h     **** 
  11:display.h     **** using namespace daisy;
  12:display.h     **** using namespace daisy::seed;
  13:display.h     **** 
  14:display.h     **** 
  15:display.h     **** 
  16:display.h     **** // |Pin Declarations|------------------------------------------------------------------------------
  17:display.h     **** 
  18:display.h     **** 
  19:display.h     **** #define PIN_LCD_RS D28 // LCD: pin 8
  20:display.h     **** #define PIN_LCD_EN D27 // LCD: pin 9
  21:display.h     **** #define PIN_LCD_D4 D26 // LCD: D4
  22:display.h     **** #define PIN_LCD_D5 D25 // LCD: D5
  23:display.h     **** #define PIN_LCD_D6 D24 // LCD: D6
  24:display.h     **** #define PIN_LCD_D7 D23 // LCD: D7
  25:display.h     **** 
  26:display.h     **** #define PLAY_MODE 0
  27:display.h     **** #define RECORD_MODE 1
  28:display.h     **** 
  29:display.h     **** 
  30:display.h     **** // |Mode Setup|------------------------------------------------------------------------------------
  31:display.h     **** 
  32:display.h     **** 
  33:display.h     **** enum Mode // Just add knobs before last NUM_ADC_CHANNELS as needed
ARM GAS  /var/folders/m5/x8wc2gdj7z5cpgcqdsb_gkj40000gn/T//ccPXNgbP.s 			page 76


  34:display.h     **** {
  35:display.h     **** 	record,
  36:display.h     **** 	play
  37:display.h     **** };
  38:display.h     **** 
  39:display.h     **** 
  40:display.h     **** // |Object Instantiations|-------------------------------------------------------------------------
  41:display.h     **** 
  42:display.h     **** 
  43:display.h     **** LcdHD44780 lcd;
  44:display.h     **** enum Mode mode = record;
  45:display.h     **** 
  46:display.h     **** 
  47:display.h     **** // |Function Declarations|-------------------------------------------------------------------------
  48:display.h     **** 
  49:display.h     **** 
  50:display.h     **** void InitLCD()
  51:display.h     **** {
 2826              		.loc 11 51 1 is_stmt 1 view -0
 2827              		.cfi_startproc
 2828              		@ args = 0, pretend = 0, frame = 16
 2829              		@ frame_needed = 0, uses_anonymous_args = 0
  52:display.h     ****     LcdHD44780::Config lcd_config;
 2830              		.loc 11 52 5 view .LVU688
  53:display.h     **** 	lcd_config.cursor_on = false;
 2831              		.loc 11 53 2 view .LVU689
  54:display.h     **** 	lcd_config.cursor_blink = false;
  55:display.h     **** 	lcd_config.rs = PIN_LCD_RS;
  56:display.h     **** 	lcd_config.en = PIN_LCD_EN;
 2832              		.loc 11 56 16 is_stmt 0 view .LVU690
 2833 0000 164A     		ldr	r2, .L208
  53:display.h     **** 	lcd_config.cursor_on = false;
 2834              		.loc 11 53 23 view .LVU691
 2835 0002 0023     		movs	r3, #0
  57:display.h     **** 	lcd_config.d4 = PIN_LCD_D4;
  58:display.h     **** 	lcd_config.d5 = PIN_LCD_D5;
  59:display.h     **** 	lcd_config.d6 = PIN_LCD_D6;
  60:display.h     **** 	lcd_config.d7 = PIN_LCD_D7;
  61:display.h     **** 	lcd.Init(lcd_config);
 2836              		.loc 11 61 10 view .LVU692
 2837 0004 1648     		ldr	r0, .L208+4
  56:display.h     **** 	lcd_config.d4 = PIN_LCD_D4;
 2838              		.loc 11 56 16 view .LVU693
 2839 0006 1188     		ldrh	r1, [r2]
  57:display.h     **** 	lcd_config.d4 = PIN_LCD_D4;
 2840              		.loc 11 57 16 view .LVU694
 2841 0008 B2F804C0 		ldrh	ip, [r2, #4]
  60:display.h     **** 	lcd.Init(lcd_config);
 2842              		.loc 11 60 16 view .LVU695
 2843 000c 0422     		movs	r2, #4
  51:display.h     ****     LcdHD44780::Config lcd_config;
 2844              		.loc 11 51 1 view .LVU696
 2845 000e 00B5     		push	{lr}
 2846              		.cfi_def_cfa_offset 4
 2847              		.cfi_offset 14, -4
 2848 0010 85B0     		sub	sp, sp, #20
 2849              		.cfi_def_cfa_offset 24
ARM GAS  /var/folders/m5/x8wc2gdj7z5cpgcqdsb_gkj40000gn/T//ccPXNgbP.s 			page 77


  55:display.h     **** 	lcd_config.en = PIN_LCD_EN;
 2850              		.loc 11 55 16 view .LVU697
 2851 0012 4FF0020E 		mov	lr, #2
  56:display.h     **** 	lcd_config.d4 = PIN_LCD_D4;
 2852              		.loc 11 56 16 view .LVU698
 2853 0016 ADF80410 		strh	r1, [sp, #4]	@ movhi
  59:display.h     **** 	lcd_config.d7 = PIN_LCD_D7;
 2854              		.loc 11 59 16 view .LVU699
 2855 001a 0121     		movs	r1, #1
  53:display.h     **** 	lcd_config.cursor_blink = false;
 2856              		.loc 11 53 23 view .LVU700
 2857 001c 8DF80030 		strb	r3, [sp]
  54:display.h     **** 	lcd_config.rs = PIN_LCD_RS;
 2858              		.loc 11 54 2 is_stmt 1 view .LVU701
  59:display.h     **** 	lcd_config.d7 = PIN_LCD_D7;
 2859              		.loc 11 59 16 is_stmt 0 view .LVU702
 2860 0020 8DF80B10 		strb	r1, [sp, #11]
 2861              		.loc 11 61 10 view .LVU703
 2862 0024 6946     		mov	r1, sp
  54:display.h     **** 	lcd_config.rs = PIN_LCD_RS;
 2863              		.loc 11 54 26 view .LVU704
 2864 0026 8DF80130 		strb	r3, [sp, #1]
  55:display.h     **** 	lcd_config.en = PIN_LCD_EN;
 2865              		.loc 11 55 2 is_stmt 1 view .LVU705
  55:display.h     **** 	lcd_config.en = PIN_LCD_EN;
 2866              		.loc 11 55 16 is_stmt 0 view .LVU706
 2867 002a 8DF80230 		strb	r3, [sp, #2]
 2868 002e 8DF803E0 		strb	lr, [sp, #3]
  56:display.h     **** 	lcd_config.d4 = PIN_LCD_D4;
 2869              		.loc 11 56 2 is_stmt 1 view .LVU707
  57:display.h     **** 	lcd_config.d5 = PIN_LCD_D5;
 2870              		.loc 11 57 2 view .LVU708
  57:display.h     **** 	lcd_config.d5 = PIN_LCD_D5;
 2871              		.loc 11 57 16 is_stmt 0 view .LVU709
 2872 0032 ADF806C0 		strh	ip, [sp, #6]	@ movhi
  58:display.h     **** 	lcd_config.d6 = PIN_LCD_D6;
 2873              		.loc 11 58 2 is_stmt 1 view .LVU710
  58:display.h     **** 	lcd_config.d6 = PIN_LCD_D6;
 2874              		.loc 11 58 16 is_stmt 0 view .LVU711
 2875 0036 8DF80830 		strb	r3, [sp, #8]
 2876 003a 8DF80930 		strb	r3, [sp, #9]
  59:display.h     **** 	lcd_config.d7 = PIN_LCD_D7;
 2877              		.loc 11 59 2 is_stmt 1 view .LVU712
  60:display.h     **** 	lcd.Init(lcd_config);
 2878              		.loc 11 60 2 view .LVU713
  59:display.h     **** 	lcd_config.d7 = PIN_LCD_D7;
 2879              		.loc 11 59 16 is_stmt 0 view .LVU714
 2880 003e 8DF80A30 		strb	r3, [sp, #10]
  60:display.h     **** 	lcd.Init(lcd_config);
 2881              		.loc 11 60 16 view .LVU715
 2882 0042 8DF80C30 		strb	r3, [sp, #12]
 2883 0046 8DF80D20 		strb	r2, [sp, #13]
 2884              		.loc 11 61 2 is_stmt 1 view .LVU716
 2885              		.loc 11 61 10 is_stmt 0 view .LVU717
 2886 004a FFF7FEFF 		bl	_ZN5daisy10LcdHD447804InitERKNS0_6ConfigE
 2887              	.LVL130:
  62:display.h     **** 	lcd.Clear();
ARM GAS  /var/folders/m5/x8wc2gdj7z5cpgcqdsb_gkj40000gn/T//ccPXNgbP.s 			page 78


 2888              		.loc 11 62 2 is_stmt 1 view .LVU718
 2889              		.loc 11 62 11 is_stmt 0 view .LVU719
 2890 004e 0448     		ldr	r0, .L208+4
 2891 0050 FFF7FEFF 		bl	_ZN5daisy10LcdHD447805ClearEv
 2892              	.LVL131:
  63:display.h     **** }
 2893              		.loc 11 63 1 view .LVU720
 2894 0054 05B0     		add	sp, sp, #20
 2895              		.cfi_def_cfa_offset 4
 2896              		@ sp needed
 2897 0056 5DF804FB 		ldr	pc, [sp], #4
 2898              	.L209:
 2899 005a 00BF     		.align	2
 2900              	.L208:
 2901 005c 00000000 		.word	.LANCHOR25
 2902 0060 00000000 		.word	.LANCHOR26
 2903              		.cfi_endproc
 2904              	.LFE4705:
 2906              		.section	.rodata._Z9PrintMenuv.str1.4,"aMS",%progbits,1
 2907              		.align	2
 2908              	.LC12:
 2909 0000 5265636F 		.ascii	"Record Mode     \000"
 2909      7264204D 
 2909      6F646520 
 2909      20202020 
 2909      00
 2910 0011 000000   		.align	2
 2911              	.LC13:
 2912 0014 506C6179 		.ascii	"Play Mode       \000"
 2912      204D6F64 
 2912      65202020 
 2912      20202020 
 2912      00
 2913              		.section	.text._Z9PrintMenuv,"ax",%progbits
 2914              		.align	1
 2915              		.p2align 2,,3
 2916              		.global	_Z9PrintMenuv
 2917              		.syntax unified
 2918              		.thumb
 2919              		.thumb_func
 2921              	_Z9PrintMenuv:
 2922              	.LFB4706:
  64:display.h     **** 
  65:display.h     **** void PrintMenu()
  66:display.h     **** {
 2923              		.loc 11 66 1 is_stmt 1 view -0
 2924              		.cfi_startproc
 2925              		@ args = 0, pretend = 0, frame = 0
 2926              		@ frame_needed = 0, uses_anonymous_args = 0
 2927              		@ link register save eliminated.
  67:display.h     **** 	if(mode == record)
 2928              		.loc 11 67 2 view .LVU722
 2929              		.loc 11 67 10 is_stmt 0 view .LVU723
 2930 0000 064B     		ldr	r3, .L215
 2931 0002 1B78     		ldrb	r3, [r3]	@ zero_extendqisi2
 2932              		.loc 11 67 2 view .LVU724
 2933 0004 13B1     		cbz	r3, .L213
ARM GAS  /var/folders/m5/x8wc2gdj7z5cpgcqdsb_gkj40000gn/T//ccPXNgbP.s 			page 79


  68:display.h     **** 	{
  69:display.h     **** 		lcd.Print("Record Mode     ");
  70:display.h     **** 	}
  71:display.h     **** 	else if(mode == play)
 2934              		.loc 11 71 7 is_stmt 1 view .LVU725
 2935 0006 012B     		cmp	r3, #1
 2936 0008 04D0     		beq	.L214
  72:display.h     **** 	{
  73:display.h     **** 		lcd.Print("Play Mode       ");
  74:display.h     **** 	}
  75:display.h     **** }
 2937              		.loc 11 75 1 is_stmt 0 view .LVU726
 2938 000a 7047     		bx	lr
 2939              	.L213:
  69:display.h     **** 	}
 2940              		.loc 11 69 3 is_stmt 1 view .LVU727
  69:display.h     **** 	}
 2941              		.loc 11 69 12 is_stmt 0 view .LVU728
 2942 000c 0449     		ldr	r1, .L215+4
 2943 000e 0548     		ldr	r0, .L215+8
 2944 0010 FFF7FEBF 		b	_ZN5daisy10LcdHD447805PrintEPKc
 2945              	.LVL132:
 2946              	.L214:
 2947              	.LBB483:
 2948              	.LBI483:
  65:display.h     **** {
 2949              		.loc 11 65 6 is_stmt 1 view .LVU729
 2950              	.LBB484:
  73:display.h     **** 	}
 2951              		.loc 11 73 3 view .LVU730
  73:display.h     **** 	}
 2952              		.loc 11 73 12 is_stmt 0 view .LVU731
 2953 0014 0449     		ldr	r1, .L215+12
 2954 0016 0348     		ldr	r0, .L215+8
 2955 0018 FFF7FEBF 		b	_ZN5daisy10LcdHD447805PrintEPKc
 2956              	.LVL133:
 2957              	.L216:
 2958              		.align	2
 2959              	.L215:
 2960 001c 00000000 		.word	.LANCHOR27
 2961 0020 00000000 		.word	.LC12
 2962 0024 00000000 		.word	.LANCHOR26
 2963 0028 14000000 		.word	.LC13
 2964              	.LBE484:
 2965              	.LBE483:
 2966              		.cfi_endproc
 2967              	.LFE4706:
 2969              		.section	.text._Z10UpdateMenui,"ax",%progbits
 2970              		.align	1
 2971              		.p2align 2,,3
 2972              		.global	_Z10UpdateMenui
 2973              		.syntax unified
 2974              		.thumb
 2975              		.thumb_func
 2977              	_Z10UpdateMenui:
 2978              	.LVL134:
 2979              	.LFB4707:
ARM GAS  /var/folders/m5/x8wc2gdj7z5cpgcqdsb_gkj40000gn/T//ccPXNgbP.s 			page 80


  76:display.h     **** 
  77:display.h     **** void UpdateMenu(int menuSelect)
  78:display.h     **** {
 2980              		.loc 11 78 1 is_stmt 1 view -0
 2981              		.cfi_startproc
 2982              		@ args = 0, pretend = 0, frame = 0
 2983              		@ frame_needed = 0, uses_anonymous_args = 0
 2984              		@ link register save eliminated.
  79:display.h     **** 	if(menuSelect == 0)
 2985              		.loc 11 79 2 view .LVU733
 2986 0000 10B1     		cbz	r0, .L220
  80:display.h     **** 	{
  81:display.h     **** 		mode = record;
  82:display.h     **** 	}
  83:display.h     **** 	else if(menuSelect == 1)
 2987              		.loc 11 83 7 view .LVU734
 2988 0002 0128     		cmp	r0, #1
 2989 0004 00D0     		beq	.L220
  84:display.h     **** 	{
  85:display.h     **** 		mode = play;
  86:display.h     **** 	}
  87:display.h     **** }
 2990              		.loc 11 87 1 is_stmt 0 view .LVU735
 2991 0006 7047     		bx	lr
 2992              	.L220:
  85:display.h     **** 	}
 2993              		.loc 11 85 3 is_stmt 1 view .LVU736
  85:display.h     **** 	}
 2994              		.loc 11 85 8 is_stmt 0 view .LVU737
 2995 0008 014B     		ldr	r3, .L221
 2996 000a 1870     		strb	r0, [r3]
 2997              		.loc 11 87 1 view .LVU738
 2998 000c 7047     		bx	lr
 2999              	.L222:
 3000 000e 00BF     		.align	2
 3001              	.L221:
 3002 0010 00000000 		.word	.LANCHOR27
 3003              		.cfi_endproc
 3004              	.LFE4707:
 3006              		.section	.text.startup.main,"ax",%progbits
 3007              		.align	1
 3008              		.p2align 2,,3
 3009              		.global	main
 3010              		.syntax unified
 3011              		.thumb
 3012              		.thumb_func
 3014              	main:
 3015              	.LFB4709:
 3016              		.file 12 "sardinia.cpp"
   1:sardinia.cpp  **** // ================================
   2:sardinia.cpp  **** // COMPANY: Feni Design
   3:sardinia.cpp  **** // AUTHOR: Dominic Frugoli
   4:sardinia.cpp  **** // CREATE DATE: 8/18/2024
   5:sardinia.cpp  **** // PROJECT: Fall 2024 Independent Project
   6:sardinia.cpp  **** // HEADER FILES NEEDED: "hardware.h"
   7:sardinia.cpp  **** // SPECIAL NOTES: Code is meant for Electrosmith Daisy microcontroller
   8:sardinia.cpp  **** // ================================
ARM GAS  /var/folders/m5/x8wc2gdj7z5cpgcqdsb_gkj40000gn/T//ccPXNgbP.s 			page 81


   9:sardinia.cpp  **** 
  10:sardinia.cpp  **** 
  11:sardinia.cpp  **** // |Includes and Namespaces|-----------------------------------------------------------------------
  12:sardinia.cpp  **** 
  13:sardinia.cpp  **** 
  14:sardinia.cpp  **** #include "daisy_seed.h"
  15:sardinia.cpp  **** #include "daisysp.h"
  16:sardinia.cpp  **** #include "hardware.h"
  17:sardinia.cpp  **** #include "sampleengine.h"
  18:sardinia.cpp  **** #include "display.h"
  19:sardinia.cpp  **** 
  20:sardinia.cpp  **** using namespace daisy;
  21:sardinia.cpp  **** using namespace daisy::seed;
  22:sardinia.cpp  **** using namespace daisysp;
  23:sardinia.cpp  **** 
  24:sardinia.cpp  **** 
  25:sardinia.cpp  **** // |Hardware Instantiations|-----------------------------------------------------------------------
  26:sardinia.cpp  **** 
  27:sardinia.cpp  **** 
  28:sardinia.cpp  **** DaisySeed hw;
  29:sardinia.cpp  **** 
  30:sardinia.cpp  **** 
  31:sardinia.cpp  **** // |Audio Objects + Variables|---------------------------------------------------------------------
  32:sardinia.cpp  **** 
  33:sardinia.cpp  **** 
  34:sardinia.cpp  **** float outputMix;
  35:sardinia.cpp  **** float sampleSig;
  36:sardinia.cpp  **** float inputSig;
  37:sardinia.cpp  **** float outputAmp = 0.5f;
  38:sardinia.cpp  **** 
  39:sardinia.cpp  **** float testValFloat = 0.0f;
  40:sardinia.cpp  **** int testValInt = 0;
  41:sardinia.cpp  **** 
  42:sardinia.cpp  **** void UpdateKeys();
  43:sardinia.cpp  **** void UpdateControlButtons();
  44:sardinia.cpp  **** void RecordControlButtonStates();
  45:sardinia.cpp  **** void ModeSelect();
  46:sardinia.cpp  **** 
  47:sardinia.cpp  **** 
  48:sardinia.cpp  **** // |Main Setup and Audio Callback|-----------------------------------------------------------------
  49:sardinia.cpp  **** 
  50:sardinia.cpp  **** 
  51:sardinia.cpp  **** void AudioCallback(AudioHandle::InputBuffer in, AudioHandle::OutputBuffer out, size_t size) 
  52:sardinia.cpp  **** {
  53:sardinia.cpp  **** 	ProcessControlsKR();
  54:sardinia.cpp  **** 
  55:sardinia.cpp  **** 	for (size_t i = 0; i < size; i++)
  56:sardinia.cpp  **** 	{
  57:sardinia.cpp  **** 		sampleSig = 0; // Reset signal values to 0 in case no sample is being played
  58:sardinia.cpp  **** 		outputMix = 0;
  59:sardinia.cpp  **** 
  60:sardinia.cpp  **** 		ProcessControlsAR();
  61:sardinia.cpp  **** 
  62:sardinia.cpp  **** 		inputSig = (in[0][i] + in[1][i]) * 0.5f; 
  63:sardinia.cpp  **** 		
  64:sardinia.cpp  **** 		if(isRecording)
  65:sardinia.cpp  **** 		{
ARM GAS  /var/folders/m5/x8wc2gdj7z5cpgcqdsb_gkj40000gn/T//ccPXNgbP.s 			page 82


  66:sardinia.cpp  **** 			RecordSample((inputSig)); // Record the input and increment the sample length tracker
  67:sardinia.cpp  **** 			lengthTrack++;
  68:sardinia.cpp  **** 		}
  69:sardinia.cpp  **** 
  70:sardinia.cpp  **** 		if(isPlaying && AnyKeyIsPressed() == false) // If no keys are pressed, play the full sample
  71:sardinia.cpp  **** 		{
  72:sardinia.cpp  **** 			sampleSig = FullSampleGetSample();
  73:sardinia.cpp  **** 		}
  74:sardinia.cpp  **** 		else if(isPlaying)
  75:sardinia.cpp  **** 		{
  76:sardinia.cpp  **** 			sampleSig = GetSample();
  77:sardinia.cpp  **** 			AdvanceReadIndex();
  78:sardinia.cpp  **** 			if(readIndex > recordingLength) // recordingLength dynamically changes the size of sample based 
  79:sardinia.cpp  **** 			{
  80:sardinia.cpp  **** 				readIndex = 0;
  81:sardinia.cpp  **** 			}
  82:sardinia.cpp  **** 		}
  83:sardinia.cpp  **** 		else if(SpliceBufferOneIsPlaying)
  84:sardinia.cpp  **** 		{
  85:sardinia.cpp  **** 			sampleSig = SpliceBufferOneGetSample();
  86:sardinia.cpp  **** 		}
  87:sardinia.cpp  **** 
  88:sardinia.cpp  **** 		
  89:sardinia.cpp  **** 		outputMix = inputSig + sampleSig; // Mix the sample playback with the input
  90:sardinia.cpp  **** 		outputMix *= outputAmp;
  91:sardinia.cpp  **** 
  92:sardinia.cpp  **** 		// Output the mixed signals
  93:sardinia.cpp  ****         out[0][i] = outputMix;
  94:sardinia.cpp  **** 		out[1][i] = outputMix;
  95:sardinia.cpp  **** 	}
  96:sardinia.cpp  **** }
  97:sardinia.cpp  **** 
  98:sardinia.cpp  **** int main(void)
  99:sardinia.cpp  **** {
 3017              		.loc 12 99 1 is_stmt 1 view -0
 3018              		.cfi_startproc
 3019              		@ Volatile: function does not return.
 3020              		@ args = 0, pretend = 0, frame = 0
 3021              		@ frame_needed = 0, uses_anonymous_args = 0
 100:sardinia.cpp  **** 	hw.Init();
 3022              		.loc 12 100 2 view .LVU740
  99:sardinia.cpp  **** 	hw.Init();
 3023              		.loc 12 99 1 is_stmt 0 view .LVU741
 3024 0000 08B5     		push	{r3, lr}
 3025              		.cfi_def_cfa_offset 8
 3026              		.cfi_offset 3, -8
 3027              		.cfi_offset 14, -4
 3028              		.loc 12 100 9 view .LVU742
 3029 0002 0021     		movs	r1, #0
 3030 0004 2748     		ldr	r0, .L229
 3031 0006 FFF7FEFF 		bl	_ZN5daisy9DaisySeed4InitEb
 3032              	.LVL135:
 101:sardinia.cpp  **** 	hw.SetAudioBlockSize(4); // number of samples handled per callback
 3033              		.loc 12 101 2 is_stmt 1 view .LVU743
 3034              		.loc 12 101 22 is_stmt 0 view .LVU744
 3035 000a 0421     		movs	r1, #4
 3036 000c 2548     		ldr	r0, .L229
ARM GAS  /var/folders/m5/x8wc2gdj7z5cpgcqdsb_gkj40000gn/T//ccPXNgbP.s 			page 83


 3037 000e FFF7FEFF 		bl	_ZN5daisy9DaisySeed17SetAudioBlockSizeEj
 3038              	.LVL136:
 102:sardinia.cpp  **** 	hw.SetAudioSampleRate(SaiHandle::Config::SampleRate::SAI_48KHZ);
 3039              		.loc 12 102 2 is_stmt 1 view .LVU745
 3040              		.loc 12 102 23 is_stmt 0 view .LVU746
 3041 0012 0321     		movs	r1, #3
 3042 0014 2348     		ldr	r0, .L229
 3043 0016 FFF7FEFF 		bl	_ZN5daisy9DaisySeed18SetAudioSampleRateENS_9SaiHandle6Config10SampleRateE
 3044              	.LVL137:
 103:sardinia.cpp  **** 	//float sampleRate = hw.AudioSampleRate();
 104:sardinia.cpp  **** 
 105:sardinia.cpp  **** 	InitLCD();
 3045              		.loc 12 105 2 is_stmt 1 view .LVU747
 3046 001a 234E     		ldr	r6, .L229+4
 3047              		.loc 12 105 9 is_stmt 0 view .LVU748
 3048 001c FFF7FEFF 		bl	_Z7InitLCDv
 3049              	.LVL138:
 106:sardinia.cpp  **** 	InitControls();
 3050              		.loc 12 106 2 is_stmt 1 view .LVU749
 3051 0020 224D     		ldr	r5, .L229+8
 3052              		.loc 12 106 14 is_stmt 0 view .LVU750
 3053 0022 FFF7FEFF 		bl	_Z12InitControlsv
 3054              	.LVL139:
 107:sardinia.cpp  **** 	hw.adc.Init(adcConfig, NUM_ADC_CHANNELS); //initializes adc system using the config and number of 
 3055              		.loc 12 107 2 is_stmt 1 view .LVU751
 3056              		.loc 12 107 13 is_stmt 0 view .LVU752
 3057 0026 0423     		movs	r3, #4
 3058 0028 0622     		movs	r2, #6
 3059 002a 2149     		ldr	r1, .L229+12
 3060 002c 2148     		ldr	r0, .L229+16
 3061 002e FFF7FEFF 		bl	_ZN5daisy9AdcHandle4InitEPNS_16AdcChannelConfigEjNS0_12OverSamplingE
 3062              	.LVL140:
 108:sardinia.cpp  **** 	hw.adc.Start();
 3063              		.loc 12 108 2 is_stmt 1 view .LVU753
 3064              		.loc 12 108 14 is_stmt 0 view .LVU754
 3065 0032 2048     		ldr	r0, .L229+16
 3066 0034 FFF7FEFF 		bl	_ZN5daisy9AdcHandle5StartEv
 3067              	.LVL141:
 109:sardinia.cpp  **** 	
 110:sardinia.cpp  **** 	InitBuffer(); // Initialize buffer to all 0s
 3068              		.loc 12 110 2 is_stmt 1 view .LVU755
 3069 0038 1F4C     		ldr	r4, .L229+20
 3070              		.loc 12 110 12 is_stmt 0 view .LVU756
 3071 003a FFF7FEFF 		bl	_Z10InitBufferv
 3072              	.LVL142:
 111:sardinia.cpp  **** 
 112:sardinia.cpp  **** 	//hw.StartLog(true); // Use for serial testing. COMMENT OUT WHEN NOT USING!!
 113:sardinia.cpp  **** 
 114:sardinia.cpp  **** 	hw.StartAudio(AudioCallback);
 3073              		.loc 12 114 2 is_stmt 1 view .LVU757
 3074              		.loc 12 114 15 is_stmt 0 view .LVU758
 3075 003e 1F49     		ldr	r1, .L229+24
 3076 0040 1848     		ldr	r0, .L229
 3077 0042 FFF7FEFF 		bl	_ZN5daisy9DaisySeed10StartAudioEPFvPKPKfPPfjE
 3078              	.LVL143:
 3079 0046 1BE0     		b	.L226
 3080              	.L224:
ARM GAS  /var/folders/m5/x8wc2gdj7z5cpgcqdsb_gkj40000gn/T//ccPXNgbP.s 			page 84


 3081              	.LBB489:
 3082              	.LBB490:
  71:display.h     **** 	{
 3083              		.loc 11 71 7 view .LVU759
 3084 0048 012B     		cmp	r3, #1
 3085 004a 26D0     		beq	.L228
 3086              	.L225:
 3087              	.LBE490:
 3088              	.LBE489:
 115:sardinia.cpp  **** 
 116:sardinia.cpp  **** 	while(1)
 117:sardinia.cpp  **** 	{
 118:sardinia.cpp  **** 		
 119:sardinia.cpp  **** 		lcd.SetCursor(0, 0);
 120:sardinia.cpp  **** 		PrintMenu();
 121:sardinia.cpp  **** 		lcd.SetCursor(1, 0);
 3089              		.loc 12 121 3 is_stmt 1 view .LVU760
 3090              		.loc 12 121 16 is_stmt 0 view .LVU761
 3091 004c 0022     		movs	r2, #0
 3092 004e 0121     		movs	r1, #1
 3093 0050 1B48     		ldr	r0, .L229+28
 3094 0052 FFF7FEFF 		bl	_ZN5daisy10LcdHD447809SetCursorEhh
 3095              	.LVL144:
 122:sardinia.cpp  **** 		lcd.PrintInt(testValFloat);
 3096              		.loc 12 122 3 is_stmt 1 view .LVU762
 3097              		.loc 12 122 15 is_stmt 0 view .LVU763
 3098 0056 D5ED007A 		vldr.32	s15, [r5]
 3099 005a 1948     		ldr	r0, .L229+28
 3100 005c FDEEE77A 		vcvt.s32.f32	s15, s15
 3101 0060 17EE901A 		vmov	r1, s15	@ int
 3102 0064 FFF7FEFF 		bl	_ZN5daisy10LcdHD447808PrintIntEi
 3103              	.LVL145:
 123:sardinia.cpp  **** 		lcd.SetCursor(1, 8);
 3104              		.loc 12 123 3 is_stmt 1 view .LVU764
 3105              		.loc 12 123 16 is_stmt 0 view .LVU765
 3106 0068 0822     		movs	r2, #8
 3107 006a 0121     		movs	r1, #1
 3108 006c 1448     		ldr	r0, .L229+28
 3109 006e FFF7FEFF 		bl	_ZN5daisy10LcdHD447809SetCursorEhh
 3110              	.LVL146:
 124:sardinia.cpp  **** 		lcd.PrintInt(testValInt);
 3111              		.loc 12 124 3 is_stmt 1 view .LVU766
 3112              		.loc 12 124 15 is_stmt 0 view .LVU767
 3113 0072 1348     		ldr	r0, .L229+28
 3114 0074 2168     		ldr	r1, [r4]
 3115 0076 FFF7FEFF 		bl	_ZN5daisy10LcdHD447808PrintIntEi
 3116              	.LVL147:
 125:sardinia.cpp  **** 		
 126:sardinia.cpp  **** 
 127:sardinia.cpp  **** 
 128:sardinia.cpp  **** 
 129:sardinia.cpp  **** 		//hw.PrintLine("Print a float value: %f", recordingLength);
 130:sardinia.cpp  **** 
 131:sardinia.cpp  **** 		System::Delay(50);
 3117              		.loc 12 131 3 is_stmt 1 view .LVU768
 3118              		.loc 12 131 16 is_stmt 0 view .LVU769
 3119 007a 3220     		movs	r0, #50
ARM GAS  /var/folders/m5/x8wc2gdj7z5cpgcqdsb_gkj40000gn/T//ccPXNgbP.s 			page 85


 3120 007c FFF7FEFF 		bl	_ZN5daisy6System5DelayEm
 3121              	.LVL148:
 116:sardinia.cpp  **** 	{
 3122              		.loc 12 116 2 is_stmt 1 view .LVU770
 3123              	.L226:
 116:sardinia.cpp  **** 	{
 3124              		.loc 12 116 2 discriminator 1 view .LVU771
 119:sardinia.cpp  **** 		PrintMenu();
 3125              		.loc 12 119 3 discriminator 1 view .LVU772
 119:sardinia.cpp  **** 		PrintMenu();
 3126              		.loc 12 119 16 is_stmt 0 discriminator 1 view .LVU773
 3127 0080 0022     		movs	r2, #0
 3128 0082 0F48     		ldr	r0, .L229+28
 3129 0084 1146     		mov	r1, r2
 3130 0086 FFF7FEFF 		bl	_ZN5daisy10LcdHD447809SetCursorEhh
 3131              	.LVL149:
 120:sardinia.cpp  **** 		lcd.SetCursor(1, 0);
 3132              		.loc 12 120 3 is_stmt 1 discriminator 1 view .LVU774
 3133              	.LBB494:
 3134              	.LBI489:
  65:display.h     **** {
 3135              		.loc 11 65 6 discriminator 1 view .LVU775
 3136              	.LBB493:
  67:display.h     **** 	{
 3137              		.loc 11 67 2 discriminator 1 view .LVU776
  71:display.h     **** 	{
 3138              		.loc 11 71 7 discriminator 1 view .LVU777
  67:display.h     **** 	{
 3139              		.loc 11 67 10 is_stmt 0 discriminator 1 view .LVU778
 3140 008a 3378     		ldrb	r3, [r6]	@ zero_extendqisi2
  67:display.h     **** 	{
 3141              		.loc 11 67 2 discriminator 1 view .LVU779
 3142 008c 002B     		cmp	r3, #0
 3143 008e DBD1     		bne	.L224
  69:display.h     **** 	}
 3144              		.loc 11 69 3 is_stmt 1 view .LVU780
  69:display.h     **** 	}
 3145              		.loc 11 69 12 is_stmt 0 view .LVU781
 3146 0090 0C49     		ldr	r1, .L229+32
 3147 0092 0B48     		ldr	r0, .L229+28
 3148 0094 FFF7FEFF 		bl	_ZN5daisy10LcdHD447805PrintEPKc
 3149              	.LVL150:
 3150 0098 D8E7     		b	.L225
 3151              	.L228:
 3152              	.LBB491:
 3153              	.LBI491:
  65:display.h     **** {
 3154              		.loc 11 65 6 is_stmt 1 view .LVU782
 3155              	.LBB492:
  73:display.h     **** 	}
 3156              		.loc 11 73 3 view .LVU783
  73:display.h     **** 	}
 3157              		.loc 11 73 12 is_stmt 0 view .LVU784
 3158 009a 0B49     		ldr	r1, .L229+36
 3159 009c 0848     		ldr	r0, .L229+28
 3160 009e FFF7FEFF 		bl	_ZN5daisy10LcdHD447805PrintEPKc
 3161              	.LVL151:
ARM GAS  /var/folders/m5/x8wc2gdj7z5cpgcqdsb_gkj40000gn/T//ccPXNgbP.s 			page 86


  75:display.h     **** 
 3162              		.loc 11 75 1 view .LVU785
 3163 00a2 D3E7     		b	.L225
 3164              	.L230:
 3165              		.align	2
 3166              	.L229:
 3167 00a4 00000000 		.word	.LANCHOR28
 3168 00a8 00000000 		.word	.LANCHOR27
 3169 00ac 00000000 		.word	.LANCHOR29
 3170 00b0 00000000 		.word	.LANCHOR7
 3171 00b4 18000000 		.word	.LANCHOR28+24
 3172 00b8 00000000 		.word	.LANCHOR30
 3173 00bc 00000000 		.word	_Z13AudioCallbackPKPKfPPfj
 3174 00c0 00000000 		.word	.LANCHOR26
 3175 00c4 00000000 		.word	.LC12
 3176 00c8 14000000 		.word	.LC13
 3177              	.LBE492:
 3178              	.LBE491:
 3179              	.LBE493:
 3180              	.LBE494:
 3181              		.cfi_endproc
 3182              	.LFE4709:
 3184              		.section	.text._Z17ProcessControlsARv,"ax",%progbits
 3185              		.align	1
 3186              		.p2align 2,,3
 3187              		.global	_Z17ProcessControlsARv
 3188              		.syntax unified
 3189              		.thumb
 3190              		.thumb_func
 3192              	_Z17ProcessControlsARv:
 3193              	.LFB4711:
 132:sardinia.cpp  **** 	}
 133:sardinia.cpp  **** }
 134:sardinia.cpp  **** 
 135:sardinia.cpp  **** 
 136:sardinia.cpp  **** // |Offboard Control Functions|--------------------------------------------------------------------
 137:sardinia.cpp  **** 
 138:sardinia.cpp  **** 
 139:sardinia.cpp  **** void ProcessControlsKR() // For controls that only need to be processed every audio block
 140:sardinia.cpp  **** {
 141:sardinia.cpp  **** 	UpdateKeys();	
 142:sardinia.cpp  **** 
 143:sardinia.cpp  **** 
 144:sardinia.cpp  **** 	outputAmp = fmap(hw.adc.GetMuxFloat(0, 0), 0, 2, Mapping::LINEAR); // bottom far left
 145:sardinia.cpp  **** 	testValFloat = outputAmp * 10;
 146:sardinia.cpp  **** 	readFactor = fmap(hw.adc.GetMuxFloat(0, 1), 0.5, 2, Mapping::EXP); // top far left
 147:sardinia.cpp  **** }
 148:sardinia.cpp  **** 
 149:sardinia.cpp  **** void ProcessControlsAR() // For controls that need to process every sample
 150:sardinia.cpp  **** {
 3194              		.loc 12 150 1 is_stmt 1 view -0
 3195              		.cfi_startproc
 3196              		@ args = 0, pretend = 0, frame = 0
 3197              		@ frame_needed = 0, uses_anonymous_args = 0
 151:sardinia.cpp  **** 	// All control keys must be updated at same clock cycle 
 152:sardinia.cpp  **** 	// So all control key functions must be done at audio rate
 153:sardinia.cpp  **** 	UpdateControlButtons(); 
ARM GAS  /var/folders/m5/x8wc2gdj7z5cpgcqdsb_gkj40000gn/T//ccPXNgbP.s 			page 87


 3198              		.loc 12 153 2 view .LVU787
 3199              	.LBB537:
 3200              	.LBI537:
 154:sardinia.cpp  **** 	ModeSelect();
 155:sardinia.cpp  **** 
 156:sardinia.cpp  **** 
 157:sardinia.cpp  **** 	if(RisingEdge_ControlButtons(0)) // Starts the sample from the beginning when pressed
 158:sardinia.cpp  **** 	{
 159:sardinia.cpp  **** 		if(isPlaying == false)
 160:sardinia.cpp  **** 		{
 161:sardinia.cpp  **** 			fullSampleReadIndex = 0;
 162:sardinia.cpp  **** 			isPlaying = true;
 163:sardinia.cpp  **** 			playButtonOverrule = true;
 164:sardinia.cpp  **** 		}
 165:sardinia.cpp  **** 		else
 166:sardinia.cpp  **** 		{
 167:sardinia.cpp  **** 			isPlaying = false;
 168:sardinia.cpp  **** 			playButtonOverrule = false;
 169:sardinia.cpp  **** 		}
 170:sardinia.cpp  **** 	}
 171:sardinia.cpp  **** 	else if(fullSampleReadIndex== 0 && !controlButtonStates[0]) // Stops the sample when let go
 172:sardinia.cpp  **** 	{
 173:sardinia.cpp  **** 		isPlaying = false;
 174:sardinia.cpp  **** 		playButtonOverrule = false;
 175:sardinia.cpp  **** 	}
 176:sardinia.cpp  **** 
 177:sardinia.cpp  **** 	if(playButtonOverrule == false)
 178:sardinia.cpp  **** 	{
 179:sardinia.cpp  **** 		if(AnyKeyIsPressed())
 180:sardinia.cpp  **** 		{
 181:sardinia.cpp  **** 			isPlaying = true;
 182:sardinia.cpp  **** 		}
 183:sardinia.cpp  **** 		else
 184:sardinia.cpp  **** 		{
 185:sardinia.cpp  **** 			isPlaying = false;
 186:sardinia.cpp  **** 		}
 187:sardinia.cpp  **** 	}
 188:sardinia.cpp  **** 
 189:sardinia.cpp  **** 	if(RisingEdge_ControlButtons(2))
 190:sardinia.cpp  **** 	{
 191:sardinia.cpp  **** 		SpliceBufferOneIsPlaying = true;
 192:sardinia.cpp  **** 	}
 193:sardinia.cpp  **** 	else if(spliceBufferOneReadIndex == 0 && !controlButtonStates[2])
 194:sardinia.cpp  **** 	{
 195:sardinia.cpp  **** 		SpliceBufferOneIsPlaying = false;
 196:sardinia.cpp  **** 	}
 197:sardinia.cpp  **** 
 198:sardinia.cpp  **** 
 199:sardinia.cpp  **** 	if(RisingEdge_ControlButtons(1)) // Starts recording from start on press and resets the length tra
 200:sardinia.cpp  **** 	{
 201:sardinia.cpp  **** 		isRecording = true;
 202:sardinia.cpp  **** 		testValInt = 1;
 203:sardinia.cpp  **** 		lengthTrack = 0;
 204:sardinia.cpp  **** 	}
 205:sardinia.cpp  **** 	else if(FallingEdge_ControlButtons(1)) // Stops recording when let go, resets write index, and ass
 206:sardinia.cpp  **** 	{
 207:sardinia.cpp  **** 		isRecording = false;
ARM GAS  /var/folders/m5/x8wc2gdj7z5cpgcqdsb_gkj40000gn/T//ccPXNgbP.s 			page 88


 208:sardinia.cpp  **** 		writeIndex = 0;
 209:sardinia.cpp  **** 		recordingLength = lengthTrack;
 210:sardinia.cpp  **** 		testValInt = recordingLength;
 211:sardinia.cpp  **** 		SetKeyIndexs();
 212:sardinia.cpp  **** 	}
 213:sardinia.cpp  **** 
 214:sardinia.cpp  **** 	if(RisingEdge_ControlButtons(4))
 215:sardinia.cpp  **** 	{
 216:sardinia.cpp  **** 		StoreSpliceBufferOne();
 217:sardinia.cpp  **** 	}
 218:sardinia.cpp  **** 	if(RisingEdge_ControlButtons(5))
 219:sardinia.cpp  **** 	{
 220:sardinia.cpp  **** 		StoreSpliceBufferTwo();
 221:sardinia.cpp  **** 	}
 222:sardinia.cpp  **** 	if(RisingEdge_ControlButtons(6))
 223:sardinia.cpp  **** 	{
 224:sardinia.cpp  **** 		StoreSpliceBufferThree();
 225:sardinia.cpp  **** 	}
 226:sardinia.cpp  **** 	if(RisingEdge_ControlButtons(7))
 227:sardinia.cpp  **** 	{
 228:sardinia.cpp  **** 		StoreSpliceBufferFour();
 229:sardinia.cpp  **** 	}
 230:sardinia.cpp  **** 
 231:sardinia.cpp  **** 	RecordControlButtonStates();
 232:sardinia.cpp  **** }
 233:sardinia.cpp  **** 
 234:sardinia.cpp  **** void UpdateKeys()
 235:sardinia.cpp  **** {
 236:sardinia.cpp  **** 	for(int i = 0; i < 8; i++)
 237:sardinia.cpp  **** 	{
 238:sardinia.cpp  **** 		keyStates[i] = hw.adc.GetMuxFloat(1, i) < 0.5f;
 239:sardinia.cpp  **** 	}
 240:sardinia.cpp  **** 	for(int i = 8; i < 16; i++)
 241:sardinia.cpp  **** 	{
 242:sardinia.cpp  **** 		keyStates[i] = hw.adc.GetMuxFloat(2, i - 8) < 0.5f;
 243:sardinia.cpp  **** 	}
 244:sardinia.cpp  **** 	for(int i = 16; i < 24; i++)
 245:sardinia.cpp  **** 	{
 246:sardinia.cpp  **** 		keyStates[i] = hw.adc.GetMuxFloat(3, i - 16) < 0.5f;
 247:sardinia.cpp  **** 	}
 248:sardinia.cpp  **** 	for(int i = 24; i < 32; i++)
 249:sardinia.cpp  **** 	{
 250:sardinia.cpp  **** 		keyStates[i] = hw.adc.GetMuxFloat(4, i - 24) < 0.5f;
 251:sardinia.cpp  **** 	}
 252:sardinia.cpp  **** }
 253:sardinia.cpp  **** 
 254:sardinia.cpp  **** void UpdateControlButtons()
 3201              		.loc 12 254 6 view .LVU788
 3202              	.LBE537:
 255:sardinia.cpp  **** {
 256:sardinia.cpp  **** 	for(int i = 0; i < 8; i++)
 3203              		.loc 12 256 2 view .LVU789
 3204              	.LVL152:
 3205              	.LBB540:
 3206              	.LBB538:
 3207              		.loc 12 256 19 view .LVU790
 3208              	.LBE538:
ARM GAS  /var/folders/m5/x8wc2gdj7z5cpgcqdsb_gkj40000gn/T//ccPXNgbP.s 			page 89


 3209              	.LBE540:
 150:sardinia.cpp  **** 	// All control keys must be updated at same clock cycle 
 3210              		.loc 12 150 1 is_stmt 0 view .LVU791
 3211 0000 70B5     		push	{r4, r5, r6, lr}
 3212              		.cfi_def_cfa_offset 16
 3213              		.cfi_offset 4, -16
 3214              		.cfi_offset 5, -12
 3215              		.cfi_offset 6, -8
 3216              		.cfi_offset 14, -4
 3217 0002 5A4D     		ldr	r5, .L289
 3218              	.LBB541:
 3219              	.LBB539:
 3220              		.loc 12 256 10 view .LVU792
 3221 0004 0024     		movs	r4, #0
 3222              	.LVL153:
 3223              	.L232:
 257:sardinia.cpp  **** 	{
 258:sardinia.cpp  **** 		controlButtonStates[i] = hw.adc.GetMuxFloat(5, i) < 0.5f;
 3224              		.loc 12 258 3 is_stmt 1 view .LVU793
 3225              		.loc 12 258 46 is_stmt 0 view .LVU794
 3226 0006 E2B2     		uxtb	r2, r4
 3227 0008 0521     		movs	r1, #5
 3228 000a 5948     		ldr	r0, .L289+4
 256:sardinia.cpp  **** 	{
 3229              		.loc 12 256 2 view .LVU795
 3230 000c 0134     		adds	r4, r4, #1
 3231              	.LVL154:
 3232              		.loc 12 258 46 view .LVU796
 3233 000e FFF7FEFF 		bl	_ZNK5daisy9AdcHandle11GetMuxFloatEhh
 3234              	.LVL155:
 3235              		.loc 12 258 53 view .LVU797
 3236 0012 F6EE007A 		vmov.f32	s15, #5.0e-1
 3237 0016 B4EEE70A 		vcmpe.f32	s0, s15
 3238 001a F1EE10FA 		vmrs	APSR_nzcv, FPSCR
 3239 001e 4CBF     		ite	mi
 3240 0020 0123     		movmi	r3, #1
 3241 0022 0023     		movpl	r3, #0
 256:sardinia.cpp  **** 	{
 3242              		.loc 12 256 19 view .LVU798
 3243 0024 082C     		cmp	r4, #8
 3244              		.loc 12 258 53 view .LVU799
 3245 0026 05F8013F 		strb	r3, [r5, #1]!
 256:sardinia.cpp  **** 	{
 3246              		.loc 12 256 2 is_stmt 1 view .LVU800
 3247              	.LVL156:
 256:sardinia.cpp  **** 	{
 3248              		.loc 12 256 19 view .LVU801
 3249 002a ECD1     		bne	.L232
 3250              	.LVL157:
 256:sardinia.cpp  **** 	{
 3251              		.loc 12 256 19 is_stmt 0 view .LVU802
 3252              	.LBE539:
 3253              	.LBE541:
 154:sardinia.cpp  **** 
 3254              		.loc 12 154 2 is_stmt 1 view .LVU803
 3255              	.LBB542:
 3256              	.LBI542:
ARM GAS  /var/folders/m5/x8wc2gdj7z5cpgcqdsb_gkj40000gn/T//ccPXNgbP.s 			page 90


 259:sardinia.cpp  **** 	}
 260:sardinia.cpp  **** }
 261:sardinia.cpp  **** 
 262:sardinia.cpp  **** void RecordControlButtonStates()
 263:sardinia.cpp  **** {
 264:sardinia.cpp  **** 	for(int i = 0; i < 8; i++)
 265:sardinia.cpp  **** 	{
 266:sardinia.cpp  **** 		prevControlButtonStates[i] = controlButtonStates[i];
 267:sardinia.cpp  **** 	}
 268:sardinia.cpp  **** }
 269:sardinia.cpp  **** 
 270:sardinia.cpp  **** void ModeSelect()
 3257              		.loc 12 270 6 view .LVU804
 3258              	.LBE542:
 271:sardinia.cpp  **** {
 272:sardinia.cpp  **** 	if(RisingEdge_ControlButtons(2)) // Adjusts the output amplitude based on the knob
 3259              		.loc 12 272 2 view .LVU805
 3260              	.LBB557:
 3261              	.LBB543:
 3262              	.LBI543:
 123:hardware.h    **** bool RisingEdge_ControlButtons(int buttonNum)
 3263              		.loc 10 123 6 view .LVU806
 3264              	.LBB544:
 125:hardware.h    **** 	if(controlButtonStates[buttonNum] == true && prevControlButtonStates[buttonNum] == false)
 3265              		.loc 10 125 2 view .LVU807
 125:hardware.h    **** 	if(controlButtonStates[buttonNum] == true && prevControlButtonStates[buttonNum] == false)
 3266              		.loc 10 125 34 is_stmt 0 view .LVU808
 3267 002c 514C     		ldr	r4, .L289+8
 125:hardware.h    **** 	if(controlButtonStates[buttonNum] == true && prevControlButtonStates[buttonNum] == false)
 3268              		.loc 10 125 80 view .LVU809
 3269 002e 524D     		ldr	r5, .L289+12
 125:hardware.h    **** 	if(controlButtonStates[buttonNum] == true && prevControlButtonStates[buttonNum] == false)
 3270              		.loc 10 125 34 view .LVU810
 3271 0030 A078     		ldrb	r0, [r4, #2]	@ zero_extendqisi2
 125:hardware.h    **** 	if(controlButtonStates[buttonNum] == true && prevControlButtonStates[buttonNum] == false)
 3272              		.loc 10 125 2 view .LVU811
 3273 0032 0028     		cmp	r0, #0
 3274 0034 41D0     		beq	.L233
 125:hardware.h    **** 	if(controlButtonStates[buttonNum] == true && prevControlButtonStates[buttonNum] == false)
 3275              		.loc 10 125 44 view .LVU812
 3276 0036 AB78     		ldrb	r3, [r5, #2]	@ zero_extendqisi2
 3277 0038 002B     		cmp	r3, #0
 3278 003a 3ED1     		bne	.L233
 3279              	.LVL158:
 125:hardware.h    **** 	if(controlButtonStates[buttonNum] == true && prevControlButtonStates[buttonNum] == false)
 3280              		.loc 10 125 44 view .LVU813
 3281              	.LBE544:
 3282              	.LBE543:
 3283              	.LBE557:
 273:sardinia.cpp  **** 	{
 274:sardinia.cpp  **** 		UpdateMenu(0);
 3284              		.loc 12 274 3 is_stmt 1 view .LVU814
 3285              	.LBB558:
 3286              	.LBB546:
 3287              	.LBI546:
  77:display.h     **** {
 3288              		.loc 11 77 6 view .LVU815
ARM GAS  /var/folders/m5/x8wc2gdj7z5cpgcqdsb_gkj40000gn/T//ccPXNgbP.s 			page 91


 3289              	.LBB547:
  79:display.h     **** 	{
 3290              		.loc 11 79 2 view .LVU816
  81:display.h     **** 	}
 3291              		.loc 11 81 3 view .LVU817
  81:display.h     **** 	}
 3292              		.loc 11 81 8 is_stmt 0 view .LVU818
 3293 003c 4F4A     		ldr	r2, .L289+16
 3294 003e 1370     		strb	r3, [r2]
 3295              	.LVL159:
 3296              	.L234:
  81:display.h     **** 	}
 3297              		.loc 11 81 8 view .LVU819
 3298              	.LBE547:
 3299              	.LBE546:
 3300              	.LBE558:
 157:sardinia.cpp  **** 	{
 3301              		.loc 12 157 2 is_stmt 1 view .LVU820
 3302              	.LBB559:
 3303              	.LBI559:
 123:hardware.h    **** bool RisingEdge_ControlButtons(int buttonNum)
 3304              		.loc 10 123 6 view .LVU821
 3305              	.LBB560:
 125:hardware.h    **** 	if(controlButtonStates[buttonNum] == true && prevControlButtonStates[buttonNum] == false)
 3306              		.loc 10 125 2 view .LVU822
 3307 0040 2378     		ldrb	r3, [r4]	@ zero_extendqisi2
 3308 0042 002B     		cmp	r3, #0
 3309 0044 45D0     		beq	.L235
 3310              	.L286:
 125:hardware.h    **** 	if(controlButtonStates[buttonNum] == true && prevControlButtonStates[buttonNum] == false)
 3311              		.loc 10 125 44 is_stmt 0 view .LVU823
 3312 0046 2B78     		ldrb	r3, [r5]	@ zero_extendqisi2
 3313 0048 002B     		cmp	r3, #0
 3314 004a 4AD1     		bne	.L236
 3315              	.LVL160:
 125:hardware.h    **** 	if(controlButtonStates[buttonNum] == true && prevControlButtonStates[buttonNum] == false)
 3316              		.loc 10 125 44 view .LVU824
 3317              	.LBE560:
 3318              	.LBE559:
 159:sardinia.cpp  **** 		{
 3319              		.loc 12 159 3 is_stmt 1 view .LVU825
 159:sardinia.cpp  **** 		{
 3320              		.loc 12 159 16 is_stmt 0 view .LVU826
 3321 004c 4C4E     		ldr	r6, .L289+20
 159:sardinia.cpp  **** 		{
 3322              		.loc 12 159 3 view .LVU827
 3323 004e 3378     		ldrb	r3, [r6]	@ zero_extendqisi2
 3324 0050 002B     		cmp	r3, #0
 3325 0052 00F08280 		beq	.L278
 3326              	.L237:
 167:sardinia.cpp  **** 			playButtonOverrule = false;
 3327              		.loc 12 167 4 is_stmt 1 view .LVU828
 168:sardinia.cpp  **** 		}
 3328              		.loc 12 168 4 view .LVU829
 168:sardinia.cpp  **** 		}
 3329              		.loc 12 168 23 is_stmt 0 view .LVU830
 3330 0056 4B4B     		ldr	r3, .L289+24
ARM GAS  /var/folders/m5/x8wc2gdj7z5cpgcqdsb_gkj40000gn/T//ccPXNgbP.s 			page 92


 3331 0058 0022     		movs	r2, #0
 3332 005a 1A70     		strb	r2, [r3]
 3333              	.L239:
 177:sardinia.cpp  **** 	{
 3334              		.loc 12 177 2 is_stmt 1 view .LVU831
 3335 005c 4A4B     		ldr	r3, .L289+28
 3336 005e 03F12001 		add	r1, r3, #32
 3337 0062 01E0     		b	.L242
 3338              	.LVL161:
 3339              	.L280:
 3340              	.LBB562:
 3341              	.LBB563:
 234:sampleengine.h ****     {
 3342              		.loc 9 234 22 is_stmt 0 view .LVU832
 3343 0064 9942     		cmp	r1, r3
 3344 0066 74D0     		beq	.L279
 3345              	.LVL162:
 3346              	.L242:
 236:sampleengine.h ****         {
 3347              		.loc 9 236 9 is_stmt 1 view .LVU833
 234:sampleengine.h ****     {
 3348              		.loc 9 234 5 view .LVU834
 236:sampleengine.h ****         {
 3349              		.loc 9 236 23 is_stmt 0 view .LVU835
 3350 0068 13F8012B 		ldrb	r2, [r3], #1	@ zero_extendqisi2
 3351              	.LVL163:
 234:sampleengine.h ****     {
 3352              		.loc 9 234 22 is_stmt 1 view .LVU836
 236:sampleengine.h ****         {
 3353              		.loc 9 236 9 is_stmt 0 view .LVU837
 3354 006c 002A     		cmp	r2, #0
 3355 006e F9D0     		beq	.L280
 3356              	.LVL164:
 236:sampleengine.h ****         {
 3357              		.loc 9 236 9 view .LVU838
 3358              	.LBE563:
 3359              	.LBE562:
 181:sardinia.cpp  **** 		}
 3360              		.loc 12 181 4 is_stmt 1 view .LVU839
 181:sardinia.cpp  **** 		}
 3361              		.loc 12 181 14 is_stmt 0 view .LVU840
 3362 0070 0123     		movs	r3, #1
 3363 0072 3370     		strb	r3, [r6]
 3364              	.L238:
 189:sardinia.cpp  **** 	{
 3365              		.loc 12 189 2 is_stmt 1 view .LVU841
 3366              	.LVL165:
 3367              	.LBB564:
 3368              	.LBI564:
 123:hardware.h    **** bool RisingEdge_ControlButtons(int buttonNum)
 3369              		.loc 10 123 6 view .LVU842
 3370              	.LBB565:
 125:hardware.h    **** 	if(controlButtonStates[buttonNum] == true && prevControlButtonStates[buttonNum] == false)
 3371              		.loc 10 125 2 view .LVU843
 3372 0074 0028     		cmp	r0, #0
 3373 0076 61D0     		beq	.L243
 125:hardware.h    **** 	if(controlButtonStates[buttonNum] == true && prevControlButtonStates[buttonNum] == false)
ARM GAS  /var/folders/m5/x8wc2gdj7z5cpgcqdsb_gkj40000gn/T//ccPXNgbP.s 			page 93


 3374              		.loc 10 125 44 is_stmt 0 view .LVU844
 3375 0078 AB78     		ldrb	r3, [r5, #2]	@ zero_extendqisi2
 3376 007a 002B     		cmp	r3, #0
 3377 007c 48D0     		beq	.L281
 3378              	.LVL166:
 3379              	.L244:
 125:hardware.h    **** 	if(controlButtonStates[buttonNum] == true && prevControlButtonStates[buttonNum] == false)
 3380              		.loc 10 125 44 view .LVU845
 3381              	.LBE565:
 3382              	.LBE564:
 199:sardinia.cpp  **** 	{
 3383              		.loc 12 199 2 is_stmt 1 view .LVU846
 3384              	.LBB567:
 3385              	.LBI567:
 123:hardware.h    **** bool RisingEdge_ControlButtons(int buttonNum)
 3386              		.loc 10 123 6 view .LVU847
 3387              	.LBB568:
 125:hardware.h    **** 	if(controlButtonStates[buttonNum] == true && prevControlButtonStates[buttonNum] == false)
 3388              		.loc 10 125 2 view .LVU848
 3389 007e 6378     		ldrb	r3, [r4, #1]	@ zero_extendqisi2
 3390 0080 002B     		cmp	r3, #0
 3391 0082 4BD0     		beq	.L245
 3392              	.L288:
 125:hardware.h    **** 	if(controlButtonStates[buttonNum] == true && prevControlButtonStates[buttonNum] == false)
 3393              		.loc 10 125 44 is_stmt 0 view .LVU849
 3394 0084 6B78     		ldrb	r3, [r5, #1]	@ zero_extendqisi2
 3395 0086 002B     		cmp	r3, #0
 3396 0088 3AD0     		beq	.L282
 3397              	.LVL167:
 3398              	.L246:
 125:hardware.h    **** 	if(controlButtonStates[buttonNum] == true && prevControlButtonStates[buttonNum] == false)
 3399              		.loc 10 125 44 view .LVU850
 3400              	.LBE568:
 3401              	.LBE567:
 214:sardinia.cpp  **** 	{
 3402              		.loc 12 214 2 is_stmt 1 view .LVU851
 3403              	.LBB570:
 3404              	.LBI570:
 123:hardware.h    **** bool RisingEdge_ControlButtons(int buttonNum)
 3405              		.loc 10 123 6 view .LVU852
 3406              	.LBB571:
 125:hardware.h    **** 	if(controlButtonStates[buttonNum] == true && prevControlButtonStates[buttonNum] == false)
 3407              		.loc 10 125 2 view .LVU853
 3408 008a 2379     		ldrb	r3, [r4, #4]	@ zero_extendqisi2
 3409 008c 13B1     		cbz	r3, .L247
 125:hardware.h    **** 	if(controlButtonStates[buttonNum] == true && prevControlButtonStates[buttonNum] == false)
 3410              		.loc 10 125 44 is_stmt 0 view .LVU854
 3411 008e 2B79     		ldrb	r3, [r5, #4]	@ zero_extendqisi2
 3412 0090 002B     		cmp	r3, #0
 3413 0092 32D0     		beq	.L283
 3414              	.LVL168:
 3415              	.L247:
 125:hardware.h    **** 	if(controlButtonStates[buttonNum] == true && prevControlButtonStates[buttonNum] == false)
 3416              		.loc 10 125 44 view .LVU855
 3417              	.LBE571:
 3418              	.LBE570:
 218:sardinia.cpp  **** 	{
ARM GAS  /var/folders/m5/x8wc2gdj7z5cpgcqdsb_gkj40000gn/T//ccPXNgbP.s 			page 94


 3419              		.loc 12 218 2 is_stmt 1 view .LVU856
 3420              	.LBB572:
 3421              	.LBI572:
 123:hardware.h    **** bool RisingEdge_ControlButtons(int buttonNum)
 3422              		.loc 10 123 6 view .LVU857
 3423              	.LBB573:
 125:hardware.h    **** 	if(controlButtonStates[buttonNum] == true && prevControlButtonStates[buttonNum] == false)
 3424              		.loc 10 125 2 view .LVU858
 3425 0094 6379     		ldrb	r3, [r4, #5]	@ zero_extendqisi2
 3426 0096 0BB1     		cbz	r3, .L248
 125:hardware.h    **** 	if(controlButtonStates[buttonNum] == true && prevControlButtonStates[buttonNum] == false)
 3427              		.loc 10 125 44 is_stmt 0 view .LVU859
 3428 0098 6B79     		ldrb	r3, [r5, #5]	@ zero_extendqisi2
 3429 009a 5BB3     		cbz	r3, .L284
 3430              	.LVL169:
 3431              	.L248:
 125:hardware.h    **** 	if(controlButtonStates[buttonNum] == true && prevControlButtonStates[buttonNum] == false)
 3432              		.loc 10 125 44 view .LVU860
 3433              	.LBE573:
 3434              	.LBE572:
 222:sardinia.cpp  **** 	{
 3435              		.loc 12 222 2 is_stmt 1 view .LVU861
 3436              	.LBB574:
 3437              	.LBI574:
 123:hardware.h    **** bool RisingEdge_ControlButtons(int buttonNum)
 3438              		.loc 10 123 6 view .LVU862
 3439              	.LBB575:
 125:hardware.h    **** 	if(controlButtonStates[buttonNum] == true && prevControlButtonStates[buttonNum] == false)
 3440              		.loc 10 125 2 view .LVU863
 3441 009c A379     		ldrb	r3, [r4, #6]	@ zero_extendqisi2
 3442 009e 0BB1     		cbz	r3, .L249
 125:hardware.h    **** 	if(controlButtonStates[buttonNum] == true && prevControlButtonStates[buttonNum] == false)
 3443              		.loc 10 125 44 is_stmt 0 view .LVU864
 3444 00a0 AB79     		ldrb	r3, [r5, #6]	@ zero_extendqisi2
 3445 00a2 23B3     		cbz	r3, .L285
 3446              	.LVL170:
 3447              	.L249:
 125:hardware.h    **** 	if(controlButtonStates[buttonNum] == true && prevControlButtonStates[buttonNum] == false)
 3448              		.loc 10 125 44 view .LVU865
 3449              	.LBE575:
 3450              	.LBE574:
 226:sardinia.cpp  **** 	{
 3451              		.loc 12 226 2 is_stmt 1 view .LVU866
 3452              	.LBB576:
 3453              	.LBI576:
 123:hardware.h    **** bool RisingEdge_ControlButtons(int buttonNum)
 3454              		.loc 10 123 6 view .LVU867
 3455              	.LBB577:
 125:hardware.h    **** 	if(controlButtonStates[buttonNum] == true && prevControlButtonStates[buttonNum] == false)
 3456              		.loc 10 125 2 view .LVU868
 3457 00a4 E379     		ldrb	r3, [r4, #7]	@ zero_extendqisi2
 3458 00a6 1BB1     		cbz	r3, .L250
 125:hardware.h    **** 	if(controlButtonStates[buttonNum] == true && prevControlButtonStates[buttonNum] == false)
 3459              		.loc 10 125 44 is_stmt 0 view .LVU869
 3460 00a8 EB79     		ldrb	r3, [r5, #7]	@ zero_extendqisi2
 3461 00aa 0BB9     		cbnz	r3, .L250
 3462              	.LVL171:
ARM GAS  /var/folders/m5/x8wc2gdj7z5cpgcqdsb_gkj40000gn/T//ccPXNgbP.s 			page 95


 125:hardware.h    **** 	if(controlButtonStates[buttonNum] == true && prevControlButtonStates[buttonNum] == false)
 3463              		.loc 10 125 44 view .LVU870
 3464              	.LBE577:
 3465              	.LBE576:
 228:sardinia.cpp  **** 	}
 3466              		.loc 12 228 3 is_stmt 1 view .LVU871
 228:sardinia.cpp  **** 	}
 3467              		.loc 12 228 24 is_stmt 0 view .LVU872
 3468 00ac FFF7FEFF 		bl	_Z21StoreSpliceBufferFourv
 3469              	.LVL172:
 3470              	.L250:
 3471              	.LBB578:
 3472              	.LBB579:
 266:sardinia.cpp  **** 	}
 3473              		.loc 12 266 30 view .LVU873
 3474 00b0 94E80300 		ldm	r4, {r0, r1}
 3475 00b4 85E80300 		stm	r5, {r0, r1}
 3476              	.LBE579:
 3477              	.LBE578:
 232:sardinia.cpp  **** 
 3478              		.loc 12 232 1 view .LVU874
 3479 00b8 70BD     		pop	{r4, r5, r6, pc}
 3480              	.LVL173:
 3481              	.L233:
 3482              	.LBB580:
 3483              	.LBB548:
 3484              	.LBB545:
 131:hardware.h    **** 		return false;
 3485              		.loc 10 131 3 is_stmt 1 view .LVU875
 131:hardware.h    **** 		return false;
 3486              		.loc 10 131 3 is_stmt 0 view .LVU876
 3487              	.LBE545:
 3488              	.LBE548:
 3489              	.LBE580:
 275:sardinia.cpp  **** 	}
 276:sardinia.cpp  **** 	else if(RisingEdge_ControlButtons(3))
 3490              		.loc 12 276 7 is_stmt 1 view .LVU877
 3491              	.LBB581:
 3492              	.LBB549:
 3493              	.LBI549:
 123:hardware.h    **** bool RisingEdge_ControlButtons(int buttonNum)
 3494              		.loc 10 123 6 view .LVU878
 3495              	.LBB550:
 125:hardware.h    **** 	if(controlButtonStates[buttonNum] == true && prevControlButtonStates[buttonNum] == false)
 3496              		.loc 10 125 2 view .LVU879
 3497 00ba E378     		ldrb	r3, [r4, #3]	@ zero_extendqisi2
 3498 00bc 002B     		cmp	r3, #0
 3499 00be BFD0     		beq	.L234
 3500              	.LBE550:
 3501              	.LBE549:
 3502              	.LBB551:
 3503              	.LBI551:
 270:sardinia.cpp  **** {
 3504              		.loc 12 270 6 view .LVU880
 3505              	.LBB552:
 3506              	.LBB553:
 125:hardware.h    **** 	if(controlButtonStates[buttonNum] == true && prevControlButtonStates[buttonNum] == false)
ARM GAS  /var/folders/m5/x8wc2gdj7z5cpgcqdsb_gkj40000gn/T//ccPXNgbP.s 			page 96


 3507              		.loc 10 125 44 is_stmt 0 view .LVU881
 3508 00c0 EB78     		ldrb	r3, [r5, #3]	@ zero_extendqisi2
 3509 00c2 002B     		cmp	r3, #0
 3510 00c4 BCD1     		bne	.L234
 3511              	.LBE553:
 3512              	.LBE552:
 3513              	.LBE551:
 3514              	.LBE581:
 277:sardinia.cpp  **** 	{
 278:sardinia.cpp  **** 		UpdateMenu(1);
 3515              		.loc 12 278 3 is_stmt 1 view .LVU882
 3516              	.LVL174:
 3517              	.LBB582:
 3518              	.LBB556:
 3519              	.LBB554:
 3520              	.LBI554:
  77:display.h     **** {
 3521              		.loc 11 77 6 view .LVU883
 3522              	.LBB555:
  79:display.h     **** 	{
 3523              		.loc 11 79 2 view .LVU884
  83:display.h     **** 	{
 3524              		.loc 11 83 7 view .LVU885
  85:display.h     **** 	}
 3525              		.loc 11 85 3 view .LVU886
  85:display.h     **** 	}
 3526              		.loc 11 85 8 is_stmt 0 view .LVU887
 3527 00c6 2D4B     		ldr	r3, .L289+16
 3528 00c8 0122     		movs	r2, #1
 3529 00ca 1A70     		strb	r2, [r3]
 3530              	.LVL175:
  85:display.h     **** 	}
 3531              		.loc 11 85 8 view .LVU888
 3532              	.LBE555:
 3533              	.LBE554:
 3534              	.LBE556:
 3535              	.LBE582:
 157:sardinia.cpp  **** 	{
 3536              		.loc 12 157 2 is_stmt 1 view .LVU889
 3537              	.LBB583:
 123:hardware.h    **** bool RisingEdge_ControlButtons(int buttonNum)
 3538              		.loc 10 123 6 view .LVU890
 3539              	.LBB561:
 125:hardware.h    **** 	if(controlButtonStates[buttonNum] == true && prevControlButtonStates[buttonNum] == false)
 3540              		.loc 10 125 2 view .LVU891
 3541 00cc 2378     		ldrb	r3, [r4]	@ zero_extendqisi2
 3542 00ce 002B     		cmp	r3, #0
 3543 00d0 B9D1     		bne	.L286
 3544              	.L235:
 131:hardware.h    **** 		return false;
 3545              		.loc 10 131 3 view .LVU892
 3546              	.LVL176:
 131:hardware.h    **** 		return false;
 3547              		.loc 10 131 3 is_stmt 0 view .LVU893
 3548              	.LBE561:
 3549              	.LBE583:
 171:sardinia.cpp  **** 	{
ARM GAS  /var/folders/m5/x8wc2gdj7z5cpgcqdsb_gkj40000gn/T//ccPXNgbP.s 			page 97


 3550              		.loc 12 171 7 is_stmt 1 view .LVU894
 171:sardinia.cpp  **** 	{
 3551              		.loc 12 171 29 is_stmt 0 view .LVU895
 3552 00d2 2E4B     		ldr	r3, .L289+32
 171:sardinia.cpp  **** 	{
 3553              		.loc 12 171 7 view .LVU896
 3554 00d4 D3ED007A 		vldr.32	s15, [r3]
 3555 00d8 F5EE407A 		vcmp.f32	s15, #0
 3556 00dc F1EE10FA 		vmrs	APSR_nzcv, FPSCR
 3557 00e0 39D0     		beq	.L287
 3558              	.L236:
 177:sardinia.cpp  **** 	{
 3559              		.loc 12 177 2 is_stmt 1 view .LVU897
 177:sardinia.cpp  **** 	{
 3560              		.loc 12 177 24 is_stmt 0 view .LVU898
 3561 00e2 284B     		ldr	r3, .L289+24
 177:sardinia.cpp  **** 	{
 3562              		.loc 12 177 2 view .LVU899
 3563 00e4 1B78     		ldrb	r3, [r3]	@ zero_extendqisi2
 3564 00e6 002B     		cmp	r3, #0
 3565 00e8 C4D1     		bne	.L238
 3566 00ea 254E     		ldr	r6, .L289+20
 3567 00ec B6E7     		b	.L239
 3568              	.LVL177:
 3569              	.L285:
 224:sardinia.cpp  **** 	}
 3570              		.loc 12 224 3 is_stmt 1 view .LVU900
 224:sardinia.cpp  **** 	}
 3571              		.loc 12 224 25 is_stmt 0 view .LVU901
 3572 00ee FFF7FEFF 		bl	_Z22StoreSpliceBufferThreev
 3573              	.LVL178:
 3574 00f2 D7E7     		b	.L249
 3575              	.LVL179:
 3576              	.L284:
 220:sardinia.cpp  **** 	}
 3577              		.loc 12 220 3 is_stmt 1 view .LVU902
 220:sardinia.cpp  **** 	}
 3578              		.loc 12 220 23 is_stmt 0 view .LVU903
 3579 00f4 FFF7FEFF 		bl	_Z20StoreSpliceBufferTwov
 3580              	.LVL180:
 3581 00f8 D0E7     		b	.L248
 3582              	.LVL181:
 3583              	.L283:
 216:sardinia.cpp  **** 	}
 3584              		.loc 12 216 3 is_stmt 1 view .LVU904
 216:sardinia.cpp  **** 	}
 3585              		.loc 12 216 23 is_stmt 0 view .LVU905
 3586 00fa FFF7FEFF 		bl	_Z20StoreSpliceBufferOnev
 3587              	.LVL182:
 3588 00fe C9E7     		b	.L247
 3589              	.LVL183:
 3590              	.L282:
 201:sardinia.cpp  **** 		testValInt = 1;
 3591              		.loc 12 201 3 is_stmt 1 view .LVU906
 201:sardinia.cpp  **** 		testValInt = 1;
 3592              		.loc 12 201 15 is_stmt 0 view .LVU907
 3593 0100 0122     		movs	r2, #1
ARM GAS  /var/folders/m5/x8wc2gdj7z5cpgcqdsb_gkj40000gn/T//ccPXNgbP.s 			page 98


 3594 0102 2349     		ldr	r1, .L289+36
 3595 0104 0A70     		strb	r2, [r1]
 202:sardinia.cpp  **** 		lengthTrack = 0;
 3596              		.loc 12 202 3 is_stmt 1 view .LVU908
 202:sardinia.cpp  **** 		lengthTrack = 0;
 3597              		.loc 12 202 14 is_stmt 0 view .LVU909
 3598 0106 2349     		ldr	r1, .L289+40
 3599 0108 0A60     		str	r2, [r1]
 203:sardinia.cpp  **** 	}
 3600              		.loc 12 203 3 is_stmt 1 view .LVU910
 203:sardinia.cpp  **** 	}
 3601              		.loc 12 203 15 is_stmt 0 view .LVU911
 3602 010a 234A     		ldr	r2, .L289+44
 3603 010c 1360     		str	r3, [r2]
 3604 010e BCE7     		b	.L246
 3605              	.LVL184:
 3606              	.L281:
 191:sardinia.cpp  **** 	}
 3607              		.loc 12 191 3 is_stmt 1 view .LVU912
 191:sardinia.cpp  **** 	}
 3608              		.loc 12 191 28 is_stmt 0 view .LVU913
 3609 0110 224B     		ldr	r3, .L289+48
 3610 0112 0122     		movs	r2, #1
 3611 0114 1A70     		strb	r2, [r3]
 199:sardinia.cpp  **** 	{
 3612              		.loc 12 199 2 is_stmt 1 view .LVU914
 3613              	.LVL185:
 3614              	.LBB584:
 123:hardware.h    **** bool RisingEdge_ControlButtons(int buttonNum)
 3615              		.loc 10 123 6 view .LVU915
 3616              	.LBB569:
 125:hardware.h    **** 	if(controlButtonStates[buttonNum] == true && prevControlButtonStates[buttonNum] == false)
 3617              		.loc 10 125 2 view .LVU916
 3618 0116 6378     		ldrb	r3, [r4, #1]	@ zero_extendqisi2
 3619 0118 002B     		cmp	r3, #0
 3620 011a B3D1     		bne	.L288
 3621              	.L245:
 131:hardware.h    **** 		return false;
 3622              		.loc 10 131 3 view .LVU917
 3623              	.LVL186:
 131:hardware.h    **** 		return false;
 3624              		.loc 10 131 3 is_stmt 0 view .LVU918
 3625              	.LBE569:
 3626              	.LBE584:
 205:sardinia.cpp  **** 	{
 3627              		.loc 12 205 7 is_stmt 1 view .LVU919
 3628              	.LBB585:
 3629              	.LBI585:
 135:hardware.h    **** bool FallingEdge_ControlButtons(int buttonNum)
 3630              		.loc 10 135 6 view .LVU920
 3631              	.LBB586:
 137:hardware.h    **** 	if(controlButtonStates[buttonNum] == false && prevControlButtonStates[buttonNum] == true)
 3632              		.loc 10 137 2 view .LVU921
 137:hardware.h    **** 	if(controlButtonStates[buttonNum] == false && prevControlButtonStates[buttonNum] == true)
 3633              		.loc 10 137 45 is_stmt 0 view .LVU922
 3634 011c 6A78     		ldrb	r2, [r5, #1]	@ zero_extendqisi2
 3635 011e 002A     		cmp	r2, #0
ARM GAS  /var/folders/m5/x8wc2gdj7z5cpgcqdsb_gkj40000gn/T//ccPXNgbP.s 			page 99


 3636 0120 B3D0     		beq	.L246
 3637              	.LVL187:
 137:hardware.h    **** 	if(controlButtonStates[buttonNum] == false && prevControlButtonStates[buttonNum] == true)
 3638              		.loc 10 137 45 view .LVU923
 3639              	.LBE586:
 3640              	.LBE585:
 207:sardinia.cpp  **** 		writeIndex = 0;
 3641              		.loc 12 207 3 is_stmt 1 view .LVU924
 207:sardinia.cpp  **** 		writeIndex = 0;
 3642              		.loc 12 207 15 is_stmt 0 view .LVU925
 3643 0122 1B49     		ldr	r1, .L289+36
 209:sardinia.cpp  **** 		testValInt = recordingLength;
 3644              		.loc 12 209 19 view .LVU926
 3645 0124 1C4A     		ldr	r2, .L289+44
 207:sardinia.cpp  **** 		writeIndex = 0;
 3646              		.loc 12 207 15 view .LVU927
 3647 0126 0B70     		strb	r3, [r1]
 208:sardinia.cpp  **** 		recordingLength = lengthTrack;
 3648              		.loc 12 208 3 is_stmt 1 view .LVU928
 208:sardinia.cpp  **** 		recordingLength = lengthTrack;
 3649              		.loc 12 208 14 is_stmt 0 view .LVU929
 3650 0128 1D49     		ldr	r1, .L289+52
 209:sardinia.cpp  **** 		testValInt = recordingLength;
 3651              		.loc 12 209 19 view .LVU930
 3652 012a 1268     		ldr	r2, [r2]
 208:sardinia.cpp  **** 		recordingLength = lengthTrack;
 3653              		.loc 12 208 14 view .LVU931
 3654 012c 0B60     		str	r3, [r1]
 209:sardinia.cpp  **** 		testValInt = recordingLength;
 3655              		.loc 12 209 3 is_stmt 1 view .LVU932
 209:sardinia.cpp  **** 		testValInt = recordingLength;
 3656              		.loc 12 209 19 is_stmt 0 view .LVU933
 3657 012e 1D49     		ldr	r1, .L289+56
 210:sardinia.cpp  **** 		SetKeyIndexs();
 3658              		.loc 12 210 14 view .LVU934
 3659 0130 184B     		ldr	r3, .L289+40
 209:sardinia.cpp  **** 		testValInt = recordingLength;
 3660              		.loc 12 209 19 view .LVU935
 3661 0132 0A60     		str	r2, [r1]
 210:sardinia.cpp  **** 		SetKeyIndexs();
 3662              		.loc 12 210 3 is_stmt 1 view .LVU936
 210:sardinia.cpp  **** 		SetKeyIndexs();
 3663              		.loc 12 210 14 is_stmt 0 view .LVU937
 3664 0134 1A60     		str	r2, [r3]
 211:sardinia.cpp  **** 	}
 3665              		.loc 12 211 3 is_stmt 1 view .LVU938
 211:sardinia.cpp  **** 	}
 3666              		.loc 12 211 15 is_stmt 0 view .LVU939
 3667 0136 FFF7FEFF 		bl	_Z12SetKeyIndexsv
 3668              	.LVL188:
 3669 013a A6E7     		b	.L246
 3670              	.LVL189:
 3671              	.L243:
 3672              	.LBB587:
 3673              	.LBB566:
 131:hardware.h    **** 		return false;
 3674              		.loc 10 131 3 is_stmt 1 view .LVU940
ARM GAS  /var/folders/m5/x8wc2gdj7z5cpgcqdsb_gkj40000gn/T//ccPXNgbP.s 			page 100


 131:hardware.h    **** 		return false;
 3675              		.loc 10 131 3 is_stmt 0 view .LVU941
 3676              	.LBE566:
 3677              	.LBE587:
 193:sardinia.cpp  **** 	{
 3678              		.loc 12 193 7 is_stmt 1 view .LVU942
 193:sardinia.cpp  **** 	{
 3679              		.loc 12 193 35 is_stmt 0 view .LVU943
 3680 013c 1A4B     		ldr	r3, .L289+60
 193:sardinia.cpp  **** 	{
 3681              		.loc 12 193 7 view .LVU944
 3682 013e D3ED007A 		vldr.32	s15, [r3]
 3683 0142 F5EE407A 		vcmp.f32	s15, #0
 3684 0146 F1EE10FA 		vmrs	APSR_nzcv, FPSCR
 3685 014a 98D1     		bne	.L244
 195:sardinia.cpp  **** 	}
 3686              		.loc 12 195 3 is_stmt 1 view .LVU945
 195:sardinia.cpp  **** 	}
 3687              		.loc 12 195 28 is_stmt 0 view .LVU946
 3688 014c 134B     		ldr	r3, .L289+48
 3689 014e 1870     		strb	r0, [r3]
 3690 0150 95E7     		b	.L244
 3691              	.LVL190:
 3692              	.L279:
 185:sardinia.cpp  **** 		}
 3693              		.loc 12 185 4 is_stmt 1 view .LVU947
 185:sardinia.cpp  **** 		}
 3694              		.loc 12 185 14 is_stmt 0 view .LVU948
 3695 0152 3270     		strb	r2, [r6]
 3696 0154 8EE7     		b	.L238
 3697              	.L287:
 3698 0156 0A4E     		ldr	r6, .L289+20
 3699 0158 7DE7     		b	.L237
 3700              	.L278:
 161:sardinia.cpp  **** 			isPlaying = true;
 3701              		.loc 12 161 4 is_stmt 1 view .LVU949
 161:sardinia.cpp  **** 			isPlaying = true;
 3702              		.loc 12 161 24 is_stmt 0 view .LVU950
 3703 015a 0C4A     		ldr	r2, .L289+32
 3704 015c 0021     		movs	r1, #0
 162:sardinia.cpp  **** 			playButtonOverrule = true;
 3705              		.loc 12 162 14 view .LVU951
 3706 015e 0123     		movs	r3, #1
 161:sardinia.cpp  **** 			isPlaying = true;
 3707              		.loc 12 161 24 view .LVU952
 3708 0160 1160     		str	r1, [r2]	@ float
 162:sardinia.cpp  **** 			playButtonOverrule = true;
 3709              		.loc 12 162 4 is_stmt 1 view .LVU953
 163:sardinia.cpp  **** 		}
 3710              		.loc 12 163 4 view .LVU954
 163:sardinia.cpp  **** 		}
 3711              		.loc 12 163 23 is_stmt 0 view .LVU955
 3712 0162 084A     		ldr	r2, .L289+24
 162:sardinia.cpp  **** 			playButtonOverrule = true;
 3713              		.loc 12 162 14 view .LVU956
 3714 0164 3370     		strb	r3, [r6]
 163:sardinia.cpp  **** 		}
ARM GAS  /var/folders/m5/x8wc2gdj7z5cpgcqdsb_gkj40000gn/T//ccPXNgbP.s 			page 101


 3715              		.loc 12 163 23 view .LVU957
 3716 0166 1370     		strb	r3, [r2]
 177:sardinia.cpp  **** 	{
 3717              		.loc 12 177 2 is_stmt 1 view .LVU958
 3718 0168 84E7     		b	.L238
 3719              	.L290:
 3720 016a 00BF     		.align	2
 3721              	.L289:
 3722 016c FFFFFFFF 		.word	.LANCHOR11-1
 3723 0170 18000000 		.word	.LANCHOR28+24
 3724 0174 00000000 		.word	.LANCHOR11
 3725 0178 00000000 		.word	.LANCHOR12
 3726 017c 00000000 		.word	.LANCHOR27
 3727 0180 00000000 		.word	.LANCHOR31
 3728 0184 00000000 		.word	.LANCHOR32
 3729 0188 00000000 		.word	.LANCHOR1
 3730 018c 00000000 		.word	.LANCHOR17
 3731 0190 00000000 		.word	.LANCHOR34
 3732 0194 00000000 		.word	.LANCHOR30
 3733 0198 00000000 		.word	.LANCHOR35
 3734 019c 00000000 		.word	.LANCHOR33
 3735 01a0 00000000 		.word	.LANCHOR13
 3736 01a4 00000000 		.word	.LANCHOR18
 3737 01a8 00000000 		.word	.LANCHOR22
 3738              		.cfi_endproc
 3739              	.LFE4711:
 3741              		.section	.text._Z10UpdateKeysv,"ax",%progbits
 3742              		.align	1
 3743              		.p2align 2,,3
 3744              		.global	_Z10UpdateKeysv
 3745              		.syntax unified
 3746              		.thumb
 3747              		.thumb_func
 3749              	_Z10UpdateKeysv:
 3750              	.LFB4712:
 235:sardinia.cpp  **** 	for(int i = 0; i < 8; i++)
 3751              		.loc 12 235 1 view -0
 3752              		.cfi_startproc
 3753              		@ args = 0, pretend = 0, frame = 0
 3754              		@ frame_needed = 0, uses_anonymous_args = 0
 236:sardinia.cpp  **** 	{
 3755              		.loc 12 236 2 view .LVU960
 3756              	.LVL191:
 3757              	.LBB588:
 236:sardinia.cpp  **** 	{
 3758              		.loc 12 236 19 view .LVU961
 3759              	.LBE588:
 235:sardinia.cpp  **** 	for(int i = 0; i < 8; i++)
 3760              		.loc 12 235 1 is_stmt 0 view .LVU962
 3761 0000 38B5     		push	{r3, r4, r5, lr}
 3762              		.cfi_def_cfa_offset 16
 3763              		.cfi_offset 3, -16
 3764              		.cfi_offset 4, -12
 3765              		.cfi_offset 5, -8
 3766              		.cfi_offset 14, -4
 3767 0002 2A4D     		ldr	r5, .L301
 3768              	.LBB589:
ARM GAS  /var/folders/m5/x8wc2gdj7z5cpgcqdsb_gkj40000gn/T//ccPXNgbP.s 			page 102


 236:sardinia.cpp  **** 	{
 3769              		.loc 12 236 10 view .LVU963
 3770 0004 0024     		movs	r4, #0
 3771              	.LVL192:
 3772              	.L292:
 238:sardinia.cpp  **** 	}
 3773              		.loc 12 238 3 is_stmt 1 discriminator 2 view .LVU964
 238:sardinia.cpp  **** 	}
 3774              		.loc 12 238 36 is_stmt 0 discriminator 2 view .LVU965
 3775 0006 0121     		movs	r1, #1
 3776 0008 E2B2     		uxtb	r2, r4
 3777 000a 2948     		ldr	r0, .L301+4
 236:sardinia.cpp  **** 	{
 3778              		.loc 12 236 2 discriminator 2 view .LVU966
 3779 000c 0C44     		add	r4, r4, r1
 3780              	.LVL193:
 238:sardinia.cpp  **** 	}
 3781              		.loc 12 238 36 discriminator 2 view .LVU967
 3782 000e FFF7FEFF 		bl	_ZNK5daisy9AdcHandle11GetMuxFloatEhh
 3783              	.LVL194:
 238:sardinia.cpp  **** 	}
 3784              		.loc 12 238 43 discriminator 2 view .LVU968
 3785 0012 F6EE007A 		vmov.f32	s15, #5.0e-1
 3786 0016 B4EEE70A 		vcmpe.f32	s0, s15
 3787 001a F1EE10FA 		vmrs	APSR_nzcv, FPSCR
 3788 001e 4CBF     		ite	mi
 3789 0020 0123     		movmi	r3, #1
 3790 0022 0023     		movpl	r3, #0
 236:sardinia.cpp  **** 	{
 3791              		.loc 12 236 19 discriminator 2 view .LVU969
 3792 0024 082C     		cmp	r4, #8
 238:sardinia.cpp  **** 	}
 3793              		.loc 12 238 43 discriminator 2 view .LVU970
 3794 0026 05F8013F 		strb	r3, [r5, #1]!
 236:sardinia.cpp  **** 	{
 3795              		.loc 12 236 2 is_stmt 1 discriminator 2 view .LVU971
 3796              	.LVL195:
 236:sardinia.cpp  **** 	{
 3797              		.loc 12 236 19 discriminator 2 view .LVU972
 3798 002a ECD1     		bne	.L292
 3799 002c 214D     		ldr	r5, .L301+8
 236:sardinia.cpp  **** 	{
 3800              		.loc 12 236 19 is_stmt 0 view .LVU973
 3801 002e 0024     		movs	r4, #0
 3802              	.LVL196:
 3803              	.L293:
 236:sardinia.cpp  **** 	{
 3804              		.loc 12 236 19 view .LVU974
 3805              	.LBE589:
 3806              	.LBB590:
 242:sardinia.cpp  **** 	}
 3807              		.loc 12 242 3 is_stmt 1 discriminator 2 view .LVU975
 242:sardinia.cpp  **** 	}
 3808              		.loc 12 242 36 is_stmt 0 discriminator 2 view .LVU976
 3809 0030 E2B2     		uxtb	r2, r4
 3810 0032 0221     		movs	r1, #2
 3811 0034 1E48     		ldr	r0, .L301+4
ARM GAS  /var/folders/m5/x8wc2gdj7z5cpgcqdsb_gkj40000gn/T//ccPXNgbP.s 			page 103


 240:sardinia.cpp  **** 	{
 3812              		.loc 12 240 19 discriminator 2 view .LVU977
 3813 0036 0134     		adds	r4, r4, #1
 3814              	.LVL197:
 242:sardinia.cpp  **** 	}
 3815              		.loc 12 242 36 discriminator 2 view .LVU978
 3816 0038 FFF7FEFF 		bl	_ZNK5daisy9AdcHandle11GetMuxFloatEhh
 3817              	.LVL198:
 242:sardinia.cpp  **** 	}
 3818              		.loc 12 242 47 discriminator 2 view .LVU979
 3819 003c F6EE007A 		vmov.f32	s15, #5.0e-1
 3820 0040 B4EEE70A 		vcmpe.f32	s0, s15
 3821 0044 F1EE10FA 		vmrs	APSR_nzcv, FPSCR
 3822 0048 4CBF     		ite	mi
 3823 004a 0123     		movmi	r3, #1
 3824 004c 0023     		movpl	r3, #0
 240:sardinia.cpp  **** 	{
 3825              		.loc 12 240 19 discriminator 2 view .LVU980
 3826 004e 082C     		cmp	r4, #8
 242:sardinia.cpp  **** 	}
 3827              		.loc 12 242 47 discriminator 2 view .LVU981
 3828 0050 05F8013B 		strb	r3, [r5], #1
 240:sardinia.cpp  **** 	{
 3829              		.loc 12 240 2 is_stmt 1 discriminator 2 view .LVU982
 3830              	.LVL199:
 240:sardinia.cpp  **** 	{
 3831              		.loc 12 240 19 discriminator 2 view .LVU983
 3832 0054 ECD1     		bne	.L293
 3833 0056 184D     		ldr	r5, .L301+12
 240:sardinia.cpp  **** 	{
 3834              		.loc 12 240 19 is_stmt 0 view .LVU984
 3835 0058 0024     		movs	r4, #0
 3836              	.L294:
 3837              	.LVL200:
 240:sardinia.cpp  **** 	{
 3838              		.loc 12 240 19 view .LVU985
 3839              	.LBE590:
 3840              	.LBB591:
 246:sardinia.cpp  **** 	}
 3841              		.loc 12 246 3 is_stmt 1 discriminator 2 view .LVU986
 246:sardinia.cpp  **** 	}
 3842              		.loc 12 246 36 is_stmt 0 discriminator 2 view .LVU987
 3843 005a E2B2     		uxtb	r2, r4
 3844 005c 0321     		movs	r1, #3
 3845 005e 1448     		ldr	r0, .L301+4
 244:sardinia.cpp  **** 	{
 3846              		.loc 12 244 20 discriminator 2 view .LVU988
 3847 0060 0134     		adds	r4, r4, #1
 3848              	.LVL201:
 246:sardinia.cpp  **** 	}
 3849              		.loc 12 246 36 discriminator 2 view .LVU989
 3850 0062 FFF7FEFF 		bl	_ZNK5daisy9AdcHandle11GetMuxFloatEhh
 3851              	.LVL202:
 246:sardinia.cpp  **** 	}
 3852              		.loc 12 246 48 discriminator 2 view .LVU990
 3853 0066 F6EE007A 		vmov.f32	s15, #5.0e-1
 3854 006a B4EEE70A 		vcmpe.f32	s0, s15
ARM GAS  /var/folders/m5/x8wc2gdj7z5cpgcqdsb_gkj40000gn/T//ccPXNgbP.s 			page 104


 3855 006e F1EE10FA 		vmrs	APSR_nzcv, FPSCR
 3856 0072 4CBF     		ite	mi
 3857 0074 0123     		movmi	r3, #1
 3858 0076 0023     		movpl	r3, #0
 244:sardinia.cpp  **** 	{
 3859              		.loc 12 244 20 discriminator 2 view .LVU991
 3860 0078 082C     		cmp	r4, #8
 246:sardinia.cpp  **** 	}
 3861              		.loc 12 246 48 discriminator 2 view .LVU992
 3862 007a 05F8013B 		strb	r3, [r5], #1
 244:sardinia.cpp  **** 	{
 3863              		.loc 12 244 2 is_stmt 1 discriminator 2 view .LVU993
 3864              	.LVL203:
 244:sardinia.cpp  **** 	{
 3865              		.loc 12 244 20 discriminator 2 view .LVU994
 3866 007e ECD1     		bne	.L294
 3867 0080 0E4D     		ldr	r5, .L301+16
 244:sardinia.cpp  **** 	{
 3868              		.loc 12 244 20 is_stmt 0 view .LVU995
 3869 0082 0024     		movs	r4, #0
 3870              	.L295:
 3871              	.LVL204:
 244:sardinia.cpp  **** 	{
 3872              		.loc 12 244 20 view .LVU996
 3873              	.LBE591:
 3874              	.LBB592:
 250:sardinia.cpp  **** 	}
 3875              		.loc 12 250 3 is_stmt 1 discriminator 2 view .LVU997
 250:sardinia.cpp  **** 	}
 3876              		.loc 12 250 36 is_stmt 0 discriminator 2 view .LVU998
 3877 0084 E2B2     		uxtb	r2, r4
 3878 0086 0421     		movs	r1, #4
 3879 0088 0948     		ldr	r0, .L301+4
 248:sardinia.cpp  **** 	{
 3880              		.loc 12 248 20 discriminator 2 view .LVU999
 3881 008a 0134     		adds	r4, r4, #1
 3882              	.LVL205:
 250:sardinia.cpp  **** 	}
 3883              		.loc 12 250 36 discriminator 2 view .LVU1000
 3884 008c FFF7FEFF 		bl	_ZNK5daisy9AdcHandle11GetMuxFloatEhh
 3885              	.LVL206:
 250:sardinia.cpp  **** 	}
 3886              		.loc 12 250 48 discriminator 2 view .LVU1001
 3887 0090 F6EE007A 		vmov.f32	s15, #5.0e-1
 3888 0094 B4EEE70A 		vcmpe.f32	s0, s15
 3889 0098 F1EE10FA 		vmrs	APSR_nzcv, FPSCR
 3890 009c 4CBF     		ite	mi
 3891 009e 0123     		movmi	r3, #1
 3892 00a0 0023     		movpl	r3, #0
 248:sardinia.cpp  **** 	{
 3893              		.loc 12 248 20 discriminator 2 view .LVU1002
 3894 00a2 082C     		cmp	r4, #8
 250:sardinia.cpp  **** 	}
 3895              		.loc 12 250 48 discriminator 2 view .LVU1003
 3896 00a4 05F8013B 		strb	r3, [r5], #1
 248:sardinia.cpp  **** 	{
 3897              		.loc 12 248 2 is_stmt 1 discriminator 2 view .LVU1004
ARM GAS  /var/folders/m5/x8wc2gdj7z5cpgcqdsb_gkj40000gn/T//ccPXNgbP.s 			page 105


 3898              	.LVL207:
 248:sardinia.cpp  **** 	{
 3899              		.loc 12 248 20 discriminator 2 view .LVU1005
 3900 00a8 ECD1     		bne	.L295
 3901              	.LBE592:
 252:sardinia.cpp  **** 
 3902              		.loc 12 252 1 is_stmt 0 view .LVU1006
 3903 00aa 38BD     		pop	{r3, r4, r5, pc}
 3904              	.L302:
 3905              		.align	2
 3906              	.L301:
 3907 00ac FFFFFFFF 		.word	.LANCHOR1-1
 3908 00b0 18000000 		.word	.LANCHOR28+24
 3909 00b4 08000000 		.word	.LANCHOR1+8
 3910 00b8 10000000 		.word	.LANCHOR1+16
 3911 00bc 18000000 		.word	.LANCHOR1+24
 3912              		.cfi_endproc
 3913              	.LFE4712:
 3915              		.section	.text._Z17ProcessControlsKRv,"ax",%progbits
 3916              		.align	1
 3917              		.p2align 2,,3
 3918              		.global	_Z17ProcessControlsKRv
 3919              		.syntax unified
 3920              		.thumb
 3921              		.thumb_func
 3923              	_Z17ProcessControlsKRv:
 3924              	.LFB4710:
 140:sardinia.cpp  **** 	UpdateKeys();	
 3925              		.loc 12 140 1 is_stmt 1 view -0
 3926              		.cfi_startproc
 3927              		@ args = 0, pretend = 0, frame = 0
 3928              		@ frame_needed = 0, uses_anonymous_args = 0
 141:sardinia.cpp  **** 
 3929              		.loc 12 141 2 view .LVU1008
 140:sardinia.cpp  **** 	UpdateKeys();	
 3930              		.loc 12 140 1 is_stmt 0 view .LVU1009
 3931 0000 10B5     		push	{r4, lr}
 3932              		.cfi_def_cfa_offset 8
 3933              		.cfi_offset 4, -8
 3934              		.cfi_offset 14, -4
 3935 0002 2DED028B 		vpush.64	{d8}
 3936              		.cfi_def_cfa_offset 16
 3937              		.cfi_offset 80, -16
 3938              		.cfi_offset 81, -12
 141:sardinia.cpp  **** 
 3939              		.loc 12 141 12 view .LVU1010
 3940 0006 FFF7FEFF 		bl	_Z10UpdateKeysv
 3941              	.LVL208:
 144:sardinia.cpp  **** 	testValFloat = outputAmp * 10;
 3942              		.loc 12 144 2 is_stmt 1 view .LVU1011
 144:sardinia.cpp  **** 	testValFloat = outputAmp * 10;
 3943              		.loc 12 144 18 is_stmt 0 view .LVU1012
 3944 000a 0022     		movs	r2, #0
 3945 000c 1948     		ldr	r0, .L305
 3946              	.LBB593:
 3947              	.LBB594:
 3948              		.file 13 "/Users/dominicfrugoli/Desktop/ProgrammingCode/DaisyCode/DaisyExamples/DaisySP/Source/Uti
ARM GAS  /var/folders/m5/x8wc2gdj7z5cpgcqdsb_gkj40000gn/T//ccPXNgbP.s 			page 106


   1:/Users/dominicfrugoli/Desktop/ProgrammingCode/DaisyCode/DaisyExamples/DaisySP/Source/Utility/dsp.h **** /*
   2:/Users/dominicfrugoli/Desktop/ProgrammingCode/DaisyCode/DaisyExamples/DaisySP/Source/Utility/dsp.h **** Copyright (c) 2020 Electrosmith, Corp, Emilie Gillet
   3:/Users/dominicfrugoli/Desktop/ProgrammingCode/DaisyCode/DaisyExamples/DaisySP/Source/Utility/dsp.h **** 
   4:/Users/dominicfrugoli/Desktop/ProgrammingCode/DaisyCode/DaisyExamples/DaisySP/Source/Utility/dsp.h **** Use of this source code is governed by an MIT-style
   5:/Users/dominicfrugoli/Desktop/ProgrammingCode/DaisyCode/DaisyExamples/DaisySP/Source/Utility/dsp.h **** license that can be found in the LICENSE file or at
   6:/Users/dominicfrugoli/Desktop/ProgrammingCode/DaisyCode/DaisyExamples/DaisySP/Source/Utility/dsp.h **** https://opensource.org/licenses/MIT.
   7:/Users/dominicfrugoli/Desktop/ProgrammingCode/DaisyCode/DaisyExamples/DaisySP/Source/Utility/dsp.h **** */
   8:/Users/dominicfrugoli/Desktop/ProgrammingCode/DaisyCode/DaisyExamples/DaisySP/Source/Utility/dsp.h **** 
   9:/Users/dominicfrugoli/Desktop/ProgrammingCode/DaisyCode/DaisyExamples/DaisySP/Source/Utility/dsp.h **** /** Helpful defines, functions, and other utilities for use in/with daisysp modules.
  10:/Users/dominicfrugoli/Desktop/ProgrammingCode/DaisyCode/DaisyExamples/DaisySP/Source/Utility/dsp.h **** */
  11:/Users/dominicfrugoli/Desktop/ProgrammingCode/DaisyCode/DaisyExamples/DaisySP/Source/Utility/dsp.h **** #pragma once
  12:/Users/dominicfrugoli/Desktop/ProgrammingCode/DaisyCode/DaisyExamples/DaisySP/Source/Utility/dsp.h **** #ifndef DSY_CORE_DSP
  13:/Users/dominicfrugoli/Desktop/ProgrammingCode/DaisyCode/DaisyExamples/DaisySP/Source/Utility/dsp.h **** #define DSY_CORE_DSP
  14:/Users/dominicfrugoli/Desktop/ProgrammingCode/DaisyCode/DaisyExamples/DaisySP/Source/Utility/dsp.h **** #include <cassert>
  15:/Users/dominicfrugoli/Desktop/ProgrammingCode/DaisyCode/DaisyExamples/DaisySP/Source/Utility/dsp.h **** #include <cstdint>
  16:/Users/dominicfrugoli/Desktop/ProgrammingCode/DaisyCode/DaisyExamples/DaisySP/Source/Utility/dsp.h **** #include <random>
  17:/Users/dominicfrugoli/Desktop/ProgrammingCode/DaisyCode/DaisyExamples/DaisySP/Source/Utility/dsp.h **** #include <cmath>
  18:/Users/dominicfrugoli/Desktop/ProgrammingCode/DaisyCode/DaisyExamples/DaisySP/Source/Utility/dsp.h **** 
  19:/Users/dominicfrugoli/Desktop/ProgrammingCode/DaisyCode/DaisyExamples/DaisySP/Source/Utility/dsp.h **** /** PIs
  20:/Users/dominicfrugoli/Desktop/ProgrammingCode/DaisyCode/DaisyExamples/DaisySP/Source/Utility/dsp.h **** */
  21:/Users/dominicfrugoli/Desktop/ProgrammingCode/DaisyCode/DaisyExamples/DaisySP/Source/Utility/dsp.h **** #define PI_F 3.1415927410125732421875f
  22:/Users/dominicfrugoli/Desktop/ProgrammingCode/DaisyCode/DaisyExamples/DaisySP/Source/Utility/dsp.h **** #define TWOPI_F (2.0f * PI_F)
  23:/Users/dominicfrugoli/Desktop/ProgrammingCode/DaisyCode/DaisyExamples/DaisySP/Source/Utility/dsp.h **** #define HALFPI_F (PI_F * 0.5f)
  24:/Users/dominicfrugoli/Desktop/ProgrammingCode/DaisyCode/DaisyExamples/DaisySP/Source/Utility/dsp.h **** #define DSY_MIN(in, mn) (in < mn ? in : mn)
  25:/Users/dominicfrugoli/Desktop/ProgrammingCode/DaisyCode/DaisyExamples/DaisySP/Source/Utility/dsp.h **** #define DSY_MAX(in, mx) (in > mx ? in : mx)
  26:/Users/dominicfrugoli/Desktop/ProgrammingCode/DaisyCode/DaisyExamples/DaisySP/Source/Utility/dsp.h **** #define DSY_CLAMP(in, mn, mx) (DSY_MIN(DSY_MAX(in, mn), mx))
  27:/Users/dominicfrugoli/Desktop/ProgrammingCode/DaisyCode/DaisyExamples/DaisySP/Source/Utility/dsp.h **** #define DSY_COUNTOF(_arr) (sizeof(_arr) / sizeof(_arr[0]))
  28:/Users/dominicfrugoli/Desktop/ProgrammingCode/DaisyCode/DaisyExamples/DaisySP/Source/Utility/dsp.h **** 
  29:/Users/dominicfrugoli/Desktop/ProgrammingCode/DaisyCode/DaisyExamples/DaisySP/Source/Utility/dsp.h **** namespace daisysp
  30:/Users/dominicfrugoli/Desktop/ProgrammingCode/DaisyCode/DaisyExamples/DaisySP/Source/Utility/dsp.h **** {
  31:/Users/dominicfrugoli/Desktop/ProgrammingCode/DaisyCode/DaisyExamples/DaisySP/Source/Utility/dsp.h **** //Avoids division for random floats. e.g. rand() * kRandFrac
  32:/Users/dominicfrugoli/Desktop/ProgrammingCode/DaisyCode/DaisyExamples/DaisySP/Source/Utility/dsp.h **** static constexpr float kRandFrac = 1.f / (float)RAND_MAX;
  33:/Users/dominicfrugoli/Desktop/ProgrammingCode/DaisyCode/DaisyExamples/DaisySP/Source/Utility/dsp.h **** 
  34:/Users/dominicfrugoli/Desktop/ProgrammingCode/DaisyCode/DaisyExamples/DaisySP/Source/Utility/dsp.h **** //Convert from semitones to other units. e.g. 2 ^ (kOneTwelfth * x)
  35:/Users/dominicfrugoli/Desktop/ProgrammingCode/DaisyCode/DaisyExamples/DaisySP/Source/Utility/dsp.h **** static constexpr float kOneTwelfth = 1.f / 12.f;
  36:/Users/dominicfrugoli/Desktop/ProgrammingCode/DaisyCode/DaisyExamples/DaisySP/Source/Utility/dsp.h **** 
  37:/Users/dominicfrugoli/Desktop/ProgrammingCode/DaisyCode/DaisyExamples/DaisySP/Source/Utility/dsp.h **** /** efficient floating point min/max
  38:/Users/dominicfrugoli/Desktop/ProgrammingCode/DaisyCode/DaisyExamples/DaisySP/Source/Utility/dsp.h **** c/o stephen mccaul
  39:/Users/dominicfrugoli/Desktop/ProgrammingCode/DaisyCode/DaisyExamples/DaisySP/Source/Utility/dsp.h **** */
  40:/Users/dominicfrugoli/Desktop/ProgrammingCode/DaisyCode/DaisyExamples/DaisySP/Source/Utility/dsp.h **** inline float fmax(float a, float b)
  41:/Users/dominicfrugoli/Desktop/ProgrammingCode/DaisyCode/DaisyExamples/DaisySP/Source/Utility/dsp.h **** {
  42:/Users/dominicfrugoli/Desktop/ProgrammingCode/DaisyCode/DaisyExamples/DaisySP/Source/Utility/dsp.h ****     float r;
  43:/Users/dominicfrugoli/Desktop/ProgrammingCode/DaisyCode/DaisyExamples/DaisySP/Source/Utility/dsp.h **** #ifdef __arm__
  44:/Users/dominicfrugoli/Desktop/ProgrammingCode/DaisyCode/DaisyExamples/DaisySP/Source/Utility/dsp.h ****     asm("vmaxnm.f32 %[d], %[n], %[m]" : [d] "=t"(r) : [n] "t"(a), [m] "t"(b) :);
  45:/Users/dominicfrugoli/Desktop/ProgrammingCode/DaisyCode/DaisyExamples/DaisySP/Source/Utility/dsp.h **** #else
  46:/Users/dominicfrugoli/Desktop/ProgrammingCode/DaisyCode/DaisyExamples/DaisySP/Source/Utility/dsp.h ****     r = (a > b) ? a : b;
  47:/Users/dominicfrugoli/Desktop/ProgrammingCode/DaisyCode/DaisyExamples/DaisySP/Source/Utility/dsp.h **** #endif // __arm__
  48:/Users/dominicfrugoli/Desktop/ProgrammingCode/DaisyCode/DaisyExamples/DaisySP/Source/Utility/dsp.h ****     return r;
  49:/Users/dominicfrugoli/Desktop/ProgrammingCode/DaisyCode/DaisyExamples/DaisySP/Source/Utility/dsp.h **** }
  50:/Users/dominicfrugoli/Desktop/ProgrammingCode/DaisyCode/DaisyExamples/DaisySP/Source/Utility/dsp.h **** 
  51:/Users/dominicfrugoli/Desktop/ProgrammingCode/DaisyCode/DaisyExamples/DaisySP/Source/Utility/dsp.h **** inline float fmin(float a, float b)
  52:/Users/dominicfrugoli/Desktop/ProgrammingCode/DaisyCode/DaisyExamples/DaisySP/Source/Utility/dsp.h **** {
  53:/Users/dominicfrugoli/Desktop/ProgrammingCode/DaisyCode/DaisyExamples/DaisySP/Source/Utility/dsp.h ****     float r;
  54:/Users/dominicfrugoli/Desktop/ProgrammingCode/DaisyCode/DaisyExamples/DaisySP/Source/Utility/dsp.h **** #ifdef __arm__
  55:/Users/dominicfrugoli/Desktop/ProgrammingCode/DaisyCode/DaisyExamples/DaisySP/Source/Utility/dsp.h ****     asm("vminnm.f32 %[d], %[n], %[m]" : [d] "=t"(r) : [n] "t"(a), [m] "t"(b) :);
  56:/Users/dominicfrugoli/Desktop/ProgrammingCode/DaisyCode/DaisyExamples/DaisySP/Source/Utility/dsp.h **** #else
  57:/Users/dominicfrugoli/Desktop/ProgrammingCode/DaisyCode/DaisyExamples/DaisySP/Source/Utility/dsp.h ****     r = (a < b) ? a : b;
ARM GAS  /var/folders/m5/x8wc2gdj7z5cpgcqdsb_gkj40000gn/T//ccPXNgbP.s 			page 107


  58:/Users/dominicfrugoli/Desktop/ProgrammingCode/DaisyCode/DaisyExamples/DaisySP/Source/Utility/dsp.h **** #endif // __arm__
  59:/Users/dominicfrugoli/Desktop/ProgrammingCode/DaisyCode/DaisyExamples/DaisySP/Source/Utility/dsp.h ****     return r;
  60:/Users/dominicfrugoli/Desktop/ProgrammingCode/DaisyCode/DaisyExamples/DaisySP/Source/Utility/dsp.h **** }
  61:/Users/dominicfrugoli/Desktop/ProgrammingCode/DaisyCode/DaisyExamples/DaisySP/Source/Utility/dsp.h **** 
  62:/Users/dominicfrugoli/Desktop/ProgrammingCode/DaisyCode/DaisyExamples/DaisySP/Source/Utility/dsp.h **** /** quick fp clamp
  63:/Users/dominicfrugoli/Desktop/ProgrammingCode/DaisyCode/DaisyExamples/DaisySP/Source/Utility/dsp.h **** */
  64:/Users/dominicfrugoli/Desktop/ProgrammingCode/DaisyCode/DaisyExamples/DaisySP/Source/Utility/dsp.h **** inline float fclamp(float in, float min, float max)
  65:/Users/dominicfrugoli/Desktop/ProgrammingCode/DaisyCode/DaisyExamples/DaisySP/Source/Utility/dsp.h **** {
  66:/Users/dominicfrugoli/Desktop/ProgrammingCode/DaisyCode/DaisyExamples/DaisySP/Source/Utility/dsp.h ****     return fmin(fmax(in, min), max);
  67:/Users/dominicfrugoli/Desktop/ProgrammingCode/DaisyCode/DaisyExamples/DaisySP/Source/Utility/dsp.h **** }
  68:/Users/dominicfrugoli/Desktop/ProgrammingCode/DaisyCode/DaisyExamples/DaisySP/Source/Utility/dsp.h **** 
  69:/Users/dominicfrugoli/Desktop/ProgrammingCode/DaisyCode/DaisyExamples/DaisySP/Source/Utility/dsp.h **** /** From Musicdsp.org "Fast power and root estimates for 32bit floats)
  70:/Users/dominicfrugoli/Desktop/ProgrammingCode/DaisyCode/DaisyExamples/DaisySP/Source/Utility/dsp.h **** Original code by Stefan Stenzel
  71:/Users/dominicfrugoli/Desktop/ProgrammingCode/DaisyCode/DaisyExamples/DaisySP/Source/Utility/dsp.h **** These are approximations
  72:/Users/dominicfrugoli/Desktop/ProgrammingCode/DaisyCode/DaisyExamples/DaisySP/Source/Utility/dsp.h **** */
  73:/Users/dominicfrugoli/Desktop/ProgrammingCode/DaisyCode/DaisyExamples/DaisySP/Source/Utility/dsp.h **** inline float fastpower(float f, int n)
  74:/Users/dominicfrugoli/Desktop/ProgrammingCode/DaisyCode/DaisyExamples/DaisySP/Source/Utility/dsp.h **** {
  75:/Users/dominicfrugoli/Desktop/ProgrammingCode/DaisyCode/DaisyExamples/DaisySP/Source/Utility/dsp.h ****     long *lp, l;
  76:/Users/dominicfrugoli/Desktop/ProgrammingCode/DaisyCode/DaisyExamples/DaisySP/Source/Utility/dsp.h ****     lp = (long *)(&f);
  77:/Users/dominicfrugoli/Desktop/ProgrammingCode/DaisyCode/DaisyExamples/DaisySP/Source/Utility/dsp.h ****     l  = *lp;
  78:/Users/dominicfrugoli/Desktop/ProgrammingCode/DaisyCode/DaisyExamples/DaisySP/Source/Utility/dsp.h ****     l -= 0x3F800000;
  79:/Users/dominicfrugoli/Desktop/ProgrammingCode/DaisyCode/DaisyExamples/DaisySP/Source/Utility/dsp.h ****     l <<= (n - 1);
  80:/Users/dominicfrugoli/Desktop/ProgrammingCode/DaisyCode/DaisyExamples/DaisySP/Source/Utility/dsp.h ****     l += 0x3F800000;
  81:/Users/dominicfrugoli/Desktop/ProgrammingCode/DaisyCode/DaisyExamples/DaisySP/Source/Utility/dsp.h ****     *lp = l;
  82:/Users/dominicfrugoli/Desktop/ProgrammingCode/DaisyCode/DaisyExamples/DaisySP/Source/Utility/dsp.h ****     return f;
  83:/Users/dominicfrugoli/Desktop/ProgrammingCode/DaisyCode/DaisyExamples/DaisySP/Source/Utility/dsp.h **** }
  84:/Users/dominicfrugoli/Desktop/ProgrammingCode/DaisyCode/DaisyExamples/DaisySP/Source/Utility/dsp.h **** 
  85:/Users/dominicfrugoli/Desktop/ProgrammingCode/DaisyCode/DaisyExamples/DaisySP/Source/Utility/dsp.h **** inline float fastroot(float f, int n)
  86:/Users/dominicfrugoli/Desktop/ProgrammingCode/DaisyCode/DaisyExamples/DaisySP/Source/Utility/dsp.h **** {
  87:/Users/dominicfrugoli/Desktop/ProgrammingCode/DaisyCode/DaisyExamples/DaisySP/Source/Utility/dsp.h ****     long *lp, l;
  88:/Users/dominicfrugoli/Desktop/ProgrammingCode/DaisyCode/DaisyExamples/DaisySP/Source/Utility/dsp.h ****     lp = (long *)(&f);
  89:/Users/dominicfrugoli/Desktop/ProgrammingCode/DaisyCode/DaisyExamples/DaisySP/Source/Utility/dsp.h ****     l  = *lp;
  90:/Users/dominicfrugoli/Desktop/ProgrammingCode/DaisyCode/DaisyExamples/DaisySP/Source/Utility/dsp.h ****     l -= 0x3F800000;
  91:/Users/dominicfrugoli/Desktop/ProgrammingCode/DaisyCode/DaisyExamples/DaisySP/Source/Utility/dsp.h ****     l >>= (n - 1);
  92:/Users/dominicfrugoli/Desktop/ProgrammingCode/DaisyCode/DaisyExamples/DaisySP/Source/Utility/dsp.h ****     l += 0x3F800000;
  93:/Users/dominicfrugoli/Desktop/ProgrammingCode/DaisyCode/DaisyExamples/DaisySP/Source/Utility/dsp.h ****     *lp = l;
  94:/Users/dominicfrugoli/Desktop/ProgrammingCode/DaisyCode/DaisyExamples/DaisySP/Source/Utility/dsp.h ****     return f;
  95:/Users/dominicfrugoli/Desktop/ProgrammingCode/DaisyCode/DaisyExamples/DaisySP/Source/Utility/dsp.h **** }
  96:/Users/dominicfrugoli/Desktop/ProgrammingCode/DaisyCode/DaisyExamples/DaisySP/Source/Utility/dsp.h **** 
  97:/Users/dominicfrugoli/Desktop/ProgrammingCode/DaisyCode/DaisyExamples/DaisySP/Source/Utility/dsp.h **** /** Significantly more efficient than fmodf(x, 1.0f) for calculating
  98:/Users/dominicfrugoli/Desktop/ProgrammingCode/DaisyCode/DaisyExamples/DaisySP/Source/Utility/dsp.h ****  *  the decimal part of a floating point value.
  99:/Users/dominicfrugoli/Desktop/ProgrammingCode/DaisyCode/DaisyExamples/DaisySP/Source/Utility/dsp.h ****  */
 100:/Users/dominicfrugoli/Desktop/ProgrammingCode/DaisyCode/DaisyExamples/DaisySP/Source/Utility/dsp.h **** inline float fastmod1f(float x)
 101:/Users/dominicfrugoli/Desktop/ProgrammingCode/DaisyCode/DaisyExamples/DaisySP/Source/Utility/dsp.h **** {
 102:/Users/dominicfrugoli/Desktop/ProgrammingCode/DaisyCode/DaisyExamples/DaisySP/Source/Utility/dsp.h ****     return x - static_cast<int>(x);
 103:/Users/dominicfrugoli/Desktop/ProgrammingCode/DaisyCode/DaisyExamples/DaisySP/Source/Utility/dsp.h **** }
 104:/Users/dominicfrugoli/Desktop/ProgrammingCode/DaisyCode/DaisyExamples/DaisySP/Source/Utility/dsp.h **** 
 105:/Users/dominicfrugoli/Desktop/ProgrammingCode/DaisyCode/DaisyExamples/DaisySP/Source/Utility/dsp.h **** /** From http://openaudio.blogspot.com/2017/02/faster-log10-and-pow.html
 106:/Users/dominicfrugoli/Desktop/ProgrammingCode/DaisyCode/DaisyExamples/DaisySP/Source/Utility/dsp.h **** No approximation, pow10f(x) gives a 90% speed increase over powf(10.f, x)
 107:/Users/dominicfrugoli/Desktop/ProgrammingCode/DaisyCode/DaisyExamples/DaisySP/Source/Utility/dsp.h **** */
 108:/Users/dominicfrugoli/Desktop/ProgrammingCode/DaisyCode/DaisyExamples/DaisySP/Source/Utility/dsp.h **** inline float pow10f(float f)
 109:/Users/dominicfrugoli/Desktop/ProgrammingCode/DaisyCode/DaisyExamples/DaisySP/Source/Utility/dsp.h **** {
 110:/Users/dominicfrugoli/Desktop/ProgrammingCode/DaisyCode/DaisyExamples/DaisySP/Source/Utility/dsp.h ****     return expf(2.302585092994046f * f);
 111:/Users/dominicfrugoli/Desktop/ProgrammingCode/DaisyCode/DaisyExamples/DaisySP/Source/Utility/dsp.h **** }
 112:/Users/dominicfrugoli/Desktop/ProgrammingCode/DaisyCode/DaisyExamples/DaisySP/Source/Utility/dsp.h **** 
 113:/Users/dominicfrugoli/Desktop/ProgrammingCode/DaisyCode/DaisyExamples/DaisySP/Source/Utility/dsp.h **** /* Original code for fastlog2f by Dr. Paul Beckmann from the ARM community forum, adapted from the 
 114:/Users/dominicfrugoli/Desktop/ProgrammingCode/DaisyCode/DaisyExamples/DaisySP/Source/Utility/dsp.h **** About 25% performance increase over std::log10f
ARM GAS  /var/folders/m5/x8wc2gdj7z5cpgcqdsb_gkj40000gn/T//ccPXNgbP.s 			page 108


 115:/Users/dominicfrugoli/Desktop/ProgrammingCode/DaisyCode/DaisyExamples/DaisySP/Source/Utility/dsp.h **** */
 116:/Users/dominicfrugoli/Desktop/ProgrammingCode/DaisyCode/DaisyExamples/DaisySP/Source/Utility/dsp.h **** inline float fastlog2f(float f)
 117:/Users/dominicfrugoli/Desktop/ProgrammingCode/DaisyCode/DaisyExamples/DaisySP/Source/Utility/dsp.h **** {
 118:/Users/dominicfrugoli/Desktop/ProgrammingCode/DaisyCode/DaisyExamples/DaisySP/Source/Utility/dsp.h ****     float frac;
 119:/Users/dominicfrugoli/Desktop/ProgrammingCode/DaisyCode/DaisyExamples/DaisySP/Source/Utility/dsp.h ****     int   exp;
 120:/Users/dominicfrugoli/Desktop/ProgrammingCode/DaisyCode/DaisyExamples/DaisySP/Source/Utility/dsp.h ****     frac = frexpf(fabsf(f), &exp);
 121:/Users/dominicfrugoli/Desktop/ProgrammingCode/DaisyCode/DaisyExamples/DaisySP/Source/Utility/dsp.h ****     f    = 1.23149591368684f;
 122:/Users/dominicfrugoli/Desktop/ProgrammingCode/DaisyCode/DaisyExamples/DaisySP/Source/Utility/dsp.h ****     f *= frac;
 123:/Users/dominicfrugoli/Desktop/ProgrammingCode/DaisyCode/DaisyExamples/DaisySP/Source/Utility/dsp.h ****     f += -4.11852516267426f;
 124:/Users/dominicfrugoli/Desktop/ProgrammingCode/DaisyCode/DaisyExamples/DaisySP/Source/Utility/dsp.h ****     f *= frac;
 125:/Users/dominicfrugoli/Desktop/ProgrammingCode/DaisyCode/DaisyExamples/DaisySP/Source/Utility/dsp.h ****     f += 6.02197014179219f;
 126:/Users/dominicfrugoli/Desktop/ProgrammingCode/DaisyCode/DaisyExamples/DaisySP/Source/Utility/dsp.h ****     f *= frac;
 127:/Users/dominicfrugoli/Desktop/ProgrammingCode/DaisyCode/DaisyExamples/DaisySP/Source/Utility/dsp.h ****     f += -3.13396450166353f;
 128:/Users/dominicfrugoli/Desktop/ProgrammingCode/DaisyCode/DaisyExamples/DaisySP/Source/Utility/dsp.h ****     f += exp;
 129:/Users/dominicfrugoli/Desktop/ProgrammingCode/DaisyCode/DaisyExamples/DaisySP/Source/Utility/dsp.h ****     return (f);
 130:/Users/dominicfrugoli/Desktop/ProgrammingCode/DaisyCode/DaisyExamples/DaisySP/Source/Utility/dsp.h **** }
 131:/Users/dominicfrugoli/Desktop/ProgrammingCode/DaisyCode/DaisyExamples/DaisySP/Source/Utility/dsp.h **** 
 132:/Users/dominicfrugoli/Desktop/ProgrammingCode/DaisyCode/DaisyExamples/DaisySP/Source/Utility/dsp.h **** inline float fastlog10f(float f)
 133:/Users/dominicfrugoli/Desktop/ProgrammingCode/DaisyCode/DaisyExamples/DaisySP/Source/Utility/dsp.h **** {
 134:/Users/dominicfrugoli/Desktop/ProgrammingCode/DaisyCode/DaisyExamples/DaisySP/Source/Utility/dsp.h ****     return fastlog2f(f) * 0.3010299956639812f;
 135:/Users/dominicfrugoli/Desktop/ProgrammingCode/DaisyCode/DaisyExamples/DaisySP/Source/Utility/dsp.h **** }
 136:/Users/dominicfrugoli/Desktop/ProgrammingCode/DaisyCode/DaisyExamples/DaisySP/Source/Utility/dsp.h **** 
 137:/Users/dominicfrugoli/Desktop/ProgrammingCode/DaisyCode/DaisyExamples/DaisySP/Source/Utility/dsp.h **** /** Midi to frequency helper
 138:/Users/dominicfrugoli/Desktop/ProgrammingCode/DaisyCode/DaisyExamples/DaisySP/Source/Utility/dsp.h **** */
 139:/Users/dominicfrugoli/Desktop/ProgrammingCode/DaisyCode/DaisyExamples/DaisySP/Source/Utility/dsp.h **** inline float mtof(float m)
 140:/Users/dominicfrugoli/Desktop/ProgrammingCode/DaisyCode/DaisyExamples/DaisySP/Source/Utility/dsp.h **** {
 141:/Users/dominicfrugoli/Desktop/ProgrammingCode/DaisyCode/DaisyExamples/DaisySP/Source/Utility/dsp.h ****     return powf(2, (m - 69.0f) / 12.0f) * 440.0f;
 142:/Users/dominicfrugoli/Desktop/ProgrammingCode/DaisyCode/DaisyExamples/DaisySP/Source/Utility/dsp.h **** }
 143:/Users/dominicfrugoli/Desktop/ProgrammingCode/DaisyCode/DaisyExamples/DaisySP/Source/Utility/dsp.h **** 
 144:/Users/dominicfrugoli/Desktop/ProgrammingCode/DaisyCode/DaisyExamples/DaisySP/Source/Utility/dsp.h **** 
 145:/Users/dominicfrugoli/Desktop/ProgrammingCode/DaisyCode/DaisyExamples/DaisySP/Source/Utility/dsp.h **** /** one pole lpf
 146:/Users/dominicfrugoli/Desktop/ProgrammingCode/DaisyCode/DaisyExamples/DaisySP/Source/Utility/dsp.h **** out is passed by reference, and must be retained between
 147:/Users/dominicfrugoli/Desktop/ProgrammingCode/DaisyCode/DaisyExamples/DaisySP/Source/Utility/dsp.h **** calls to properly filter the signal
 148:/Users/dominicfrugoli/Desktop/ProgrammingCode/DaisyCode/DaisyExamples/DaisySP/Source/Utility/dsp.h **** coeff can be calculated:
 149:/Users/dominicfrugoli/Desktop/ProgrammingCode/DaisyCode/DaisyExamples/DaisySP/Source/Utility/dsp.h **** coeff = 1.0 / (time * sample_rate) ; where time is in seconds
 150:/Users/dominicfrugoli/Desktop/ProgrammingCode/DaisyCode/DaisyExamples/DaisySP/Source/Utility/dsp.h **** */
 151:/Users/dominicfrugoli/Desktop/ProgrammingCode/DaisyCode/DaisyExamples/DaisySP/Source/Utility/dsp.h **** inline void fonepole(float &out, float in, float coeff)
 152:/Users/dominicfrugoli/Desktop/ProgrammingCode/DaisyCode/DaisyExamples/DaisySP/Source/Utility/dsp.h **** {
 153:/Users/dominicfrugoli/Desktop/ProgrammingCode/DaisyCode/DaisyExamples/DaisySP/Source/Utility/dsp.h ****     out += coeff * (in - out);
 154:/Users/dominicfrugoli/Desktop/ProgrammingCode/DaisyCode/DaisyExamples/DaisySP/Source/Utility/dsp.h **** }
 155:/Users/dominicfrugoli/Desktop/ProgrammingCode/DaisyCode/DaisyExamples/DaisySP/Source/Utility/dsp.h **** 
 156:/Users/dominicfrugoli/Desktop/ProgrammingCode/DaisyCode/DaisyExamples/DaisySP/Source/Utility/dsp.h **** /** Curves to use with the fmap function */
 157:/Users/dominicfrugoli/Desktop/ProgrammingCode/DaisyCode/DaisyExamples/DaisySP/Source/Utility/dsp.h **** enum class Mapping
 158:/Users/dominicfrugoli/Desktop/ProgrammingCode/DaisyCode/DaisyExamples/DaisySP/Source/Utility/dsp.h **** {
 159:/Users/dominicfrugoli/Desktop/ProgrammingCode/DaisyCode/DaisyExamples/DaisySP/Source/Utility/dsp.h ****     LINEAR,
 160:/Users/dominicfrugoli/Desktop/ProgrammingCode/DaisyCode/DaisyExamples/DaisySP/Source/Utility/dsp.h ****     EXP,
 161:/Users/dominicfrugoli/Desktop/ProgrammingCode/DaisyCode/DaisyExamples/DaisySP/Source/Utility/dsp.h ****     LOG,
 162:/Users/dominicfrugoli/Desktop/ProgrammingCode/DaisyCode/DaisyExamples/DaisySP/Source/Utility/dsp.h **** };
 163:/Users/dominicfrugoli/Desktop/ProgrammingCode/DaisyCode/DaisyExamples/DaisySP/Source/Utility/dsp.h **** 
 164:/Users/dominicfrugoli/Desktop/ProgrammingCode/DaisyCode/DaisyExamples/DaisySP/Source/Utility/dsp.h **** /** Maps a float between a specified range, using a specified curve.
 165:/Users/dominicfrugoli/Desktop/ProgrammingCode/DaisyCode/DaisyExamples/DaisySP/Source/Utility/dsp.h ****  *
 166:/Users/dominicfrugoli/Desktop/ProgrammingCode/DaisyCode/DaisyExamples/DaisySP/Source/Utility/dsp.h ****  *  \param in a value between 0 to 1 that will be mapped to the new range.
 167:/Users/dominicfrugoli/Desktop/ProgrammingCode/DaisyCode/DaisyExamples/DaisySP/Source/Utility/dsp.h ****  *  \param min the new minimum value
 168:/Users/dominicfrugoli/Desktop/ProgrammingCode/DaisyCode/DaisyExamples/DaisySP/Source/Utility/dsp.h ****  *  \param max the new maxmimum value
 169:/Users/dominicfrugoli/Desktop/ProgrammingCode/DaisyCode/DaisyExamples/DaisySP/Source/Utility/dsp.h ****  *  \param curve a Mapping Value to adjust the response curve of the transformation
 170:/Users/dominicfrugoli/Desktop/ProgrammingCode/DaisyCode/DaisyExamples/DaisySP/Source/Utility/dsp.h ****  *               defaults to Linear. @see Mapping
 171:/Users/dominicfrugoli/Desktop/ProgrammingCode/DaisyCode/DaisyExamples/DaisySP/Source/Utility/dsp.h ****  *
ARM GAS  /var/folders/m5/x8wc2gdj7z5cpgcqdsb_gkj40000gn/T//ccPXNgbP.s 			page 109


 172:/Users/dominicfrugoli/Desktop/ProgrammingCode/DaisyCode/DaisyExamples/DaisySP/Source/Utility/dsp.h ****  *  When using the log curve min and max, must be greater than zero.
 173:/Users/dominicfrugoli/Desktop/ProgrammingCode/DaisyCode/DaisyExamples/DaisySP/Source/Utility/dsp.h ****  *
 174:/Users/dominicfrugoli/Desktop/ProgrammingCode/DaisyCode/DaisyExamples/DaisySP/Source/Utility/dsp.h ****  *  \retval returns the transformed float within the new range.
 175:/Users/dominicfrugoli/Desktop/ProgrammingCode/DaisyCode/DaisyExamples/DaisySP/Source/Utility/dsp.h **** */
 176:/Users/dominicfrugoli/Desktop/ProgrammingCode/DaisyCode/DaisyExamples/DaisySP/Source/Utility/dsp.h **** inline float
 177:/Users/dominicfrugoli/Desktop/ProgrammingCode/DaisyCode/DaisyExamples/DaisySP/Source/Utility/dsp.h **** fmap(float in, float min, float max, Mapping curve = Mapping::LINEAR)
 178:/Users/dominicfrugoli/Desktop/ProgrammingCode/DaisyCode/DaisyExamples/DaisySP/Source/Utility/dsp.h **** {
 179:/Users/dominicfrugoli/Desktop/ProgrammingCode/DaisyCode/DaisyExamples/DaisySP/Source/Utility/dsp.h ****     switch(curve)
 180:/Users/dominicfrugoli/Desktop/ProgrammingCode/DaisyCode/DaisyExamples/DaisySP/Source/Utility/dsp.h ****     {
 181:/Users/dominicfrugoli/Desktop/ProgrammingCode/DaisyCode/DaisyExamples/DaisySP/Source/Utility/dsp.h ****         case Mapping::EXP:
 182:/Users/dominicfrugoli/Desktop/ProgrammingCode/DaisyCode/DaisyExamples/DaisySP/Source/Utility/dsp.h ****             return fclamp(min + (in * in) * (max - min), min, max);
 183:/Users/dominicfrugoli/Desktop/ProgrammingCode/DaisyCode/DaisyExamples/DaisySP/Source/Utility/dsp.h ****         case Mapping::LOG:
 184:/Users/dominicfrugoli/Desktop/ProgrammingCode/DaisyCode/DaisyExamples/DaisySP/Source/Utility/dsp.h ****         {
 185:/Users/dominicfrugoli/Desktop/ProgrammingCode/DaisyCode/DaisyExamples/DaisySP/Source/Utility/dsp.h ****             const float a = 1.f / log10f(max / min);
 186:/Users/dominicfrugoli/Desktop/ProgrammingCode/DaisyCode/DaisyExamples/DaisySP/Source/Utility/dsp.h ****             return fclamp(min * powf(10, in / a), min, max);
 187:/Users/dominicfrugoli/Desktop/ProgrammingCode/DaisyCode/DaisyExamples/DaisySP/Source/Utility/dsp.h ****         }
 188:/Users/dominicfrugoli/Desktop/ProgrammingCode/DaisyCode/DaisyExamples/DaisySP/Source/Utility/dsp.h ****         case Mapping::LINEAR:
 189:/Users/dominicfrugoli/Desktop/ProgrammingCode/DaisyCode/DaisyExamples/DaisySP/Source/Utility/dsp.h ****         default: return fclamp(min + in * (max - min), min, max);
 3949              		.loc 13 189 31 view .LVU1013
 3950 000e B0EE008A 		vmov.f32	s16, #2.0e+0
 3951              	.LBE594:
 3952              	.LBE593:
 144:sardinia.cpp  **** 	testValFloat = outputAmp * 10;
 3953              		.loc 12 144 18 view .LVU1014
 3954 0012 1146     		mov	r1, r2
 144:sardinia.cpp  **** 	testValFloat = outputAmp * 10;
 3955              		.loc 12 144 12 view .LVU1015
 3956 0014 184C     		ldr	r4, .L305+4
 144:sardinia.cpp  **** 	testValFloat = outputAmp * 10;
 3957              		.loc 12 144 18 view .LVU1016
 3958 0016 FFF7FEFF 		bl	_ZNK5daisy9AdcHandle11GetMuxFloatEhh
 3959              	.LVL209:
 3960              	.LBB605:
 3961              	.LBI593:
 177:/Users/dominicfrugoli/Desktop/ProgrammingCode/DaisyCode/DaisyExamples/DaisySP/Source/Utility/dsp.h **** {
 3962              		.loc 13 177 1 is_stmt 1 view .LVU1017
 3963              	.LBE605:
 179:/Users/dominicfrugoli/Desktop/ProgrammingCode/DaisyCode/DaisyExamples/DaisySP/Source/Utility/dsp.h ****     {
 3964              		.loc 13 179 5 view .LVU1018
 3965              	.LBB606:
 3966              	.LBB601:
 188:/Users/dominicfrugoli/Desktop/ProgrammingCode/DaisyCode/DaisyExamples/DaisySP/Source/Utility/dsp.h ****         default: return fclamp(min + in * (max - min), min, max);
 3967              		.loc 13 188 9 view .LVU1019
 3968              		.loc 13 189 9 view .LVU1020
 3969              		.loc 13 189 18 view .LVU1021
 3970              		.loc 13 189 31 is_stmt 0 view .LVU1022
 3971 001a DFED186A 		vldr.32	s13, .L305+8
 3972              	.LBE601:
 3973              	.LBE606:
 145:sardinia.cpp  **** 	readFactor = fmap(hw.adc.GetMuxFloat(0, 1), 0.5, 2, Mapping::EXP); // top far left
 3974              		.loc 12 145 27 view .LVU1023
 3975 001e B2EE047A 		vmov.f32	s14, #1.0e+1
 145:sardinia.cpp  **** 	readFactor = fmap(hw.adc.GetMuxFloat(0, 1), 0.5, 2, Mapping::EXP); // top far left
 3976              		.loc 12 145 15 view .LVU1024
 3977 0022 174B     		ldr	r3, .L305+12
 3978              	.LBB607:
 3979              	.LBB602:
ARM GAS  /var/folders/m5/x8wc2gdj7z5cpgcqdsb_gkj40000gn/T//ccPXNgbP.s 			page 110


 3980              		.loc 13 189 31 view .LVU1025
 3981 0024 F0EE667A 		vmov.f32	s15, s13
 3982              	.LBE602:
 3983              	.LBE607:
 146:sardinia.cpp  **** }
 3984              		.loc 12 146 19 view .LVU1026
 3985 0028 0122     		movs	r2, #1
 3986 002a 0021     		movs	r1, #0
 3987 002c 1148     		ldr	r0, .L305
 3988              	.LBB608:
 3989              	.LBB603:
 3990              		.loc 13 189 31 view .LVU1027
 3991 002e E0EE087A 		vfma.f32	s15, s0, s16
 3992              	.LVL210:
 3993              	.LBB595:
 3994              	.LBI595:
  64:/Users/dominicfrugoli/Desktop/ProgrammingCode/DaisyCode/DaisyExamples/DaisySP/Source/Utility/dsp.h **** {
 3995              		.loc 13 64 14 is_stmt 1 view .LVU1028
 3996              	.LBE595:
 3997              	.LBE603:
 3998              	.LBE608:
  66:/Users/dominicfrugoli/Desktop/ProgrammingCode/DaisyCode/DaisyExamples/DaisySP/Source/Utility/dsp.h **** }
 3999              		.loc 13 66 5 view .LVU1029
 4000              	.LBB609:
 4001              	.LBB604:
 4002              	.LBB600:
 4003              	.LBB596:
 4004              	.LBI596:
  40:/Users/dominicfrugoli/Desktop/ProgrammingCode/DaisyCode/DaisyExamples/DaisySP/Source/Utility/dsp.h **** {
 4005              		.loc 13 40 14 view .LVU1030
 4006              	.LBB597:
  42:/Users/dominicfrugoli/Desktop/ProgrammingCode/DaisyCode/DaisyExamples/DaisySP/Source/Utility/dsp.h **** #ifdef __arm__
 4007              		.loc 13 42 5 view .LVU1031
  44:/Users/dominicfrugoli/Desktop/ProgrammingCode/DaisyCode/DaisyExamples/DaisySP/Source/Utility/dsp.h **** #else
 4008              		.loc 13 44 5 view .LVU1032
 4009              		.syntax unified
 4010              	@ 44 "/Users/dominicfrugoli/Desktop/ProgrammingCode/DaisyCode/DaisyExamples/DaisySP/Source/Utility/
 4011 0032 C7FEA67A 		vmaxnm.f32 s15, s15, s13
 4012              	@ 0 "" 2
 4013              	.LVL211:
  48:/Users/dominicfrugoli/Desktop/ProgrammingCode/DaisyCode/DaisyExamples/DaisySP/Source/Utility/dsp.h **** }
 4014              		.loc 13 48 5 view .LVU1033
  48:/Users/dominicfrugoli/Desktop/ProgrammingCode/DaisyCode/DaisyExamples/DaisySP/Source/Utility/dsp.h **** }
 4015              		.loc 13 48 5 is_stmt 0 view .LVU1034
 4016              		.thumb
 4017              		.syntax unified
 4018              	.LBE597:
 4019              	.LBE596:
 4020              	.LBB598:
 4021              	.LBI598:
  51:/Users/dominicfrugoli/Desktop/ProgrammingCode/DaisyCode/DaisyExamples/DaisySP/Source/Utility/dsp.h **** {
 4022              		.loc 13 51 14 is_stmt 1 view .LVU1035
 4023              	.LBB599:
  53:/Users/dominicfrugoli/Desktop/ProgrammingCode/DaisyCode/DaisyExamples/DaisySP/Source/Utility/dsp.h **** #ifdef __arm__
 4024              		.loc 13 53 5 view .LVU1036
  55:/Users/dominicfrugoli/Desktop/ProgrammingCode/DaisyCode/DaisyExamples/DaisySP/Source/Utility/dsp.h **** #else
 4025              		.loc 13 55 5 view .LVU1037
ARM GAS  /var/folders/m5/x8wc2gdj7z5cpgcqdsb_gkj40000gn/T//ccPXNgbP.s 			page 111


 4026              		.syntax unified
 4027              	@ 55 "/Users/dominicfrugoli/Desktop/ProgrammingCode/DaisyCode/DaisyExamples/DaisySP/Source/Utility/
 4028 0036 C7FEC87A 		vminnm.f32 s15, s15, s16
 4029              	@ 0 "" 2
 4030              	.LVL212:
  59:/Users/dominicfrugoli/Desktop/ProgrammingCode/DaisyCode/DaisyExamples/DaisySP/Source/Utility/dsp.h **** }
 4031              		.loc 13 59 5 view .LVU1038
  59:/Users/dominicfrugoli/Desktop/ProgrammingCode/DaisyCode/DaisyExamples/DaisySP/Source/Utility/dsp.h **** }
 4032              		.loc 13 59 5 is_stmt 0 view .LVU1039
 4033              		.thumb
 4034              		.syntax unified
 4035              	.LBE599:
 4036              	.LBE598:
 4037              	.LBE600:
 4038              	.LBE604:
 4039              	.LBE609:
 145:sardinia.cpp  **** 	readFactor = fmap(hw.adc.GetMuxFloat(0, 1), 0.5, 2, Mapping::EXP); // top far left
 4040              		.loc 12 145 27 view .LVU1040
 4041 003a 27EE877A 		vmul.f32	s14, s15, s14
 144:sardinia.cpp  **** 	testValFloat = outputAmp * 10;
 4042              		.loc 12 144 12 view .LVU1041
 4043 003e C4ED007A 		vstr.32	s15, [r4]
 145:sardinia.cpp  **** 	readFactor = fmap(hw.adc.GetMuxFloat(0, 1), 0.5, 2, Mapping::EXP); // top far left
 4044              		.loc 12 145 2 is_stmt 1 view .LVU1042
 145:sardinia.cpp  **** 	readFactor = fmap(hw.adc.GetMuxFloat(0, 1), 0.5, 2, Mapping::EXP); // top far left
 4045              		.loc 12 145 15 is_stmt 0 view .LVU1043
 4046 0042 83ED007A 		vstr.32	s14, [r3]
 146:sardinia.cpp  **** }
 4047              		.loc 12 146 2 is_stmt 1 view .LVU1044
 146:sardinia.cpp  **** }
 4048              		.loc 12 146 19 is_stmt 0 view .LVU1045
 4049 0046 FFF7FEFF 		bl	_ZNK5daisy9AdcHandle11GetMuxFloatEhh
 4050              	.LVL213:
 4051              	.LBB610:
 4052              	.LBI610:
 177:/Users/dominicfrugoli/Desktop/ProgrammingCode/DaisyCode/DaisyExamples/DaisySP/Source/Utility/dsp.h **** {
 4053              		.loc 13 177 1 is_stmt 1 view .LVU1046
 4054              	.LBE610:
 179:/Users/dominicfrugoli/Desktop/ProgrammingCode/DaisyCode/DaisyExamples/DaisySP/Source/Utility/dsp.h ****     {
 4055              		.loc 13 179 5 view .LVU1047
 4056              	.LBB620:
 4057              	.LBB611:
 181:/Users/dominicfrugoli/Desktop/ProgrammingCode/DaisyCode/DaisyExamples/DaisySP/Source/Utility/dsp.h ****             return fclamp(min + (in * in) * (max - min), min, max);
 4058              		.loc 13 181 9 view .LVU1048
 182:/Users/dominicfrugoli/Desktop/ProgrammingCode/DaisyCode/DaisyExamples/DaisySP/Source/Utility/dsp.h ****         case Mapping::LOG:
 4059              		.loc 13 182 13 view .LVU1049
 182:/Users/dominicfrugoli/Desktop/ProgrammingCode/DaisyCode/DaisyExamples/DaisySP/Source/Utility/dsp.h ****         case Mapping::LOG:
 4060              		.loc 13 182 26 is_stmt 0 view .LVU1050
 4061 004a B6EE007A 		vmov.f32	s14, #5.0e-1
 4062              	.LBE611:
 4063              	.LBE620:
 146:sardinia.cpp  **** }
 4064              		.loc 12 146 13 view .LVU1051
 4065 004e 0D4B     		ldr	r3, .L305+16
 4066              	.LBB621:
 4067              	.LBB618:
 182:/Users/dominicfrugoli/Desktop/ProgrammingCode/DaisyCode/DaisyExamples/DaisySP/Source/Utility/dsp.h ****         case Mapping::LOG:
ARM GAS  /var/folders/m5/x8wc2gdj7z5cpgcqdsb_gkj40000gn/T//ccPXNgbP.s 			page 112


 4068              		.loc 13 182 26 view .LVU1052
 4069 0050 F7EE086A 		vmov.f32	s13, #1.5e+0
 182:/Users/dominicfrugoli/Desktop/ProgrammingCode/DaisyCode/DaisyExamples/DaisySP/Source/Utility/dsp.h ****         case Mapping::LOG:
 4070              		.loc 13 182 37 view .LVU1053
 4071 0054 20EE000A 		vmul.f32	s0, s0, s0
 4072              	.LVL214:
 182:/Users/dominicfrugoli/Desktop/ProgrammingCode/DaisyCode/DaisyExamples/DaisySP/Source/Utility/dsp.h ****         case Mapping::LOG:
 4073              		.loc 13 182 26 view .LVU1054
 4074 0058 F0EE477A 		vmov.f32	s15, s14
 4075 005c E0EE267A 		vfma.f32	s15, s0, s13
 4076              	.LVL215:
 4077              	.LBB612:
 4078              	.LBI612:
  64:/Users/dominicfrugoli/Desktop/ProgrammingCode/DaisyCode/DaisyExamples/DaisySP/Source/Utility/dsp.h **** {
 4079              		.loc 13 64 14 is_stmt 1 view .LVU1055
 4080              	.LBE612:
 4081              	.LBE618:
 4082              	.LBE621:
  66:/Users/dominicfrugoli/Desktop/ProgrammingCode/DaisyCode/DaisyExamples/DaisySP/Source/Utility/dsp.h **** }
 4083              		.loc 13 66 5 view .LVU1056
 4084              	.LBB622:
 4085              	.LBB619:
 4086              	.LBB617:
 4087              	.LBB613:
 4088              	.LBI613:
  40:/Users/dominicfrugoli/Desktop/ProgrammingCode/DaisyCode/DaisyExamples/DaisySP/Source/Utility/dsp.h **** {
 4089              		.loc 13 40 14 view .LVU1057
 4090              	.LBB614:
  42:/Users/dominicfrugoli/Desktop/ProgrammingCode/DaisyCode/DaisyExamples/DaisySP/Source/Utility/dsp.h **** #ifdef __arm__
 4091              		.loc 13 42 5 view .LVU1058
  44:/Users/dominicfrugoli/Desktop/ProgrammingCode/DaisyCode/DaisyExamples/DaisySP/Source/Utility/dsp.h **** #else
 4092              		.loc 13 44 5 view .LVU1059
 4093              		.syntax unified
 4094              	@ 44 "/Users/dominicfrugoli/Desktop/ProgrammingCode/DaisyCode/DaisyExamples/DaisySP/Source/Utility/
 4095 0060 C7FE877A 		vmaxnm.f32 s15, s15, s14
 4096              	@ 0 "" 2
 4097              	.LVL216:
  48:/Users/dominicfrugoli/Desktop/ProgrammingCode/DaisyCode/DaisyExamples/DaisySP/Source/Utility/dsp.h **** }
 4098              		.loc 13 48 5 view .LVU1060
  48:/Users/dominicfrugoli/Desktop/ProgrammingCode/DaisyCode/DaisyExamples/DaisySP/Source/Utility/dsp.h **** }
 4099              		.loc 13 48 5 is_stmt 0 view .LVU1061
 4100              		.thumb
 4101              		.syntax unified
 4102              	.LBE614:
 4103              	.LBE613:
 4104              	.LBB615:
 4105              	.LBI615:
  51:/Users/dominicfrugoli/Desktop/ProgrammingCode/DaisyCode/DaisyExamples/DaisySP/Source/Utility/dsp.h **** {
 4106              		.loc 13 51 14 is_stmt 1 view .LVU1062
 4107              	.LBB616:
  53:/Users/dominicfrugoli/Desktop/ProgrammingCode/DaisyCode/DaisyExamples/DaisySP/Source/Utility/dsp.h **** #ifdef __arm__
 4108              		.loc 13 53 5 view .LVU1063
  55:/Users/dominicfrugoli/Desktop/ProgrammingCode/DaisyCode/DaisyExamples/DaisySP/Source/Utility/dsp.h **** #else
 4109              		.loc 13 55 5 view .LVU1064
 4110              		.syntax unified
 4111              	@ 55 "/Users/dominicfrugoli/Desktop/ProgrammingCode/DaisyCode/DaisyExamples/DaisySP/Source/Utility/
 4112 0064 C7FEC87A 		vminnm.f32 s15, s15, s16
ARM GAS  /var/folders/m5/x8wc2gdj7z5cpgcqdsb_gkj40000gn/T//ccPXNgbP.s 			page 113


 4113              	@ 0 "" 2
 4114              	.LVL217:
  59:/Users/dominicfrugoli/Desktop/ProgrammingCode/DaisyCode/DaisyExamples/DaisySP/Source/Utility/dsp.h **** }
 4115              		.loc 13 59 5 view .LVU1065
  59:/Users/dominicfrugoli/Desktop/ProgrammingCode/DaisyCode/DaisyExamples/DaisySP/Source/Utility/dsp.h **** }
 4116              		.loc 13 59 5 is_stmt 0 view .LVU1066
 4117              		.thumb
 4118              		.syntax unified
 4119              	.LBE616:
 4120              	.LBE615:
 4121              	.LBE617:
 4122              	.LBE619:
 4123              	.LBE622:
 147:sardinia.cpp  **** 
 4124              		.loc 12 147 1 view .LVU1067
 4125 0068 BDEC028B 		vldm	sp!, {d8}
 4126              		.cfi_restore 80
 4127              		.cfi_restore 81
 4128              		.cfi_def_cfa_offset 8
 146:sardinia.cpp  **** }
 4129              		.loc 12 146 13 view .LVU1068
 4130 006c C3ED007A 		vstr.32	s15, [r3]
 147:sardinia.cpp  **** 
 4131              		.loc 12 147 1 view .LVU1069
 4132 0070 10BD     		pop	{r4, pc}
 4133              	.L306:
 4134 0072 00BF     		.align	2
 4135              	.L305:
 4136 0074 18000000 		.word	.LANCHOR28+24
 4137 0078 00000000 		.word	.LANCHOR36
 4138 007c 00000000 		.word	0
 4139 0080 00000000 		.word	.LANCHOR29
 4140 0084 00000000 		.word	.LANCHOR14
 4141              		.cfi_endproc
 4142              	.LFE4710:
 4144              		.section	.text._Z13AudioCallbackPKPKfPPfj,"ax",%progbits
 4145              		.align	1
 4146              		.p2align 2,,3
 4147              		.global	_Z13AudioCallbackPKPKfPPfj
 4148              		.syntax unified
 4149              		.thumb
 4150              		.thumb_func
 4152              	_Z13AudioCallbackPKPKfPPfj:
 4153              	.LVL218:
 4154              	.LFB4708:
  52:sardinia.cpp  **** 	ProcessControlsKR();
 4155              		.loc 12 52 1 is_stmt 1 view -0
 4156              		.cfi_startproc
 4157              		@ args = 0, pretend = 0, frame = 8
 4158              		@ frame_needed = 0, uses_anonymous_args = 0
  53:sardinia.cpp  **** 
 4159              		.loc 12 53 2 view .LVU1071
  52:sardinia.cpp  **** 	ProcessControlsKR();
 4160              		.loc 12 52 1 is_stmt 0 view .LVU1072
 4161 0000 2DE9F04F 		push	{r4, r5, r6, r7, r8, r9, r10, fp, lr}
 4162              		.cfi_def_cfa_offset 36
 4163              		.cfi_offset 4, -36
ARM GAS  /var/folders/m5/x8wc2gdj7z5cpgcqdsb_gkj40000gn/T//ccPXNgbP.s 			page 114


 4164              		.cfi_offset 5, -32
 4165              		.cfi_offset 6, -28
 4166              		.cfi_offset 7, -24
 4167              		.cfi_offset 8, -20
 4168              		.cfi_offset 9, -16
 4169              		.cfi_offset 10, -12
 4170              		.cfi_offset 11, -8
 4171              		.cfi_offset 14, -4
 4172 0004 1446     		mov	r4, r2
 4173 0006 83B0     		sub	sp, sp, #12
 4174              		.cfi_def_cfa_offset 48
  52:sardinia.cpp  **** 	ProcessControlsKR();
 4175              		.loc 12 52 1 view .LVU1073
 4176 0008 8146     		mov	r9, r0
 4177 000a 8A46     		mov	r10, r1
 4178 000c 0192     		str	r2, [sp, #4]
  53:sardinia.cpp  **** 
 4179              		.loc 12 53 19 view .LVU1074
 4180 000e FFF7FEFF 		bl	_Z17ProcessControlsKRv
 4181              	.LVL219:
  55:sardinia.cpp  **** 	{
 4182              		.loc 12 55 2 is_stmt 1 view .LVU1075
 4183              	.LBB633:
  55:sardinia.cpp  **** 	{
 4184              		.loc 12 55 23 view .LVU1076
 4185 0012 002C     		cmp	r4, #0
 4186 0014 00F0A680 		beq	.L307
  55:sardinia.cpp  **** 	{
 4187              		.loc 12 55 14 is_stmt 0 view .LVU1077
 4188 0018 0024     		movs	r4, #0
 4189              	.LVL220:
  55:sardinia.cpp  **** 	{
 4190              		.loc 12 55 14 view .LVU1078
 4191 001a 574D     		ldr	r5, .L329
 4192 001c 574E     		ldr	r6, .L329+4
 4193 001e DFF898B1 		ldr	fp, .L329+64
 4194 0022 574F     		ldr	r7, .L329+8
 4195 0024 1BE0     		b	.L308
 4196              	.LVL221:
 4197              	.L310:
  74:sardinia.cpp  **** 		{
 4198              		.loc 12 74 8 is_stmt 1 view .LVU1079
  83:sardinia.cpp  **** 		{
 4199              		.loc 12 83 8 view .LVU1080
 4200 0026 574B     		ldr	r3, .L329+12
 4201 0028 1B78     		ldrb	r3, [r3]	@ zero_extendqisi2
 4202 002a 002B     		cmp	r3, #0
 4203 002c 40F09380 		bne	.L316
  89:sardinia.cpp  **** 		outputMix *= outputAmp;
 4204              		.loc 12 89 24 is_stmt 0 view .LVU1081
 4205 0030 95ED000A 		vldr.32	s0, [r5]
 4206              	.L314:
  89:sardinia.cpp  **** 		outputMix *= outputAmp;
 4207              		.loc 12 89 3 is_stmt 1 discriminator 2 view .LVU1082
  90:sardinia.cpp  **** 
 4208              		.loc 12 90 3 discriminator 2 view .LVU1083
  89:sardinia.cpp  **** 		outputMix *= outputAmp;
ARM GAS  /var/folders/m5/x8wc2gdj7z5cpgcqdsb_gkj40000gn/T//ccPXNgbP.s 			page 115


 4209              		.loc 12 89 24 is_stmt 0 discriminator 2 view .LVU1084
 4210 0034 37EE800A 		vadd.f32	s0, s15, s0
  90:sardinia.cpp  **** 
 4211              		.loc 12 90 13 discriminator 2 view .LVU1085
 4212 0038 D7ED007A 		vldr.32	s15, [r7]
  55:sardinia.cpp  **** 	{
 4213              		.loc 12 55 2 discriminator 2 view .LVU1086
 4214 003c 0134     		adds	r4, r4, #1
 4215              	.LVL222:
  94:sardinia.cpp  **** 	}
 4216              		.loc 12 94 13 discriminator 2 view .LVU1087
 4217 003e DAE90023 		ldrd	r2, r3, [r10]
  90:sardinia.cpp  **** 
 4218              		.loc 12 90 13 discriminator 2 view .LVU1088
 4219 0042 20EE270A 		vmul.f32	s0, s0, s15
  94:sardinia.cpp  **** 	}
 4220              		.loc 12 94 13 discriminator 2 view .LVU1089
 4221 0046 4344     		add	r3, r3, r8
  93:sardinia.cpp  **** 		out[1][i] = outputMix;
 4222              		.loc 12 93 19 discriminator 2 view .LVU1090
 4223 0048 4244     		add	r2, r2, r8
  90:sardinia.cpp  **** 
 4224              		.loc 12 90 13 discriminator 2 view .LVU1091
 4225 004a 86ED000A 		vstr.32	s0, [r6]
  93:sardinia.cpp  **** 		out[1][i] = outputMix;
 4226              		.loc 12 93 9 is_stmt 1 discriminator 2 view .LVU1092
  93:sardinia.cpp  **** 		out[1][i] = outputMix;
 4227              		.loc 12 93 19 is_stmt 0 discriminator 2 view .LVU1093
 4228 004e 82ED000A 		vstr.32	s0, [r2]
  94:sardinia.cpp  **** 	}
 4229              		.loc 12 94 3 is_stmt 1 discriminator 2 view .LVU1094
  94:sardinia.cpp  **** 	}
 4230              		.loc 12 94 13 is_stmt 0 discriminator 2 view .LVU1095
 4231 0052 83ED000A 		vstr.32	s0, [r3]
  55:sardinia.cpp  **** 	{
 4232              		.loc 12 55 2 is_stmt 1 discriminator 2 view .LVU1096
 4233              	.LVL223:
  55:sardinia.cpp  **** 	{
 4234              		.loc 12 55 23 discriminator 2 view .LVU1097
 4235 0056 019B     		ldr	r3, [sp, #4]
 4236 0058 A342     		cmp	r3, r4
 4237 005a 00F08380 		beq	.L307
 4238              	.LVL224:
 4239              	.L308:
  57:sardinia.cpp  **** 		outputMix = 0;
 4240              		.loc 12 57 3 view .LVU1098
  57:sardinia.cpp  **** 		outputMix = 0;
 4241              		.loc 12 57 13 is_stmt 0 view .LVU1099
 4242 005e 0023     		movs	r3, #0
 4243 0060 4FEA8408 		lsl	r8, r4, #2
 4244 0064 2B60     		str	r3, [r5]	@ float
  58:sardinia.cpp  **** 
 4245              		.loc 12 58 3 is_stmt 1 view .LVU1100
  58:sardinia.cpp  **** 
 4246              		.loc 12 58 13 is_stmt 0 view .LVU1101
 4247 0066 3360     		str	r3, [r6]	@ float
  60:sardinia.cpp  **** 
ARM GAS  /var/folders/m5/x8wc2gdj7z5cpgcqdsb_gkj40000gn/T//ccPXNgbP.s 			page 116


 4248              		.loc 12 60 3 is_stmt 1 view .LVU1102
  60:sardinia.cpp  **** 
 4249              		.loc 12 60 20 is_stmt 0 view .LVU1103
 4250 0068 FFF7FEFF 		bl	_Z17ProcessControlsARv
 4251              	.LVL225:
  62:sardinia.cpp  **** 		
 4252              		.loc 12 62 3 is_stmt 1 view .LVU1104
  62:sardinia.cpp  **** 		
 4253              		.loc 12 62 36 is_stmt 0 view .LVU1105
 4254 006c B6EE000A 		vmov.f32	s0, #5.0e-1
  64:sardinia.cpp  **** 		{
 4255              		.loc 12 64 3 view .LVU1106
 4256 0070 454B     		ldr	r3, .L329+16
  62:sardinia.cpp  **** 		
 4257              		.loc 12 62 33 view .LVU1107
 4258 0072 D9E90012 		ldrd	r1, r2, [r9]
  64:sardinia.cpp  **** 		{
 4259              		.loc 12 64 3 view .LVU1108
 4260 0076 1B78     		ldrb	r3, [r3]	@ zero_extendqisi2
  62:sardinia.cpp  **** 		
 4261              		.loc 12 62 22 view .LVU1109
 4262 0078 01EB8401 		add	r1, r1, r4, lsl #2
  62:sardinia.cpp  **** 		
 4263              		.loc 12 62 33 view .LVU1110
 4264 007c 02EB8402 		add	r2, r2, r4, lsl #2
  62:sardinia.cpp  **** 		
 4265              		.loc 12 62 24 view .LVU1111
 4266 0080 D1ED007A 		vldr.32	s15, [r1]
 4267 0084 92ED007A 		vldr.32	s14, [r2]
 4268 0088 77EE877A 		vadd.f32	s15, s15, s14
  62:sardinia.cpp  **** 		
 4269              		.loc 12 62 36 view .LVU1112
 4270 008c 67EE807A 		vmul.f32	s15, s15, s0
  62:sardinia.cpp  **** 		
 4271              		.loc 12 62 12 view .LVU1113
 4272 0090 CBED007A 		vstr.32	s15, [fp]
  64:sardinia.cpp  **** 		{
 4273              		.loc 12 64 3 is_stmt 1 view .LVU1114
 4274 0094 63B1     		cbz	r3, .L309
  66:sardinia.cpp  **** 			lengthTrack++;
 4275              		.loc 12 66 4 view .LVU1115
 4276              	.LVL226:
 4277              	.LBB634:
 4278              	.LBI634:
  93:sampleengine.h **** {
 4279              		.loc 9 93 6 view .LVU1116
 4280              	.LBB635:
  95:sampleengine.h ****     writeIndex++;
 4281              		.loc 9 95 5 view .LVU1117
  95:sampleengine.h ****     writeIndex++;
 4282              		.loc 9 95 31 is_stmt 0 view .LVU1118
 4283 0096 3D48     		ldr	r0, .L329+20
  95:sampleengine.h ****     writeIndex++;
 4284              		.loc 9 95 33 view .LVU1119
 4285 0098 3D49     		ldr	r1, .L329+24
  95:sampleengine.h ****     writeIndex++;
 4286              		.loc 9 95 31 view .LVU1120
ARM GAS  /var/folders/m5/x8wc2gdj7z5cpgcqdsb_gkj40000gn/T//ccPXNgbP.s 			page 117


 4287 009a 0368     		ldr	r3, [r0]
 4288              	.LBE635:
 4289              	.LBE634:
  67:sardinia.cpp  **** 		}
 4290              		.loc 12 67 15 view .LVU1121
 4291 009c 3D4A     		ldr	r2, .L329+28
 4292              	.LBB638:
 4293              	.LBB636:
  95:sampleengine.h ****     writeIndex++;
 4294              		.loc 9 95 33 view .LVU1122
 4295 009e 01EB8301 		add	r1, r1, r3, lsl #2
  96:sampleengine.h **** }
 4296              		.loc 9 96 15 view .LVU1123
 4297 00a2 0133     		adds	r3, r3, #1
 4298 00a4 0360     		str	r3, [r0]
 4299              	.LBE636:
 4300              	.LBE638:
  67:sardinia.cpp  **** 		}
 4301              		.loc 12 67 15 view .LVU1124
 4302 00a6 1368     		ldr	r3, [r2]
 4303              	.LBB639:
 4304              	.LBB637:
  95:sampleengine.h ****     writeIndex++;
 4305              		.loc 9 95 33 view .LVU1125
 4306 00a8 C1ED007A 		vstr.32	s15, [r1]
  96:sampleengine.h **** }
 4307              		.loc 9 96 5 is_stmt 1 view .LVU1126
 4308              	.LVL227:
  96:sampleengine.h **** }
 4309              		.loc 9 96 5 is_stmt 0 view .LVU1127
 4310              	.LBE637:
 4311              	.LBE639:
  67:sardinia.cpp  **** 		}
 4312              		.loc 12 67 4 is_stmt 1 view .LVU1128
  67:sardinia.cpp  **** 		}
 4313              		.loc 12 67 15 is_stmt 0 view .LVU1129
 4314 00ac 0133     		adds	r3, r3, #1
 4315 00ae 1360     		str	r3, [r2]
 4316              	.L309:
  70:sardinia.cpp  **** 		{
 4317              		.loc 12 70 3 is_stmt 1 view .LVU1130
  70:sardinia.cpp  **** 		{
 4318              		.loc 12 70 16 is_stmt 0 view .LVU1131
 4319 00b0 394B     		ldr	r3, .L329+32
 4320 00b2 1B78     		ldrb	r3, [r3]	@ zero_extendqisi2
 4321 00b4 002B     		cmp	r3, #0
 4322 00b6 B6D0     		beq	.L310
 4323 00b8 384B     		ldr	r3, .L329+36
 4324 00ba 03F12001 		add	r1, r3, #32
 4325 00be 01E0     		b	.L313
 4326              	.LVL228:
 4327              	.L328:
 4328              	.LBB640:
 4329              	.LBB641:
 234:sampleengine.h ****     {
 4330              		.loc 9 234 22 view .LVU1132
 4331 00c0 9942     		cmp	r1, r3
ARM GAS  /var/folders/m5/x8wc2gdj7z5cpgcqdsb_gkj40000gn/T//ccPXNgbP.s 			page 118


 4332 00c2 52D0     		beq	.L327
 4333              	.LVL229:
 4334              	.L313:
 236:sampleengine.h ****         {
 4335              		.loc 9 236 9 is_stmt 1 view .LVU1133
 234:sampleengine.h ****     {
 4336              		.loc 9 234 5 view .LVU1134
 236:sampleengine.h ****         {
 4337              		.loc 9 236 23 is_stmt 0 view .LVU1135
 4338 00c4 13F8012B 		ldrb	r2, [r3], #1	@ zero_extendqisi2
 4339              	.LVL230:
 234:sampleengine.h ****     {
 4340              		.loc 9 234 22 is_stmt 1 view .LVU1136
 236:sampleengine.h ****         {
 4341              		.loc 9 236 9 is_stmt 0 view .LVU1137
 4342 00c8 002A     		cmp	r2, #0
 4343 00ca F9D0     		beq	.L328
 4344              	.LVL231:
 236:sampleengine.h ****         {
 4345              		.loc 9 236 9 view .LVU1138
 4346              	.LBE641:
 4347              	.LBE640:
  74:sardinia.cpp  **** 		{
 4348              		.loc 12 74 8 is_stmt 1 view .LVU1139
  76:sardinia.cpp  **** 			AdvanceReadIndex();
 4349              		.loc 12 76 4 view .LVU1140
 4350              	.LBB642:
 4351              	.LBI642:
 117:sampleengine.h **** {
 4352              		.loc 9 117 7 view .LVU1141
 4353              	.LBB643:
 119:sampleengine.h **** 
 4354              		.loc 9 119 5 view .LVU1142
 121:sampleengine.h **** 	readIndexFraction = readIndex - readIndexInt;
 4355              		.loc 9 121 5 view .LVU1143
 121:sampleengine.h **** 	readIndexFraction = readIndex - readIndexInt;
 4356              		.loc 9 121 20 is_stmt 0 view .LVU1144
 4357 00cc 3449     		ldr	r1, .L329+40
 4358              	.LBE643:
 4359              	.LBE642:
 4360              	.LBB652:
 4361              	.LBB653:
 106:sampleengine.h **** 
 4362              		.loc 9 106 15 view .LVU1145
 4363 00ce 354B     		ldr	r3, .L329+44
 4364              	.LBE653:
 4365              	.LBE652:
 4366              	.LBB662:
 4367              	.LBB644:
 121:sampleengine.h **** 	readIndexFraction = readIndex - readIndexInt;
 4368              		.loc 9 121 20 view .LVU1146
 4369 00d0 91ED007A 		vldr.32	s14, [r1]
 4370              	.LBE644:
 4371              	.LBE662:
 4372              	.LBB663:
 4373              	.LBB654:
 106:sampleengine.h **** 
ARM GAS  /var/folders/m5/x8wc2gdj7z5cpgcqdsb_gkj40000gn/T//ccPXNgbP.s 			page 119


 4374              		.loc 9 106 15 view .LVU1147
 4375 00d4 D3ED006A 		vldr.32	s13, [r3]
 4376              	.LBE654:
 4377              	.LBE663:
 4378              	.LBB664:
 4379              	.LBB645:
 121:sampleengine.h **** 	readIndexFraction = readIndex - readIndexInt;
 4380              		.loc 9 121 20 view .LVU1148
 4381 00d8 BDEEC76A 		vcvt.s32.f32	s12, s14
 124:sampleengine.h **** 	b = recordingBuffer[readIndexInt + 1]; // next sample
 4382              		.loc 9 124 4 view .LVU1149
 4383 00dc 2C4A     		ldr	r2, .L329+24
 4384              	.LBE645:
 4385              	.LBE664:
 4386              	.LBB665:
 4387              	.LBB655:
 106:sampleengine.h **** 
 4388              		.loc 9 106 15 view .LVU1150
 4389 00de 77EE266A 		vadd.f32	s13, s14, s13
 4390              	.LBE655:
 4391              	.LBE665:
 4392              	.LBB666:
 4393              	.LBB646:
 121:sampleengine.h **** 	readIndexFraction = readIndex - readIndexInt;
 4394              		.loc 9 121 20 view .LVU1151
 4395 00e2 16EE103A 		vmov	r3, s12	@ int
 122:sampleengine.h **** 
 4396              		.loc 9 122 32 view .LVU1152
 4397 00e6 B8EE466A 		vcvt.f32.u32	s12, s12
 4398              	.LBE646:
 4399              	.LBE666:
 4400              	.LBB667:
 4401              	.LBB656:
 106:sampleengine.h **** 
 4402              		.loc 9 106 15 view .LVU1153
 4403 00ea C1ED006A 		vstr.32	s13, [r1]
 4404              	.LBE656:
 4405              	.LBE667:
 4406              	.LBB668:
 4407              	.LBB647:
 124:sampleengine.h **** 	b = recordingBuffer[readIndexInt + 1]; // next sample
 4408              		.loc 9 124 4 view .LVU1154
 4409 00ee 02EB8300 		add	r0, r2, r3, lsl #2
 4410              	.LBE647:
 4411              	.LBE668:
 4412              	.LBB669:
 4413              	.LBB657:
 108:sampleengine.h ****     {
 4414              		.loc 9 108 18 view .LVU1155
 4415 00f2 2D4A     		ldr	r2, .L329+48
 4416              	.LBE657:
 4417              	.LBE669:
 4418              	.LBB670:
 4419              	.LBB648:
 122:sampleengine.h **** 
 4420              		.loc 9 122 32 view .LVU1156
 4421 00f4 37EE467A 		vsub.f32	s14, s14, s12
ARM GAS  /var/folders/m5/x8wc2gdj7z5cpgcqdsb_gkj40000gn/T//ccPXNgbP.s 			page 120


 124:sampleengine.h **** 	b = recordingBuffer[readIndexInt + 1]; // next sample
 4422              		.loc 9 124 4 view .LVU1157
 4423 00f8 90ED000A 		vldr.32	s0, [r0]
 126:sampleengine.h **** 
 4424              		.loc 9 126 15 view .LVU1158
 4425 00fc 90ED016A 		vldr.32	s12, [r0, #4]
 4426 0100 36EE406A 		vsub.f32	s12, s12, s0
 126:sampleengine.h **** 
 4427              		.loc 9 126 6 view .LVU1159
 4428 0104 A7EE060A 		vfma.f32	s0, s14, s12
 4429              	.LBE648:
 4430              	.LBE670:
 4431              	.LBB671:
 4432              	.LBB658:
 108:sampleengine.h ****     {
 4433              		.loc 9 108 18 view .LVU1160
 4434 0108 92ED006A 		vldr.32	s12, [r2]	@ int
 4435              	.LBE658:
 4436              	.LBE671:
 4437              	.LBB672:
 4438              	.LBB649:
 121:sampleengine.h **** 	readIndexFraction = readIndex - readIndexInt;
 4439              		.loc 9 121 18 view .LVU1161
 4440 010c 274A     		ldr	r2, .L329+52
 4441              	.LBE649:
 4442              	.LBE672:
 4443              	.LBB673:
 4444              	.LBB659:
 108:sampleengine.h ****     {
 4445              		.loc 9 108 18 view .LVU1162
 4446 010e B8EE466A 		vcvt.f32.u32	s12, s12
 4447              	.LBE659:
 4448              	.LBE673:
 4449              	.LBB674:
 4450              	.LBB650:
 121:sampleengine.h **** 	readIndexFraction = readIndex - readIndexInt;
 4451              		.loc 9 121 18 view .LVU1163
 4452 0112 1360     		str	r3, [r2]
 122:sampleengine.h **** 
 4453              		.loc 9 122 2 is_stmt 1 view .LVU1164
 122:sampleengine.h **** 
 4454              		.loc 9 122 20 is_stmt 0 view .LVU1165
 4455 0114 264B     		ldr	r3, .L329+56
 4456              	.LBE650:
 4457              	.LBE674:
 4458              	.LBB675:
 4459              	.LBB660:
 108:sampleengine.h ****     {
 4460              		.loc 9 108 5 view .LVU1166
 4461 0116 F4EEC66A 		vcmpe.f32	s13, s12
 4462              	.LBE660:
 4463              	.LBE675:
  76:sardinia.cpp  **** 			AdvanceReadIndex();
 4464              		.loc 12 76 14 view .LVU1167
 4465 011a 85ED000A 		vstr.32	s0, [r5]
 4466              	.LBB676:
 4467              	.LBB651:
ARM GAS  /var/folders/m5/x8wc2gdj7z5cpgcqdsb_gkj40000gn/T//ccPXNgbP.s 			page 121


 122:sampleengine.h **** 
 4468              		.loc 9 122 20 view .LVU1168
 4469 011e 83ED007A 		vstr.32	s14, [r3]
 124:sampleengine.h **** 	b = recordingBuffer[readIndexInt + 1]; // next sample
 4470              		.loc 9 124 2 is_stmt 1 view .LVU1169
 4471              	.LVL232:
 125:sampleengine.h **** 	out = a + (b - a) * readIndexFraction; // Linear Interpolation
 4472              		.loc 9 125 2 view .LVU1170
 126:sampleengine.h **** 
 4473              		.loc 9 126 2 view .LVU1171
 128:sampleengine.h **** }
 4474              		.loc 9 128 5 view .LVU1172
 128:sampleengine.h **** }
 4475              		.loc 9 128 5 is_stmt 0 view .LVU1173
 4476              	.LBE651:
 4477              	.LBE676:
  77:sardinia.cpp  **** 			if(readIndex > recordingLength) // recordingLength dynamically changes the size of sample based 
 4478              		.loc 12 77 4 is_stmt 1 view .LVU1174
 4479              	.LBB677:
 4480              	.LBI652:
 104:sampleengine.h **** {
 4481              		.loc 9 104 6 view .LVU1175
 4482              	.LBB661:
 106:sampleengine.h **** 
 4483              		.loc 9 106 5 view .LVU1176
 108:sampleengine.h ****     {
 4484              		.loc 9 108 5 view .LVU1177
 4485 0122 F1EE10FA 		vmrs	APSR_nzcv, FPSCR
 4486 0126 08DB     		blt	.L319
 4487 0128 FFF7FEFF 		bl	_Z16AdvanceReadIndexv.part.0
 4488              	.LVL233:
 4489              	.LBE661:
 4490              	.LBE677:
  78:sardinia.cpp  **** 			{
 4491              		.loc 12 78 17 is_stmt 0 view .LVU1178
 4492 012c 1C49     		ldr	r1, .L329+40
  89:sardinia.cpp  **** 		outputMix *= outputAmp;
 4493              		.loc 12 89 24 view .LVU1179
 4494 012e DBED007A 		vldr.32	s15, [fp]
  78:sardinia.cpp  **** 			{
 4495              		.loc 12 78 17 view .LVU1180
 4496 0132 D1ED006A 		vldr.32	s13, [r1]
  89:sardinia.cpp  **** 		outputMix *= outputAmp;
 4497              		.loc 12 89 24 view .LVU1181
 4498 0136 95ED000A 		vldr.32	s0, [r5]
 4499              	.L319:
  78:sardinia.cpp  **** 			{
 4500              		.loc 12 78 4 is_stmt 1 view .LVU1182
  78:sardinia.cpp  **** 			{
 4501              		.loc 12 78 17 is_stmt 0 view .LVU1183
 4502 013a 1E4B     		ldr	r3, .L329+60
 4503 013c 93ED007A 		vldr.32	s14, [r3]	@ int
 4504 0140 B8EE477A 		vcvt.f32.u32	s14, s14
  78:sardinia.cpp  **** 			{
 4505              		.loc 12 78 4 view .LVU1184
 4506 0144 B4EEE67A 		vcmpe.f32	s14, s13
 4507 0148 F1EE10FA 		vmrs	APSR_nzcv, FPSCR
ARM GAS  /var/folders/m5/x8wc2gdj7z5cpgcqdsb_gkj40000gn/T//ccPXNgbP.s 			page 122


 4508 014c 7FF572AF 		bpl	.L314
  80:sardinia.cpp  **** 			}
 4509              		.loc 12 80 5 is_stmt 1 view .LVU1185
  80:sardinia.cpp  **** 			}
 4510              		.loc 12 80 15 is_stmt 0 view .LVU1186
 4511 0150 0023     		movs	r3, #0
 4512 0152 0B60     		str	r3, [r1]	@ float
 4513 0154 6EE7     		b	.L314
 4514              	.L316:
  85:sardinia.cpp  **** 		}
 4515              		.loc 12 85 4 is_stmt 1 view .LVU1187
  85:sardinia.cpp  **** 		}
 4516              		.loc 12 85 40 is_stmt 0 view .LVU1188
 4517 0156 FFF7FEFF 		bl	_Z24SpliceBufferOneGetSamplev
 4518              	.LVL234:
  89:sardinia.cpp  **** 		outputMix *= outputAmp;
 4519              		.loc 12 89 24 view .LVU1189
 4520 015a DBED007A 		vldr.32	s15, [fp]
  85:sardinia.cpp  **** 		}
 4521              		.loc 12 85 14 view .LVU1190
 4522 015e 85ED000A 		vstr.32	s0, [r5]
 4523 0162 67E7     		b	.L314
 4524              	.LVL235:
 4525              	.L307:
  85:sardinia.cpp  **** 		}
 4526              		.loc 12 85 14 view .LVU1191
 4527              	.LBE633:
  96:sardinia.cpp  **** 
 4528              		.loc 12 96 1 view .LVU1192
 4529 0164 03B0     		add	sp, sp, #12
 4530              		.cfi_remember_state
 4531              		.cfi_def_cfa_offset 36
 4532              		@ sp needed
 4533 0166 BDE8F08F 		pop	{r4, r5, r6, r7, r8, r9, r10, fp, pc}
 4534              	.LVL236:
 4535              	.L327:
 4536              		.cfi_restore_state
 4537              	.LBB678:
  72:sardinia.cpp  **** 		}
 4538              		.loc 12 72 4 is_stmt 1 view .LVU1193
  72:sardinia.cpp  **** 		}
 4539              		.loc 12 72 35 is_stmt 0 view .LVU1194
 4540 016a FFF7FEFF 		bl	_Z19FullSampleGetSamplev
 4541              	.LVL237:
  89:sardinia.cpp  **** 		outputMix *= outputAmp;
 4542              		.loc 12 89 24 view .LVU1195
 4543 016e DBED007A 		vldr.32	s15, [fp]
  72:sardinia.cpp  **** 		}
 4544              		.loc 12 72 14 view .LVU1196
 4545 0172 85ED000A 		vstr.32	s0, [r5]
 4546 0176 5DE7     		b	.L314
 4547              	.L330:
 4548              		.align	2
 4549              	.L329:
 4550 0178 00000000 		.word	.LANCHOR37
 4551 017c 00000000 		.word	.LANCHOR38
 4552 0180 00000000 		.word	.LANCHOR36
ARM GAS  /var/folders/m5/x8wc2gdj7z5cpgcqdsb_gkj40000gn/T//ccPXNgbP.s 			page 123


 4553 0184 00000000 		.word	.LANCHOR33
 4554 0188 00000000 		.word	.LANCHOR34
 4555 018c 00000000 		.word	.LANCHOR13
 4556 0190 00000000 		.word	recordingBuffer
 4557 0194 00000000 		.word	.LANCHOR35
 4558 0198 00000000 		.word	.LANCHOR31
 4559 019c 00000000 		.word	.LANCHOR1
 4560 01a0 00000000 		.word	.LANCHOR6
 4561 01a4 00000000 		.word	.LANCHOR14
 4562 01a8 00000000 		.word	.LANCHOR4
 4563 01ac 00000000 		.word	.LANCHOR15
 4564 01b0 00000000 		.word	.LANCHOR16
 4565 01b4 00000000 		.word	.LANCHOR18
 4566 01b8 00000000 		.word	.LANCHOR39
 4567              	.LBE678:
 4568              		.cfi_endproc
 4569              	.LFE4708:
 4571              		.section	.text._Z20UpdateControlButtonsv,"ax",%progbits
 4572              		.align	1
 4573              		.p2align 2,,3
 4574              		.global	_Z20UpdateControlButtonsv
 4575              		.syntax unified
 4576              		.thumb
 4577              		.thumb_func
 4579              	_Z20UpdateControlButtonsv:
 4580              	.LFB4713:
 255:sardinia.cpp  **** 	for(int i = 0; i < 8; i++)
 4581              		.loc 12 255 1 is_stmt 1 view -0
 4582              		.cfi_startproc
 4583              		@ args = 0, pretend = 0, frame = 0
 4584              		@ frame_needed = 0, uses_anonymous_args = 0
 256:sardinia.cpp  **** 	{
 4585              		.loc 12 256 2 view .LVU1198
 4586              	.LVL238:
 4587              	.LBB679:
 256:sardinia.cpp  **** 	{
 4588              		.loc 12 256 19 view .LVU1199
 4589              	.LBE679:
 255:sardinia.cpp  **** 	for(int i = 0; i < 8; i++)
 4590              		.loc 12 255 1 is_stmt 0 view .LVU1200
 4591 0000 38B5     		push	{r3, r4, r5, lr}
 4592              		.cfi_def_cfa_offset 16
 4593              		.cfi_offset 3, -16
 4594              		.cfi_offset 4, -12
 4595              		.cfi_offset 5, -8
 4596              		.cfi_offset 14, -4
 4597 0002 0B4D     		ldr	r5, .L335
 4598              	.LBB680:
 256:sardinia.cpp  **** 	{
 4599              		.loc 12 256 10 view .LVU1201
 4600 0004 0024     		movs	r4, #0
 4601              	.LVL239:
 4602              	.L332:
 258:sardinia.cpp  **** 	}
 4603              		.loc 12 258 3 is_stmt 1 discriminator 2 view .LVU1202
 258:sardinia.cpp  **** 	}
 4604              		.loc 12 258 46 is_stmt 0 discriminator 2 view .LVU1203
ARM GAS  /var/folders/m5/x8wc2gdj7z5cpgcqdsb_gkj40000gn/T//ccPXNgbP.s 			page 124


 4605 0006 E2B2     		uxtb	r2, r4
 4606 0008 0521     		movs	r1, #5
 4607 000a 0A48     		ldr	r0, .L335+4
 256:sardinia.cpp  **** 	{
 4608              		.loc 12 256 2 discriminator 2 view .LVU1204
 4609 000c 0134     		adds	r4, r4, #1
 4610              	.LVL240:
 258:sardinia.cpp  **** 	}
 4611              		.loc 12 258 46 discriminator 2 view .LVU1205
 4612 000e FFF7FEFF 		bl	_ZNK5daisy9AdcHandle11GetMuxFloatEhh
 4613              	.LVL241:
 258:sardinia.cpp  **** 	}
 4614              		.loc 12 258 53 discriminator 2 view .LVU1206
 4615 0012 F6EE007A 		vmov.f32	s15, #5.0e-1
 4616 0016 B4EEE70A 		vcmpe.f32	s0, s15
 4617 001a F1EE10FA 		vmrs	APSR_nzcv, FPSCR
 4618 001e 4CBF     		ite	mi
 4619 0020 0123     		movmi	r3, #1
 4620 0022 0023     		movpl	r3, #0
 256:sardinia.cpp  **** 	{
 4621              		.loc 12 256 19 discriminator 2 view .LVU1207
 4622 0024 082C     		cmp	r4, #8
 258:sardinia.cpp  **** 	}
 4623              		.loc 12 258 53 discriminator 2 view .LVU1208
 4624 0026 05F8013F 		strb	r3, [r5, #1]!
 256:sardinia.cpp  **** 	{
 4625              		.loc 12 256 2 is_stmt 1 discriminator 2 view .LVU1209
 4626              	.LVL242:
 256:sardinia.cpp  **** 	{
 4627              		.loc 12 256 19 discriminator 2 view .LVU1210
 4628 002a ECD1     		bne	.L332
 4629              	.LBE680:
 260:sardinia.cpp  **** 
 4630              		.loc 12 260 1 is_stmt 0 view .LVU1211
 4631 002c 38BD     		pop	{r3, r4, r5, pc}
 4632              	.LVL243:
 4633              	.L336:
 260:sardinia.cpp  **** 
 4634              		.loc 12 260 1 view .LVU1212
 4635 002e 00BF     		.align	2
 4636              	.L335:
 4637 0030 FFFFFFFF 		.word	.LANCHOR11-1
 4638 0034 18000000 		.word	.LANCHOR28+24
 4639              		.cfi_endproc
 4640              	.LFE4713:
 4642              		.section	.text._Z25RecordControlButtonStatesv,"ax",%progbits
 4643              		.align	1
 4644              		.p2align 2,,3
 4645              		.global	_Z25RecordControlButtonStatesv
 4646              		.syntax unified
 4647              		.thumb
 4648              		.thumb_func
 4650              	_Z25RecordControlButtonStatesv:
 4651              	.LFB4714:
 263:sardinia.cpp  **** 	for(int i = 0; i < 8; i++)
 4652              		.loc 12 263 1 is_stmt 1 view -0
 4653              		.cfi_startproc
ARM GAS  /var/folders/m5/x8wc2gdj7z5cpgcqdsb_gkj40000gn/T//ccPXNgbP.s 			page 125


 4654              		@ args = 0, pretend = 0, frame = 0
 4655              		@ frame_needed = 0, uses_anonymous_args = 0
 4656              		@ link register save eliminated.
 264:sardinia.cpp  **** 	{
 4657              		.loc 12 264 2 view .LVU1214
 4658              	.LVL244:
 4659              	.LBB681:
 264:sardinia.cpp  **** 	{
 4660              		.loc 12 264 19 view .LVU1215
 266:sardinia.cpp  **** 	}
 4661              		.loc 12 266 30 is_stmt 0 view .LVU1216
 4662 0000 034A     		ldr	r2, .L338
 4663 0002 044B     		ldr	r3, .L338+4
 4664 0004 92E80300 		ldm	r2, {r0, r1}
 4665 0008 83E80300 		stm	r3, {r0, r1}
 4666              	.LVL245:
 266:sardinia.cpp  **** 	}
 4667              		.loc 12 266 30 view .LVU1217
 4668              	.LBE681:
 268:sardinia.cpp  **** 
 4669              		.loc 12 268 1 view .LVU1218
 4670 000c 7047     		bx	lr
 4671              	.L339:
 4672 000e 00BF     		.align	2
 4673              	.L338:
 4674 0010 00000000 		.word	.LANCHOR11
 4675 0014 00000000 		.word	.LANCHOR12
 4676              		.cfi_endproc
 4677              	.LFE4714:
 4679              		.section	.text._Z10ModeSelectv,"ax",%progbits
 4680              		.align	1
 4681              		.p2align 2,,3
 4682              		.global	_Z10ModeSelectv
 4683              		.syntax unified
 4684              		.thumb
 4685              		.thumb_func
 4687              	_Z10ModeSelectv:
 4688              	.LFB4715:
 271:sardinia.cpp  **** 	if(RisingEdge_ControlButtons(2)) // Adjusts the output amplitude based on the knob
 4689              		.loc 12 271 1 is_stmt 1 view -0
 4690              		.cfi_startproc
 4691              		@ args = 0, pretend = 0, frame = 0
 4692              		@ frame_needed = 0, uses_anonymous_args = 0
 4693              		@ link register save eliminated.
 272:sardinia.cpp  **** 	{
 4694              		.loc 12 272 2 view .LVU1220
 4695              	.LVL246:
 4696              	.LBB698:
 4697              	.LBI698:
 123:hardware.h    **** bool RisingEdge_ControlButtons(int buttonNum)
 4698              		.loc 10 123 6 view .LVU1221
 4699              	.LBB699:
 125:hardware.h    **** 	if(controlButtonStates[buttonNum] == true && prevControlButtonStates[buttonNum] == false)
 4700              		.loc 10 125 2 view .LVU1222
 125:hardware.h    **** 	if(controlButtonStates[buttonNum] == true && prevControlButtonStates[buttonNum] == false)
 4701              		.loc 10 125 34 is_stmt 0 view .LVU1223
 4702 0000 084B     		ldr	r3, .L349
ARM GAS  /var/folders/m5/x8wc2gdj7z5cpgcqdsb_gkj40000gn/T//ccPXNgbP.s 			page 126


 125:hardware.h    **** 	if(controlButtonStates[buttonNum] == true && prevControlButtonStates[buttonNum] == false)
 4703              		.loc 10 125 2 view .LVU1224
 4704 0002 9A78     		ldrb	r2, [r3, #2]	@ zero_extendqisi2
 4705 0004 2AB1     		cbz	r2, .L341
 125:hardware.h    **** 	if(controlButtonStates[buttonNum] == true && prevControlButtonStates[buttonNum] == false)
 4706              		.loc 10 125 80 view .LVU1225
 4707 0006 084A     		ldr	r2, .L349+4
 125:hardware.h    **** 	if(controlButtonStates[buttonNum] == true && prevControlButtonStates[buttonNum] == false)
 4708              		.loc 10 125 44 view .LVU1226
 4709 0008 9278     		ldrb	r2, [r2, #2]	@ zero_extendqisi2
 4710 000a 12B9     		cbnz	r2, .L341
 4711              	.LVL247:
 125:hardware.h    **** 	if(controlButtonStates[buttonNum] == true && prevControlButtonStates[buttonNum] == false)
 4712              		.loc 10 125 44 view .LVU1227
 4713              	.LBE699:
 4714              	.LBE698:
 274:sardinia.cpp  **** 	}
 4715              		.loc 12 274 3 is_stmt 1 view .LVU1228
 4716              	.LBB701:
 4717              	.LBI701:
  77:display.h     **** {
 4718              		.loc 11 77 6 view .LVU1229
 4719              	.LBB702:
  79:display.h     **** 	{
 4720              		.loc 11 79 2 view .LVU1230
  81:display.h     **** 	}
 4721              		.loc 11 81 3 view .LVU1231
  81:display.h     **** 	}
 4722              		.loc 11 81 8 is_stmt 0 view .LVU1232
 4723 000c 074B     		ldr	r3, .L349+8
 4724 000e 1A70     		strb	r2, [r3]
 4725              		.loc 11 87 1 view .LVU1233
 4726 0010 7047     		bx	lr
 4727              	.LVL248:
 4728              	.L341:
 4729              		.loc 11 87 1 view .LVU1234
 4730              	.LBE702:
 4731              	.LBE701:
 4732              	.LBB703:
 4733              	.LBB700:
 131:hardware.h    **** 		return false;
 4734              		.loc 10 131 3 is_stmt 1 view .LVU1235
 131:hardware.h    **** 		return false;
 4735              		.loc 10 131 3 is_stmt 0 view .LVU1236
 4736              	.LBE700:
 4737              	.LBE703:
 276:sardinia.cpp  **** 	{
 4738              		.loc 12 276 7 is_stmt 1 view .LVU1237
 4739              	.LBB704:
 4740              	.LBI704:
 123:hardware.h    **** bool RisingEdge_ControlButtons(int buttonNum)
 4741              		.loc 10 123 6 view .LVU1238
 4742              	.LBB705:
 125:hardware.h    **** 	if(controlButtonStates[buttonNum] == true && prevControlButtonStates[buttonNum] == false)
 4743              		.loc 10 125 2 view .LVU1239
 4744 0012 DB78     		ldrb	r3, [r3, #3]	@ zero_extendqisi2
 4745 0014 2BB1     		cbz	r3, .L340
ARM GAS  /var/folders/m5/x8wc2gdj7z5cpgcqdsb_gkj40000gn/T//ccPXNgbP.s 			page 127


 4746              	.LBE705:
 4747              	.LBE704:
 4748              	.LBB706:
 4749              	.LBI706:
 270:sardinia.cpp  **** {
 4750              		.loc 12 270 6 view .LVU1240
 4751              	.LBB707:
 4752              	.LBB708:
 125:hardware.h    **** 	if(controlButtonStates[buttonNum] == true && prevControlButtonStates[buttonNum] == false)
 4753              		.loc 10 125 80 is_stmt 0 view .LVU1241
 4754 0016 044B     		ldr	r3, .L349+4
 125:hardware.h    **** 	if(controlButtonStates[buttonNum] == true && prevControlButtonStates[buttonNum] == false)
 4755              		.loc 10 125 44 view .LVU1242
 4756 0018 DB78     		ldrb	r3, [r3, #3]	@ zero_extendqisi2
 4757 001a 13B9     		cbnz	r3, .L340
 4758              	.LBE708:
 4759              	.LBE707:
 4760              	.LBE706:
 4761              		.loc 12 278 3 is_stmt 1 view .LVU1243
 4762              	.LVL249:
 4763              	.LBB711:
 4764              	.LBB709:
 4765              	.LBI709:
  77:display.h     **** {
 4766              		.loc 11 77 6 view .LVU1244
 4767              	.LBB710:
  79:display.h     **** 	{
 4768              		.loc 11 79 2 view .LVU1245
  83:display.h     **** 	{
 4769              		.loc 11 83 7 view .LVU1246
  85:display.h     **** 	}
 4770              		.loc 11 85 3 view .LVU1247
  85:display.h     **** 	}
 4771              		.loc 11 85 8 is_stmt 0 view .LVU1248
 4772 001c 034B     		ldr	r3, .L349+8
 4773 001e 0122     		movs	r2, #1
 4774 0020 1A70     		strb	r2, [r3]
 4775              	.LVL250:
 4776              	.L340:
  85:display.h     **** 	}
 4777              		.loc 11 85 8 view .LVU1249
 4778              	.LBE710:
 4779              	.LBE709:
 4780              	.LBE711:
 279:sardinia.cpp  **** 	}
 280:sardinia.cpp  **** }
 4781              		.loc 12 280 1 view .LVU1250
 4782 0022 7047     		bx	lr
 4783              	.L350:
 4784              		.align	2
 4785              	.L349:
 4786 0024 00000000 		.word	.LANCHOR11
 4787 0028 00000000 		.word	.LANCHOR12
 4788 002c 00000000 		.word	.LANCHOR27
 4789              		.cfi_endproc
 4790              	.LFE4715:
 4792              		.section	.text.startup._GLOBAL__sub_I_adcConfig,"ax",%progbits
ARM GAS  /var/folders/m5/x8wc2gdj7z5cpgcqdsb_gkj40000gn/T//ccPXNgbP.s 			page 128


 4793              		.align	1
 4794              		.p2align 2,,3
 4795              		.syntax unified
 4796              		.thumb
 4797              		.thumb_func
 4799              	_GLOBAL__sub_I_adcConfig:
 4800              	.LFB5278:
 4801              		.loc 12 280 1 is_stmt 1 view -0
 4802              		.cfi_startproc
 4803              		@ args = 0, pretend = 0, frame = 0
 4804              		@ frame_needed = 0, uses_anonymous_args = 0
 4805              	.LBB743:
 4806              	.LBI743:
 4807              		.loc 12 280 1 view .LVU1252
 4808              	.LVL251:
 4809              	.LBB744:
 4810              	.LBB745:
 4811              	.LBI745:
  20:/Users/dominicfrugoli/Desktop/ProgrammingCode/DaisyCode/DaisyExamples/libDaisy/src/hid/encoder.h ****     ~Encoder() {}
 4812              		.loc 2 20 5 view .LVU1253
 4813              	.LBB746:
 4814              	.LBB747:
 4815              	.LBI747:
  41:/Users/dominicfrugoli/Desktop/ProgrammingCode/DaisyCode/DaisyExamples/libDaisy/src/hid/switch.h ****     ~Switch() {}
 4816              		.loc 1 41 5 view .LVU1254
  41:/Users/dominicfrugoli/Desktop/ProgrammingCode/DaisyCode/DaisyExamples/libDaisy/src/hid/switch.h ****     ~Switch() {}
 4817              		.loc 1 41 5 is_stmt 0 view .LVU1255
 4818              	.LBE747:
 4819              	.LBE746:
 4820              	.LBE745:
 4821              	.LBE744:
 4822              	.LBE743:
 4823              		.loc 12 280 1 view .LVU1256
 4824 0000 10B5     		push	{r4, lr}
 4825              		.cfi_def_cfa_offset 8
 4826              		.cfi_offset 4, -8
 4827              		.cfi_offset 14, -4
 4828              	.LBB775:
 4829              	.LBB773:
  61:hardware.h    **** Switch playButton;
 4830              		.loc 10 61 8 view .LVU1257
 4831 0002 104C     		ldr	r4, .L353
  60:hardware.h    **** Encoder encoder;
 4832              		.loc 10 60 9 view .LVU1258
 4833 0004 104A     		ldr	r2, .L353+4
 4834 0006 1149     		ldr	r1, .L353+8
 4835 0008 1148     		ldr	r0, .L353+12
 4836 000a FFF7FEFF 		bl	__aeabi_atexit
 4837              	.LVL252:
 4838              	.LBB748:
 4839              	.LBI748:
  41:/Users/dominicfrugoli/Desktop/ProgrammingCode/DaisyCode/DaisyExamples/libDaisy/src/hid/switch.h ****     ~Switch() {}
 4840              		.loc 1 41 5 is_stmt 1 view .LVU1259
  41:/Users/dominicfrugoli/Desktop/ProgrammingCode/DaisyCode/DaisyExamples/libDaisy/src/hid/switch.h ****     ~Switch() {}
 4841              		.loc 1 41 5 is_stmt 0 view .LVU1260
 4842              	.LBE748:
  61:hardware.h    **** Switch playButton;
ARM GAS  /var/folders/m5/x8wc2gdj7z5cpgcqdsb_gkj40000gn/T//ccPXNgbP.s 			page 129


 4843              		.loc 10 61 8 view .LVU1261
 4844 000e 2146     		mov	r1, r4
 4845 0010 0D4A     		ldr	r2, .L353+4
 4846 0012 1048     		ldr	r0, .L353+16
 4847 0014 FFF7FEFF 		bl	__aeabi_atexit
 4848              	.LVL253:
 4849              	.LBB749:
 4850              	.LBI749:
  41:/Users/dominicfrugoli/Desktop/ProgrammingCode/DaisyCode/DaisyExamples/libDaisy/src/hid/switch.h ****     ~Switch() {}
 4851              		.loc 1 41 5 is_stmt 1 view .LVU1262
  41:/Users/dominicfrugoli/Desktop/ProgrammingCode/DaisyCode/DaisyExamples/libDaisy/src/hid/switch.h ****     ~Switch() {}
 4852              		.loc 1 41 5 is_stmt 0 view .LVU1263
 4853              	.LBE749:
  62:hardware.h    **** Switch recButton;
 4854              		.loc 10 62 8 view .LVU1264
 4855 0018 2146     		mov	r1, r4
 4856 001a 0B4A     		ldr	r2, .L353+4
 4857 001c 0E48     		ldr	r0, .L353+20
 4858 001e FFF7FEFF 		bl	__aeabi_atexit
 4859              	.LVL254:
 4860              	.LBB750:
 4861              	.LBI750:
  22:/Users/dominicfrugoli/Desktop/ProgrammingCode/DaisyCode/DaisyExamples/libDaisy/src/dev/lcd_hd44780.h ****     ~LcdHD44780() {}
 4862              		.loc 3 22 5 is_stmt 1 view .LVU1265
  22:/Users/dominicfrugoli/Desktop/ProgrammingCode/DaisyCode/DaisyExamples/libDaisy/src/dev/lcd_hd44780.h ****     ~LcdHD44780() {}
 4863              		.loc 3 22 5 is_stmt 0 view .LVU1266
 4864              	.LBE750:
  43:display.h     **** enum Mode mode = record;
 4865              		.loc 11 43 12 view .LVU1267
 4866 0022 094A     		ldr	r2, .L353+4
 4867 0024 0D49     		ldr	r1, .L353+24
 4868 0026 0E48     		ldr	r0, .L353+28
 4869 0028 FFF7FEFF 		bl	__aeabi_atexit
 4870              	.LVL255:
 4871              	.LBB751:
 4872              	.LBI751:
  21:/Users/dominicfrugoli/Desktop/ProgrammingCode/DaisyCode/DaisyExamples/libDaisy/src/daisy_seed.h ****     ~DaisySeed() {}
 4873              		.loc 4 21 5 is_stmt 1 view .LVU1268
 4874              	.LBB752:
 4875              	.LBB753:
 4876              	.LBI753:
 4877              		.file 14 "/Users/dominicfrugoli/Desktop/ProgrammingCode/DaisyCode/DaisyExamples/libDaisy/src/per/q
   1:/Users/dominicfrugoli/Desktop/ProgrammingCode/DaisyCode/DaisyExamples/libDaisy/src/per/qspi.h **** #ifndef DSY_QSPI
   2:/Users/dominicfrugoli/Desktop/ProgrammingCode/DaisyCode/DaisyExamples/libDaisy/src/per/qspi.h **** #define DSY_QSPI /**< Macro */
   3:/Users/dominicfrugoli/Desktop/ProgrammingCode/DaisyCode/DaisyExamples/libDaisy/src/per/qspi.h **** 
   4:/Users/dominicfrugoli/Desktop/ProgrammingCode/DaisyCode/DaisyExamples/libDaisy/src/per/qspi.h **** #ifndef UNIT_TEST // for unit tests, a dummy implementation
   5:/Users/dominicfrugoli/Desktop/ProgrammingCode/DaisyCode/DaisyExamples/libDaisy/src/per/qspi.h **** 
   6:/Users/dominicfrugoli/Desktop/ProgrammingCode/DaisyCode/DaisyExamples/libDaisy/src/per/qspi.h **** #include <cstdint>
   7:/Users/dominicfrugoli/Desktop/ProgrammingCode/DaisyCode/DaisyExamples/libDaisy/src/per/qspi.h **** #include "daisy_core.h" // Added for dsy_gpio_pin typedef
   8:/Users/dominicfrugoli/Desktop/ProgrammingCode/DaisyCode/DaisyExamples/libDaisy/src/per/qspi.h **** 
   9:/Users/dominicfrugoli/Desktop/ProgrammingCode/DaisyCode/DaisyExamples/libDaisy/src/per/qspi.h **** #define DSY_QSPI_TEXT       \
  10:/Users/dominicfrugoli/Desktop/ProgrammingCode/DaisyCode/DaisyExamples/libDaisy/src/per/qspi.h ****     __attribute__((section( \
  11:/Users/dominicfrugoli/Desktop/ProgrammingCode/DaisyCode/DaisyExamples/libDaisy/src/per/qspi.h ****         ".qspiflash_text"))) /**< used for reading memory in memory_mapped mode. */
  12:/Users/dominicfrugoli/Desktop/ProgrammingCode/DaisyCode/DaisyExamples/libDaisy/src/per/qspi.h **** #define DSY_QSPI_DATA       \
  13:/Users/dominicfrugoli/Desktop/ProgrammingCode/DaisyCode/DaisyExamples/libDaisy/src/per/qspi.h ****     __attribute__((section( \
  14:/Users/dominicfrugoli/Desktop/ProgrammingCode/DaisyCode/DaisyExamples/libDaisy/src/per/qspi.h ****         ".qspiflash_data"))) /**< used for reading memory in memory_mapped mode. */
  15:/Users/dominicfrugoli/Desktop/ProgrammingCode/DaisyCode/DaisyExamples/libDaisy/src/per/qspi.h **** #define DSY_QSPI_BSS        \
ARM GAS  /var/folders/m5/x8wc2gdj7z5cpgcqdsb_gkj40000gn/T//ccPXNgbP.s 			page 130


  16:/Users/dominicfrugoli/Desktop/ProgrammingCode/DaisyCode/DaisyExamples/libDaisy/src/per/qspi.h ****     __attribute__((section( \
  17:/Users/dominicfrugoli/Desktop/ProgrammingCode/DaisyCode/DaisyExamples/libDaisy/src/per/qspi.h ****         ".qspiflash_bss"))) /**< used for reading memory in memory_mapped mode. */
  18:/Users/dominicfrugoli/Desktop/ProgrammingCode/DaisyCode/DaisyExamples/libDaisy/src/per/qspi.h **** 
  19:/Users/dominicfrugoli/Desktop/ProgrammingCode/DaisyCode/DaisyExamples/libDaisy/src/per/qspi.h **** namespace daisy
  20:/Users/dominicfrugoli/Desktop/ProgrammingCode/DaisyCode/DaisyExamples/libDaisy/src/per/qspi.h **** {
  21:/Users/dominicfrugoli/Desktop/ProgrammingCode/DaisyCode/DaisyExamples/libDaisy/src/per/qspi.h **** /** @addtogroup serial
  22:/Users/dominicfrugoli/Desktop/ProgrammingCode/DaisyCode/DaisyExamples/libDaisy/src/per/qspi.h **** @{
  23:/Users/dominicfrugoli/Desktop/ProgrammingCode/DaisyCode/DaisyExamples/libDaisy/src/per/qspi.h **** */
  24:/Users/dominicfrugoli/Desktop/ProgrammingCode/DaisyCode/DaisyExamples/libDaisy/src/per/qspi.h **** 
  25:/Users/dominicfrugoli/Desktop/ProgrammingCode/DaisyCode/DaisyExamples/libDaisy/src/per/qspi.h **** /** 
  26:/Users/dominicfrugoli/Desktop/ProgrammingCode/DaisyCode/DaisyExamples/libDaisy/src/per/qspi.h ****  Driver for QSPI peripheral to interface with external flash memory. \n 
  27:/Users/dominicfrugoli/Desktop/ProgrammingCode/DaisyCode/DaisyExamples/libDaisy/src/per/qspi.h ****     Currently supported QSPI Devices: \n 
  28:/Users/dominicfrugoli/Desktop/ProgrammingCode/DaisyCode/DaisyExamples/libDaisy/src/per/qspi.h ****     * IS25LP080D
  29:/Users/dominicfrugoli/Desktop/ProgrammingCode/DaisyCode/DaisyExamples/libDaisy/src/per/qspi.h **** */
  30:/Users/dominicfrugoli/Desktop/ProgrammingCode/DaisyCode/DaisyExamples/libDaisy/src/per/qspi.h **** class QSPIHandle
  31:/Users/dominicfrugoli/Desktop/ProgrammingCode/DaisyCode/DaisyExamples/libDaisy/src/per/qspi.h **** {
  32:/Users/dominicfrugoli/Desktop/ProgrammingCode/DaisyCode/DaisyExamples/libDaisy/src/per/qspi.h ****   public:
  33:/Users/dominicfrugoli/Desktop/ProgrammingCode/DaisyCode/DaisyExamples/libDaisy/src/per/qspi.h ****     enum Result
  34:/Users/dominicfrugoli/Desktop/ProgrammingCode/DaisyCode/DaisyExamples/libDaisy/src/per/qspi.h ****     {
  35:/Users/dominicfrugoli/Desktop/ProgrammingCode/DaisyCode/DaisyExamples/libDaisy/src/per/qspi.h ****         OK = 0,
  36:/Users/dominicfrugoli/Desktop/ProgrammingCode/DaisyCode/DaisyExamples/libDaisy/src/per/qspi.h ****         ERR
  37:/Users/dominicfrugoli/Desktop/ProgrammingCode/DaisyCode/DaisyExamples/libDaisy/src/per/qspi.h ****     };
  38:/Users/dominicfrugoli/Desktop/ProgrammingCode/DaisyCode/DaisyExamples/libDaisy/src/per/qspi.h **** 
  39:/Users/dominicfrugoli/Desktop/ProgrammingCode/DaisyCode/DaisyExamples/libDaisy/src/per/qspi.h ****     /** Indicates the current status of the module. 
  40:/Users/dominicfrugoli/Desktop/ProgrammingCode/DaisyCode/DaisyExamples/libDaisy/src/per/qspi.h ****          *  Warnings are indicated by a leading W.
  41:/Users/dominicfrugoli/Desktop/ProgrammingCode/DaisyCode/DaisyExamples/libDaisy/src/per/qspi.h ****          *  Errors are indicated by a leading E and cause an immediate exit.
  42:/Users/dominicfrugoli/Desktop/ProgrammingCode/DaisyCode/DaisyExamples/libDaisy/src/per/qspi.h ****          * 
  43:/Users/dominicfrugoli/Desktop/ProgrammingCode/DaisyCode/DaisyExamples/libDaisy/src/per/qspi.h ****          *  \param GOOD - No errors have been reported.
  44:/Users/dominicfrugoli/Desktop/ProgrammingCode/DaisyCode/DaisyExamples/libDaisy/src/per/qspi.h ****          *  \param E_HAL_ERROR - HAL code did not return HAL_OK.
  45:/Users/dominicfrugoli/Desktop/ProgrammingCode/DaisyCode/DaisyExamples/libDaisy/src/per/qspi.h ****          *  \param E_SWITCHING_MODES - An error was encountered while switching QSPI peripheral mod
  46:/Users/dominicfrugoli/Desktop/ProgrammingCode/DaisyCode/DaisyExamples/libDaisy/src/per/qspi.h ****          *  \param E_INVALID_MODE - QSPI should not be written to while the program is executing fr
  47:/Users/dominicfrugoli/Desktop/ProgrammingCode/DaisyCode/DaisyExamples/libDaisy/src/per/qspi.h ****          */
  48:/Users/dominicfrugoli/Desktop/ProgrammingCode/DaisyCode/DaisyExamples/libDaisy/src/per/qspi.h ****     enum Status
  49:/Users/dominicfrugoli/Desktop/ProgrammingCode/DaisyCode/DaisyExamples/libDaisy/src/per/qspi.h ****     {
  50:/Users/dominicfrugoli/Desktop/ProgrammingCode/DaisyCode/DaisyExamples/libDaisy/src/per/qspi.h ****         GOOD = 0,
  51:/Users/dominicfrugoli/Desktop/ProgrammingCode/DaisyCode/DaisyExamples/libDaisy/src/per/qspi.h ****         E_HAL_ERROR,
  52:/Users/dominicfrugoli/Desktop/ProgrammingCode/DaisyCode/DaisyExamples/libDaisy/src/per/qspi.h ****         E_SWITCHING_MODES,
  53:/Users/dominicfrugoli/Desktop/ProgrammingCode/DaisyCode/DaisyExamples/libDaisy/src/per/qspi.h ****         E_INVALID_MODE,
  54:/Users/dominicfrugoli/Desktop/ProgrammingCode/DaisyCode/DaisyExamples/libDaisy/src/per/qspi.h ****     };
  55:/Users/dominicfrugoli/Desktop/ProgrammingCode/DaisyCode/DaisyExamples/libDaisy/src/per/qspi.h **** 
  56:/Users/dominicfrugoli/Desktop/ProgrammingCode/DaisyCode/DaisyExamples/libDaisy/src/per/qspi.h ****     /** Configuration structure for interfacing with QSPI Driver */
  57:/Users/dominicfrugoli/Desktop/ProgrammingCode/DaisyCode/DaisyExamples/libDaisy/src/per/qspi.h ****     struct Config
  58:/Users/dominicfrugoli/Desktop/ProgrammingCode/DaisyCode/DaisyExamples/libDaisy/src/per/qspi.h ****     {
  59:/Users/dominicfrugoli/Desktop/ProgrammingCode/DaisyCode/DaisyExamples/libDaisy/src/per/qspi.h ****         /** Flash Devices supported. (Both of these are more-or-less the same, just different sizes
  60:/Users/dominicfrugoli/Desktop/ProgrammingCode/DaisyCode/DaisyExamples/libDaisy/src/per/qspi.h ****         enum Device
  61:/Users/dominicfrugoli/Desktop/ProgrammingCode/DaisyCode/DaisyExamples/libDaisy/src/per/qspi.h ****         {
  62:/Users/dominicfrugoli/Desktop/ProgrammingCode/DaisyCode/DaisyExamples/libDaisy/src/per/qspi.h ****             IS25LP080D,  /**< & */
  63:/Users/dominicfrugoli/Desktop/ProgrammingCode/DaisyCode/DaisyExamples/libDaisy/src/per/qspi.h ****             IS25LP064A,  /**< & */
  64:/Users/dominicfrugoli/Desktop/ProgrammingCode/DaisyCode/DaisyExamples/libDaisy/src/per/qspi.h ****             DEVICE_LAST, /**< & */
  65:/Users/dominicfrugoli/Desktop/ProgrammingCode/DaisyCode/DaisyExamples/libDaisy/src/per/qspi.h ****         };
  66:/Users/dominicfrugoli/Desktop/ProgrammingCode/DaisyCode/DaisyExamples/libDaisy/src/per/qspi.h **** 
  67:/Users/dominicfrugoli/Desktop/ProgrammingCode/DaisyCode/DaisyExamples/libDaisy/src/per/qspi.h ****         /** 
  68:/Users/dominicfrugoli/Desktop/ProgrammingCode/DaisyCode/DaisyExamples/libDaisy/src/per/qspi.h ****         Modes of operation.
  69:/Users/dominicfrugoli/Desktop/ProgrammingCode/DaisyCode/DaisyExamples/libDaisy/src/per/qspi.h ****         Memory Mapped mode: QSPI configured so that the QSPI can be
  70:/Users/dominicfrugoli/Desktop/ProgrammingCode/DaisyCode/DaisyExamples/libDaisy/src/per/qspi.h ****         read from starting address 0x90000000. Writing is not
  71:/Users/dominicfrugoli/Desktop/ProgrammingCode/DaisyCode/DaisyExamples/libDaisy/src/per/qspi.h ****         possible in this mode. \n 
  72:/Users/dominicfrugoli/Desktop/ProgrammingCode/DaisyCode/DaisyExamples/libDaisy/src/per/qspi.h ****         Indirect Polling mode: Device driver enabled. 
ARM GAS  /var/folders/m5/x8wc2gdj7z5cpgcqdsb_gkj40000gn/T//ccPXNgbP.s 			page 131


  73:/Users/dominicfrugoli/Desktop/ProgrammingCode/DaisyCode/DaisyExamples/libDaisy/src/per/qspi.h ****         */
  74:/Users/dominicfrugoli/Desktop/ProgrammingCode/DaisyCode/DaisyExamples/libDaisy/src/per/qspi.h ****         enum Mode
  75:/Users/dominicfrugoli/Desktop/ProgrammingCode/DaisyCode/DaisyExamples/libDaisy/src/per/qspi.h ****         {
  76:/Users/dominicfrugoli/Desktop/ProgrammingCode/DaisyCode/DaisyExamples/libDaisy/src/per/qspi.h ****             MEMORY_MAPPED,    /**< & */
  77:/Users/dominicfrugoli/Desktop/ProgrammingCode/DaisyCode/DaisyExamples/libDaisy/src/per/qspi.h ****             INDIRECT_POLLING, /**< & */
  78:/Users/dominicfrugoli/Desktop/ProgrammingCode/DaisyCode/DaisyExamples/libDaisy/src/per/qspi.h ****             MODE_LAST,
  79:/Users/dominicfrugoli/Desktop/ProgrammingCode/DaisyCode/DaisyExamples/libDaisy/src/per/qspi.h ****         };
  80:/Users/dominicfrugoli/Desktop/ProgrammingCode/DaisyCode/DaisyExamples/libDaisy/src/per/qspi.h **** 
  81:/Users/dominicfrugoli/Desktop/ProgrammingCode/DaisyCode/DaisyExamples/libDaisy/src/per/qspi.h ****         //SCK,  CE# (active low)
  82:/Users/dominicfrugoli/Desktop/ProgrammingCode/DaisyCode/DaisyExamples/libDaisy/src/per/qspi.h ****         struct
  83:/Users/dominicfrugoli/Desktop/ProgrammingCode/DaisyCode/DaisyExamples/libDaisy/src/per/qspi.h ****         {
  84:/Users/dominicfrugoli/Desktop/ProgrammingCode/DaisyCode/DaisyExamples/libDaisy/src/per/qspi.h ****             dsy_gpio_pin io0; /**< & */
  85:/Users/dominicfrugoli/Desktop/ProgrammingCode/DaisyCode/DaisyExamples/libDaisy/src/per/qspi.h ****             dsy_gpio_pin io1; /**< & */
  86:/Users/dominicfrugoli/Desktop/ProgrammingCode/DaisyCode/DaisyExamples/libDaisy/src/per/qspi.h ****             dsy_gpio_pin io2; /**< & */
  87:/Users/dominicfrugoli/Desktop/ProgrammingCode/DaisyCode/DaisyExamples/libDaisy/src/per/qspi.h ****             dsy_gpio_pin io3; /**< & */
  88:/Users/dominicfrugoli/Desktop/ProgrammingCode/DaisyCode/DaisyExamples/libDaisy/src/per/qspi.h ****             dsy_gpio_pin clk; /**< & */
  89:/Users/dominicfrugoli/Desktop/ProgrammingCode/DaisyCode/DaisyExamples/libDaisy/src/per/qspi.h ****             dsy_gpio_pin ncs; /**< & */
  90:/Users/dominicfrugoli/Desktop/ProgrammingCode/DaisyCode/DaisyExamples/libDaisy/src/per/qspi.h ****         } pin_config;
  91:/Users/dominicfrugoli/Desktop/ProgrammingCode/DaisyCode/DaisyExamples/libDaisy/src/per/qspi.h **** 
  92:/Users/dominicfrugoli/Desktop/ProgrammingCode/DaisyCode/DaisyExamples/libDaisy/src/per/qspi.h ****         Device device;
  93:/Users/dominicfrugoli/Desktop/ProgrammingCode/DaisyCode/DaisyExamples/libDaisy/src/per/qspi.h ****         Mode   mode;
  94:/Users/dominicfrugoli/Desktop/ProgrammingCode/DaisyCode/DaisyExamples/libDaisy/src/per/qspi.h ****     };
  95:/Users/dominicfrugoli/Desktop/ProgrammingCode/DaisyCode/DaisyExamples/libDaisy/src/per/qspi.h **** 
  96:/Users/dominicfrugoli/Desktop/ProgrammingCode/DaisyCode/DaisyExamples/libDaisy/src/per/qspi.h ****     /** 
  97:/Users/dominicfrugoli/Desktop/ProgrammingCode/DaisyCode/DaisyExamples/libDaisy/src/per/qspi.h ****         Initializes QSPI peripheral, and Resets, and prepares memory for access.
  98:/Users/dominicfrugoli/Desktop/ProgrammingCode/DaisyCode/DaisyExamples/libDaisy/src/per/qspi.h ****         \param config should be populated with the mode, device and pin_config before calling this 
  99:/Users/dominicfrugoli/Desktop/ProgrammingCode/DaisyCode/DaisyExamples/libDaisy/src/per/qspi.h ****         \return Result::OK or Result::ERR
 100:/Users/dominicfrugoli/Desktop/ProgrammingCode/DaisyCode/DaisyExamples/libDaisy/src/per/qspi.h ****         */
 101:/Users/dominicfrugoli/Desktop/ProgrammingCode/DaisyCode/DaisyExamples/libDaisy/src/per/qspi.h ****     Result Init(const Config& config);
 102:/Users/dominicfrugoli/Desktop/ProgrammingCode/DaisyCode/DaisyExamples/libDaisy/src/per/qspi.h **** 
 103:/Users/dominicfrugoli/Desktop/ProgrammingCode/DaisyCode/DaisyExamples/libDaisy/src/per/qspi.h ****     /** Returns the current config. */
 104:/Users/dominicfrugoli/Desktop/ProgrammingCode/DaisyCode/DaisyExamples/libDaisy/src/per/qspi.h ****     const Config& GetConfig() const;
 105:/Users/dominicfrugoli/Desktop/ProgrammingCode/DaisyCode/DaisyExamples/libDaisy/src/per/qspi.h **** 
 106:/Users/dominicfrugoli/Desktop/ProgrammingCode/DaisyCode/DaisyExamples/libDaisy/src/per/qspi.h ****     // Couldn't this just be called before anything else in init? That
 107:/Users/dominicfrugoli/Desktop/ProgrammingCode/DaisyCode/DaisyExamples/libDaisy/src/per/qspi.h ****     // would make manually calling it unnecessary.
 108:/Users/dominicfrugoli/Desktop/ProgrammingCode/DaisyCode/DaisyExamples/libDaisy/src/per/qspi.h ****     /** 
 109:/Users/dominicfrugoli/Desktop/ProgrammingCode/DaisyCode/DaisyExamples/libDaisy/src/per/qspi.h ****         Deinitializes the peripheral
 110:/Users/dominicfrugoli/Desktop/ProgrammingCode/DaisyCode/DaisyExamples/libDaisy/src/per/qspi.h ****         This should be called before reinitializing QSPI in a different mode.
 111:/Users/dominicfrugoli/Desktop/ProgrammingCode/DaisyCode/DaisyExamples/libDaisy/src/per/qspi.h ****         \return Result::OK or Result::ERR
 112:/Users/dominicfrugoli/Desktop/ProgrammingCode/DaisyCode/DaisyExamples/libDaisy/src/per/qspi.h ****         */
 113:/Users/dominicfrugoli/Desktop/ProgrammingCode/DaisyCode/DaisyExamples/libDaisy/src/per/qspi.h ****     Result DeInit();
 114:/Users/dominicfrugoli/Desktop/ProgrammingCode/DaisyCode/DaisyExamples/libDaisy/src/per/qspi.h **** 
 115:/Users/dominicfrugoli/Desktop/ProgrammingCode/DaisyCode/DaisyExamples/libDaisy/src/per/qspi.h ****     /** 
 116:/Users/dominicfrugoli/Desktop/ProgrammingCode/DaisyCode/DaisyExamples/libDaisy/src/per/qspi.h ****         Writes a single page to to the specified address on the QSPI chip.
 117:/Users/dominicfrugoli/Desktop/ProgrammingCode/DaisyCode/DaisyExamples/libDaisy/src/per/qspi.h ****         For IS25LP*, page size is 256 bytes.
 118:/Users/dominicfrugoli/Desktop/ProgrammingCode/DaisyCode/DaisyExamples/libDaisy/src/per/qspi.h ****         \param address Address to write to
 119:/Users/dominicfrugoli/Desktop/ProgrammingCode/DaisyCode/DaisyExamples/libDaisy/src/per/qspi.h ****         \param size Buffer size
 120:/Users/dominicfrugoli/Desktop/ProgrammingCode/DaisyCode/DaisyExamples/libDaisy/src/per/qspi.h ****         \param buffer Buffer to write
 121:/Users/dominicfrugoli/Desktop/ProgrammingCode/DaisyCode/DaisyExamples/libDaisy/src/per/qspi.h ****         \return Result::OK or Result::ERR
 122:/Users/dominicfrugoli/Desktop/ProgrammingCode/DaisyCode/DaisyExamples/libDaisy/src/per/qspi.h ****         */
 123:/Users/dominicfrugoli/Desktop/ProgrammingCode/DaisyCode/DaisyExamples/libDaisy/src/per/qspi.h ****     Result WritePage(uint32_t address, uint32_t size, uint8_t* buffer);
 124:/Users/dominicfrugoli/Desktop/ProgrammingCode/DaisyCode/DaisyExamples/libDaisy/src/per/qspi.h **** 
 125:/Users/dominicfrugoli/Desktop/ProgrammingCode/DaisyCode/DaisyExamples/libDaisy/src/per/qspi.h ****     /** 
 126:/Users/dominicfrugoli/Desktop/ProgrammingCode/DaisyCode/DaisyExamples/libDaisy/src/per/qspi.h ****         Writes data in buffer to to the QSPI. Starting at address to address+size 
 127:/Users/dominicfrugoli/Desktop/ProgrammingCode/DaisyCode/DaisyExamples/libDaisy/src/per/qspi.h ****         \param address Address to write to
 128:/Users/dominicfrugoli/Desktop/ProgrammingCode/DaisyCode/DaisyExamples/libDaisy/src/per/qspi.h ****         \param size Buffer size
 129:/Users/dominicfrugoli/Desktop/ProgrammingCode/DaisyCode/DaisyExamples/libDaisy/src/per/qspi.h ****         \param buffer Buffer to write
ARM GAS  /var/folders/m5/x8wc2gdj7z5cpgcqdsb_gkj40000gn/T//ccPXNgbP.s 			page 132


 130:/Users/dominicfrugoli/Desktop/ProgrammingCode/DaisyCode/DaisyExamples/libDaisy/src/per/qspi.h ****         \return Result::OK or Result::ERR
 131:/Users/dominicfrugoli/Desktop/ProgrammingCode/DaisyCode/DaisyExamples/libDaisy/src/per/qspi.h ****         */
 132:/Users/dominicfrugoli/Desktop/ProgrammingCode/DaisyCode/DaisyExamples/libDaisy/src/per/qspi.h ****     Result Write(uint32_t address, uint32_t size, uint8_t* buffer);
 133:/Users/dominicfrugoli/Desktop/ProgrammingCode/DaisyCode/DaisyExamples/libDaisy/src/per/qspi.h **** 
 134:/Users/dominicfrugoli/Desktop/ProgrammingCode/DaisyCode/DaisyExamples/libDaisy/src/per/qspi.h ****     /** 
 135:/Users/dominicfrugoli/Desktop/ProgrammingCode/DaisyCode/DaisyExamples/libDaisy/src/per/qspi.h ****         Erases the area specified on the chip.
 136:/Users/dominicfrugoli/Desktop/ProgrammingCode/DaisyCode/DaisyExamples/libDaisy/src/per/qspi.h ****         Erasures will happen by 4K, 32K or 64K increments.
 137:/Users/dominicfrugoli/Desktop/ProgrammingCode/DaisyCode/DaisyExamples/libDaisy/src/per/qspi.h ****         Smallest erase possible is 4kB at a time. (on IS25LP*)
 138:/Users/dominicfrugoli/Desktop/ProgrammingCode/DaisyCode/DaisyExamples/libDaisy/src/per/qspi.h ****         \param start_addr Address to begin erasing from
 139:/Users/dominicfrugoli/Desktop/ProgrammingCode/DaisyCode/DaisyExamples/libDaisy/src/per/qspi.h ****         \param end_addr  Address to stop erasing at
 140:/Users/dominicfrugoli/Desktop/ProgrammingCode/DaisyCode/DaisyExamples/libDaisy/src/per/qspi.h ****         \return Result::OK or Result::ERR
 141:/Users/dominicfrugoli/Desktop/ProgrammingCode/DaisyCode/DaisyExamples/libDaisy/src/per/qspi.h ****         */
 142:/Users/dominicfrugoli/Desktop/ProgrammingCode/DaisyCode/DaisyExamples/libDaisy/src/per/qspi.h ****     Result Erase(uint32_t start_addr, uint32_t end_addr);
 143:/Users/dominicfrugoli/Desktop/ProgrammingCode/DaisyCode/DaisyExamples/libDaisy/src/per/qspi.h **** 
 144:/Users/dominicfrugoli/Desktop/ProgrammingCode/DaisyCode/DaisyExamples/libDaisy/src/per/qspi.h ****     /**  
 145:/Users/dominicfrugoli/Desktop/ProgrammingCode/DaisyCode/DaisyExamples/libDaisy/src/per/qspi.h ****          Erases a single sector of the chip.  
 146:/Users/dominicfrugoli/Desktop/ProgrammingCode/DaisyCode/DaisyExamples/libDaisy/src/per/qspi.h ****         TODO: Document the size of this function. 
 147:/Users/dominicfrugoli/Desktop/ProgrammingCode/DaisyCode/DaisyExamples/libDaisy/src/per/qspi.h ****         \param address Address of sector to erase
 148:/Users/dominicfrugoli/Desktop/ProgrammingCode/DaisyCode/DaisyExamples/libDaisy/src/per/qspi.h ****         \return Result::OK or Result::ERR
 149:/Users/dominicfrugoli/Desktop/ProgrammingCode/DaisyCode/DaisyExamples/libDaisy/src/per/qspi.h ****         */
 150:/Users/dominicfrugoli/Desktop/ProgrammingCode/DaisyCode/DaisyExamples/libDaisy/src/per/qspi.h ****     Result EraseSector(uint32_t address);
 151:/Users/dominicfrugoli/Desktop/ProgrammingCode/DaisyCode/DaisyExamples/libDaisy/src/per/qspi.h **** 
 152:/Users/dominicfrugoli/Desktop/ProgrammingCode/DaisyCode/DaisyExamples/libDaisy/src/per/qspi.h ****     /** Returns the current class status. Useful for debugging.
 153:/Users/dominicfrugoli/Desktop/ProgrammingCode/DaisyCode/DaisyExamples/libDaisy/src/per/qspi.h ****      *  \returns Status
 154:/Users/dominicfrugoli/Desktop/ProgrammingCode/DaisyCode/DaisyExamples/libDaisy/src/per/qspi.h ****      */
 155:/Users/dominicfrugoli/Desktop/ProgrammingCode/DaisyCode/DaisyExamples/libDaisy/src/per/qspi.h ****     Status GetStatus();
 156:/Users/dominicfrugoli/Desktop/ProgrammingCode/DaisyCode/DaisyExamples/libDaisy/src/per/qspi.h **** 
 157:/Users/dominicfrugoli/Desktop/ProgrammingCode/DaisyCode/DaisyExamples/libDaisy/src/per/qspi.h ****     /** Returns a pointer to the actual memory used 
 158:/Users/dominicfrugoli/Desktop/ProgrammingCode/DaisyCode/DaisyExamples/libDaisy/src/per/qspi.h ****      *  The memory at this address is read-only
 159:/Users/dominicfrugoli/Desktop/ProgrammingCode/DaisyCode/DaisyExamples/libDaisy/src/per/qspi.h ****      *  to write to it use the Write function.
 160:/Users/dominicfrugoli/Desktop/ProgrammingCode/DaisyCode/DaisyExamples/libDaisy/src/per/qspi.h ****      * 
 161:/Users/dominicfrugoli/Desktop/ProgrammingCode/DaisyCode/DaisyExamples/libDaisy/src/per/qspi.h ****      *  \param offset returns the pointer starting this 
 162:/Users/dominicfrugoli/Desktop/ProgrammingCode/DaisyCode/DaisyExamples/libDaisy/src/per/qspi.h ****      *                many bytes into the memory
 163:/Users/dominicfrugoli/Desktop/ProgrammingCode/DaisyCode/DaisyExamples/libDaisy/src/per/qspi.h ****     */
 164:/Users/dominicfrugoli/Desktop/ProgrammingCode/DaisyCode/DaisyExamples/libDaisy/src/per/qspi.h ****     void* GetData(uint32_t offset = 0);
 165:/Users/dominicfrugoli/Desktop/ProgrammingCode/DaisyCode/DaisyExamples/libDaisy/src/per/qspi.h **** 
 166:/Users/dominicfrugoli/Desktop/ProgrammingCode/DaisyCode/DaisyExamples/libDaisy/src/per/qspi.h ****     QSPIHandle() : pimpl_(nullptr) {}
 4878              		.loc 14 166 5 view .LVU1269
 4879              	.LBB754:
 4880              	.LBB755:
 4881              		.loc 14 166 34 is_stmt 0 view .LVU1270
 4882 002c 0D48     		ldr	r0, .L353+32
 4883 002e 0023     		movs	r3, #0
 4884              	.LBE755:
 4885              	.LBE754:
 4886              	.LBE753:
 4887              	.LBE752:
 4888              	.LBE751:
  28:sardinia.cpp  **** 
 4889              		.loc 12 28 11 view .LVU1271
 4890 0030 054A     		ldr	r2, .L353+4
 4891 0032 0D49     		ldr	r1, .L353+36
 4892              	.LBB772:
 4893              	.LBB771:
 4894              	.LBB758:
 4895              	.LBB757:
 4896              	.LBB756:
ARM GAS  /var/folders/m5/x8wc2gdj7z5cpgcqdsb_gkj40000gn/T//ccPXNgbP.s 			page 133


 4897              		.loc 14 166 34 view .LVU1272
 4898 0034 0360     		str	r3, [r0]
 4899              	.LVL256:
 4900              		.loc 14 166 34 view .LVU1273
 4901              	.LBE756:
 4902              	.LBE757:
 4903              	.LBE758:
 4904              	.LBB759:
 4905              	.LBI759:
  95:/Users/dominicfrugoli/Desktop/ProgrammingCode/DaisyCode/DaisyExamples/libDaisy/src/hid/audio.h ****     ~AudioHandle() {}
 4906              		.loc 8 95 5 is_stmt 1 view .LVU1274
 4907              	.LBB760:
 4908              	.LBB761:
  95:/Users/dominicfrugoli/Desktop/ProgrammingCode/DaisyCode/DaisyExamples/libDaisy/src/hid/audio.h ****     ~AudioHandle() {}
 4909              		.loc 8 95 35 is_stmt 0 view .LVU1275
 4910 0036 4361     		str	r3, [r0, #20]
 4911              	.LVL257:
  95:/Users/dominicfrugoli/Desktop/ProgrammingCode/DaisyCode/DaisyExamples/libDaisy/src/hid/audio.h ****     ~AudioHandle() {}
 4912              		.loc 8 95 35 view .LVU1276
 4913              	.LBE761:
 4914              	.LBE760:
 4915              	.LBE759:
 4916              	.LBB762:
 4917              	.LBI762:
 109:/Users/dominicfrugoli/Desktop/ProgrammingCode/DaisyCode/DaisyExamples/libDaisy/src/per/adc.h ****     ~AdcHandle() {}
 4918              		.loc 7 109 5 is_stmt 1 view .LVU1277
 109:/Users/dominicfrugoli/Desktop/ProgrammingCode/DaisyCode/DaisyExamples/libDaisy/src/per/adc.h ****     ~AdcHandle() {}
 4919              		.loc 7 109 5 is_stmt 0 view .LVU1278
 4920              	.LBE762:
 4921              	.LBB763:
 4922              	.LBI763:
 4923              		.file 15 "/Users/dominicfrugoli/Desktop/ProgrammingCode/DaisyCode/DaisyExamples/libDaisy/src/per/d
   1:/Users/dominicfrugoli/Desktop/ProgrammingCode/DaisyCode/DaisyExamples/libDaisy/src/per/dac.h **** #pragma once
   2:/Users/dominicfrugoli/Desktop/ProgrammingCode/DaisyCode/DaisyExamples/libDaisy/src/per/dac.h **** #ifndef DSY_DAC_H
   3:/Users/dominicfrugoli/Desktop/ProgrammingCode/DaisyCode/DaisyExamples/libDaisy/src/per/dac.h **** #define DSY_DAC_H
   4:/Users/dominicfrugoli/Desktop/ProgrammingCode/DaisyCode/DaisyExamples/libDaisy/src/per/dac.h **** 
   5:/Users/dominicfrugoli/Desktop/ProgrammingCode/DaisyCode/DaisyExamples/libDaisy/src/per/dac.h **** #include "daisy_core.h"
   6:/Users/dominicfrugoli/Desktop/ProgrammingCode/DaisyCode/DaisyExamples/libDaisy/src/per/dac.h **** 
   7:/Users/dominicfrugoli/Desktop/ProgrammingCode/DaisyCode/DaisyExamples/libDaisy/src/per/dac.h **** namespace daisy
   8:/Users/dominicfrugoli/Desktop/ProgrammingCode/DaisyCode/DaisyExamples/libDaisy/src/per/dac.h **** {
   9:/Users/dominicfrugoli/Desktop/ProgrammingCode/DaisyCode/DaisyExamples/libDaisy/src/per/dac.h **** /** @brief DAC handle for Built-in DAC Peripheral 
  10:/Users/dominicfrugoli/Desktop/ProgrammingCode/DaisyCode/DaisyExamples/libDaisy/src/per/dac.h ****  *  @ingroup per_analog
  11:/Users/dominicfrugoli/Desktop/ProgrammingCode/DaisyCode/DaisyExamples/libDaisy/src/per/dac.h ****  ** 
  12:/Users/dominicfrugoli/Desktop/ProgrammingCode/DaisyCode/DaisyExamples/libDaisy/src/per/dac.h ****  ** For now only Normal Mode is supported,
  13:/Users/dominicfrugoli/Desktop/ProgrammingCode/DaisyCode/DaisyExamples/libDaisy/src/per/dac.h ****  ** Sample and hold mode provides reduced power consumption, but requires a bit more setup.
  14:/Users/dominicfrugoli/Desktop/ProgrammingCode/DaisyCode/DaisyExamples/libDaisy/src/per/dac.h ****  **
  15:/Users/dominicfrugoli/Desktop/ProgrammingCode/DaisyCode/DaisyExamples/libDaisy/src/per/dac.h ****  ** For now connecting the DAC through other internal peripherals is also not supported.
  16:/Users/dominicfrugoli/Desktop/ProgrammingCode/DaisyCode/DaisyExamples/libDaisy/src/per/dac.h ****  **
  17:/Users/dominicfrugoli/Desktop/ProgrammingCode/DaisyCode/DaisyExamples/libDaisy/src/per/dac.h ****  ** Since the DAC channels have dedicated pins we don't need to pass in a pin config like with
  18:/Users/dominicfrugoli/Desktop/ProgrammingCode/DaisyCode/DaisyExamples/libDaisy/src/per/dac.h ****  ** other modules. However, it is still important to not try to use the DAC pins for anything else.
  19:/Users/dominicfrugoli/Desktop/ProgrammingCode/DaisyCode/DaisyExamples/libDaisy/src/per/dac.h ****  ** DAC Channel 1 is on PA4, and DAC Channel 2 is on PA5
  20:/Users/dominicfrugoli/Desktop/ProgrammingCode/DaisyCode/DaisyExamples/libDaisy/src/per/dac.h ****  ***/
  21:/Users/dominicfrugoli/Desktop/ProgrammingCode/DaisyCode/DaisyExamples/libDaisy/src/per/dac.h **** class DacHandle
  22:/Users/dominicfrugoli/Desktop/ProgrammingCode/DaisyCode/DaisyExamples/libDaisy/src/per/dac.h **** {
  23:/Users/dominicfrugoli/Desktop/ProgrammingCode/DaisyCode/DaisyExamples/libDaisy/src/per/dac.h ****   public:
  24:/Users/dominicfrugoli/Desktop/ProgrammingCode/DaisyCode/DaisyExamples/libDaisy/src/per/dac.h ****     /** Return Values for the DacHandle class */
  25:/Users/dominicfrugoli/Desktop/ProgrammingCode/DaisyCode/DaisyExamples/libDaisy/src/per/dac.h ****     enum class Result
ARM GAS  /var/folders/m5/x8wc2gdj7z5cpgcqdsb_gkj40000gn/T//ccPXNgbP.s 			page 134


  26:/Users/dominicfrugoli/Desktop/ProgrammingCode/DaisyCode/DaisyExamples/libDaisy/src/per/dac.h ****     {
  27:/Users/dominicfrugoli/Desktop/ProgrammingCode/DaisyCode/DaisyExamples/libDaisy/src/per/dac.h ****         OK,
  28:/Users/dominicfrugoli/Desktop/ProgrammingCode/DaisyCode/DaisyExamples/libDaisy/src/per/dac.h ****         ERR,
  29:/Users/dominicfrugoli/Desktop/ProgrammingCode/DaisyCode/DaisyExamples/libDaisy/src/per/dac.h ****     };
  30:/Users/dominicfrugoli/Desktop/ProgrammingCode/DaisyCode/DaisyExamples/libDaisy/src/per/dac.h **** 
  31:/Users/dominicfrugoli/Desktop/ProgrammingCode/DaisyCode/DaisyExamples/libDaisy/src/per/dac.h ****     /** Selects which channel(s) will be configured for use. */
  32:/Users/dominicfrugoli/Desktop/ProgrammingCode/DaisyCode/DaisyExamples/libDaisy/src/per/dac.h ****     enum class Channel
  33:/Users/dominicfrugoli/Desktop/ProgrammingCode/DaisyCode/DaisyExamples/libDaisy/src/per/dac.h ****     {
  34:/Users/dominicfrugoli/Desktop/ProgrammingCode/DaisyCode/DaisyExamples/libDaisy/src/per/dac.h ****         ONE,
  35:/Users/dominicfrugoli/Desktop/ProgrammingCode/DaisyCode/DaisyExamples/libDaisy/src/per/dac.h ****         TWO,
  36:/Users/dominicfrugoli/Desktop/ProgrammingCode/DaisyCode/DaisyExamples/libDaisy/src/per/dac.h ****         BOTH,
  37:/Users/dominicfrugoli/Desktop/ProgrammingCode/DaisyCode/DaisyExamples/libDaisy/src/per/dac.h ****     };
  38:/Users/dominicfrugoli/Desktop/ProgrammingCode/DaisyCode/DaisyExamples/libDaisy/src/per/dac.h **** 
  39:/Users/dominicfrugoli/Desktop/ProgrammingCode/DaisyCode/DaisyExamples/libDaisy/src/per/dac.h ****     /** Sets the Mode for the DAC channels.
  40:/Users/dominicfrugoli/Desktop/ProgrammingCode/DaisyCode/DaisyExamples/libDaisy/src/per/dac.h ****      **
  41:/Users/dominicfrugoli/Desktop/ProgrammingCode/DaisyCode/DaisyExamples/libDaisy/src/per/dac.h ****      ** Polling mode uses the blocking mode to transmit a single value at a time.
  42:/Users/dominicfrugoli/Desktop/ProgrammingCode/DaisyCode/DaisyExamples/libDaisy/src/per/dac.h ****      **
  43:/Users/dominicfrugoli/Desktop/ProgrammingCode/DaisyCode/DaisyExamples/libDaisy/src/per/dac.h ****      ** DMA mode uses a buffer, and periodically transmits it triggering a 
  44:/Users/dominicfrugoli/Desktop/ProgrammingCode/DaisyCode/DaisyExamples/libDaisy/src/per/dac.h ****      ** callback to fill the buffer when it is ready for more samples.
  45:/Users/dominicfrugoli/Desktop/ProgrammingCode/DaisyCode/DaisyExamples/libDaisy/src/per/dac.h ****      ***/
  46:/Users/dominicfrugoli/Desktop/ProgrammingCode/DaisyCode/DaisyExamples/libDaisy/src/per/dac.h ****     enum class Mode
  47:/Users/dominicfrugoli/Desktop/ProgrammingCode/DaisyCode/DaisyExamples/libDaisy/src/per/dac.h ****     {
  48:/Users/dominicfrugoli/Desktop/ProgrammingCode/DaisyCode/DaisyExamples/libDaisy/src/per/dac.h ****         POLLING,
  49:/Users/dominicfrugoli/Desktop/ProgrammingCode/DaisyCode/DaisyExamples/libDaisy/src/per/dac.h ****         DMA,
  50:/Users/dominicfrugoli/Desktop/ProgrammingCode/DaisyCode/DaisyExamples/libDaisy/src/per/dac.h ****     };
  51:/Users/dominicfrugoli/Desktop/ProgrammingCode/DaisyCode/DaisyExamples/libDaisy/src/per/dac.h **** 
  52:/Users/dominicfrugoli/Desktop/ProgrammingCode/DaisyCode/DaisyExamples/libDaisy/src/per/dac.h ****     /** Sets the number of bits per sample transmitted out of the DAC.
  53:/Users/dominicfrugoli/Desktop/ProgrammingCode/DaisyCode/DaisyExamples/libDaisy/src/per/dac.h ****      ** The output range will be: 0V - VDDA
  54:/Users/dominicfrugoli/Desktop/ProgrammingCode/DaisyCode/DaisyExamples/libDaisy/src/per/dac.h ****      ** The resolution will be roughly: bitdepth / (VDDA - 0V) 
  55:/Users/dominicfrugoli/Desktop/ProgrammingCode/DaisyCode/DaisyExamples/libDaisy/src/per/dac.h ****      ***/
  56:/Users/dominicfrugoli/Desktop/ProgrammingCode/DaisyCode/DaisyExamples/libDaisy/src/per/dac.h ****     enum class BitDepth
  57:/Users/dominicfrugoli/Desktop/ProgrammingCode/DaisyCode/DaisyExamples/libDaisy/src/per/dac.h ****     {
  58:/Users/dominicfrugoli/Desktop/ProgrammingCode/DaisyCode/DaisyExamples/libDaisy/src/per/dac.h ****         BITS_8,
  59:/Users/dominicfrugoli/Desktop/ProgrammingCode/DaisyCode/DaisyExamples/libDaisy/src/per/dac.h ****         BITS_12
  60:/Users/dominicfrugoli/Desktop/ProgrammingCode/DaisyCode/DaisyExamples/libDaisy/src/per/dac.h ****     };
  61:/Users/dominicfrugoli/Desktop/ProgrammingCode/DaisyCode/DaisyExamples/libDaisy/src/per/dac.h **** 
  62:/Users/dominicfrugoli/Desktop/ProgrammingCode/DaisyCode/DaisyExamples/libDaisy/src/per/dac.h ****     /** Sets whether the DAC output is buffered for higher drive ability. */
  63:/Users/dominicfrugoli/Desktop/ProgrammingCode/DaisyCode/DaisyExamples/libDaisy/src/per/dac.h ****     enum class BufferState
  64:/Users/dominicfrugoli/Desktop/ProgrammingCode/DaisyCode/DaisyExamples/libDaisy/src/per/dac.h ****     {
  65:/Users/dominicfrugoli/Desktop/ProgrammingCode/DaisyCode/DaisyExamples/libDaisy/src/per/dac.h ****         ENABLED,
  66:/Users/dominicfrugoli/Desktop/ProgrammingCode/DaisyCode/DaisyExamples/libDaisy/src/per/dac.h ****         DISABLED,
  67:/Users/dominicfrugoli/Desktop/ProgrammingCode/DaisyCode/DaisyExamples/libDaisy/src/per/dac.h ****     };
  68:/Users/dominicfrugoli/Desktop/ProgrammingCode/DaisyCode/DaisyExamples/libDaisy/src/per/dac.h **** 
  69:/Users/dominicfrugoli/Desktop/ProgrammingCode/DaisyCode/DaisyExamples/libDaisy/src/per/dac.h ****     /** Configuration structure for initializing the DAC structure. */
  70:/Users/dominicfrugoli/Desktop/ProgrammingCode/DaisyCode/DaisyExamples/libDaisy/src/per/dac.h ****     struct Config
  71:/Users/dominicfrugoli/Desktop/ProgrammingCode/DaisyCode/DaisyExamples/libDaisy/src/per/dac.h ****     {
  72:/Users/dominicfrugoli/Desktop/ProgrammingCode/DaisyCode/DaisyExamples/libDaisy/src/per/dac.h ****         /** Target Samplerate in Hz used to configure the internal 
  73:/Users/dominicfrugoli/Desktop/ProgrammingCode/DaisyCode/DaisyExamples/libDaisy/src/per/dac.h ****          ** timebase for DMA mode. Does nothing in POLLING mode.
  74:/Users/dominicfrugoli/Desktop/ProgrammingCode/DaisyCode/DaisyExamples/libDaisy/src/per/dac.h ****          ** If the value is 0 at Init time this will default to 48000Hz 
  75:/Users/dominicfrugoli/Desktop/ProgrammingCode/DaisyCode/DaisyExamples/libDaisy/src/per/dac.h ****          ** otherwise the driver will attempt meet the target.*/
  76:/Users/dominicfrugoli/Desktop/ProgrammingCode/DaisyCode/DaisyExamples/libDaisy/src/per/dac.h ****         uint32_t target_samplerate;
  77:/Users/dominicfrugoli/Desktop/ProgrammingCode/DaisyCode/DaisyExamples/libDaisy/src/per/dac.h **** 
  78:/Users/dominicfrugoli/Desktop/ProgrammingCode/DaisyCode/DaisyExamples/libDaisy/src/per/dac.h ****         Channel     chn;
  79:/Users/dominicfrugoli/Desktop/ProgrammingCode/DaisyCode/DaisyExamples/libDaisy/src/per/dac.h ****         Mode        mode;
  80:/Users/dominicfrugoli/Desktop/ProgrammingCode/DaisyCode/DaisyExamples/libDaisy/src/per/dac.h ****         BitDepth    bitdepth;
  81:/Users/dominicfrugoli/Desktop/ProgrammingCode/DaisyCode/DaisyExamples/libDaisy/src/per/dac.h ****         BufferState buff_state;
  82:/Users/dominicfrugoli/Desktop/ProgrammingCode/DaisyCode/DaisyExamples/libDaisy/src/per/dac.h ****     };
ARM GAS  /var/folders/m5/x8wc2gdj7z5cpgcqdsb_gkj40000gn/T//ccPXNgbP.s 			page 135


  83:/Users/dominicfrugoli/Desktop/ProgrammingCode/DaisyCode/DaisyExamples/libDaisy/src/per/dac.h **** 
  84:/Users/dominicfrugoli/Desktop/ProgrammingCode/DaisyCode/DaisyExamples/libDaisy/src/per/dac.h ****     DacHandle() : pimpl_(nullptr) {}
 4924              		.loc 15 84 5 is_stmt 1 view .LVU1279
 4925              	.LBB764:
 4926              	.LBB765:
 4927              		.loc 15 84 33 is_stmt 0 view .LVU1280
 4928 0038 0362     		str	r3, [r0, #32]
 4929              	.LVL258:
 4930              		.loc 15 84 33 view .LVU1281
 4931              	.LBE765:
 4932              	.LBE764:
 4933              	.LBE763:
 4934              	.LBB766:
 4935              	.LBI766:
  40:/Users/dominicfrugoli/Desktop/ProgrammingCode/DaisyCode/DaisyExamples/libDaisy/src/hid/usb.h **** 
 4936              		.loc 6 40 5 is_stmt 1 view .LVU1282
  40:/Users/dominicfrugoli/Desktop/ProgrammingCode/DaisyCode/DaisyExamples/libDaisy/src/hid/usb.h **** 
 4937              		.loc 6 40 5 is_stmt 0 view .LVU1283
 4938              	.LBE766:
 4939              	.LBB767:
 4940              	.LBI767:
  96:/Users/dominicfrugoli/Desktop/ProgrammingCode/DaisyCode/DaisyExamples/libDaisy/src/sys/system.h ****     ~System() {}
 4941              		.loc 5 96 5 is_stmt 1 view .LVU1284
  96:/Users/dominicfrugoli/Desktop/ProgrammingCode/DaisyCode/DaisyExamples/libDaisy/src/sys/system.h ****     ~System() {}
 4942              		.loc 5 96 5 is_stmt 0 view .LVU1285
 4943              	.LBE767:
 4944              	.LBB768:
 4945              	.LBI768:
 4946              		.file 16 "/Users/dominicfrugoli/Desktop/ProgrammingCode/DaisyCode/DaisyExamples/libDaisy/src/per/s
   1:/Users/dominicfrugoli/Desktop/ProgrammingCode/DaisyCode/DaisyExamples/libDaisy/src/per/sai.h **** #pragma once
   2:/Users/dominicfrugoli/Desktop/ProgrammingCode/DaisyCode/DaisyExamples/libDaisy/src/per/sai.h **** #ifndef DSY_SAI_H
   3:/Users/dominicfrugoli/Desktop/ProgrammingCode/DaisyCode/DaisyExamples/libDaisy/src/per/sai.h **** #define DSY_SAI_H
   4:/Users/dominicfrugoli/Desktop/ProgrammingCode/DaisyCode/DaisyExamples/libDaisy/src/per/sai.h **** 
   5:/Users/dominicfrugoli/Desktop/ProgrammingCode/DaisyCode/DaisyExamples/libDaisy/src/per/sai.h **** #include "daisy_core.h"
   6:/Users/dominicfrugoli/Desktop/ProgrammingCode/DaisyCode/DaisyExamples/libDaisy/src/per/sai.h **** 
   7:/Users/dominicfrugoli/Desktop/ProgrammingCode/DaisyCode/DaisyExamples/libDaisy/src/per/sai.h **** namespace daisy
   8:/Users/dominicfrugoli/Desktop/ProgrammingCode/DaisyCode/DaisyExamples/libDaisy/src/per/sai.h **** {
   9:/Users/dominicfrugoli/Desktop/ProgrammingCode/DaisyCode/DaisyExamples/libDaisy/src/per/sai.h **** /** 
  10:/Users/dominicfrugoli/Desktop/ProgrammingCode/DaisyCode/DaisyExamples/libDaisy/src/per/sai.h ****  * Support for I2S Audio Protocol with different bit-depth, samplerate options
  11:/Users/dominicfrugoli/Desktop/ProgrammingCode/DaisyCode/DaisyExamples/libDaisy/src/per/sai.h ****  * Allows for master or slave, as well as freedom of selecting direction, 
  12:/Users/dominicfrugoli/Desktop/ProgrammingCode/DaisyCode/DaisyExamples/libDaisy/src/per/sai.h ****  * and other behavior for each peripheral, and block.
  13:/Users/dominicfrugoli/Desktop/ProgrammingCode/DaisyCode/DaisyExamples/libDaisy/src/per/sai.h ****  * 
  14:/Users/dominicfrugoli/Desktop/ProgrammingCode/DaisyCode/DaisyExamples/libDaisy/src/per/sai.h ****  * DMA Transfer commands must use buffers located within non-cached memory or use cache maintenance
  15:/Users/dominicfrugoli/Desktop/ProgrammingCode/DaisyCode/DaisyExamples/libDaisy/src/per/sai.h ****  * To declare an unitialized global element in the DMA memory section:
  16:/Users/dominicfrugoli/Desktop/ProgrammingCode/DaisyCode/DaisyExamples/libDaisy/src/per/sai.h ****  *    int32_t DSY_DMA_BUFFER_SECTOR my_buffer[96];
  17:/Users/dominicfrugoli/Desktop/ProgrammingCode/DaisyCode/DaisyExamples/libDaisy/src/per/sai.h ****  *
  18:/Users/dominicfrugoli/Desktop/ProgrammingCode/DaisyCode/DaisyExamples/libDaisy/src/per/sai.h ****  * Callback functions will be called once per half of the buffer. In the above example, 
  19:/Users/dominicfrugoli/Desktop/ProgrammingCode/DaisyCode/DaisyExamples/libDaisy/src/per/sai.h ****  * the callback function would be called once for every 48 samples.
  20:/Users/dominicfrugoli/Desktop/ProgrammingCode/DaisyCode/DaisyExamples/libDaisy/src/per/sai.h ****  * 
  21:/Users/dominicfrugoli/Desktop/ProgrammingCode/DaisyCode/DaisyExamples/libDaisy/src/per/sai.h ****  * Use SAI Handle like this:
  22:/Users/dominicfrugoli/Desktop/ProgrammingCode/DaisyCode/DaisyExamples/libDaisy/src/per/sai.h ****  * 
  23:/Users/dominicfrugoli/Desktop/ProgrammingCode/DaisyCode/DaisyExamples/libDaisy/src/per/sai.h ****  *  SaiHandle::Config sai_config;
  24:/Users/dominicfrugoli/Desktop/ProgrammingCode/DaisyCode/DaisyExamples/libDaisy/src/per/sai.h ****  *  sai_config.periph          = SaiHandle::Config::Peripheral::SAI_1;
  25:/Users/dominicfrugoli/Desktop/ProgrammingCode/DaisyCode/DaisyExamples/libDaisy/src/per/sai.h ****  *  sai_config.sr              = SaiHandle::Config::SampleRate::SAI_48KHZ;
  26:/Users/dominicfrugoli/Desktop/ProgrammingCode/DaisyCode/DaisyExamples/libDaisy/src/per/sai.h ****  *  sai_config.bit_depth       = SaiHandle::Config::BitDepth::SAI_24BIT;
  27:/Users/dominicfrugoli/Desktop/ProgrammingCode/DaisyCode/DaisyExamples/libDaisy/src/per/sai.h ****  *  sai_config.a_sync          = SaiHandle::Config::Sync::MASTER;
  28:/Users/dominicfrugoli/Desktop/ProgrammingCode/DaisyCode/DaisyExamples/libDaisy/src/per/sai.h ****  *  sai_config.b_sync          = SaiHandle::Config::Sync::SLAVE;
ARM GAS  /var/folders/m5/x8wc2gdj7z5cpgcqdsb_gkj40000gn/T//ccPXNgbP.s 			page 136


  29:/Users/dominicfrugoli/Desktop/ProgrammingCode/DaisyCode/DaisyExamples/libDaisy/src/per/sai.h ****  *  sai_config.a_dir           = SaiHandle::Config::Direction::RECEIVE;
  30:/Users/dominicfrugoli/Desktop/ProgrammingCode/DaisyCode/DaisyExamples/libDaisy/src/per/sai.h ****  *  sai_config.b_dir           = SaiHandle::Config::Direction::TRANSMIT;
  31:/Users/dominicfrugoli/Desktop/ProgrammingCode/DaisyCode/DaisyExamples/libDaisy/src/per/sai.h ****  *  sai_config.pin_config.fs   = {DSY_GPIOE, 4};
  32:/Users/dominicfrugoli/Desktop/ProgrammingCode/DaisyCode/DaisyExamples/libDaisy/src/per/sai.h ****  *  sai_config.pin_config.mclk = {DSY_GPIOE, 2};
  33:/Users/dominicfrugoli/Desktop/ProgrammingCode/DaisyCode/DaisyExamples/libDaisy/src/per/sai.h ****  *  sai_config.pin_config.sck  = {DSY_GPIOE, 5};
  34:/Users/dominicfrugoli/Desktop/ProgrammingCode/DaisyCode/DaisyExamples/libDaisy/src/per/sai.h ****  *  sai_config.pin_config.sa   = {DSY_GPIOE, 6};
  35:/Users/dominicfrugoli/Desktop/ProgrammingCode/DaisyCode/DaisyExamples/libDaisy/src/per/sai.h ****  *  sai_config.pin_config.sb   = {DSY_GPIOE, 3};
  36:/Users/dominicfrugoli/Desktop/ProgrammingCode/DaisyCode/DaisyExamples/libDaisy/src/per/sai.h ****  *  // Then Initialize
  37:/Users/dominicfrugoli/Desktop/ProgrammingCode/DaisyCode/DaisyExamples/libDaisy/src/per/sai.h ****  *  SaiHandle sai;
  38:/Users/dominicfrugoli/Desktop/ProgrammingCode/DaisyCode/DaisyExamples/libDaisy/src/per/sai.h ****  *  sai.Init(sai_config);
  39:/Users/dominicfrugoli/Desktop/ProgrammingCode/DaisyCode/DaisyExamples/libDaisy/src/per/sai.h ****  *  // Now you can use it:
  40:/Users/dominicfrugoli/Desktop/ProgrammingCode/DaisyCode/DaisyExamples/libDaisy/src/per/sai.h ****  *  sai.StartDma(. . .);
  41:/Users/dominicfrugoli/Desktop/ProgrammingCode/DaisyCode/DaisyExamples/libDaisy/src/per/sai.h ****  */
  42:/Users/dominicfrugoli/Desktop/ProgrammingCode/DaisyCode/DaisyExamples/libDaisy/src/per/sai.h **** class SaiHandle
  43:/Users/dominicfrugoli/Desktop/ProgrammingCode/DaisyCode/DaisyExamples/libDaisy/src/per/sai.h **** {
  44:/Users/dominicfrugoli/Desktop/ProgrammingCode/DaisyCode/DaisyExamples/libDaisy/src/per/sai.h ****   public:
  45:/Users/dominicfrugoli/Desktop/ProgrammingCode/DaisyCode/DaisyExamples/libDaisy/src/per/sai.h ****     /** Contains settings for initialising an SAI Interface */
  46:/Users/dominicfrugoli/Desktop/ProgrammingCode/DaisyCode/DaisyExamples/libDaisy/src/per/sai.h ****     struct Config
  47:/Users/dominicfrugoli/Desktop/ProgrammingCode/DaisyCode/DaisyExamples/libDaisy/src/per/sai.h ****     {
  48:/Users/dominicfrugoli/Desktop/ProgrammingCode/DaisyCode/DaisyExamples/libDaisy/src/per/sai.h ****         /** Specifies the internal peripheral to use (mapped to different hardware pins) */
  49:/Users/dominicfrugoli/Desktop/ProgrammingCode/DaisyCode/DaisyExamples/libDaisy/src/per/sai.h ****         enum class Peripheral
  50:/Users/dominicfrugoli/Desktop/ProgrammingCode/DaisyCode/DaisyExamples/libDaisy/src/per/sai.h ****         {
  51:/Users/dominicfrugoli/Desktop/ProgrammingCode/DaisyCode/DaisyExamples/libDaisy/src/per/sai.h ****             SAI_1,
  52:/Users/dominicfrugoli/Desktop/ProgrammingCode/DaisyCode/DaisyExamples/libDaisy/src/per/sai.h ****             SAI_2,
  53:/Users/dominicfrugoli/Desktop/ProgrammingCode/DaisyCode/DaisyExamples/libDaisy/src/per/sai.h ****         };
  54:/Users/dominicfrugoli/Desktop/ProgrammingCode/DaisyCode/DaisyExamples/libDaisy/src/per/sai.h **** 
  55:/Users/dominicfrugoli/Desktop/ProgrammingCode/DaisyCode/DaisyExamples/libDaisy/src/per/sai.h ****         /** Rate at which samples will be streaming to/from the device. */
  56:/Users/dominicfrugoli/Desktop/ProgrammingCode/DaisyCode/DaisyExamples/libDaisy/src/per/sai.h ****         enum class SampleRate
  57:/Users/dominicfrugoli/Desktop/ProgrammingCode/DaisyCode/DaisyExamples/libDaisy/src/per/sai.h ****         {
  58:/Users/dominicfrugoli/Desktop/ProgrammingCode/DaisyCode/DaisyExamples/libDaisy/src/per/sai.h ****             SAI_8KHZ,
  59:/Users/dominicfrugoli/Desktop/ProgrammingCode/DaisyCode/DaisyExamples/libDaisy/src/per/sai.h ****             SAI_16KHZ,
  60:/Users/dominicfrugoli/Desktop/ProgrammingCode/DaisyCode/DaisyExamples/libDaisy/src/per/sai.h ****             SAI_32KHZ,
  61:/Users/dominicfrugoli/Desktop/ProgrammingCode/DaisyCode/DaisyExamples/libDaisy/src/per/sai.h ****             SAI_48KHZ,
  62:/Users/dominicfrugoli/Desktop/ProgrammingCode/DaisyCode/DaisyExamples/libDaisy/src/per/sai.h ****             SAI_96KHZ,
  63:/Users/dominicfrugoli/Desktop/ProgrammingCode/DaisyCode/DaisyExamples/libDaisy/src/per/sai.h ****         };
  64:/Users/dominicfrugoli/Desktop/ProgrammingCode/DaisyCode/DaisyExamples/libDaisy/src/per/sai.h **** 
  65:/Users/dominicfrugoli/Desktop/ProgrammingCode/DaisyCode/DaisyExamples/libDaisy/src/per/sai.h ****         /** Bit Depth that the hardware expects to be transferred to/from the device. */
  66:/Users/dominicfrugoli/Desktop/ProgrammingCode/DaisyCode/DaisyExamples/libDaisy/src/per/sai.h ****         enum class BitDepth
  67:/Users/dominicfrugoli/Desktop/ProgrammingCode/DaisyCode/DaisyExamples/libDaisy/src/per/sai.h ****         {
  68:/Users/dominicfrugoli/Desktop/ProgrammingCode/DaisyCode/DaisyExamples/libDaisy/src/per/sai.h ****             SAI_16BIT,
  69:/Users/dominicfrugoli/Desktop/ProgrammingCode/DaisyCode/DaisyExamples/libDaisy/src/per/sai.h ****             SAI_24BIT,
  70:/Users/dominicfrugoli/Desktop/ProgrammingCode/DaisyCode/DaisyExamples/libDaisy/src/per/sai.h ****             SAI_32BIT,
  71:/Users/dominicfrugoli/Desktop/ProgrammingCode/DaisyCode/DaisyExamples/libDaisy/src/per/sai.h ****         };
  72:/Users/dominicfrugoli/Desktop/ProgrammingCode/DaisyCode/DaisyExamples/libDaisy/src/per/sai.h **** 
  73:/Users/dominicfrugoli/Desktop/ProgrammingCode/DaisyCode/DaisyExamples/libDaisy/src/per/sai.h ****         /** Specifies whether a particular block is the master or the slave 
  74:/Users/dominicfrugoli/Desktop/ProgrammingCode/DaisyCode/DaisyExamples/libDaisy/src/per/sai.h ****          ** If both are set to slave, no MCLK signal will be used, and it is
  75:/Users/dominicfrugoli/Desktop/ProgrammingCode/DaisyCode/DaisyExamples/libDaisy/src/per/sai.h ****          ** expected that the codec will have its own xtal.
  76:/Users/dominicfrugoli/Desktop/ProgrammingCode/DaisyCode/DaisyExamples/libDaisy/src/per/sai.h ****          */
  77:/Users/dominicfrugoli/Desktop/ProgrammingCode/DaisyCode/DaisyExamples/libDaisy/src/per/sai.h ****         enum class Sync
  78:/Users/dominicfrugoli/Desktop/ProgrammingCode/DaisyCode/DaisyExamples/libDaisy/src/per/sai.h ****         {
  79:/Users/dominicfrugoli/Desktop/ProgrammingCode/DaisyCode/DaisyExamples/libDaisy/src/per/sai.h ****             MASTER,
  80:/Users/dominicfrugoli/Desktop/ProgrammingCode/DaisyCode/DaisyExamples/libDaisy/src/per/sai.h ****             SLAVE,
  81:/Users/dominicfrugoli/Desktop/ProgrammingCode/DaisyCode/DaisyExamples/libDaisy/src/per/sai.h ****         };
  82:/Users/dominicfrugoli/Desktop/ProgrammingCode/DaisyCode/DaisyExamples/libDaisy/src/per/sai.h **** 
  83:/Users/dominicfrugoli/Desktop/ProgrammingCode/DaisyCode/DaisyExamples/libDaisy/src/per/sai.h ****         /** Specifies the direction for each peripheral block. */
  84:/Users/dominicfrugoli/Desktop/ProgrammingCode/DaisyCode/DaisyExamples/libDaisy/src/per/sai.h ****         enum class Direction
  85:/Users/dominicfrugoli/Desktop/ProgrammingCode/DaisyCode/DaisyExamples/libDaisy/src/per/sai.h ****         {
ARM GAS  /var/folders/m5/x8wc2gdj7z5cpgcqdsb_gkj40000gn/T//ccPXNgbP.s 			page 137


  86:/Users/dominicfrugoli/Desktop/ProgrammingCode/DaisyCode/DaisyExamples/libDaisy/src/per/sai.h ****             TRANSMIT,
  87:/Users/dominicfrugoli/Desktop/ProgrammingCode/DaisyCode/DaisyExamples/libDaisy/src/per/sai.h ****             RECEIVE,
  88:/Users/dominicfrugoli/Desktop/ProgrammingCode/DaisyCode/DaisyExamples/libDaisy/src/per/sai.h ****         };
  89:/Users/dominicfrugoli/Desktop/ProgrammingCode/DaisyCode/DaisyExamples/libDaisy/src/per/sai.h **** 
  90:/Users/dominicfrugoli/Desktop/ProgrammingCode/DaisyCode/DaisyExamples/libDaisy/src/per/sai.h ****         Peripheral periph;
  91:/Users/dominicfrugoli/Desktop/ProgrammingCode/DaisyCode/DaisyExamples/libDaisy/src/per/sai.h ****         struct
  92:/Users/dominicfrugoli/Desktop/ProgrammingCode/DaisyCode/DaisyExamples/libDaisy/src/per/sai.h ****         {
  93:/Users/dominicfrugoli/Desktop/ProgrammingCode/DaisyCode/DaisyExamples/libDaisy/src/per/sai.h ****             dsy_gpio_pin mclk, fs, sck, sa, sb;
  94:/Users/dominicfrugoli/Desktop/ProgrammingCode/DaisyCode/DaisyExamples/libDaisy/src/per/sai.h ****         } pin_config;
  95:/Users/dominicfrugoli/Desktop/ProgrammingCode/DaisyCode/DaisyExamples/libDaisy/src/per/sai.h ****         SampleRate sr;
  96:/Users/dominicfrugoli/Desktop/ProgrammingCode/DaisyCode/DaisyExamples/libDaisy/src/per/sai.h ****         BitDepth   bit_depth;
  97:/Users/dominicfrugoli/Desktop/ProgrammingCode/DaisyCode/DaisyExamples/libDaisy/src/per/sai.h ****         Sync       a_sync, b_sync;
  98:/Users/dominicfrugoli/Desktop/ProgrammingCode/DaisyCode/DaisyExamples/libDaisy/src/per/sai.h ****         Direction  a_dir, b_dir;
  99:/Users/dominicfrugoli/Desktop/ProgrammingCode/DaisyCode/DaisyExamples/libDaisy/src/per/sai.h ****     };
 100:/Users/dominicfrugoli/Desktop/ProgrammingCode/DaisyCode/DaisyExamples/libDaisy/src/per/sai.h **** 
 101:/Users/dominicfrugoli/Desktop/ProgrammingCode/DaisyCode/DaisyExamples/libDaisy/src/per/sai.h ****     /** Return values for SAI functions */
 102:/Users/dominicfrugoli/Desktop/ProgrammingCode/DaisyCode/DaisyExamples/libDaisy/src/per/sai.h ****     enum class Result
 103:/Users/dominicfrugoli/Desktop/ProgrammingCode/DaisyCode/DaisyExamples/libDaisy/src/per/sai.h ****     {
 104:/Users/dominicfrugoli/Desktop/ProgrammingCode/DaisyCode/DaisyExamples/libDaisy/src/per/sai.h ****         OK,
 105:/Users/dominicfrugoli/Desktop/ProgrammingCode/DaisyCode/DaisyExamples/libDaisy/src/per/sai.h ****         ERR,
 106:/Users/dominicfrugoli/Desktop/ProgrammingCode/DaisyCode/DaisyExamples/libDaisy/src/per/sai.h ****     };
 107:/Users/dominicfrugoli/Desktop/ProgrammingCode/DaisyCode/DaisyExamples/libDaisy/src/per/sai.h **** 
 108:/Users/dominicfrugoli/Desktop/ProgrammingCode/DaisyCode/DaisyExamples/libDaisy/src/per/sai.h ****     SaiHandle() : pimpl_(nullptr) {}
 4947              		.loc 16 108 5 is_stmt 1 view .LVU1286
 4948              	.LBB769:
 4949              	.LBB770:
 4950              		.loc 16 108 33 is_stmt 0 view .LVU1287
 4951 003a C363     		str	r3, [r0, #60]
 4952              	.LVL259:
 4953              		.loc 16 108 33 view .LVU1288
 4954              	.LBE770:
 4955              	.LBE769:
 4956              	.LBE768:
 4957              	.LBE771:
 4958              	.LBE772:
 4959              	.LBE773:
 4960              	.LBE775:
 4961              		.loc 12 280 1 view .LVU1289
 4962 003c BDE81040 		pop	{r4, lr}
 4963              		.cfi_restore 14
 4964              		.cfi_restore 4
 4965              		.cfi_def_cfa_offset 0
 4966              	.LBB776:
 4967              	.LBB774:
  28:sardinia.cpp  **** 
 4968              		.loc 12 28 11 view .LVU1290
 4969 0040 FFF7FEBF 		b	__aeabi_atexit
 4970              	.LVL260:
 4971              	.L354:
 4972              		.align	2
 4973              	.L353:
 4974 0044 00000000 		.word	_ZN5daisy6SwitchD1Ev
 4975 0048 00000000 		.word	__dso_handle
 4976 004c 00000000 		.word	_ZN5daisy7EncoderD1Ev
 4977 0050 00000000 		.word	.LANCHOR10
 4978 0054 00000000 		.word	.LANCHOR8
 4979 0058 00000000 		.word	.LANCHOR9
ARM GAS  /var/folders/m5/x8wc2gdj7z5cpgcqdsb_gkj40000gn/T//ccPXNgbP.s 			page 138


 4980 005c 00000000 		.word	_ZN5daisy10LcdHD44780D1Ev
 4981 0060 00000000 		.word	.LANCHOR26
 4982 0064 00000000 		.word	.LANCHOR28
 4983 0068 00000000 		.word	_ZN5daisy9DaisySeedD1Ev
 4984              	.LBE774:
 4985              	.LBE776:
 4986              		.cfi_endproc
 4987              	.LFE5278:
 4989              		.section	.init_array,"aw",%init_array
 4990              		.align	2
 4991 0000 00000000 		.word	_GLOBAL__sub_I_adcConfig(target1)
 4992              		.global	testValInt
 4993              		.global	testValFloat
 4994              		.global	outputAmp
 4995              		.global	inputSig
 4996              		.global	sampleSig
 4997              		.global	outputMix
 4998              		.global	hw
 4999              		.global	mode
 5000              		.global	lcd
 5001              		.global	spliceBufferOneLength
 5002              		.global	spliceBufferOneReadIndexFraction
 5003              		.global	spliceBufferOneReadIndexInt
 5004              		.global	spliceBufferOneReadIndex
 5005              		.global	SpliceBufferOneIsPlaying
 5006              		.global	isPlaying
 5007              		.global	isRecording
 5008              		.global	currentKey
 5009              		.global	stopPoint
 5010              		.global	startPoint
 5011              		.global	keyStates
 5012              		.global	keyStopIndex
 5013              		.global	keyStartIndex
 5014              		.global	fullSampleReadIndexFraction
 5015              		.global	fullSampleReadIndexInt
 5016              		.global	fullSampleReadIndex
 5017              		.global	lengthTrack
 5018              		.global	recordingLength
 5019              		.global	writeIndex
 5020              		.global	readPitch
 5021              		.global	readFactor
 5022              		.global	readIndexFraction
 5023              		.global	readIndexInt
 5024              		.global	readIndex
 5025              		.global	spliceBufferFour
 5026              		.global	spliceBufferThree
 5027              		.global	spliceBufferTwo
 5028              		.global	spliceBufferOne
 5029              		.global	recordingBuffer
 5030              		.global	playButtonOverrule
 5031              		.global	prevControlButtonStates
 5032              		.global	controlButtonStates
 5033              		.global	encoderTurnVal
 5034              		.global	recButton
 5035              		.global	playButton
 5036              		.global	encoder
 5037              		.global	adcConfig
ARM GAS  /var/folders/m5/x8wc2gdj7z5cpgcqdsb_gkj40000gn/T//ccPXNgbP.s 			page 139


 5038              		.section	.rodata
 5039              		.align	2
 5040              		.set	.LANCHOR25,. + 0
 5041              	.LC10:
 5042 0000 06       		.byte	6
 5043 0001 09       		.byte	9
 5044 0002 0000     		.space	2
 5045              	.LC11:
 5046 0004 03       		.byte	3
 5047 0005 0B       		.byte	11
 5048              		.section	.bss.SpliceBufferOneIsPlaying,"aw",%nobits
 5049              		.set	.LANCHOR33,. + 0
 5052              	SpliceBufferOneIsPlaying:
 5053 0000 00       		.space	1
 5054              		.section	.bss.adcConfig,"aw",%nobits
 5055              		.align	2
 5056              		.set	.LANCHOR7,. + 0
 5059              	adcConfig:
 5060 0000 00000000 		.space	108
 5060      00000000 
 5060      00000000 
 5060      00000000 
 5060      00000000 
 5061              		.section	.bss.controlButtonStates,"aw",%nobits
 5062              		.align	2
 5063              		.set	.LANCHOR11,. + 0
 5066              	controlButtonStates:
 5067 0000 00000000 		.space	8
 5067      00000000 
 5068              		.section	.bss.currentKey,"aw",%nobits
 5069              		.align	2
 5070              		.set	.LANCHOR0,. + 0
 5073              	currentKey:
 5074 0000 00000000 		.space	4
 5075              		.section	.bss.encoder,"aw",%nobits
 5076              		.align	2
 5077              		.set	.LANCHOR10,. + 0
 5080              	encoder:
 5081 0000 00000000 		.space	40
 5081      00000000 
 5081      00000000 
 5081      00000000 
 5081      00000000 
 5082              		.section	.bss.encoderTurnVal,"aw",%nobits
 5083              		.align	2
 5086              	encoderTurnVal:
 5087 0000 00000000 		.space	4
 5088              		.section	.bss.fullSampleReadIndex,"aw",%nobits
 5089              		.align	2
 5090              		.set	.LANCHOR17,. + 0
 5093              	fullSampleReadIndex:
 5094 0000 00000000 		.space	4
 5095              		.section	.bss.fullSampleReadIndexFraction,"aw",%nobits
 5096              		.align	2
 5097              		.set	.LANCHOR20,. + 0
 5100              	fullSampleReadIndexFraction:
 5101 0000 00000000 		.space	4
ARM GAS  /var/folders/m5/x8wc2gdj7z5cpgcqdsb_gkj40000gn/T//ccPXNgbP.s 			page 140


 5102              		.section	.bss.fullSampleReadIndexInt,"aw",%nobits
 5103              		.align	2
 5104              		.set	.LANCHOR19,. + 0
 5107              	fullSampleReadIndexInt:
 5108 0000 00000000 		.space	4
 5109              		.section	.bss.hw,"aw",%nobits
 5110              		.align	2
 5111              		.set	.LANCHOR28,. + 0
 5114              	hw:
 5115 0000 00000000 		.space	64
 5115      00000000 
 5115      00000000 
 5115      00000000 
 5115      00000000 
 5116              		.section	.bss.inputSig,"aw",%nobits
 5117              		.align	2
 5118              		.set	.LANCHOR39,. + 0
 5121              	inputSig:
 5122 0000 00000000 		.space	4
 5123              		.section	.bss.isPlaying,"aw",%nobits
 5124              		.set	.LANCHOR31,. + 0
 5127              	isPlaying:
 5128 0000 00       		.space	1
 5129              		.section	.bss.isRecording,"aw",%nobits
 5130              		.set	.LANCHOR34,. + 0
 5133              	isRecording:
 5134 0000 00       		.space	1
 5135              		.section	.bss.keyStartIndex,"aw",%nobits
 5136              		.align	2
 5137              		.set	.LANCHOR2,. + 0
 5140              	keyStartIndex:
 5141 0000 00000000 		.space	128
 5141      00000000 
 5141      00000000 
 5141      00000000 
 5141      00000000 
 5142              		.section	.bss.keyStates,"aw",%nobits
 5143              		.align	2
 5144              		.set	.LANCHOR1,. + 0
 5147              	keyStates:
 5148 0000 00000000 		.space	32
 5148      00000000 
 5148      00000000 
 5148      00000000 
 5148      00000000 
 5149              		.section	.bss.keyStopIndex,"aw",%nobits
 5150              		.align	2
 5151              		.set	.LANCHOR5,. + 0
 5154              	keyStopIndex:
 5155 0000 00000000 		.space	128
 5155      00000000 
 5155      00000000 
 5155      00000000 
 5155      00000000 
 5156              		.section	.bss.lcd,"aw",%nobits
 5157              		.align	2
 5158              		.set	.LANCHOR26,. + 0
ARM GAS  /var/folders/m5/x8wc2gdj7z5cpgcqdsb_gkj40000gn/T//ccPXNgbP.s 			page 141


 5161              	lcd:
 5162 0000 00000000 		.space	26
 5162      00000000 
 5162      00000000 
 5162      00000000 
 5162      00000000 
 5163              		.section	.bss.lengthTrack,"aw",%nobits
 5164              		.align	2
 5165              		.set	.LANCHOR35,. + 0
 5168              	lengthTrack:
 5169 0000 00000000 		.space	4
 5170              		.section	.bss.mode,"aw",%nobits
 5171              		.set	.LANCHOR27,. + 0
 5174              	mode:
 5175 0000 00       		.space	1
 5176              		.section	.bss.outputMix,"aw",%nobits
 5177              		.align	2
 5178              		.set	.LANCHOR38,. + 0
 5181              	outputMix:
 5182 0000 00000000 		.space	4
 5183              		.section	.bss.playButton,"aw",%nobits
 5184              		.align	2
 5185              		.set	.LANCHOR8,. + 0
 5188              	playButton:
 5189 0000 00000000 		.space	16
 5189      00000000 
 5189      00000000 
 5189      00000000 
 5190              		.section	.bss.playButtonOverrule,"aw",%nobits
 5191              		.set	.LANCHOR32,. + 0
 5194              	playButtonOverrule:
 5195 0000 00       		.space	1
 5196              		.section	.bss.prevControlButtonStates,"aw",%nobits
 5197              		.align	2
 5198              		.set	.LANCHOR12,. + 0
 5201              	prevControlButtonStates:
 5202 0000 00000000 		.space	8
 5202      00000000 
 5203              		.section	.bss.readIndex,"aw",%nobits
 5204              		.align	2
 5205              		.set	.LANCHOR6,. + 0
 5208              	readIndex:
 5209 0000 00000000 		.space	4
 5210              		.section	.bss.readIndexFraction,"aw",%nobits
 5211              		.align	2
 5212              		.set	.LANCHOR16,. + 0
 5215              	readIndexFraction:
 5216 0000 00000000 		.space	4
 5217              		.section	.bss.readIndexInt,"aw",%nobits
 5218              		.align	2
 5219              		.set	.LANCHOR15,. + 0
 5222              	readIndexInt:
 5223 0000 00000000 		.space	4
 5224              		.section	.bss.readPitch,"aw",%nobits
 5225              		.align	2
 5228              	readPitch:
 5229 0000 00000000 		.space	4
ARM GAS  /var/folders/m5/x8wc2gdj7z5cpgcqdsb_gkj40000gn/T//ccPXNgbP.s 			page 142


 5230              		.section	.bss.recButton,"aw",%nobits
 5231              		.align	2
 5232              		.set	.LANCHOR9,. + 0
 5235              	recButton:
 5236 0000 00000000 		.space	16
 5236      00000000 
 5236      00000000 
 5236      00000000 
 5237              		.section	.bss.sampleSig,"aw",%nobits
 5238              		.align	2
 5239              		.set	.LANCHOR37,. + 0
 5242              	sampleSig:
 5243 0000 00000000 		.space	4
 5244              		.section	.bss.spliceBufferOneReadIndex,"aw",%nobits
 5245              		.align	2
 5246              		.set	.LANCHOR22,. + 0
 5249              	spliceBufferOneReadIndex:
 5250 0000 00000000 		.space	4
 5251              		.section	.bss.spliceBufferOneReadIndexFraction,"aw",%nobits
 5252              		.align	2
 5253              		.set	.LANCHOR24,. + 0
 5256              	spliceBufferOneReadIndexFraction:
 5257 0000 00000000 		.space	4
 5258              		.section	.bss.spliceBufferOneReadIndexInt,"aw",%nobits
 5259              		.align	2
 5260              		.set	.LANCHOR23,. + 0
 5263              	spliceBufferOneReadIndexInt:
 5264 0000 00000000 		.space	4
 5265              		.section	.bss.startPoint,"aw",%nobits
 5266              		.align	2
 5267              		.set	.LANCHOR3,. + 0
 5270              	startPoint:
 5271 0000 00000000 		.space	4
 5272              		.section	.bss.testValFloat,"aw",%nobits
 5273              		.align	2
 5274              		.set	.LANCHOR29,. + 0
 5277              	testValFloat:
 5278 0000 00000000 		.space	4
 5279              		.section	.bss.testValInt,"aw",%nobits
 5280              		.align	2
 5281              		.set	.LANCHOR30,. + 0
 5284              	testValInt:
 5285 0000 00000000 		.space	4
 5286              		.section	.bss.writeIndex,"aw",%nobits
 5287              		.align	2
 5288              		.set	.LANCHOR13,. + 0
 5291              	writeIndex:
 5292 0000 00000000 		.space	4
 5293              		.section	.data.outputAmp,"aw"
 5294              		.align	2
 5295              		.set	.LANCHOR36,. + 0
 5298              	outputAmp:
 5299 0000 0000003F 		.word	1056964608
 5300              		.section	.data.readFactor,"aw"
 5301              		.align	2
 5302              		.set	.LANCHOR14,. + 0
 5305              	readFactor:
ARM GAS  /var/folders/m5/x8wc2gdj7z5cpgcqdsb_gkj40000gn/T//ccPXNgbP.s 			page 143


 5306 0000 0000803F 		.word	1065353216
 5307              		.section	.data.recordingLength,"aw"
 5308              		.align	2
 5309              		.set	.LANCHOR18,. + 0
 5312              	recordingLength:
 5313 0000 00E45700 		.word	5760000
 5314              		.section	.data.spliceBufferOneLength,"aw"
 5315              		.align	2
 5316              		.set	.LANCHOR21,. + 0
 5319              	spliceBufferOneLength:
 5320 0000 00A60E00 		.word	960000
 5321              		.section	.data.stopPoint,"aw"
 5322              		.align	2
 5323              		.set	.LANCHOR4,. + 0
 5326              	stopPoint:
 5327 0000 00E45700 		.word	5760000
 5328              		.section	.sdram_bss,"aw"
 5329              		.align	2
 5332              	spliceBufferFour:
 5333 0000 00000000 		.space	3840000
 5333      00000000 
 5333      00000000 
 5333      00000000 
 5333      00000000 
 5336              	spliceBufferThree:
 5337 3a9800 00000000 		.space	3840000
 5337      00000000 
 5337      00000000 
 5337      00000000 
 5337      00000000 
 5340              	spliceBufferTwo:
 5341 753000 00000000 		.space	3840000
 5341      00000000 
 5341      00000000 
 5341      00000000 
 5341      00000000 
 5344              	spliceBufferOne:
 5345 afc800 00000000 		.space	3840000
 5345      00000000 
 5345      00000000 
 5345      00000000 
 5345      00000000 
 5348              	recordingBuffer:
 5349 ea6000 00000000 		.space	23040000
 5349      00000000 
 5349      00000000 
 5349      00000000 
 5349      00000000 
 5350              		.text
 5351              	.Letext0:
 5352              		.file 17 "/Applications/ARM/arm-none-eabi/include/machine/_default_types.h"
 5353              		.file 18 "/Applications/ARM/arm-none-eabi/include/sys/_stdint.h"
 5354              		.file 19 "/Applications/ARM/arm-none-eabi/include/stdint.h"
 5355              		.file 20 "/Applications/ARM/lib/gcc/arm-none-eabi/10.3.1/include/stddef.h"
 5356              		.file 21 "/Applications/ARM/arm-none-eabi/include/c++/10.3.1/cmath"
 5357              		.file 22 "/Applications/ARM/arm-none-eabi/include/c++/10.3.1/bits/std_abs.h"
 5358              		.file 23 "/Applications/ARM/arm-none-eabi/include/c++/10.3.1/cstdlib"
ARM GAS  /var/folders/m5/x8wc2gdj7z5cpgcqdsb_gkj40000gn/T//ccPXNgbP.s 			page 144


 5359              		.file 24 "/Applications/ARM/arm-none-eabi/include/c++/10.3.1/cstdint"
 5360              		.file 25 "/Applications/ARM/arm-none-eabi/include/c++/10.3.1/type_traits"
 5361              		.file 26 "/Applications/ARM/arm-none-eabi/include/c++/10.3.1/debug/debug.h"
 5362              		.file 27 "/Applications/ARM/arm-none-eabi/include/c++/10.3.1/arm-none-eabi/thumb/v7e-m+dp/hard/bit
 5363              		.file 28 "/Applications/ARM/arm-none-eabi/include/c++/10.3.1/bits/algorithmfwd.h"
 5364              		.file 29 "/Applications/ARM/arm-none-eabi/include/c++/10.3.1/bits/stl_pair.h"
 5365              		.file 30 "/Applications/ARM/arm-none-eabi/include/c++/10.3.1/bits/exception_ptr.h"
 5366              		.file 31 "/Applications/ARM/arm-none-eabi/include/c++/10.3.1/cstdarg"
 5367              		.file 32 "/Applications/ARM/arm-none-eabi/include/c++/10.3.1/cstdio"
 5368              		.file 33 "/Applications/ARM/arm-none-eabi/include/c++/10.3.1/cstring"
 5369              		.file 34 "/Applications/ARM/arm-none-eabi/include/c++/10.3.1/cwchar"
 5370              		.file 35 "/Applications/ARM/arm-none-eabi/include/c++/10.3.1/clocale"
 5371              		.file 36 "/Applications/ARM/arm-none-eabi/include/c++/10.3.1/bits/basic_string.h"
 5372              		.file 37 "/Applications/ARM/arm-none-eabi/include/c++/10.3.1/bits/stl_iterator.h"
 5373              		.file 38 "/Applications/ARM/arm-none-eabi/include/c++/10.3.1/bits/predefined_ops.h"
 5374              		.file 39 "/Applications/ARM/arm-none-eabi/include/sys/_types.h"
 5375              		.file 40 "/Applications/ARM/arm-none-eabi/include/sys/reent.h"
 5376              		.file 41 "/Applications/ARM/arm-none-eabi/include/sys/lock.h"
 5377              		.file 42 "/Applications/ARM/arm-none-eabi/include/math.h"
 5378              		.file 43 "/Applications/ARM/arm-none-eabi/include/stdlib.h"
 5379              		.file 44 "/Applications/ARM/arm-none-eabi/include/c++/10.3.1/math.h"
 5380              		.file 45 "/Applications/ARM/arm-none-eabi/include/c++/10.3.1/stdlib.h"
 5381              		.file 46 "/Users/dominicfrugoli/Desktop/ProgrammingCode/DaisyCode/DaisyExamples/libDaisy/src/daisy
 5382              		.file 47 "/Users/dominicfrugoli/Desktop/ProgrammingCode/DaisyCode/DaisyExamples/libDaisy/src/per/t
 5383              		.file 48 "/Users/dominicfrugoli/Desktop/ProgrammingCode/DaisyCode/DaisyExamples/libDaisy/src/util/
 5384              		.file 49 "/Users/dominicfrugoli/Desktop/ProgrammingCode/DaisyCode/DaisyExamples/libDaisy/src/dev/m
 5385              		.file 50 "/Users/dominicfrugoli/Desktop/ProgrammingCode/DaisyCode/DaisyExamples/libDaisy/src/per/g
 5386              		.file 51 "/Users/dominicfrugoli/Desktop/ProgrammingCode/DaisyCode/DaisyExamples/libDaisy/src/dev/s
 5387              		.file 52 "/Applications/ARM/lib/gcc/arm-none-eabi/10.3.1/include/stdarg.h"
 5388              		.file 53 "/Applications/ARM/arm-none-eabi/include/stdio.h"
 5389              		.file 54 "/Applications/ARM/arm-none-eabi/include/string.h"
 5390              		.file 55 "/Users/dominicfrugoli/Desktop/ProgrammingCode/DaisyCode/DaisyExamples/DaisySP/Source/Con
 5391              		.file 56 "/Applications/ARM/arm-none-eabi/include/wchar.h"
 5392              		.file 57 "/Applications/ARM/arm-none-eabi/include/locale.h"
 5393              		.file 58 "/Users/dominicfrugoli/Desktop/ProgrammingCode/DaisyCode/DaisyExamples/libDaisy/src/dev/s
 5394              		.file 59 "<built-in>"
ARM GAS  /var/folders/m5/x8wc2gdj7z5cpgcqdsb_gkj40000gn/T//ccPXNgbP.s 			page 145


DEFINED SYMBOLS
                            *ABS*:0000000000000000 sardinia.cpp
/var/folders/m5/x8wc2gdj7z5cpgcqdsb_gkj40000gn/T//ccPXNgbP.s:19     .text._ZN5daisy6SwitchD2Ev:0000000000000000 $t
/var/folders/m5/x8wc2gdj7z5cpgcqdsb_gkj40000gn/T//ccPXNgbP.s:26     .text._ZN5daisy6SwitchD2Ev:0000000000000000 _ZN5daisy6SwitchD2Ev
/var/folders/m5/x8wc2gdj7z5cpgcqdsb_gkj40000gn/T//ccPXNgbP.s:26     .text._ZN5daisy6SwitchD2Ev:0000000000000000 _ZN5daisy6SwitchD1Ev
/var/folders/m5/x8wc2gdj7z5cpgcqdsb_gkj40000gn/T//ccPXNgbP.s:43     .text._ZN5daisy7EncoderD2Ev:0000000000000000 $t
/var/folders/m5/x8wc2gdj7z5cpgcqdsb_gkj40000gn/T//ccPXNgbP.s:50     .text._ZN5daisy7EncoderD2Ev:0000000000000000 _ZN5daisy7EncoderD2Ev
/var/folders/m5/x8wc2gdj7z5cpgcqdsb_gkj40000gn/T//ccPXNgbP.s:50     .text._ZN5daisy7EncoderD2Ev:0000000000000000 _ZN5daisy7EncoderD1Ev
/var/folders/m5/x8wc2gdj7z5cpgcqdsb_gkj40000gn/T//ccPXNgbP.s:72     .text._ZN5daisy10LcdHD44780D2Ev:0000000000000000 $t
/var/folders/m5/x8wc2gdj7z5cpgcqdsb_gkj40000gn/T//ccPXNgbP.s:79     .text._ZN5daisy10LcdHD44780D2Ev:0000000000000000 _ZN5daisy10LcdHD44780D2Ev
/var/folders/m5/x8wc2gdj7z5cpgcqdsb_gkj40000gn/T//ccPXNgbP.s:79     .text._ZN5daisy10LcdHD44780D2Ev:0000000000000000 _ZN5daisy10LcdHD44780D1Ev
/var/folders/m5/x8wc2gdj7z5cpgcqdsb_gkj40000gn/T//ccPXNgbP.s:96     .text._ZN5daisy9DaisySeedD2Ev:0000000000000000 $t
/var/folders/m5/x8wc2gdj7z5cpgcqdsb_gkj40000gn/T//ccPXNgbP.s:103    .text._ZN5daisy9DaisySeedD2Ev:0000000000000000 _ZN5daisy9DaisySeedD2Ev
/var/folders/m5/x8wc2gdj7z5cpgcqdsb_gkj40000gn/T//ccPXNgbP.s:103    .text._ZN5daisy9DaisySeedD2Ev:0000000000000000 _ZN5daisy9DaisySeedD1Ev
/var/folders/m5/x8wc2gdj7z5cpgcqdsb_gkj40000gn/T//ccPXNgbP.s:144    .text._Z16AdvanceReadIndexv.part.0:0000000000000000 $t
/var/folders/m5/x8wc2gdj7z5cpgcqdsb_gkj40000gn/T//ccPXNgbP.s:150    .text._Z16AdvanceReadIndexv.part.0:0000000000000000 _Z16AdvanceReadIndexv.part.0
/var/folders/m5/x8wc2gdj7z5cpgcqdsb_gkj40000gn/T//ccPXNgbP.s:268    .text._Z16AdvanceReadIndexv.part.0:0000000000000048 $d
/var/folders/m5/x8wc2gdj7z5cpgcqdsb_gkj40000gn/T//ccPXNgbP.s:279    .text._Z12InitControlsv:0000000000000000 $t
/var/folders/m5/x8wc2gdj7z5cpgcqdsb_gkj40000gn/T//ccPXNgbP.s:286    .text._Z12InitControlsv:0000000000000000 _Z12InitControlsv
/var/folders/m5/x8wc2gdj7z5cpgcqdsb_gkj40000gn/T//ccPXNgbP.s:503    .text._Z12InitControlsv:0000000000000200 $d
/var/folders/m5/x8wc2gdj7z5cpgcqdsb_gkj40000gn/T//ccPXNgbP.s:513    .text._Z10RisingEdgebb:0000000000000000 $t
/var/folders/m5/x8wc2gdj7z5cpgcqdsb_gkj40000gn/T//ccPXNgbP.s:520    .text._Z10RisingEdgebb:0000000000000000 _Z10RisingEdgebb
/var/folders/m5/x8wc2gdj7z5cpgcqdsb_gkj40000gn/T//ccPXNgbP.s:541    .text._Z11FallingEdgebb:0000000000000000 $t
/var/folders/m5/x8wc2gdj7z5cpgcqdsb_gkj40000gn/T//ccPXNgbP.s:548    .text._Z11FallingEdgebb:0000000000000000 _Z11FallingEdgebb
/var/folders/m5/x8wc2gdj7z5cpgcqdsb_gkj40000gn/T//ccPXNgbP.s:566    .text._Z25RisingEdge_ControlButtonsi:0000000000000000 $t
/var/folders/m5/x8wc2gdj7z5cpgcqdsb_gkj40000gn/T//ccPXNgbP.s:573    .text._Z25RisingEdge_ControlButtonsi:0000000000000000 _Z25RisingEdge_ControlButtonsi
/var/folders/m5/x8wc2gdj7z5cpgcqdsb_gkj40000gn/T//ccPXNgbP.s:602    .text._Z25RisingEdge_ControlButtonsi:0000000000000014 $d
/var/folders/m5/x8wc2gdj7z5cpgcqdsb_gkj40000gn/T//ccPXNgbP.s:608    .text._Z26FallingEdge_ControlButtonsi:0000000000000000 $t
/var/folders/m5/x8wc2gdj7z5cpgcqdsb_gkj40000gn/T//ccPXNgbP.s:615    .text._Z26FallingEdge_ControlButtonsi:0000000000000000 _Z26FallingEdge_ControlButtonsi
/var/folders/m5/x8wc2gdj7z5cpgcqdsb_gkj40000gn/T//ccPXNgbP.s:645    .text._Z26FallingEdge_ControlButtonsi:0000000000000010 $d
/var/folders/m5/x8wc2gdj7z5cpgcqdsb_gkj40000gn/T//ccPXNgbP.s:651    .text._Z13EncoderTurnedv:0000000000000000 $t
/var/folders/m5/x8wc2gdj7z5cpgcqdsb_gkj40000gn/T//ccPXNgbP.s:658    .text._Z13EncoderTurnedv:0000000000000000 _Z13EncoderTurnedv
/var/folders/m5/x8wc2gdj7z5cpgcqdsb_gkj40000gn/T//ccPXNgbP.s:699    .text._Z13EncoderTurnedv:0000000000000020 $d
/var/folders/m5/x8wc2gdj7z5cpgcqdsb_gkj40000gn/T//ccPXNgbP.s:704    .text._Z13EncoderTurnedN5daisy7EncoderE:0000000000000000 $t
/var/folders/m5/x8wc2gdj7z5cpgcqdsb_gkj40000gn/T//ccPXNgbP.s:711    .text._Z13EncoderTurnedN5daisy7EncoderE:0000000000000000 _Z13EncoderTurnedN5daisy7EncoderE
/var/folders/m5/x8wc2gdj7z5cpgcqdsb_gkj40000gn/T//ccPXNgbP.s:755    .text._Z10InitBufferv:0000000000000000 $t
/var/folders/m5/x8wc2gdj7z5cpgcqdsb_gkj40000gn/T//ccPXNgbP.s:762    .text._Z10InitBufferv:0000000000000000 _Z10InitBufferv
/var/folders/m5/x8wc2gdj7z5cpgcqdsb_gkj40000gn/T//ccPXNgbP.s:834    .text._Z10InitBufferv:0000000000000040 $d
/var/folders/m5/x8wc2gdj7z5cpgcqdsb_gkj40000gn/T//ccPXNgbP.s:5348   .sdram_bss:0000000000ea6000 recordingBuffer
/var/folders/m5/x8wc2gdj7z5cpgcqdsb_gkj40000gn/T//ccPXNgbP.s:5344   .sdram_bss:0000000000afc800 spliceBufferOne
/var/folders/m5/x8wc2gdj7z5cpgcqdsb_gkj40000gn/T//ccPXNgbP.s:5340   .sdram_bss:0000000000753000 spliceBufferTwo
/var/folders/m5/x8wc2gdj7z5cpgcqdsb_gkj40000gn/T//ccPXNgbP.s:5336   .sdram_bss:00000000003a9800 spliceBufferThree
/var/folders/m5/x8wc2gdj7z5cpgcqdsb_gkj40000gn/T//ccPXNgbP.s:5332   .sdram_bss:0000000000000000 spliceBufferFour
/var/folders/m5/x8wc2gdj7z5cpgcqdsb_gkj40000gn/T//ccPXNgbP.s:847    .text._Z12RecordSamplef:0000000000000000 $t
/var/folders/m5/x8wc2gdj7z5cpgcqdsb_gkj40000gn/T//ccPXNgbP.s:854    .text._Z12RecordSamplef:0000000000000000 _Z12RecordSamplef
/var/folders/m5/x8wc2gdj7z5cpgcqdsb_gkj40000gn/T//ccPXNgbP.s:883    .text._Z12RecordSamplef:0000000000000014 $d
/var/folders/m5/x8wc2gdj7z5cpgcqdsb_gkj40000gn/T//ccPXNgbP.s:889    .text._Z14ResetReadIndexv:0000000000000000 $t
/var/folders/m5/x8wc2gdj7z5cpgcqdsb_gkj40000gn/T//ccPXNgbP.s:896    .text._Z14ResetReadIndexv:0000000000000000 _Z14ResetReadIndexv
/var/folders/m5/x8wc2gdj7z5cpgcqdsb_gkj40000gn/T//ccPXNgbP.s:915    .text._Z14ResetReadIndexv:0000000000000014 $d
/var/folders/m5/x8wc2gdj7z5cpgcqdsb_gkj40000gn/T//ccPXNgbP.s:921    .text._Z16AdvanceReadIndexv:0000000000000000 $t
/var/folders/m5/x8wc2gdj7z5cpgcqdsb_gkj40000gn/T//ccPXNgbP.s:928    .text._Z16AdvanceReadIndexv:0000000000000000 _Z16AdvanceReadIndexv
/var/folders/m5/x8wc2gdj7z5cpgcqdsb_gkj40000gn/T//ccPXNgbP.s:964    .text._Z16AdvanceReadIndexv:0000000000000030 $d
/var/folders/m5/x8wc2gdj7z5cpgcqdsb_gkj40000gn/T//ccPXNgbP.s:971    .text._Z9GetSamplev:0000000000000000 $t
/var/folders/m5/x8wc2gdj7z5cpgcqdsb_gkj40000gn/T//ccPXNgbP.s:978    .text._Z9GetSamplev:0000000000000000 _Z9GetSamplev
/var/folders/m5/x8wc2gdj7z5cpgcqdsb_gkj40000gn/T//ccPXNgbP.s:1038   .text._Z9GetSamplev:0000000000000040 $d
/var/folders/m5/x8wc2gdj7z5cpgcqdsb_gkj40000gn/T//ccPXNgbP.s:1046   .text._Z19FullSampleGetSamplev:0000000000000000 $t
/var/folders/m5/x8wc2gdj7z5cpgcqdsb_gkj40000gn/T//ccPXNgbP.s:1053   .text._Z19FullSampleGetSamplev:0000000000000000 _Z19FullSampleGetSamplev
ARM GAS  /var/folders/m5/x8wc2gdj7z5cpgcqdsb_gkj40000gn/T//ccPXNgbP.s 			page 146


/var/folders/m5/x8wc2gdj7z5cpgcqdsb_gkj40000gn/T//ccPXNgbP.s:1148   .text._Z19FullSampleGetSamplev:0000000000000078 $d
/var/folders/m5/x8wc2gdj7z5cpgcqdsb_gkj40000gn/T//ccPXNgbP.s:1159   .text._Z20StoreSpliceBufferOnev:0000000000000000 $t
/var/folders/m5/x8wc2gdj7z5cpgcqdsb_gkj40000gn/T//ccPXNgbP.s:1166   .text._Z20StoreSpliceBufferOnev:0000000000000000 _Z20StoreSpliceBufferOnev
/var/folders/m5/x8wc2gdj7z5cpgcqdsb_gkj40000gn/T//ccPXNgbP.s:1465   .text._Z20StoreSpliceBufferOnev:000000000000011c $d
/var/folders/m5/x8wc2gdj7z5cpgcqdsb_gkj40000gn/T//ccPXNgbP.s:1483   .text._Z24SpliceBufferOneGetSamplev:0000000000000000 $t
/var/folders/m5/x8wc2gdj7z5cpgcqdsb_gkj40000gn/T//ccPXNgbP.s:1490   .text._Z24SpliceBufferOneGetSamplev:0000000000000000 _Z24SpliceBufferOneGetSamplev
/var/folders/m5/x8wc2gdj7z5cpgcqdsb_gkj40000gn/T//ccPXNgbP.s:1585   .text._Z24SpliceBufferOneGetSamplev:0000000000000078 $d
/var/folders/m5/x8wc2gdj7z5cpgcqdsb_gkj40000gn/T//ccPXNgbP.s:1596   .text._Z20StoreSpliceBufferTwov:0000000000000000 $t
/var/folders/m5/x8wc2gdj7z5cpgcqdsb_gkj40000gn/T//ccPXNgbP.s:1603   .text._Z20StoreSpliceBufferTwov:0000000000000000 _Z20StoreSpliceBufferTwov
/var/folders/m5/x8wc2gdj7z5cpgcqdsb_gkj40000gn/T//ccPXNgbP.s:1864   .text._Z20StoreSpliceBufferTwov:00000000000000ec $d
/var/folders/m5/x8wc2gdj7z5cpgcqdsb_gkj40000gn/T//ccPXNgbP.s:1881   .text._Z22StoreSpliceBufferThreev:0000000000000000 $t
/var/folders/m5/x8wc2gdj7z5cpgcqdsb_gkj40000gn/T//ccPXNgbP.s:1888   .text._Z22StoreSpliceBufferThreev:0000000000000000 _Z22StoreSpliceBufferThreev
/var/folders/m5/x8wc2gdj7z5cpgcqdsb_gkj40000gn/T//ccPXNgbP.s:2149   .text._Z22StoreSpliceBufferThreev:00000000000000ec $d
/var/folders/m5/x8wc2gdj7z5cpgcqdsb_gkj40000gn/T//ccPXNgbP.s:2166   .text._Z21StoreSpliceBufferFourv:0000000000000000 $t
/var/folders/m5/x8wc2gdj7z5cpgcqdsb_gkj40000gn/T//ccPXNgbP.s:2173   .text._Z21StoreSpliceBufferFourv:0000000000000000 _Z21StoreSpliceBufferFourv
/var/folders/m5/x8wc2gdj7z5cpgcqdsb_gkj40000gn/T//ccPXNgbP.s:2434   .text._Z21StoreSpliceBufferFourv:00000000000000ec $d
/var/folders/m5/x8wc2gdj7z5cpgcqdsb_gkj40000gn/T//ccPXNgbP.s:2451   .text._Z15AnyKeyIsPressedv:0000000000000000 $t
/var/folders/m5/x8wc2gdj7z5cpgcqdsb_gkj40000gn/T//ccPXNgbP.s:2458   .text._Z15AnyKeyIsPressedv:0000000000000000 _Z15AnyKeyIsPressedv
/var/folders/m5/x8wc2gdj7z5cpgcqdsb_gkj40000gn/T//ccPXNgbP.s:2495   .text._Z15AnyKeyIsPressedv:0000000000000018 $d
/var/folders/m5/x8wc2gdj7z5cpgcqdsb_gkj40000gn/T//ccPXNgbP.s:2500   .text._Z18FindNextPressedKeyi:0000000000000000 $t
/var/folders/m5/x8wc2gdj7z5cpgcqdsb_gkj40000gn/T//ccPXNgbP.s:2507   .text._Z18FindNextPressedKeyi:0000000000000000 _Z18FindNextPressedKeyi
/var/folders/m5/x8wc2gdj7z5cpgcqdsb_gkj40000gn/T//ccPXNgbP.s:2560   .text._Z18FindNextPressedKeyi:000000000000001c $d
/var/folders/m5/x8wc2gdj7z5cpgcqdsb_gkj40000gn/T//ccPXNgbP.s:2565   .text._Z12SetKeyIndexsv:0000000000000000 $t
/var/folders/m5/x8wc2gdj7z5cpgcqdsb_gkj40000gn/T//ccPXNgbP.s:2572   .text._Z12SetKeyIndexsv:0000000000000000 _Z12SetKeyIndexsv
/var/folders/m5/x8wc2gdj7z5cpgcqdsb_gkj40000gn/T//ccPXNgbP.s:2744   .text._Z12SetKeyIndexsv:000000000000009c $d
/var/folders/m5/x8wc2gdj7z5cpgcqdsb_gkj40000gn/T//ccPXNgbP.s:2760   .text._Z13GetStartPointv:0000000000000000 $t
/var/folders/m5/x8wc2gdj7z5cpgcqdsb_gkj40000gn/T//ccPXNgbP.s:2767   .text._Z13GetStartPointv:0000000000000000 _Z13GetStartPointv
/var/folders/m5/x8wc2gdj7z5cpgcqdsb_gkj40000gn/T//ccPXNgbP.s:2783   .text._Z13GetStartPointv:0000000000000008 $d
/var/folders/m5/x8wc2gdj7z5cpgcqdsb_gkj40000gn/T//ccPXNgbP.s:2788   .text._Z12GetStopPointv:0000000000000000 $t
/var/folders/m5/x8wc2gdj7z5cpgcqdsb_gkj40000gn/T//ccPXNgbP.s:2795   .text._Z12GetStopPointv:0000000000000000 _Z12GetStopPointv
/var/folders/m5/x8wc2gdj7z5cpgcqdsb_gkj40000gn/T//ccPXNgbP.s:2811   .text._Z12GetStopPointv:0000000000000008 $d
/var/folders/m5/x8wc2gdj7z5cpgcqdsb_gkj40000gn/T//ccPXNgbP.s:2816   .text._Z7InitLCDv:0000000000000000 $t
/var/folders/m5/x8wc2gdj7z5cpgcqdsb_gkj40000gn/T//ccPXNgbP.s:2823   .text._Z7InitLCDv:0000000000000000 _Z7InitLCDv
/var/folders/m5/x8wc2gdj7z5cpgcqdsb_gkj40000gn/T//ccPXNgbP.s:2901   .text._Z7InitLCDv:000000000000005c $d
/var/folders/m5/x8wc2gdj7z5cpgcqdsb_gkj40000gn/T//ccPXNgbP.s:2907   .rodata._Z9PrintMenuv.str1.4:0000000000000000 $d
/var/folders/m5/x8wc2gdj7z5cpgcqdsb_gkj40000gn/T//ccPXNgbP.s:2914   .text._Z9PrintMenuv:0000000000000000 $t
/var/folders/m5/x8wc2gdj7z5cpgcqdsb_gkj40000gn/T//ccPXNgbP.s:2921   .text._Z9PrintMenuv:0000000000000000 _Z9PrintMenuv
/var/folders/m5/x8wc2gdj7z5cpgcqdsb_gkj40000gn/T//ccPXNgbP.s:2960   .text._Z9PrintMenuv:000000000000001c $d
/var/folders/m5/x8wc2gdj7z5cpgcqdsb_gkj40000gn/T//ccPXNgbP.s:2970   .text._Z10UpdateMenui:0000000000000000 $t
/var/folders/m5/x8wc2gdj7z5cpgcqdsb_gkj40000gn/T//ccPXNgbP.s:2977   .text._Z10UpdateMenui:0000000000000000 _Z10UpdateMenui
/var/folders/m5/x8wc2gdj7z5cpgcqdsb_gkj40000gn/T//ccPXNgbP.s:3002   .text._Z10UpdateMenui:0000000000000010 $d
/var/folders/m5/x8wc2gdj7z5cpgcqdsb_gkj40000gn/T//ccPXNgbP.s:3007   .text.startup.main:0000000000000000 $t
/var/folders/m5/x8wc2gdj7z5cpgcqdsb_gkj40000gn/T//ccPXNgbP.s:3014   .text.startup.main:0000000000000000 main
/var/folders/m5/x8wc2gdj7z5cpgcqdsb_gkj40000gn/T//ccPXNgbP.s:3167   .text.startup.main:00000000000000a4 $d
/var/folders/m5/x8wc2gdj7z5cpgcqdsb_gkj40000gn/T//ccPXNgbP.s:4152   .text._Z13AudioCallbackPKPKfPPfj:0000000000000000 _Z13AudioCallbackPKPKfPPfj
/var/folders/m5/x8wc2gdj7z5cpgcqdsb_gkj40000gn/T//ccPXNgbP.s:3185   .text._Z17ProcessControlsARv:0000000000000000 $t
/var/folders/m5/x8wc2gdj7z5cpgcqdsb_gkj40000gn/T//ccPXNgbP.s:3192   .text._Z17ProcessControlsARv:0000000000000000 _Z17ProcessControlsARv
/var/folders/m5/x8wc2gdj7z5cpgcqdsb_gkj40000gn/T//ccPXNgbP.s:3722   .text._Z17ProcessControlsARv:000000000000016c $d
/var/folders/m5/x8wc2gdj7z5cpgcqdsb_gkj40000gn/T//ccPXNgbP.s:3742   .text._Z10UpdateKeysv:0000000000000000 $t
/var/folders/m5/x8wc2gdj7z5cpgcqdsb_gkj40000gn/T//ccPXNgbP.s:3749   .text._Z10UpdateKeysv:0000000000000000 _Z10UpdateKeysv
/var/folders/m5/x8wc2gdj7z5cpgcqdsb_gkj40000gn/T//ccPXNgbP.s:3907   .text._Z10UpdateKeysv:00000000000000ac $d
/var/folders/m5/x8wc2gdj7z5cpgcqdsb_gkj40000gn/T//ccPXNgbP.s:3916   .text._Z17ProcessControlsKRv:0000000000000000 $t
/var/folders/m5/x8wc2gdj7z5cpgcqdsb_gkj40000gn/T//ccPXNgbP.s:3923   .text._Z17ProcessControlsKRv:0000000000000000 _Z17ProcessControlsKRv
/var/folders/m5/x8wc2gdj7z5cpgcqdsb_gkj40000gn/T//ccPXNgbP.s:4136   .text._Z17ProcessControlsKRv:0000000000000074 $d
/var/folders/m5/x8wc2gdj7z5cpgcqdsb_gkj40000gn/T//ccPXNgbP.s:4145   .text._Z13AudioCallbackPKPKfPPfj:0000000000000000 $t
/var/folders/m5/x8wc2gdj7z5cpgcqdsb_gkj40000gn/T//ccPXNgbP.s:4550   .text._Z13AudioCallbackPKPKfPPfj:0000000000000178 $d
/var/folders/m5/x8wc2gdj7z5cpgcqdsb_gkj40000gn/T//ccPXNgbP.s:4572   .text._Z20UpdateControlButtonsv:0000000000000000 $t
ARM GAS  /var/folders/m5/x8wc2gdj7z5cpgcqdsb_gkj40000gn/T//ccPXNgbP.s 			page 147


/var/folders/m5/x8wc2gdj7z5cpgcqdsb_gkj40000gn/T//ccPXNgbP.s:4579   .text._Z20UpdateControlButtonsv:0000000000000000 _Z20UpdateControlButtonsv
/var/folders/m5/x8wc2gdj7z5cpgcqdsb_gkj40000gn/T//ccPXNgbP.s:4637   .text._Z20UpdateControlButtonsv:0000000000000030 $d
/var/folders/m5/x8wc2gdj7z5cpgcqdsb_gkj40000gn/T//ccPXNgbP.s:4643   .text._Z25RecordControlButtonStatesv:0000000000000000 $t
/var/folders/m5/x8wc2gdj7z5cpgcqdsb_gkj40000gn/T//ccPXNgbP.s:4650   .text._Z25RecordControlButtonStatesv:0000000000000000 _Z25RecordControlButtonStatesv
/var/folders/m5/x8wc2gdj7z5cpgcqdsb_gkj40000gn/T//ccPXNgbP.s:4674   .text._Z25RecordControlButtonStatesv:0000000000000010 $d
/var/folders/m5/x8wc2gdj7z5cpgcqdsb_gkj40000gn/T//ccPXNgbP.s:4680   .text._Z10ModeSelectv:0000000000000000 $t
/var/folders/m5/x8wc2gdj7z5cpgcqdsb_gkj40000gn/T//ccPXNgbP.s:4687   .text._Z10ModeSelectv:0000000000000000 _Z10ModeSelectv
/var/folders/m5/x8wc2gdj7z5cpgcqdsb_gkj40000gn/T//ccPXNgbP.s:4786   .text._Z10ModeSelectv:0000000000000024 $d
/var/folders/m5/x8wc2gdj7z5cpgcqdsb_gkj40000gn/T//ccPXNgbP.s:4793   .text.startup._GLOBAL__sub_I_adcConfig:0000000000000000 $t
/var/folders/m5/x8wc2gdj7z5cpgcqdsb_gkj40000gn/T//ccPXNgbP.s:4799   .text.startup._GLOBAL__sub_I_adcConfig:0000000000000000 _GLOBAL__sub_I_adcConfig
/var/folders/m5/x8wc2gdj7z5cpgcqdsb_gkj40000gn/T//ccPXNgbP.s:4974   .text.startup._GLOBAL__sub_I_adcConfig:0000000000000044 $d
/var/folders/m5/x8wc2gdj7z5cpgcqdsb_gkj40000gn/T//ccPXNgbP.s:4990   .init_array:0000000000000000 $d
/var/folders/m5/x8wc2gdj7z5cpgcqdsb_gkj40000gn/T//ccPXNgbP.s:5284   .bss.testValInt:0000000000000000 testValInt
/var/folders/m5/x8wc2gdj7z5cpgcqdsb_gkj40000gn/T//ccPXNgbP.s:5277   .bss.testValFloat:0000000000000000 testValFloat
/var/folders/m5/x8wc2gdj7z5cpgcqdsb_gkj40000gn/T//ccPXNgbP.s:5298   .data.outputAmp:0000000000000000 outputAmp
/var/folders/m5/x8wc2gdj7z5cpgcqdsb_gkj40000gn/T//ccPXNgbP.s:5121   .bss.inputSig:0000000000000000 inputSig
/var/folders/m5/x8wc2gdj7z5cpgcqdsb_gkj40000gn/T//ccPXNgbP.s:5242   .bss.sampleSig:0000000000000000 sampleSig
/var/folders/m5/x8wc2gdj7z5cpgcqdsb_gkj40000gn/T//ccPXNgbP.s:5181   .bss.outputMix:0000000000000000 outputMix
/var/folders/m5/x8wc2gdj7z5cpgcqdsb_gkj40000gn/T//ccPXNgbP.s:5114   .bss.hw:0000000000000000 hw
/var/folders/m5/x8wc2gdj7z5cpgcqdsb_gkj40000gn/T//ccPXNgbP.s:5174   .bss.mode:0000000000000000 mode
/var/folders/m5/x8wc2gdj7z5cpgcqdsb_gkj40000gn/T//ccPXNgbP.s:5161   .bss.lcd:0000000000000000 lcd
/var/folders/m5/x8wc2gdj7z5cpgcqdsb_gkj40000gn/T//ccPXNgbP.s:5319   .data.spliceBufferOneLength:0000000000000000 spliceBufferOneLength
/var/folders/m5/x8wc2gdj7z5cpgcqdsb_gkj40000gn/T//ccPXNgbP.s:5256   .bss.spliceBufferOneReadIndexFraction:0000000000000000 spliceBufferOneReadIndexFraction
/var/folders/m5/x8wc2gdj7z5cpgcqdsb_gkj40000gn/T//ccPXNgbP.s:5263   .bss.spliceBufferOneReadIndexInt:0000000000000000 spliceBufferOneReadIndexInt
/var/folders/m5/x8wc2gdj7z5cpgcqdsb_gkj40000gn/T//ccPXNgbP.s:5249   .bss.spliceBufferOneReadIndex:0000000000000000 spliceBufferOneReadIndex
/var/folders/m5/x8wc2gdj7z5cpgcqdsb_gkj40000gn/T//ccPXNgbP.s:5052   .bss.SpliceBufferOneIsPlaying:0000000000000000 SpliceBufferOneIsPlaying
/var/folders/m5/x8wc2gdj7z5cpgcqdsb_gkj40000gn/T//ccPXNgbP.s:5127   .bss.isPlaying:0000000000000000 isPlaying
/var/folders/m5/x8wc2gdj7z5cpgcqdsb_gkj40000gn/T//ccPXNgbP.s:5133   .bss.isRecording:0000000000000000 isRecording
/var/folders/m5/x8wc2gdj7z5cpgcqdsb_gkj40000gn/T//ccPXNgbP.s:5073   .bss.currentKey:0000000000000000 currentKey
/var/folders/m5/x8wc2gdj7z5cpgcqdsb_gkj40000gn/T//ccPXNgbP.s:5326   .data.stopPoint:0000000000000000 stopPoint
/var/folders/m5/x8wc2gdj7z5cpgcqdsb_gkj40000gn/T//ccPXNgbP.s:5270   .bss.startPoint:0000000000000000 startPoint
/var/folders/m5/x8wc2gdj7z5cpgcqdsb_gkj40000gn/T//ccPXNgbP.s:5147   .bss.keyStates:0000000000000000 keyStates
/var/folders/m5/x8wc2gdj7z5cpgcqdsb_gkj40000gn/T//ccPXNgbP.s:5154   .bss.keyStopIndex:0000000000000000 keyStopIndex
/var/folders/m5/x8wc2gdj7z5cpgcqdsb_gkj40000gn/T//ccPXNgbP.s:5140   .bss.keyStartIndex:0000000000000000 keyStartIndex
/var/folders/m5/x8wc2gdj7z5cpgcqdsb_gkj40000gn/T//ccPXNgbP.s:5100   .bss.fullSampleReadIndexFraction:0000000000000000 fullSampleReadIndexFraction
/var/folders/m5/x8wc2gdj7z5cpgcqdsb_gkj40000gn/T//ccPXNgbP.s:5107   .bss.fullSampleReadIndexInt:0000000000000000 fullSampleReadIndexInt
/var/folders/m5/x8wc2gdj7z5cpgcqdsb_gkj40000gn/T//ccPXNgbP.s:5093   .bss.fullSampleReadIndex:0000000000000000 fullSampleReadIndex
/var/folders/m5/x8wc2gdj7z5cpgcqdsb_gkj40000gn/T//ccPXNgbP.s:5168   .bss.lengthTrack:0000000000000000 lengthTrack
/var/folders/m5/x8wc2gdj7z5cpgcqdsb_gkj40000gn/T//ccPXNgbP.s:5312   .data.recordingLength:0000000000000000 recordingLength
/var/folders/m5/x8wc2gdj7z5cpgcqdsb_gkj40000gn/T//ccPXNgbP.s:5291   .bss.writeIndex:0000000000000000 writeIndex
/var/folders/m5/x8wc2gdj7z5cpgcqdsb_gkj40000gn/T//ccPXNgbP.s:5228   .bss.readPitch:0000000000000000 readPitch
/var/folders/m5/x8wc2gdj7z5cpgcqdsb_gkj40000gn/T//ccPXNgbP.s:5305   .data.readFactor:0000000000000000 readFactor
/var/folders/m5/x8wc2gdj7z5cpgcqdsb_gkj40000gn/T//ccPXNgbP.s:5215   .bss.readIndexFraction:0000000000000000 readIndexFraction
/var/folders/m5/x8wc2gdj7z5cpgcqdsb_gkj40000gn/T//ccPXNgbP.s:5222   .bss.readIndexInt:0000000000000000 readIndexInt
/var/folders/m5/x8wc2gdj7z5cpgcqdsb_gkj40000gn/T//ccPXNgbP.s:5208   .bss.readIndex:0000000000000000 readIndex
/var/folders/m5/x8wc2gdj7z5cpgcqdsb_gkj40000gn/T//ccPXNgbP.s:5194   .bss.playButtonOverrule:0000000000000000 playButtonOverrule
/var/folders/m5/x8wc2gdj7z5cpgcqdsb_gkj40000gn/T//ccPXNgbP.s:5201   .bss.prevControlButtonStates:0000000000000000 prevControlButtonStates
/var/folders/m5/x8wc2gdj7z5cpgcqdsb_gkj40000gn/T//ccPXNgbP.s:5066   .bss.controlButtonStates:0000000000000000 controlButtonStates
/var/folders/m5/x8wc2gdj7z5cpgcqdsb_gkj40000gn/T//ccPXNgbP.s:5086   .bss.encoderTurnVal:0000000000000000 encoderTurnVal
/var/folders/m5/x8wc2gdj7z5cpgcqdsb_gkj40000gn/T//ccPXNgbP.s:5235   .bss.recButton:0000000000000000 recButton
/var/folders/m5/x8wc2gdj7z5cpgcqdsb_gkj40000gn/T//ccPXNgbP.s:5188   .bss.playButton:0000000000000000 playButton
/var/folders/m5/x8wc2gdj7z5cpgcqdsb_gkj40000gn/T//ccPXNgbP.s:5080   .bss.encoder:0000000000000000 encoder
/var/folders/m5/x8wc2gdj7z5cpgcqdsb_gkj40000gn/T//ccPXNgbP.s:5059   .bss.adcConfig:0000000000000000 adcConfig
/var/folders/m5/x8wc2gdj7z5cpgcqdsb_gkj40000gn/T//ccPXNgbP.s:5039   .rodata:0000000000000000 $d
/var/folders/m5/x8wc2gdj7z5cpgcqdsb_gkj40000gn/T//ccPXNgbP.s:5053   .bss.SpliceBufferOneIsPlaying:0000000000000000 $d
/var/folders/m5/x8wc2gdj7z5cpgcqdsb_gkj40000gn/T//ccPXNgbP.s:5055   .bss.adcConfig:0000000000000000 $d
/var/folders/m5/x8wc2gdj7z5cpgcqdsb_gkj40000gn/T//ccPXNgbP.s:5062   .bss.controlButtonStates:0000000000000000 $d
ARM GAS  /var/folders/m5/x8wc2gdj7z5cpgcqdsb_gkj40000gn/T//ccPXNgbP.s 			page 148


/var/folders/m5/x8wc2gdj7z5cpgcqdsb_gkj40000gn/T//ccPXNgbP.s:5069   .bss.currentKey:0000000000000000 $d
/var/folders/m5/x8wc2gdj7z5cpgcqdsb_gkj40000gn/T//ccPXNgbP.s:5076   .bss.encoder:0000000000000000 $d
/var/folders/m5/x8wc2gdj7z5cpgcqdsb_gkj40000gn/T//ccPXNgbP.s:5083   .bss.encoderTurnVal:0000000000000000 $d
/var/folders/m5/x8wc2gdj7z5cpgcqdsb_gkj40000gn/T//ccPXNgbP.s:5089   .bss.fullSampleReadIndex:0000000000000000 $d
/var/folders/m5/x8wc2gdj7z5cpgcqdsb_gkj40000gn/T//ccPXNgbP.s:5096   .bss.fullSampleReadIndexFraction:0000000000000000 $d
/var/folders/m5/x8wc2gdj7z5cpgcqdsb_gkj40000gn/T//ccPXNgbP.s:5103   .bss.fullSampleReadIndexInt:0000000000000000 $d
/var/folders/m5/x8wc2gdj7z5cpgcqdsb_gkj40000gn/T//ccPXNgbP.s:5110   .bss.hw:0000000000000000 $d
/var/folders/m5/x8wc2gdj7z5cpgcqdsb_gkj40000gn/T//ccPXNgbP.s:5117   .bss.inputSig:0000000000000000 $d
/var/folders/m5/x8wc2gdj7z5cpgcqdsb_gkj40000gn/T//ccPXNgbP.s:5128   .bss.isPlaying:0000000000000000 $d
/var/folders/m5/x8wc2gdj7z5cpgcqdsb_gkj40000gn/T//ccPXNgbP.s:5134   .bss.isRecording:0000000000000000 $d
/var/folders/m5/x8wc2gdj7z5cpgcqdsb_gkj40000gn/T//ccPXNgbP.s:5136   .bss.keyStartIndex:0000000000000000 $d
/var/folders/m5/x8wc2gdj7z5cpgcqdsb_gkj40000gn/T//ccPXNgbP.s:5143   .bss.keyStates:0000000000000000 $d
/var/folders/m5/x8wc2gdj7z5cpgcqdsb_gkj40000gn/T//ccPXNgbP.s:5150   .bss.keyStopIndex:0000000000000000 $d
/var/folders/m5/x8wc2gdj7z5cpgcqdsb_gkj40000gn/T//ccPXNgbP.s:5157   .bss.lcd:0000000000000000 $d
/var/folders/m5/x8wc2gdj7z5cpgcqdsb_gkj40000gn/T//ccPXNgbP.s:5164   .bss.lengthTrack:0000000000000000 $d
/var/folders/m5/x8wc2gdj7z5cpgcqdsb_gkj40000gn/T//ccPXNgbP.s:5175   .bss.mode:0000000000000000 $d
/var/folders/m5/x8wc2gdj7z5cpgcqdsb_gkj40000gn/T//ccPXNgbP.s:5177   .bss.outputMix:0000000000000000 $d
/var/folders/m5/x8wc2gdj7z5cpgcqdsb_gkj40000gn/T//ccPXNgbP.s:5184   .bss.playButton:0000000000000000 $d
/var/folders/m5/x8wc2gdj7z5cpgcqdsb_gkj40000gn/T//ccPXNgbP.s:5195   .bss.playButtonOverrule:0000000000000000 $d
/var/folders/m5/x8wc2gdj7z5cpgcqdsb_gkj40000gn/T//ccPXNgbP.s:5197   .bss.prevControlButtonStates:0000000000000000 $d
/var/folders/m5/x8wc2gdj7z5cpgcqdsb_gkj40000gn/T//ccPXNgbP.s:5204   .bss.readIndex:0000000000000000 $d
/var/folders/m5/x8wc2gdj7z5cpgcqdsb_gkj40000gn/T//ccPXNgbP.s:5211   .bss.readIndexFraction:0000000000000000 $d
/var/folders/m5/x8wc2gdj7z5cpgcqdsb_gkj40000gn/T//ccPXNgbP.s:5218   .bss.readIndexInt:0000000000000000 $d
/var/folders/m5/x8wc2gdj7z5cpgcqdsb_gkj40000gn/T//ccPXNgbP.s:5225   .bss.readPitch:0000000000000000 $d
/var/folders/m5/x8wc2gdj7z5cpgcqdsb_gkj40000gn/T//ccPXNgbP.s:5231   .bss.recButton:0000000000000000 $d
/var/folders/m5/x8wc2gdj7z5cpgcqdsb_gkj40000gn/T//ccPXNgbP.s:5238   .bss.sampleSig:0000000000000000 $d
/var/folders/m5/x8wc2gdj7z5cpgcqdsb_gkj40000gn/T//ccPXNgbP.s:5245   .bss.spliceBufferOneReadIndex:0000000000000000 $d
/var/folders/m5/x8wc2gdj7z5cpgcqdsb_gkj40000gn/T//ccPXNgbP.s:5252   .bss.spliceBufferOneReadIndexFraction:0000000000000000 $d
/var/folders/m5/x8wc2gdj7z5cpgcqdsb_gkj40000gn/T//ccPXNgbP.s:5259   .bss.spliceBufferOneReadIndexInt:0000000000000000 $d
/var/folders/m5/x8wc2gdj7z5cpgcqdsb_gkj40000gn/T//ccPXNgbP.s:5266   .bss.startPoint:0000000000000000 $d
/var/folders/m5/x8wc2gdj7z5cpgcqdsb_gkj40000gn/T//ccPXNgbP.s:5273   .bss.testValFloat:0000000000000000 $d
/var/folders/m5/x8wc2gdj7z5cpgcqdsb_gkj40000gn/T//ccPXNgbP.s:5280   .bss.testValInt:0000000000000000 $d
/var/folders/m5/x8wc2gdj7z5cpgcqdsb_gkj40000gn/T//ccPXNgbP.s:5287   .bss.writeIndex:0000000000000000 $d
/var/folders/m5/x8wc2gdj7z5cpgcqdsb_gkj40000gn/T//ccPXNgbP.s:5294   .data.outputAmp:0000000000000000 $d
/var/folders/m5/x8wc2gdj7z5cpgcqdsb_gkj40000gn/T//ccPXNgbP.s:5301   .data.readFactor:0000000000000000 $d
/var/folders/m5/x8wc2gdj7z5cpgcqdsb_gkj40000gn/T//ccPXNgbP.s:5308   .data.recordingLength:0000000000000000 $d
/var/folders/m5/x8wc2gdj7z5cpgcqdsb_gkj40000gn/T//ccPXNgbP.s:5315   .data.spliceBufferOneLength:0000000000000000 $d
/var/folders/m5/x8wc2gdj7z5cpgcqdsb_gkj40000gn/T//ccPXNgbP.s:5322   .data.stopPoint:0000000000000000 $d
/var/folders/m5/x8wc2gdj7z5cpgcqdsb_gkj40000gn/T//ccPXNgbP.s:5329   .sdram_bss:0000000000000000 $d
                           .group:0000000000000000 _ZN5daisy6SwitchD5Ev
                           .group:0000000000000000 _ZN5daisy7EncoderD5Ev
                           .group:0000000000000000 _ZN5daisy10LcdHD44780D5Ev
                           .group:0000000000000000 _ZN5daisy9DaisySeedD5Ev

UNDEFINED SYMBOLS
_ZN5daisy16AdcChannelConfig7InitMuxE12dsy_gpio_pinjS1_S1_S1_NS0_15ConversionSpeedE
_ZN5daisy6Switch4InitE12dsy_gpio_pinf
_ZN5daisy7Encoder4InitE12dsy_gpio_pinS1_S1_f
memset
_ZN5daisy10LcdHD447804InitERKNS0_6ConfigE
_ZN5daisy10LcdHD447805ClearEv
_ZN5daisy10LcdHD447805PrintEPKc
_ZN5daisy9DaisySeed4InitEb
_ZN5daisy9DaisySeed17SetAudioBlockSizeEj
_ZN5daisy9DaisySeed18SetAudioSampleRateENS_9SaiHandle6Config10SampleRateE
_ZN5daisy9AdcHandle4InitEPNS_16AdcChannelConfigEjNS0_12OverSamplingE
_ZN5daisy9AdcHandle5StartEv
ARM GAS  /var/folders/m5/x8wc2gdj7z5cpgcqdsb_gkj40000gn/T//ccPXNgbP.s 			page 149


_ZN5daisy9DaisySeed10StartAudioEPFvPKPKfPPfjE
_ZN5daisy10LcdHD447809SetCursorEhh
_ZN5daisy10LcdHD447808PrintIntEi
_ZN5daisy6System5DelayEm
_ZNK5daisy9AdcHandle11GetMuxFloatEhh
__aeabi_atexit
__dso_handle
