ARM GAS  /var/folders/m5/x8wc2gdj7z5cpgcqdsb_gkj40000gn/T//cckXFIsJ.s 			page 1


   1              		.cpu cortex-m7
   2              		.arch armv7e-m
   3              		.fpu fpv5-d16
   4              		.eabi_attribute 28, 1
   5              		.eabi_attribute 20, 1
   6              		.eabi_attribute 21, 1
   7              		.eabi_attribute 23, 3
   8              		.eabi_attribute 24, 1
   9              		.eabi_attribute 25, 1
  10              		.eabi_attribute 26, 1
  11              		.eabi_attribute 30, 2
  12              		.eabi_attribute 34, 1
  13              		.eabi_attribute 18, 4
  14              		.file	"sardinia.cpp"
  15              		.text
  16              	.Ltext0:
  17              		.cfi_sections	.debug_frame
  18              		.section	.text._ZN5daisy6SwitchD2Ev,"axG",%progbits,_ZN5daisy6SwitchD5Ev,comdat
  19              		.align	1
  20              		.p2align 2,,3
  21              		.weak	_ZN5daisy6SwitchD2Ev
  22              		.syntax unified
  23              		.thumb
  24              		.thumb_func
  26              	_ZN5daisy6SwitchD2Ev:
  27              	.LVL0:
  28              	.LFB1640:
  29              		.file 1 "/Users/dominicfrugoli/Desktop/ProgrammingCode/DaisyCode/DaisyExamples/libDaisy/src/hid/sw
   1:/Users/dominicfrugoli/Desktop/ProgrammingCode/DaisyCode/DaisyExamples/libDaisy/src/hid/switch.h **** #pragma once
   2:/Users/dominicfrugoli/Desktop/ProgrammingCode/DaisyCode/DaisyExamples/libDaisy/src/hid/switch.h **** #ifndef DSY_SWITCH_H
   3:/Users/dominicfrugoli/Desktop/ProgrammingCode/DaisyCode/DaisyExamples/libDaisy/src/hid/switch.h **** #define DSY_SWITCH_H
   4:/Users/dominicfrugoli/Desktop/ProgrammingCode/DaisyCode/DaisyExamples/libDaisy/src/hid/switch.h **** #include "daisy_core.h"
   5:/Users/dominicfrugoli/Desktop/ProgrammingCode/DaisyCode/DaisyExamples/libDaisy/src/hid/switch.h **** #include "per/gpio.h"
   6:/Users/dominicfrugoli/Desktop/ProgrammingCode/DaisyCode/DaisyExamples/libDaisy/src/hid/switch.h **** #include "sys/system.h"
   7:/Users/dominicfrugoli/Desktop/ProgrammingCode/DaisyCode/DaisyExamples/libDaisy/src/hid/switch.h **** 
   8:/Users/dominicfrugoli/Desktop/ProgrammingCode/DaisyCode/DaisyExamples/libDaisy/src/hid/switch.h **** namespace daisy
   9:/Users/dominicfrugoli/Desktop/ProgrammingCode/DaisyCode/DaisyExamples/libDaisy/src/hid/switch.h **** {
  10:/Users/dominicfrugoli/Desktop/ProgrammingCode/DaisyCode/DaisyExamples/libDaisy/src/hid/switch.h **** /** 
  11:/Users/dominicfrugoli/Desktop/ProgrammingCode/DaisyCode/DaisyExamples/libDaisy/src/hid/switch.h ****     Generic Class for handling momentary/latching switches \n 
  12:/Users/dominicfrugoli/Desktop/ProgrammingCode/DaisyCode/DaisyExamples/libDaisy/src/hid/switch.h ****     Inspired/influenced by Mutable Instruments (pichenettes) Switch classes
  13:/Users/dominicfrugoli/Desktop/ProgrammingCode/DaisyCode/DaisyExamples/libDaisy/src/hid/switch.h ****     @author Stephen Hensley
  14:/Users/dominicfrugoli/Desktop/ProgrammingCode/DaisyCode/DaisyExamples/libDaisy/src/hid/switch.h ****     @date December 2019
  15:/Users/dominicfrugoli/Desktop/ProgrammingCode/DaisyCode/DaisyExamples/libDaisy/src/hid/switch.h ****     @ingroup controls
  16:/Users/dominicfrugoli/Desktop/ProgrammingCode/DaisyCode/DaisyExamples/libDaisy/src/hid/switch.h **** */
  17:/Users/dominicfrugoli/Desktop/ProgrammingCode/DaisyCode/DaisyExamples/libDaisy/src/hid/switch.h **** class Switch
  18:/Users/dominicfrugoli/Desktop/ProgrammingCode/DaisyCode/DaisyExamples/libDaisy/src/hid/switch.h **** {
  19:/Users/dominicfrugoli/Desktop/ProgrammingCode/DaisyCode/DaisyExamples/libDaisy/src/hid/switch.h ****   public:
  20:/Users/dominicfrugoli/Desktop/ProgrammingCode/DaisyCode/DaisyExamples/libDaisy/src/hid/switch.h ****     /** Specifies the expected behavior of the switch */
  21:/Users/dominicfrugoli/Desktop/ProgrammingCode/DaisyCode/DaisyExamples/libDaisy/src/hid/switch.h ****     enum Type
  22:/Users/dominicfrugoli/Desktop/ProgrammingCode/DaisyCode/DaisyExamples/libDaisy/src/hid/switch.h ****     {
  23:/Users/dominicfrugoli/Desktop/ProgrammingCode/DaisyCode/DaisyExamples/libDaisy/src/hid/switch.h ****         TYPE_TOGGLE,    /**< & */
  24:/Users/dominicfrugoli/Desktop/ProgrammingCode/DaisyCode/DaisyExamples/libDaisy/src/hid/switch.h ****         TYPE_MOMENTARY, /**< & */
  25:/Users/dominicfrugoli/Desktop/ProgrammingCode/DaisyCode/DaisyExamples/libDaisy/src/hid/switch.h ****     };
  26:/Users/dominicfrugoli/Desktop/ProgrammingCode/DaisyCode/DaisyExamples/libDaisy/src/hid/switch.h ****     /** Specifies whether the pressed is HIGH or LOW. */
  27:/Users/dominicfrugoli/Desktop/ProgrammingCode/DaisyCode/DaisyExamples/libDaisy/src/hid/switch.h ****     enum Polarity
  28:/Users/dominicfrugoli/Desktop/ProgrammingCode/DaisyCode/DaisyExamples/libDaisy/src/hid/switch.h ****     {
  29:/Users/dominicfrugoli/Desktop/ProgrammingCode/DaisyCode/DaisyExamples/libDaisy/src/hid/switch.h ****         POLARITY_NORMAL,   /**< & */
ARM GAS  /var/folders/m5/x8wc2gdj7z5cpgcqdsb_gkj40000gn/T//cckXFIsJ.s 			page 2


  30:/Users/dominicfrugoli/Desktop/ProgrammingCode/DaisyCode/DaisyExamples/libDaisy/src/hid/switch.h ****         POLARITY_INVERTED, /**< & */
  31:/Users/dominicfrugoli/Desktop/ProgrammingCode/DaisyCode/DaisyExamples/libDaisy/src/hid/switch.h ****     };
  32:/Users/dominicfrugoli/Desktop/ProgrammingCode/DaisyCode/DaisyExamples/libDaisy/src/hid/switch.h **** 
  33:/Users/dominicfrugoli/Desktop/ProgrammingCode/DaisyCode/DaisyExamples/libDaisy/src/hid/switch.h ****     /** Specifies whether to use built-in Pull Up/Down resistors to hold button at a given state wh
  34:/Users/dominicfrugoli/Desktop/ProgrammingCode/DaisyCode/DaisyExamples/libDaisy/src/hid/switch.h ****     enum Pull
  35:/Users/dominicfrugoli/Desktop/ProgrammingCode/DaisyCode/DaisyExamples/libDaisy/src/hid/switch.h ****     {
  36:/Users/dominicfrugoli/Desktop/ProgrammingCode/DaisyCode/DaisyExamples/libDaisy/src/hid/switch.h ****         PULL_UP,   /**< & */
  37:/Users/dominicfrugoli/Desktop/ProgrammingCode/DaisyCode/DaisyExamples/libDaisy/src/hid/switch.h ****         PULL_DOWN, /**< & */
  38:/Users/dominicfrugoli/Desktop/ProgrammingCode/DaisyCode/DaisyExamples/libDaisy/src/hid/switch.h ****         PULL_NONE, /**< & */
  39:/Users/dominicfrugoli/Desktop/ProgrammingCode/DaisyCode/DaisyExamples/libDaisy/src/hid/switch.h ****     };
  40:/Users/dominicfrugoli/Desktop/ProgrammingCode/DaisyCode/DaisyExamples/libDaisy/src/hid/switch.h **** 
  41:/Users/dominicfrugoli/Desktop/ProgrammingCode/DaisyCode/DaisyExamples/libDaisy/src/hid/switch.h ****     Switch() {}
  42:/Users/dominicfrugoli/Desktop/ProgrammingCode/DaisyCode/DaisyExamples/libDaisy/src/hid/switch.h ****     ~Switch() {}
  30              		.loc 1 42 5 view -0
  31              		.cfi_startproc
  32              		@ args = 0, pretend = 0, frame = 0
  33              		@ frame_needed = 0, uses_anonymous_args = 0
  34              		@ link register save eliminated.
  35              		.loc 1 42 16 is_stmt 0 view .LVU1
  36 0000 7047     		bx	lr
  37              		.cfi_endproc
  38              	.LFE1640:
  40              		.weak	_ZN5daisy6SwitchD1Ev
  41              		.thumb_set _ZN5daisy6SwitchD1Ev,_ZN5daisy6SwitchD2Ev
  42 0002 00BF     		.section	.text._ZN5daisy7EncoderD2Ev,"axG",%progbits,_ZN5daisy7EncoderD5Ev,comdat
  43              		.align	1
  44              		.p2align 2,,3
  45              		.weak	_ZN5daisy7EncoderD2Ev
  46              		.syntax unified
  47              		.thumb
  48              		.thumb_func
  50              	_ZN5daisy7EncoderD2Ev:
  51              	.LVL1:
  52              	.LFB1652:
  53              		.file 2 "/Users/dominicfrugoli/Desktop/ProgrammingCode/DaisyCode/DaisyExamples/libDaisy/src/hid/en
   1:/Users/dominicfrugoli/Desktop/ProgrammingCode/DaisyCode/DaisyExamples/libDaisy/src/hid/encoder.h **** #pragma once
   2:/Users/dominicfrugoli/Desktop/ProgrammingCode/DaisyCode/DaisyExamples/libDaisy/src/hid/encoder.h **** #ifndef DSY_ENCODER_H
   3:/Users/dominicfrugoli/Desktop/ProgrammingCode/DaisyCode/DaisyExamples/libDaisy/src/hid/encoder.h **** #define DSY_ENCODER_H
   4:/Users/dominicfrugoli/Desktop/ProgrammingCode/DaisyCode/DaisyExamples/libDaisy/src/hid/encoder.h **** #include "daisy_core.h"
   5:/Users/dominicfrugoli/Desktop/ProgrammingCode/DaisyCode/DaisyExamples/libDaisy/src/hid/encoder.h **** #include "per/gpio.h"
   6:/Users/dominicfrugoli/Desktop/ProgrammingCode/DaisyCode/DaisyExamples/libDaisy/src/hid/encoder.h **** #include "hid/switch.h"
   7:/Users/dominicfrugoli/Desktop/ProgrammingCode/DaisyCode/DaisyExamples/libDaisy/src/hid/encoder.h **** 
   8:/Users/dominicfrugoli/Desktop/ProgrammingCode/DaisyCode/DaisyExamples/libDaisy/src/hid/encoder.h **** namespace daisy
   9:/Users/dominicfrugoli/Desktop/ProgrammingCode/DaisyCode/DaisyExamples/libDaisy/src/hid/encoder.h **** {
  10:/Users/dominicfrugoli/Desktop/ProgrammingCode/DaisyCode/DaisyExamples/libDaisy/src/hid/encoder.h **** /** 
  11:/Users/dominicfrugoli/Desktop/ProgrammingCode/DaisyCode/DaisyExamples/libDaisy/src/hid/encoder.h ****     @brief Generic Class for handling Quadrature Encoders \n 
  12:/Users/dominicfrugoli/Desktop/ProgrammingCode/DaisyCode/DaisyExamples/libDaisy/src/hid/encoder.h ****     Inspired/influenced by Mutable Instruments (pichenettes) Encoder classes
  13:/Users/dominicfrugoli/Desktop/ProgrammingCode/DaisyCode/DaisyExamples/libDaisy/src/hid/encoder.h ****     @author Stephen Hensley
  14:/Users/dominicfrugoli/Desktop/ProgrammingCode/DaisyCode/DaisyExamples/libDaisy/src/hid/encoder.h ****     @date December 2019
  15:/Users/dominicfrugoli/Desktop/ProgrammingCode/DaisyCode/DaisyExamples/libDaisy/src/hid/encoder.h ****     @ingroup controls
  16:/Users/dominicfrugoli/Desktop/ProgrammingCode/DaisyCode/DaisyExamples/libDaisy/src/hid/encoder.h **** */
  17:/Users/dominicfrugoli/Desktop/ProgrammingCode/DaisyCode/DaisyExamples/libDaisy/src/hid/encoder.h **** class Encoder
  18:/Users/dominicfrugoli/Desktop/ProgrammingCode/DaisyCode/DaisyExamples/libDaisy/src/hid/encoder.h **** {
  19:/Users/dominicfrugoli/Desktop/ProgrammingCode/DaisyCode/DaisyExamples/libDaisy/src/hid/encoder.h ****   public:
  20:/Users/dominicfrugoli/Desktop/ProgrammingCode/DaisyCode/DaisyExamples/libDaisy/src/hid/encoder.h ****     Encoder() {}
  21:/Users/dominicfrugoli/Desktop/ProgrammingCode/DaisyCode/DaisyExamples/libDaisy/src/hid/encoder.h ****     ~Encoder() {}
  54              		.loc 2 21 5 is_stmt 1 view -0
ARM GAS  /var/folders/m5/x8wc2gdj7z5cpgcqdsb_gkj40000gn/T//cckXFIsJ.s 			page 3


  55              		.cfi_startproc
  56              		@ args = 0, pretend = 0, frame = 0
  57              		@ frame_needed = 0, uses_anonymous_args = 0
  58              		@ link register save eliminated.
  59              	.LBB409:
  60              	.LBI409:
  61              		.loc 1 42 5 view .LVU3
  62              		.loc 1 42 5 is_stmt 0 view .LVU4
  63              	.LBE409:
  64              		.loc 2 21 17 view .LVU5
  65 0000 7047     		bx	lr
  66              		.cfi_endproc
  67              	.LFE1652:
  69              		.weak	_ZN5daisy7EncoderD1Ev
  70              		.thumb_set _ZN5daisy7EncoderD1Ev,_ZN5daisy7EncoderD2Ev
  71 0002 00BF     		.section	.text._ZN5daisy10LcdHD44780D2Ev,"axG",%progbits,_ZN5daisy10LcdHD44780D5Ev,comdat
  72              		.align	1
  73              		.p2align 2,,3
  74              		.weak	_ZN5daisy10LcdHD44780D2Ev
  75              		.syntax unified
  76              		.thumb
  77              		.thumb_func
  79              	_ZN5daisy10LcdHD44780D2Ev:
  80              	.LVL2:
  81              	.LFB2017:
  82              		.file 3 "/Users/dominicfrugoli/Desktop/ProgrammingCode/DaisyCode/DaisyExamples/libDaisy/src/dev/lc
   1:/Users/dominicfrugoli/Desktop/ProgrammingCode/DaisyCode/DaisyExamples/libDaisy/src/dev/lcd_hd44780.h **** #pragma once
   2:/Users/dominicfrugoli/Desktop/ProgrammingCode/DaisyCode/DaisyExamples/libDaisy/src/dev/lcd_hd44780.h **** #ifndef DSY_LCD_HD44780_H
   3:/Users/dominicfrugoli/Desktop/ProgrammingCode/DaisyCode/DaisyExamples/libDaisy/src/dev/lcd_hd44780.h **** #define DSY_LCD_HD44780_H
   4:/Users/dominicfrugoli/Desktop/ProgrammingCode/DaisyCode/DaisyExamples/libDaisy/src/dev/lcd_hd44780.h **** 
   5:/Users/dominicfrugoli/Desktop/ProgrammingCode/DaisyCode/DaisyExamples/libDaisy/src/dev/lcd_hd44780.h **** #include "daisy_core.h"
   6:/Users/dominicfrugoli/Desktop/ProgrammingCode/DaisyCode/DaisyExamples/libDaisy/src/dev/lcd_hd44780.h **** #include "per/gpio.h"
   7:/Users/dominicfrugoli/Desktop/ProgrammingCode/DaisyCode/DaisyExamples/libDaisy/src/dev/lcd_hd44780.h **** 
   8:/Users/dominicfrugoli/Desktop/ProgrammingCode/DaisyCode/DaisyExamples/libDaisy/src/dev/lcd_hd44780.h **** 
   9:/Users/dominicfrugoli/Desktop/ProgrammingCode/DaisyCode/DaisyExamples/libDaisy/src/dev/lcd_hd44780.h **** namespace daisy
  10:/Users/dominicfrugoli/Desktop/ProgrammingCode/DaisyCode/DaisyExamples/libDaisy/src/dev/lcd_hd44780.h **** {
  11:/Users/dominicfrugoli/Desktop/ProgrammingCode/DaisyCode/DaisyExamples/libDaisy/src/dev/lcd_hd44780.h **** /**
  12:/Users/dominicfrugoli/Desktop/ProgrammingCode/DaisyCode/DaisyExamples/libDaisy/src/dev/lcd_hd44780.h ****    @brief Device Driver for 16x2 LCD panel. \n 
  13:/Users/dominicfrugoli/Desktop/ProgrammingCode/DaisyCode/DaisyExamples/libDaisy/src/dev/lcd_hd44780.h ****    HD44780 with 4 data lines. \n
  14:/Users/dominicfrugoli/Desktop/ProgrammingCode/DaisyCode/DaisyExamples/libDaisy/src/dev/lcd_hd44780.h ****    Example product: https://www.adafruit.com/product/181
  15:/Users/dominicfrugoli/Desktop/ProgrammingCode/DaisyCode/DaisyExamples/libDaisy/src/dev/lcd_hd44780.h ****    @author StaffanMelin
  16:/Users/dominicfrugoli/Desktop/ProgrammingCode/DaisyCode/DaisyExamples/libDaisy/src/dev/lcd_hd44780.h ****    @date March 2021
  17:/Users/dominicfrugoli/Desktop/ProgrammingCode/DaisyCode/DaisyExamples/libDaisy/src/dev/lcd_hd44780.h ****    @ingroup device
  18:/Users/dominicfrugoli/Desktop/ProgrammingCode/DaisyCode/DaisyExamples/libDaisy/src/dev/lcd_hd44780.h **** */
  19:/Users/dominicfrugoli/Desktop/ProgrammingCode/DaisyCode/DaisyExamples/libDaisy/src/dev/lcd_hd44780.h **** class LcdHD44780
  20:/Users/dominicfrugoli/Desktop/ProgrammingCode/DaisyCode/DaisyExamples/libDaisy/src/dev/lcd_hd44780.h **** {
  21:/Users/dominicfrugoli/Desktop/ProgrammingCode/DaisyCode/DaisyExamples/libDaisy/src/dev/lcd_hd44780.h ****   public:
  22:/Users/dominicfrugoli/Desktop/ProgrammingCode/DaisyCode/DaisyExamples/libDaisy/src/dev/lcd_hd44780.h ****     LcdHD44780() {}
  23:/Users/dominicfrugoli/Desktop/ProgrammingCode/DaisyCode/DaisyExamples/libDaisy/src/dev/lcd_hd44780.h ****     ~LcdHD44780() {}
  83              		.loc 3 23 5 is_stmt 1 view -0
  84              		.cfi_startproc
  85              		@ args = 0, pretend = 0, frame = 0
  86              		@ frame_needed = 0, uses_anonymous_args = 0
  87              		@ link register save eliminated.
  88              		.loc 3 23 20 is_stmt 0 view .LVU7
  89 0000 7047     		bx	lr
  90              		.cfi_endproc
ARM GAS  /var/folders/m5/x8wc2gdj7z5cpgcqdsb_gkj40000gn/T//cckXFIsJ.s 			page 4


  91              	.LFE2017:
  93              		.weak	_ZN5daisy10LcdHD44780D1Ev
  94              		.thumb_set _ZN5daisy10LcdHD44780D1Ev,_ZN5daisy10LcdHD44780D2Ev
  95 0002 00BF     		.section	.text._ZN5daisy9DaisySeedD2Ev,"axG",%progbits,_ZN5daisy9DaisySeedD5Ev,comdat
  96              		.align	1
  97              		.p2align 2,,3
  98              		.weak	_ZN5daisy9DaisySeedD2Ev
  99              		.syntax unified
 100              		.thumb
 101              		.thumb_func
 103              	_ZN5daisy9DaisySeedD2Ev:
 104              	.LVL3:
 105              	.LFB2556:
 106              		.file 4 "/Users/dominicfrugoli/Desktop/ProgrammingCode/DaisyCode/DaisyExamples/libDaisy/src/daisy_
   1:/Users/dominicfrugoli/Desktop/ProgrammingCode/DaisyCode/DaisyExamples/libDaisy/src/daisy_seed.h **** #pragma once
   2:/Users/dominicfrugoli/Desktop/ProgrammingCode/DaisyCode/DaisyExamples/libDaisy/src/daisy_seed.h **** #ifndef DSY_SEED_H
   3:/Users/dominicfrugoli/Desktop/ProgrammingCode/DaisyCode/DaisyExamples/libDaisy/src/daisy_seed.h **** #define DSY_SEED_H
   4:/Users/dominicfrugoli/Desktop/ProgrammingCode/DaisyCode/DaisyExamples/libDaisy/src/daisy_seed.h **** 
   5:/Users/dominicfrugoli/Desktop/ProgrammingCode/DaisyCode/DaisyExamples/libDaisy/src/daisy_seed.h **** #include "daisy.h"
   6:/Users/dominicfrugoli/Desktop/ProgrammingCode/DaisyCode/DaisyExamples/libDaisy/src/daisy_seed.h **** 
   7:/Users/dominicfrugoli/Desktop/ProgrammingCode/DaisyCode/DaisyExamples/libDaisy/src/daisy_seed.h **** //Uncomment this out if you're still using the rev2 hardware
   8:/Users/dominicfrugoli/Desktop/ProgrammingCode/DaisyCode/DaisyExamples/libDaisy/src/daisy_seed.h **** //#define SEED_REV2
   9:/Users/dominicfrugoli/Desktop/ProgrammingCode/DaisyCode/DaisyExamples/libDaisy/src/daisy_seed.h **** 
  10:/Users/dominicfrugoli/Desktop/ProgrammingCode/DaisyCode/DaisyExamples/libDaisy/src/daisy_seed.h **** namespace daisy
  11:/Users/dominicfrugoli/Desktop/ProgrammingCode/DaisyCode/DaisyExamples/libDaisy/src/daisy_seed.h **** {
  12:/Users/dominicfrugoli/Desktop/ProgrammingCode/DaisyCode/DaisyExamples/libDaisy/src/daisy_seed.h **** /**
  13:/Users/dominicfrugoli/Desktop/ProgrammingCode/DaisyCode/DaisyExamples/libDaisy/src/daisy_seed.h ****    @brief This is the higher-level interface for the Daisy board. \n 
  14:/Users/dominicfrugoli/Desktop/ProgrammingCode/DaisyCode/DaisyExamples/libDaisy/src/daisy_seed.h ****     All basic peripheral configuration/initialization is setup here. \n
  15:/Users/dominicfrugoli/Desktop/ProgrammingCode/DaisyCode/DaisyExamples/libDaisy/src/daisy_seed.h **** 
  16:/Users/dominicfrugoli/Desktop/ProgrammingCode/DaisyCode/DaisyExamples/libDaisy/src/daisy_seed.h ****    @ingroup boards
  17:/Users/dominicfrugoli/Desktop/ProgrammingCode/DaisyCode/DaisyExamples/libDaisy/src/daisy_seed.h **** */
  18:/Users/dominicfrugoli/Desktop/ProgrammingCode/DaisyCode/DaisyExamples/libDaisy/src/daisy_seed.h **** class DaisySeed
  19:/Users/dominicfrugoli/Desktop/ProgrammingCode/DaisyCode/DaisyExamples/libDaisy/src/daisy_seed.h **** {
  20:/Users/dominicfrugoli/Desktop/ProgrammingCode/DaisyCode/DaisyExamples/libDaisy/src/daisy_seed.h ****   public:
  21:/Users/dominicfrugoli/Desktop/ProgrammingCode/DaisyCode/DaisyExamples/libDaisy/src/daisy_seed.h ****     DaisySeed() {}
  22:/Users/dominicfrugoli/Desktop/ProgrammingCode/DaisyCode/DaisyExamples/libDaisy/src/daisy_seed.h ****     ~DaisySeed() {}
 107              		.loc 4 22 5 is_stmt 1 view -0
 108              		.cfi_startproc
 109              		@ args = 0, pretend = 0, frame = 0
 110              		@ frame_needed = 0, uses_anonymous_args = 0
 111              		@ link register save eliminated.
 112              	.LBB410:
 113              	.LBI410:
 114              		.file 5 "/Users/dominicfrugoli/Desktop/ProgrammingCode/DaisyCode/DaisyExamples/libDaisy/src/sys/sy
   1:/Users/dominicfrugoli/Desktop/ProgrammingCode/DaisyCode/DaisyExamples/libDaisy/src/sys/system.h **** #ifndef DSY_SYSTEM_H
   2:/Users/dominicfrugoli/Desktop/ProgrammingCode/DaisyCode/DaisyExamples/libDaisy/src/sys/system.h **** #define DSY_SYSTEM_H
   3:/Users/dominicfrugoli/Desktop/ProgrammingCode/DaisyCode/DaisyExamples/libDaisy/src/sys/system.h **** 
   4:/Users/dominicfrugoli/Desktop/ProgrammingCode/DaisyCode/DaisyExamples/libDaisy/src/sys/system.h **** #ifndef UNIT_TEST // for unit tests, a dummy implementation is provided below
   5:/Users/dominicfrugoli/Desktop/ProgrammingCode/DaisyCode/DaisyExamples/libDaisy/src/sys/system.h **** 
   6:/Users/dominicfrugoli/Desktop/ProgrammingCode/DaisyCode/DaisyExamples/libDaisy/src/sys/system.h **** #include <cstdint>
   7:/Users/dominicfrugoli/Desktop/ProgrammingCode/DaisyCode/DaisyExamples/libDaisy/src/sys/system.h **** #include "per/tim.h"
   8:/Users/dominicfrugoli/Desktop/ProgrammingCode/DaisyCode/DaisyExamples/libDaisy/src/sys/system.h **** 
   9:/Users/dominicfrugoli/Desktop/ProgrammingCode/DaisyCode/DaisyExamples/libDaisy/src/sys/system.h **** namespace daisy
  10:/Users/dominicfrugoli/Desktop/ProgrammingCode/DaisyCode/DaisyExamples/libDaisy/src/sys/system.h **** {
  11:/Users/dominicfrugoli/Desktop/ProgrammingCode/DaisyCode/DaisyExamples/libDaisy/src/sys/system.h **** /** A handle for interacting with the Core System.
  12:/Users/dominicfrugoli/Desktop/ProgrammingCode/DaisyCode/DaisyExamples/libDaisy/src/sys/system.h ****  ** This includes the Clock tree, MPU, global DMA initialization,
  13:/Users/dominicfrugoli/Desktop/ProgrammingCode/DaisyCode/DaisyExamples/libDaisy/src/sys/system.h ****  ** cache handling, and any other necessary global initiailzation
ARM GAS  /var/folders/m5/x8wc2gdj7z5cpgcqdsb_gkj40000gn/T//cckXFIsJ.s 			page 5


  14:/Users/dominicfrugoli/Desktop/ProgrammingCode/DaisyCode/DaisyExamples/libDaisy/src/sys/system.h ****  **
  15:/Users/dominicfrugoli/Desktop/ProgrammingCode/DaisyCode/DaisyExamples/libDaisy/src/sys/system.h ****  ** @author shensley
  16:/Users/dominicfrugoli/Desktop/ProgrammingCode/DaisyCode/DaisyExamples/libDaisy/src/sys/system.h ****  ** @ingroup system
  17:/Users/dominicfrugoli/Desktop/ProgrammingCode/DaisyCode/DaisyExamples/libDaisy/src/sys/system.h ****  */
  18:/Users/dominicfrugoli/Desktop/ProgrammingCode/DaisyCode/DaisyExamples/libDaisy/src/sys/system.h **** class System
  19:/Users/dominicfrugoli/Desktop/ProgrammingCode/DaisyCode/DaisyExamples/libDaisy/src/sys/system.h **** {
  20:/Users/dominicfrugoli/Desktop/ProgrammingCode/DaisyCode/DaisyExamples/libDaisy/src/sys/system.h ****   public:
  21:/Users/dominicfrugoli/Desktop/ProgrammingCode/DaisyCode/DaisyExamples/libDaisy/src/sys/system.h ****     /** Contains settings for initializing the System */
  22:/Users/dominicfrugoli/Desktop/ProgrammingCode/DaisyCode/DaisyExamples/libDaisy/src/sys/system.h ****     struct Config
  23:/Users/dominicfrugoli/Desktop/ProgrammingCode/DaisyCode/DaisyExamples/libDaisy/src/sys/system.h ****     {
  24:/Users/dominicfrugoli/Desktop/ProgrammingCode/DaisyCode/DaisyExamples/libDaisy/src/sys/system.h ****         /** Specifies the system clock frequency that feeds APB/AHB clocks, etc. */
  25:/Users/dominicfrugoli/Desktop/ProgrammingCode/DaisyCode/DaisyExamples/libDaisy/src/sys/system.h ****         enum class SysClkFreq
  26:/Users/dominicfrugoli/Desktop/ProgrammingCode/DaisyCode/DaisyExamples/libDaisy/src/sys/system.h ****         {
  27:/Users/dominicfrugoli/Desktop/ProgrammingCode/DaisyCode/DaisyExamples/libDaisy/src/sys/system.h ****             FREQ_400MHZ,
  28:/Users/dominicfrugoli/Desktop/ProgrammingCode/DaisyCode/DaisyExamples/libDaisy/src/sys/system.h ****             FREQ_480MHZ,
  29:/Users/dominicfrugoli/Desktop/ProgrammingCode/DaisyCode/DaisyExamples/libDaisy/src/sys/system.h ****         };
  30:/Users/dominicfrugoli/Desktop/ProgrammingCode/DaisyCode/DaisyExamples/libDaisy/src/sys/system.h **** 
  31:/Users/dominicfrugoli/Desktop/ProgrammingCode/DaisyCode/DaisyExamples/libDaisy/src/sys/system.h ****         /** Method to call on the struct to set to defaults
  32:/Users/dominicfrugoli/Desktop/ProgrammingCode/DaisyCode/DaisyExamples/libDaisy/src/sys/system.h ****          ** CPU Freq set to 400MHz
  33:/Users/dominicfrugoli/Desktop/ProgrammingCode/DaisyCode/DaisyExamples/libDaisy/src/sys/system.h ****          ** Cache Enabled
  34:/Users/dominicfrugoli/Desktop/ProgrammingCode/DaisyCode/DaisyExamples/libDaisy/src/sys/system.h ****          ** */
  35:/Users/dominicfrugoli/Desktop/ProgrammingCode/DaisyCode/DaisyExamples/libDaisy/src/sys/system.h ****         void Defaults()
  36:/Users/dominicfrugoli/Desktop/ProgrammingCode/DaisyCode/DaisyExamples/libDaisy/src/sys/system.h ****         {
  37:/Users/dominicfrugoli/Desktop/ProgrammingCode/DaisyCode/DaisyExamples/libDaisy/src/sys/system.h ****             cpu_freq    = SysClkFreq::FREQ_400MHZ;
  38:/Users/dominicfrugoli/Desktop/ProgrammingCode/DaisyCode/DaisyExamples/libDaisy/src/sys/system.h ****             use_dcache  = true;
  39:/Users/dominicfrugoli/Desktop/ProgrammingCode/DaisyCode/DaisyExamples/libDaisy/src/sys/system.h ****             use_icache  = true;
  40:/Users/dominicfrugoli/Desktop/ProgrammingCode/DaisyCode/DaisyExamples/libDaisy/src/sys/system.h ****             skip_clocks = false;
  41:/Users/dominicfrugoli/Desktop/ProgrammingCode/DaisyCode/DaisyExamples/libDaisy/src/sys/system.h ****         }
  42:/Users/dominicfrugoli/Desktop/ProgrammingCode/DaisyCode/DaisyExamples/libDaisy/src/sys/system.h **** 
  43:/Users/dominicfrugoli/Desktop/ProgrammingCode/DaisyCode/DaisyExamples/libDaisy/src/sys/system.h ****         /** Method to call on the struct to set to boost mode:
  44:/Users/dominicfrugoli/Desktop/ProgrammingCode/DaisyCode/DaisyExamples/libDaisy/src/sys/system.h ****          ** CPU Freq set to 480MHz
  45:/Users/dominicfrugoli/Desktop/ProgrammingCode/DaisyCode/DaisyExamples/libDaisy/src/sys/system.h ****          ** Cache Enabled
  46:/Users/dominicfrugoli/Desktop/ProgrammingCode/DaisyCode/DaisyExamples/libDaisy/src/sys/system.h ****          ** */
  47:/Users/dominicfrugoli/Desktop/ProgrammingCode/DaisyCode/DaisyExamples/libDaisy/src/sys/system.h ****         void Boost()
  48:/Users/dominicfrugoli/Desktop/ProgrammingCode/DaisyCode/DaisyExamples/libDaisy/src/sys/system.h ****         {
  49:/Users/dominicfrugoli/Desktop/ProgrammingCode/DaisyCode/DaisyExamples/libDaisy/src/sys/system.h ****             cpu_freq    = SysClkFreq::FREQ_480MHZ;
  50:/Users/dominicfrugoli/Desktop/ProgrammingCode/DaisyCode/DaisyExamples/libDaisy/src/sys/system.h ****             use_dcache  = true;
  51:/Users/dominicfrugoli/Desktop/ProgrammingCode/DaisyCode/DaisyExamples/libDaisy/src/sys/system.h ****             use_icache  = true;
  52:/Users/dominicfrugoli/Desktop/ProgrammingCode/DaisyCode/DaisyExamples/libDaisy/src/sys/system.h ****             skip_clocks = false;
  53:/Users/dominicfrugoli/Desktop/ProgrammingCode/DaisyCode/DaisyExamples/libDaisy/src/sys/system.h ****         }
  54:/Users/dominicfrugoli/Desktop/ProgrammingCode/DaisyCode/DaisyExamples/libDaisy/src/sys/system.h **** 
  55:/Users/dominicfrugoli/Desktop/ProgrammingCode/DaisyCode/DaisyExamples/libDaisy/src/sys/system.h ****         SysClkFreq cpu_freq;
  56:/Users/dominicfrugoli/Desktop/ProgrammingCode/DaisyCode/DaisyExamples/libDaisy/src/sys/system.h ****         bool       use_dcache;
  57:/Users/dominicfrugoli/Desktop/ProgrammingCode/DaisyCode/DaisyExamples/libDaisy/src/sys/system.h ****         bool       use_icache;
  58:/Users/dominicfrugoli/Desktop/ProgrammingCode/DaisyCode/DaisyExamples/libDaisy/src/sys/system.h ****         bool       skip_clocks;
  59:/Users/dominicfrugoli/Desktop/ProgrammingCode/DaisyCode/DaisyExamples/libDaisy/src/sys/system.h ****     };
  60:/Users/dominicfrugoli/Desktop/ProgrammingCode/DaisyCode/DaisyExamples/libDaisy/src/sys/system.h **** 
  61:/Users/dominicfrugoli/Desktop/ProgrammingCode/DaisyCode/DaisyExamples/libDaisy/src/sys/system.h ****     /** Describes the different regions of memory available to the Daisy */
  62:/Users/dominicfrugoli/Desktop/ProgrammingCode/DaisyCode/DaisyExamples/libDaisy/src/sys/system.h ****     enum MemoryRegion
  63:/Users/dominicfrugoli/Desktop/ProgrammingCode/DaisyCode/DaisyExamples/libDaisy/src/sys/system.h ****     {
  64:/Users/dominicfrugoli/Desktop/ProgrammingCode/DaisyCode/DaisyExamples/libDaisy/src/sys/system.h ****         INTERNAL_FLASH = 0,
  65:/Users/dominicfrugoli/Desktop/ProgrammingCode/DaisyCode/DaisyExamples/libDaisy/src/sys/system.h ****         ITCMRAM,
  66:/Users/dominicfrugoli/Desktop/ProgrammingCode/DaisyCode/DaisyExamples/libDaisy/src/sys/system.h ****         DTCMRAM,
  67:/Users/dominicfrugoli/Desktop/ProgrammingCode/DaisyCode/DaisyExamples/libDaisy/src/sys/system.h ****         SRAM_D1,
  68:/Users/dominicfrugoli/Desktop/ProgrammingCode/DaisyCode/DaisyExamples/libDaisy/src/sys/system.h ****         SRAM_D2,
  69:/Users/dominicfrugoli/Desktop/ProgrammingCode/DaisyCode/DaisyExamples/libDaisy/src/sys/system.h ****         SRAM_D3,
  70:/Users/dominicfrugoli/Desktop/ProgrammingCode/DaisyCode/DaisyExamples/libDaisy/src/sys/system.h ****         SDRAM,
ARM GAS  /var/folders/m5/x8wc2gdj7z5cpgcqdsb_gkj40000gn/T//cckXFIsJ.s 			page 6


  71:/Users/dominicfrugoli/Desktop/ProgrammingCode/DaisyCode/DaisyExamples/libDaisy/src/sys/system.h ****         QSPI,
  72:/Users/dominicfrugoli/Desktop/ProgrammingCode/DaisyCode/DaisyExamples/libDaisy/src/sys/system.h ****         INVALID_ADDRESS,
  73:/Users/dominicfrugoli/Desktop/ProgrammingCode/DaisyCode/DaisyExamples/libDaisy/src/sys/system.h ****     };
  74:/Users/dominicfrugoli/Desktop/ProgrammingCode/DaisyCode/DaisyExamples/libDaisy/src/sys/system.h **** 
  75:/Users/dominicfrugoli/Desktop/ProgrammingCode/DaisyCode/DaisyExamples/libDaisy/src/sys/system.h ****     /** Bootloader struct for controlling bootloading parameters */
  76:/Users/dominicfrugoli/Desktop/ProgrammingCode/DaisyCode/DaisyExamples/libDaisy/src/sys/system.h ****     struct BootInfo
  77:/Users/dominicfrugoli/Desktop/ProgrammingCode/DaisyCode/DaisyExamples/libDaisy/src/sys/system.h ****     {
  78:/Users/dominicfrugoli/Desktop/ProgrammingCode/DaisyCode/DaisyExamples/libDaisy/src/sys/system.h ****         enum class Type : uint32_t
  79:/Users/dominicfrugoli/Desktop/ProgrammingCode/DaisyCode/DaisyExamples/libDaisy/src/sys/system.h ****         {
  80:/Users/dominicfrugoli/Desktop/ProgrammingCode/DaisyCode/DaisyExamples/libDaisy/src/sys/system.h ****             INVALID      = 0x00000000,
  81:/Users/dominicfrugoli/Desktop/ProgrammingCode/DaisyCode/DaisyExamples/libDaisy/src/sys/system.h ****             JUMP         = 0xDEADBEEF,
  82:/Users/dominicfrugoli/Desktop/ProgrammingCode/DaisyCode/DaisyExamples/libDaisy/src/sys/system.h ****             SKIP_TIMEOUT = 0x5AFEB007,
  83:/Users/dominicfrugoli/Desktop/ProgrammingCode/DaisyCode/DaisyExamples/libDaisy/src/sys/system.h ****             INF_TIMEOUT  = 0xB0074EFA,
  84:/Users/dominicfrugoli/Desktop/ProgrammingCode/DaisyCode/DaisyExamples/libDaisy/src/sys/system.h ****         } status;
  85:/Users/dominicfrugoli/Desktop/ProgrammingCode/DaisyCode/DaisyExamples/libDaisy/src/sys/system.h ****         uint32_t data;
  86:/Users/dominicfrugoli/Desktop/ProgrammingCode/DaisyCode/DaisyExamples/libDaisy/src/sys/system.h ****         enum class Version : uint32_t
  87:/Users/dominicfrugoli/Desktop/ProgrammingCode/DaisyCode/DaisyExamples/libDaisy/src/sys/system.h ****         {
  88:/Users/dominicfrugoli/Desktop/ProgrammingCode/DaisyCode/DaisyExamples/libDaisy/src/sys/system.h ****             LT_v6_0 = 0, // Less than v6.0
  89:/Users/dominicfrugoli/Desktop/ProgrammingCode/DaisyCode/DaisyExamples/libDaisy/src/sys/system.h ****             NONE,        // No bootloader present
  90:/Users/dominicfrugoli/Desktop/ProgrammingCode/DaisyCode/DaisyExamples/libDaisy/src/sys/system.h ****             v6_0,        // v6.0
  91:/Users/dominicfrugoli/Desktop/ProgrammingCode/DaisyCode/DaisyExamples/libDaisy/src/sys/system.h ****             v6_1,        // v6.1 or greater
  92:/Users/dominicfrugoli/Desktop/ProgrammingCode/DaisyCode/DaisyExamples/libDaisy/src/sys/system.h ****             LAST
  93:/Users/dominicfrugoli/Desktop/ProgrammingCode/DaisyCode/DaisyExamples/libDaisy/src/sys/system.h ****         } version;
  94:/Users/dominicfrugoli/Desktop/ProgrammingCode/DaisyCode/DaisyExamples/libDaisy/src/sys/system.h ****     };
  95:/Users/dominicfrugoli/Desktop/ProgrammingCode/DaisyCode/DaisyExamples/libDaisy/src/sys/system.h **** 
  96:/Users/dominicfrugoli/Desktop/ProgrammingCode/DaisyCode/DaisyExamples/libDaisy/src/sys/system.h ****     System() {}
  97:/Users/dominicfrugoli/Desktop/ProgrammingCode/DaisyCode/DaisyExamples/libDaisy/src/sys/system.h ****     ~System() {}
 115              		.loc 5 97 5 view .LVU9
 116              		.loc 5 97 5 is_stmt 0 view .LVU10
 117              	.LBE410:
 118              	.LBB411:
 119              	.LBI411:
 120              		.file 6 "/Users/dominicfrugoli/Desktop/ProgrammingCode/DaisyCode/DaisyExamples/libDaisy/src/hid/us
   1:/Users/dominicfrugoli/Desktop/ProgrammingCode/DaisyCode/DaisyExamples/libDaisy/src/hid/usb.h **** #pragma once
   2:/Users/dominicfrugoli/Desktop/ProgrammingCode/DaisyCode/DaisyExamples/libDaisy/src/hid/usb.h **** #ifndef DSY_HID_USB_H
   3:/Users/dominicfrugoli/Desktop/ProgrammingCode/DaisyCode/DaisyExamples/libDaisy/src/hid/usb.h **** #define DSY_HID_USB_H
   4:/Users/dominicfrugoli/Desktop/ProgrammingCode/DaisyCode/DaisyExamples/libDaisy/src/hid/usb.h **** #include <stdint.h>
   5:/Users/dominicfrugoli/Desktop/ProgrammingCode/DaisyCode/DaisyExamples/libDaisy/src/hid/usb.h **** #include <stdlib.h>
   6:/Users/dominicfrugoli/Desktop/ProgrammingCode/DaisyCode/DaisyExamples/libDaisy/src/hid/usb.h **** 
   7:/Users/dominicfrugoli/Desktop/ProgrammingCode/DaisyCode/DaisyExamples/libDaisy/src/hid/usb.h **** namespace daisy
   8:/Users/dominicfrugoli/Desktop/ProgrammingCode/DaisyCode/DaisyExamples/libDaisy/src/hid/usb.h **** /** @addtogroup human_interface
   9:/Users/dominicfrugoli/Desktop/ProgrammingCode/DaisyCode/DaisyExamples/libDaisy/src/hid/usb.h ****     @{
  10:/Users/dominicfrugoli/Desktop/ProgrammingCode/DaisyCode/DaisyExamples/libDaisy/src/hid/usb.h **** */
  11:/Users/dominicfrugoli/Desktop/ProgrammingCode/DaisyCode/DaisyExamples/libDaisy/src/hid/usb.h **** 
  12:/Users/dominicfrugoli/Desktop/ProgrammingCode/DaisyCode/DaisyExamples/libDaisy/src/hid/usb.h **** {
  13:/Users/dominicfrugoli/Desktop/ProgrammingCode/DaisyCode/DaisyExamples/libDaisy/src/hid/usb.h **** /** 
  14:/Users/dominicfrugoli/Desktop/ProgrammingCode/DaisyCode/DaisyExamples/libDaisy/src/hid/usb.h ****     @brief Interface for initializing and using the USB Peripherals on the daisy
  15:/Users/dominicfrugoli/Desktop/ProgrammingCode/DaisyCode/DaisyExamples/libDaisy/src/hid/usb.h ****     @author Stephen Hensley
  16:/Users/dominicfrugoli/Desktop/ProgrammingCode/DaisyCode/DaisyExamples/libDaisy/src/hid/usb.h ****     @date December 2019
  17:/Users/dominicfrugoli/Desktop/ProgrammingCode/DaisyCode/DaisyExamples/libDaisy/src/hid/usb.h **** */
  18:/Users/dominicfrugoli/Desktop/ProgrammingCode/DaisyCode/DaisyExamples/libDaisy/src/hid/usb.h **** class UsbHandle
  19:/Users/dominicfrugoli/Desktop/ProgrammingCode/DaisyCode/DaisyExamples/libDaisy/src/hid/usb.h **** {
  20:/Users/dominicfrugoli/Desktop/ProgrammingCode/DaisyCode/DaisyExamples/libDaisy/src/hid/usb.h ****   public:
  21:/Users/dominicfrugoli/Desktop/ProgrammingCode/DaisyCode/DaisyExamples/libDaisy/src/hid/usb.h ****     /** Return values for USBHandle Functions */
  22:/Users/dominicfrugoli/Desktop/ProgrammingCode/DaisyCode/DaisyExamples/libDaisy/src/hid/usb.h ****     enum class Result
  23:/Users/dominicfrugoli/Desktop/ProgrammingCode/DaisyCode/DaisyExamples/libDaisy/src/hid/usb.h ****     {
  24:/Users/dominicfrugoli/Desktop/ProgrammingCode/DaisyCode/DaisyExamples/libDaisy/src/hid/usb.h ****         OK,
ARM GAS  /var/folders/m5/x8wc2gdj7z5cpgcqdsb_gkj40000gn/T//cckXFIsJ.s 			page 7


  25:/Users/dominicfrugoli/Desktop/ProgrammingCode/DaisyCode/DaisyExamples/libDaisy/src/hid/usb.h ****         ERR,
  26:/Users/dominicfrugoli/Desktop/ProgrammingCode/DaisyCode/DaisyExamples/libDaisy/src/hid/usb.h ****     };
  27:/Users/dominicfrugoli/Desktop/ProgrammingCode/DaisyCode/DaisyExamples/libDaisy/src/hid/usb.h **** 
  28:/Users/dominicfrugoli/Desktop/ProgrammingCode/DaisyCode/DaisyExamples/libDaisy/src/hid/usb.h ****     /** Specified which of the two USB Peripherals to initialize. */
  29:/Users/dominicfrugoli/Desktop/ProgrammingCode/DaisyCode/DaisyExamples/libDaisy/src/hid/usb.h ****     enum UsbPeriph
  30:/Users/dominicfrugoli/Desktop/ProgrammingCode/DaisyCode/DaisyExamples/libDaisy/src/hid/usb.h ****     {
  31:/Users/dominicfrugoli/Desktop/ProgrammingCode/DaisyCode/DaisyExamples/libDaisy/src/hid/usb.h ****         FS_INTERNAL, /**< Internal pin */
  32:/Users/dominicfrugoli/Desktop/ProgrammingCode/DaisyCode/DaisyExamples/libDaisy/src/hid/usb.h ****         FS_EXTERNAL, /**< FS External D+ pin is Pin 38 (GPIO32). FS External D- pin is Pin 37 (GPIO
  33:/Users/dominicfrugoli/Desktop/ProgrammingCode/DaisyCode/DaisyExamples/libDaisy/src/hid/usb.h ****         FS_BOTH,     /**< Both */
  34:/Users/dominicfrugoli/Desktop/ProgrammingCode/DaisyCode/DaisyExamples/libDaisy/src/hid/usb.h ****     };
  35:/Users/dominicfrugoli/Desktop/ProgrammingCode/DaisyCode/DaisyExamples/libDaisy/src/hid/usb.h **** 
  36:/Users/dominicfrugoli/Desktop/ProgrammingCode/DaisyCode/DaisyExamples/libDaisy/src/hid/usb.h **** 
  37:/Users/dominicfrugoli/Desktop/ProgrammingCode/DaisyCode/DaisyExamples/libDaisy/src/hid/usb.h ****     /** Function called upon reception of a buffer */
  38:/Users/dominicfrugoli/Desktop/ProgrammingCode/DaisyCode/DaisyExamples/libDaisy/src/hid/usb.h ****     typedef void (*ReceiveCallback)(uint8_t* buff, uint32_t* len);
  39:/Users/dominicfrugoli/Desktop/ProgrammingCode/DaisyCode/DaisyExamples/libDaisy/src/hid/usb.h **** 
  40:/Users/dominicfrugoli/Desktop/ProgrammingCode/DaisyCode/DaisyExamples/libDaisy/src/hid/usb.h ****     UsbHandle() {}
  41:/Users/dominicfrugoli/Desktop/ProgrammingCode/DaisyCode/DaisyExamples/libDaisy/src/hid/usb.h **** 
  42:/Users/dominicfrugoli/Desktop/ProgrammingCode/DaisyCode/DaisyExamples/libDaisy/src/hid/usb.h ****     ~UsbHandle() {}
 121              		.loc 6 42 5 is_stmt 1 view .LVU11
 122              		.loc 6 42 5 is_stmt 0 view .LVU12
 123              	.LBE411:
 124              	.LBB412:
 125              	.LBI412:
 126              		.file 7 "/Users/dominicfrugoli/Desktop/ProgrammingCode/DaisyCode/DaisyExamples/libDaisy/src/per/ad
   1:/Users/dominicfrugoli/Desktop/ProgrammingCode/DaisyCode/DaisyExamples/libDaisy/src/per/adc.h **** #pragma once
   2:/Users/dominicfrugoli/Desktop/ProgrammingCode/DaisyCode/DaisyExamples/libDaisy/src/per/adc.h **** #ifndef DSY_ADC_H
   3:/Users/dominicfrugoli/Desktop/ProgrammingCode/DaisyCode/DaisyExamples/libDaisy/src/per/adc.h **** #define DSY_ADC_H /**< Macro */
   4:/Users/dominicfrugoli/Desktop/ProgrammingCode/DaisyCode/DaisyExamples/libDaisy/src/per/adc.h **** #include <stdint.h>
   5:/Users/dominicfrugoli/Desktop/ProgrammingCode/DaisyCode/DaisyExamples/libDaisy/src/per/adc.h **** #include <stdlib.h>
   6:/Users/dominicfrugoli/Desktop/ProgrammingCode/DaisyCode/DaisyExamples/libDaisy/src/per/adc.h **** #include "daisy_core.h"
   7:/Users/dominicfrugoli/Desktop/ProgrammingCode/DaisyCode/DaisyExamples/libDaisy/src/per/adc.h **** #include "per/gpio.h"
   8:/Users/dominicfrugoli/Desktop/ProgrammingCode/DaisyCode/DaisyExamples/libDaisy/src/per/adc.h **** 
   9:/Users/dominicfrugoli/Desktop/ProgrammingCode/DaisyCode/DaisyExamples/libDaisy/src/per/adc.h **** #define DSY_ADC_MAX_CHANNELS 16 /**< Maximum number of ADC channels */
  10:/Users/dominicfrugoli/Desktop/ProgrammingCode/DaisyCode/DaisyExamples/libDaisy/src/per/adc.h **** 
  11:/Users/dominicfrugoli/Desktop/ProgrammingCode/DaisyCode/DaisyExamples/libDaisy/src/per/adc.h **** namespace daisy
  12:/Users/dominicfrugoli/Desktop/ProgrammingCode/DaisyCode/DaisyExamples/libDaisy/src/per/adc.h **** {
  13:/Users/dominicfrugoli/Desktop/ProgrammingCode/DaisyCode/DaisyExamples/libDaisy/src/per/adc.h **** /** @addtogroup per_analog
  14:/Users/dominicfrugoli/Desktop/ProgrammingCode/DaisyCode/DaisyExamples/libDaisy/src/per/adc.h ****     @{
  15:/Users/dominicfrugoli/Desktop/ProgrammingCode/DaisyCode/DaisyExamples/libDaisy/src/per/adc.h **** */
  16:/Users/dominicfrugoli/Desktop/ProgrammingCode/DaisyCode/DaisyExamples/libDaisy/src/per/adc.h **** 
  17:/Users/dominicfrugoli/Desktop/ProgrammingCode/DaisyCode/DaisyExamples/libDaisy/src/per/adc.h **** /* While there may not be many configuration options here,
  18:/Users/dominicfrugoli/Desktop/ProgrammingCode/DaisyCode/DaisyExamples/libDaisy/src/per/adc.h **** using a struct like this allows us to add more configuration
  19:/Users/dominicfrugoli/Desktop/ProgrammingCode/DaisyCode/DaisyExamples/libDaisy/src/per/adc.h **** later without breaking existing functionality.
  20:/Users/dominicfrugoli/Desktop/ProgrammingCode/DaisyCode/DaisyExamples/libDaisy/src/per/adc.h **** */
  21:/Users/dominicfrugoli/Desktop/ProgrammingCode/DaisyCode/DaisyExamples/libDaisy/src/per/adc.h **** 
  22:/Users/dominicfrugoli/Desktop/ProgrammingCode/DaisyCode/DaisyExamples/libDaisy/src/per/adc.h **** /** @brief   Configuration Structure for an ADC Channel 
  23:/Users/dominicfrugoli/Desktop/ProgrammingCode/DaisyCode/DaisyExamples/libDaisy/src/per/adc.h ****  *  @details This can be used to configure a a single input, 
  24:/Users/dominicfrugoli/Desktop/ProgrammingCode/DaisyCode/DaisyExamples/libDaisy/src/per/adc.h ****  *           or a multiplexed input, allowing up to 8 inputs on 
  25:/Users/dominicfrugoli/Desktop/ProgrammingCode/DaisyCode/DaisyExamples/libDaisy/src/per/adc.h ****  *           one channel.
  26:/Users/dominicfrugoli/Desktop/ProgrammingCode/DaisyCode/DaisyExamples/libDaisy/src/per/adc.h ****  *  @note    Sharing data lines to multiple muxes _is_ possible, but
  27:/Users/dominicfrugoli/Desktop/ProgrammingCode/DaisyCode/DaisyExamples/libDaisy/src/per/adc.h ****  *           each channel sharing data lines must be set to the maximum
  28:/Users/dominicfrugoli/Desktop/ProgrammingCode/DaisyCode/DaisyExamples/libDaisy/src/per/adc.h ****  *           number of channels, even if some multiplexers have fewer
  29:/Users/dominicfrugoli/Desktop/ProgrammingCode/DaisyCode/DaisyExamples/libDaisy/src/per/adc.h ****  *           inputs connected.
  30:/Users/dominicfrugoli/Desktop/ProgrammingCode/DaisyCode/DaisyExamples/libDaisy/src/per/adc.h **** */
  31:/Users/dominicfrugoli/Desktop/ProgrammingCode/DaisyCode/DaisyExamples/libDaisy/src/per/adc.h **** struct AdcChannelConfig
  32:/Users/dominicfrugoli/Desktop/ProgrammingCode/DaisyCode/DaisyExamples/libDaisy/src/per/adc.h **** {
  33:/Users/dominicfrugoli/Desktop/ProgrammingCode/DaisyCode/DaisyExamples/libDaisy/src/per/adc.h ****     /** Which pin to use for multiplexing */
ARM GAS  /var/folders/m5/x8wc2gdj7z5cpgcqdsb_gkj40000gn/T//cckXFIsJ.s 			page 8


  34:/Users/dominicfrugoli/Desktop/ProgrammingCode/DaisyCode/DaisyExamples/libDaisy/src/per/adc.h ****     enum MuxPin
  35:/Users/dominicfrugoli/Desktop/ProgrammingCode/DaisyCode/DaisyExamples/libDaisy/src/per/adc.h ****     {
  36:/Users/dominicfrugoli/Desktop/ProgrammingCode/DaisyCode/DaisyExamples/libDaisy/src/per/adc.h ****         MUX_SEL_0,    /**< & */
  37:/Users/dominicfrugoli/Desktop/ProgrammingCode/DaisyCode/DaisyExamples/libDaisy/src/per/adc.h ****         MUX_SEL_1,    /**< & */
  38:/Users/dominicfrugoli/Desktop/ProgrammingCode/DaisyCode/DaisyExamples/libDaisy/src/per/adc.h ****         MUX_SEL_2,    /**< & */
  39:/Users/dominicfrugoli/Desktop/ProgrammingCode/DaisyCode/DaisyExamples/libDaisy/src/per/adc.h ****         MUX_SEL_LAST, /**< & */
  40:/Users/dominicfrugoli/Desktop/ProgrammingCode/DaisyCode/DaisyExamples/libDaisy/src/per/adc.h ****     };
  41:/Users/dominicfrugoli/Desktop/ProgrammingCode/DaisyCode/DaisyExamples/libDaisy/src/per/adc.h **** 
  42:/Users/dominicfrugoli/Desktop/ProgrammingCode/DaisyCode/DaisyExamples/libDaisy/src/per/adc.h ****     /** \brief per channel conversion speed added to fixed time based on bitdepth, etc. */
  43:/Users/dominicfrugoli/Desktop/ProgrammingCode/DaisyCode/DaisyExamples/libDaisy/src/per/adc.h ****     enum ConversionSpeed
  44:/Users/dominicfrugoli/Desktop/ProgrammingCode/DaisyCode/DaisyExamples/libDaisy/src/per/adc.h ****     {
  45:/Users/dominicfrugoli/Desktop/ProgrammingCode/DaisyCode/DaisyExamples/libDaisy/src/per/adc.h ****         SPEED_1CYCLES_5,
  46:/Users/dominicfrugoli/Desktop/ProgrammingCode/DaisyCode/DaisyExamples/libDaisy/src/per/adc.h ****         SPEED_2CYCLES_5,
  47:/Users/dominicfrugoli/Desktop/ProgrammingCode/DaisyCode/DaisyExamples/libDaisy/src/per/adc.h ****         SPEED_8CYCLES_5,
  48:/Users/dominicfrugoli/Desktop/ProgrammingCode/DaisyCode/DaisyExamples/libDaisy/src/per/adc.h ****         SPEED_16CYCLES_5,
  49:/Users/dominicfrugoli/Desktop/ProgrammingCode/DaisyCode/DaisyExamples/libDaisy/src/per/adc.h ****         SPEED_32CYCLES_5,
  50:/Users/dominicfrugoli/Desktop/ProgrammingCode/DaisyCode/DaisyExamples/libDaisy/src/per/adc.h ****         SPEED_64CYCLES_5,
  51:/Users/dominicfrugoli/Desktop/ProgrammingCode/DaisyCode/DaisyExamples/libDaisy/src/per/adc.h ****         SPEED_387CYCLES_5,
  52:/Users/dominicfrugoli/Desktop/ProgrammingCode/DaisyCode/DaisyExamples/libDaisy/src/per/adc.h ****         SPEED_810CYCLES_5,
  53:/Users/dominicfrugoli/Desktop/ProgrammingCode/DaisyCode/DaisyExamples/libDaisy/src/per/adc.h ****     };
  54:/Users/dominicfrugoli/Desktop/ProgrammingCode/DaisyCode/DaisyExamples/libDaisy/src/per/adc.h **** 
  55:/Users/dominicfrugoli/Desktop/ProgrammingCode/DaisyCode/DaisyExamples/libDaisy/src/per/adc.h ****     /** Initializes a single ADC pin as an ADC. 
  56:/Users/dominicfrugoli/Desktop/ProgrammingCode/DaisyCode/DaisyExamples/libDaisy/src/per/adc.h ****     \param pin Pin to init.
  57:/Users/dominicfrugoli/Desktop/ProgrammingCode/DaisyCode/DaisyExamples/libDaisy/src/per/adc.h ****     \param speed conversion speed for this pin defaults to 8.5 cycles
  58:/Users/dominicfrugoli/Desktop/ProgrammingCode/DaisyCode/DaisyExamples/libDaisy/src/per/adc.h ****      */
  59:/Users/dominicfrugoli/Desktop/ProgrammingCode/DaisyCode/DaisyExamples/libDaisy/src/per/adc.h ****     void InitSingle(dsy_gpio_pin pin, ConversionSpeed speed = SPEED_8CYCLES_5);
  60:/Users/dominicfrugoli/Desktop/ProgrammingCode/DaisyCode/DaisyExamples/libDaisy/src/per/adc.h **** 
  61:/Users/dominicfrugoli/Desktop/ProgrammingCode/DaisyCode/DaisyExamples/libDaisy/src/per/adc.h ****     /** 
  62:/Users/dominicfrugoli/Desktop/ProgrammingCode/DaisyCode/DaisyExamples/libDaisy/src/per/adc.h ****     Initializes a single ADC pin as a Multiplexed ADC.
  63:/Users/dominicfrugoli/Desktop/ProgrammingCode/DaisyCode/DaisyExamples/libDaisy/src/per/adc.h ****     Requires a CD405X Multiplexer connected to the pin.
  64:/Users/dominicfrugoli/Desktop/ProgrammingCode/DaisyCode/DaisyExamples/libDaisy/src/per/adc.h ****     You only need to supply the mux pins that are required,
  65:/Users/dominicfrugoli/Desktop/ProgrammingCode/DaisyCode/DaisyExamples/libDaisy/src/per/adc.h ****     e.g. a 4052 mux would only require mux_0 and mux_1.
  66:/Users/dominicfrugoli/Desktop/ProgrammingCode/DaisyCode/DaisyExamples/libDaisy/src/per/adc.h ****     Internal Callbacks handle the pin addressing.
  67:/Users/dominicfrugoli/Desktop/ProgrammingCode/DaisyCode/DaisyExamples/libDaisy/src/per/adc.h ****     \param adc_pin &
  68:/Users/dominicfrugoli/Desktop/ProgrammingCode/DaisyCode/DaisyExamples/libDaisy/src/per/adc.h ****     \param mux_channels must be 1-8
  69:/Users/dominicfrugoli/Desktop/ProgrammingCode/DaisyCode/DaisyExamples/libDaisy/src/per/adc.h ****     \param mux_0 First mux pin
  70:/Users/dominicfrugoli/Desktop/ProgrammingCode/DaisyCode/DaisyExamples/libDaisy/src/per/adc.h ****     \param mux_1 Second mux pin
  71:/Users/dominicfrugoli/Desktop/ProgrammingCode/DaisyCode/DaisyExamples/libDaisy/src/per/adc.h ****     \param mux_2 Third mux pin
  72:/Users/dominicfrugoli/Desktop/ProgrammingCode/DaisyCode/DaisyExamples/libDaisy/src/per/adc.h ****     \param speed conversion speed for this pin defaults to 8.5 cycles
  73:/Users/dominicfrugoli/Desktop/ProgrammingCode/DaisyCode/DaisyExamples/libDaisy/src/per/adc.h ****     */
  74:/Users/dominicfrugoli/Desktop/ProgrammingCode/DaisyCode/DaisyExamples/libDaisy/src/per/adc.h ****     void InitMux(dsy_gpio_pin    adc_pin,
  75:/Users/dominicfrugoli/Desktop/ProgrammingCode/DaisyCode/DaisyExamples/libDaisy/src/per/adc.h ****                  size_t          mux_channels,
  76:/Users/dominicfrugoli/Desktop/ProgrammingCode/DaisyCode/DaisyExamples/libDaisy/src/per/adc.h ****                  dsy_gpio_pin    mux_0,
  77:/Users/dominicfrugoli/Desktop/ProgrammingCode/DaisyCode/DaisyExamples/libDaisy/src/per/adc.h ****                  dsy_gpio_pin    mux_1 = {DSY_GPIOX, 0},
  78:/Users/dominicfrugoli/Desktop/ProgrammingCode/DaisyCode/DaisyExamples/libDaisy/src/per/adc.h ****                  dsy_gpio_pin    mux_2 = {DSY_GPIOX, 0},
  79:/Users/dominicfrugoli/Desktop/ProgrammingCode/DaisyCode/DaisyExamples/libDaisy/src/per/adc.h ****                  ConversionSpeed speed = SPEED_8CYCLES_5);
  80:/Users/dominicfrugoli/Desktop/ProgrammingCode/DaisyCode/DaisyExamples/libDaisy/src/per/adc.h **** 
  81:/Users/dominicfrugoli/Desktop/ProgrammingCode/DaisyCode/DaisyExamples/libDaisy/src/per/adc.h ****     dsy_gpio        pin_;                   /**< & */
  82:/Users/dominicfrugoli/Desktop/ProgrammingCode/DaisyCode/DaisyExamples/libDaisy/src/per/adc.h ****     dsy_gpio        mux_pin_[MUX_SEL_LAST]; /**< & */
  83:/Users/dominicfrugoli/Desktop/ProgrammingCode/DaisyCode/DaisyExamples/libDaisy/src/per/adc.h ****     uint8_t         mux_channels_;          /**< & */
  84:/Users/dominicfrugoli/Desktop/ProgrammingCode/DaisyCode/DaisyExamples/libDaisy/src/per/adc.h ****     ConversionSpeed speed_;
  85:/Users/dominicfrugoli/Desktop/ProgrammingCode/DaisyCode/DaisyExamples/libDaisy/src/per/adc.h **** };
  86:/Users/dominicfrugoli/Desktop/ProgrammingCode/DaisyCode/DaisyExamples/libDaisy/src/per/adc.h **** 
  87:/Users/dominicfrugoli/Desktop/ProgrammingCode/DaisyCode/DaisyExamples/libDaisy/src/per/adc.h **** /**
  88:/Users/dominicfrugoli/Desktop/ProgrammingCode/DaisyCode/DaisyExamples/libDaisy/src/per/adc.h ****    @brief Handler for analog to digital conversion
  89:/Users/dominicfrugoli/Desktop/ProgrammingCode/DaisyCode/DaisyExamples/libDaisy/src/per/adc.h **** */
  90:/Users/dominicfrugoli/Desktop/ProgrammingCode/DaisyCode/DaisyExamples/libDaisy/src/per/adc.h **** class AdcHandle
ARM GAS  /var/folders/m5/x8wc2gdj7z5cpgcqdsb_gkj40000gn/T//cckXFIsJ.s 			page 9


  91:/Users/dominicfrugoli/Desktop/ProgrammingCode/DaisyCode/DaisyExamples/libDaisy/src/per/adc.h **** {
  92:/Users/dominicfrugoli/Desktop/ProgrammingCode/DaisyCode/DaisyExamples/libDaisy/src/per/adc.h ****   public:
  93:/Users/dominicfrugoli/Desktop/ProgrammingCode/DaisyCode/DaisyExamples/libDaisy/src/per/adc.h ****     /** Supported oversampling amounts */
  94:/Users/dominicfrugoli/Desktop/ProgrammingCode/DaisyCode/DaisyExamples/libDaisy/src/per/adc.h ****     enum OverSampling
  95:/Users/dominicfrugoli/Desktop/ProgrammingCode/DaisyCode/DaisyExamples/libDaisy/src/per/adc.h ****     {
  96:/Users/dominicfrugoli/Desktop/ProgrammingCode/DaisyCode/DaisyExamples/libDaisy/src/per/adc.h ****         OVS_NONE, /**< & */
  97:/Users/dominicfrugoli/Desktop/ProgrammingCode/DaisyCode/DaisyExamples/libDaisy/src/per/adc.h ****         OVS_4,    /**< & */
  98:/Users/dominicfrugoli/Desktop/ProgrammingCode/DaisyCode/DaisyExamples/libDaisy/src/per/adc.h ****         OVS_8,    /**< & */
  99:/Users/dominicfrugoli/Desktop/ProgrammingCode/DaisyCode/DaisyExamples/libDaisy/src/per/adc.h ****         OVS_16,   /**< & */
 100:/Users/dominicfrugoli/Desktop/ProgrammingCode/DaisyCode/DaisyExamples/libDaisy/src/per/adc.h ****         OVS_32,   /**< & */
 101:/Users/dominicfrugoli/Desktop/ProgrammingCode/DaisyCode/DaisyExamples/libDaisy/src/per/adc.h ****         OVS_64,   /**< & */
 102:/Users/dominicfrugoli/Desktop/ProgrammingCode/DaisyCode/DaisyExamples/libDaisy/src/per/adc.h ****         OVS_128,  /**< & */
 103:/Users/dominicfrugoli/Desktop/ProgrammingCode/DaisyCode/DaisyExamples/libDaisy/src/per/adc.h ****         OVS_256,  /**< & */
 104:/Users/dominicfrugoli/Desktop/ProgrammingCode/DaisyCode/DaisyExamples/libDaisy/src/per/adc.h ****         OVS_512,  /**< & */
 105:/Users/dominicfrugoli/Desktop/ProgrammingCode/DaisyCode/DaisyExamples/libDaisy/src/per/adc.h ****         OVS_1024, /**< & */
 106:/Users/dominicfrugoli/Desktop/ProgrammingCode/DaisyCode/DaisyExamples/libDaisy/src/per/adc.h ****         OVS_LAST, /**< & */
 107:/Users/dominicfrugoli/Desktop/ProgrammingCode/DaisyCode/DaisyExamples/libDaisy/src/per/adc.h ****     };
 108:/Users/dominicfrugoli/Desktop/ProgrammingCode/DaisyCode/DaisyExamples/libDaisy/src/per/adc.h **** 
 109:/Users/dominicfrugoli/Desktop/ProgrammingCode/DaisyCode/DaisyExamples/libDaisy/src/per/adc.h ****     AdcHandle() {}
 110:/Users/dominicfrugoli/Desktop/ProgrammingCode/DaisyCode/DaisyExamples/libDaisy/src/per/adc.h ****     ~AdcHandle() {}
 127              		.loc 7 110 5 is_stmt 1 view .LVU13
 128              		.loc 7 110 5 is_stmt 0 view .LVU14
 129              	.LBE412:
 130              	.LBB413:
 131              	.LBI413:
 132              		.file 8 "/Users/dominicfrugoli/Desktop/ProgrammingCode/DaisyCode/DaisyExamples/libDaisy/src/hid/au
   1:/Users/dominicfrugoli/Desktop/ProgrammingCode/DaisyCode/DaisyExamples/libDaisy/src/hid/audio.h **** #ifndef DSY_AUDIO_H
   2:/Users/dominicfrugoli/Desktop/ProgrammingCode/DaisyCode/DaisyExamples/libDaisy/src/hid/audio.h **** #define DSY_AUDIO_H /**< & */
   3:/Users/dominicfrugoli/Desktop/ProgrammingCode/DaisyCode/DaisyExamples/libDaisy/src/hid/audio.h **** 
   4:/Users/dominicfrugoli/Desktop/ProgrammingCode/DaisyCode/DaisyExamples/libDaisy/src/hid/audio.h **** #include "per/sai.h"
   5:/Users/dominicfrugoli/Desktop/ProgrammingCode/DaisyCode/DaisyExamples/libDaisy/src/hid/audio.h **** 
   6:/Users/dominicfrugoli/Desktop/ProgrammingCode/DaisyCode/DaisyExamples/libDaisy/src/hid/audio.h **** namespace daisy
   7:/Users/dominicfrugoli/Desktop/ProgrammingCode/DaisyCode/DaisyExamples/libDaisy/src/hid/audio.h **** {
   8:/Users/dominicfrugoli/Desktop/ProgrammingCode/DaisyCode/DaisyExamples/libDaisy/src/hid/audio.h **** /** @brief Audio Engine Handle
   9:/Users/dominicfrugoli/Desktop/ProgrammingCode/DaisyCode/DaisyExamples/libDaisy/src/hid/audio.h ****  *  @ingroup audio 
  10:/Users/dominicfrugoli/Desktop/ProgrammingCode/DaisyCode/DaisyExamples/libDaisy/src/hid/audio.h ****  *  @details This class allows for higher level access to an audio engine.
  11:/Users/dominicfrugoli/Desktop/ProgrammingCode/DaisyCode/DaisyExamples/libDaisy/src/hid/audio.h ****  *           If you're using a SOM like the DaisySeed or DaisyPatchSM (or any 
  12:/Users/dominicfrugoli/Desktop/ProgrammingCode/DaisyCode/DaisyExamples/libDaisy/src/hid/audio.h ****  *            board that includes one of those objects) then the intialization
  13:/Users/dominicfrugoli/Desktop/ProgrammingCode/DaisyCode/DaisyExamples/libDaisy/src/hid/audio.h ****  *            is already taken  care of.
  14:/Users/dominicfrugoli/Desktop/ProgrammingCode/DaisyCode/DaisyExamples/libDaisy/src/hid/audio.h ****  *           If you're setting up your own custom hardware, or need to make changes
  15:/Users/dominicfrugoli/Desktop/ProgrammingCode/DaisyCode/DaisyExamples/libDaisy/src/hid/audio.h ****  *           you will have to take the following steps:
  16:/Users/dominicfrugoli/Desktop/ProgrammingCode/DaisyCode/DaisyExamples/libDaisy/src/hid/audio.h ****  *             1. Create and Initialize an SaiHandle or two depending on your requirements
  17:/Users/dominicfrugoli/Desktop/ProgrammingCode/DaisyCode/DaisyExamples/libDaisy/src/hid/audio.h ****  *             2. Initialize the Audio Handle with the desired settings and the Initialized SaiHand
  18:/Users/dominicfrugoli/Desktop/ProgrammingCode/DaisyCode/DaisyExamples/libDaisy/src/hid/audio.h ****  *             3. If the connected codec requires special configuration or initialization, do so
  19:/Users/dominicfrugoli/Desktop/ProgrammingCode/DaisyCode/DaisyExamples/libDaisy/src/hid/audio.h ****  *             4. Write a callback method using either the AudioCallback or the InterleavingAudioCa
  20:/Users/dominicfrugoli/Desktop/ProgrammingCode/DaisyCode/DaisyExamples/libDaisy/src/hid/audio.h ****  *             5. Start the Audio using one of the StartAudio function
  21:/Users/dominicfrugoli/Desktop/ProgrammingCode/DaisyCode/DaisyExamples/libDaisy/src/hid/audio.h ****  */
  22:/Users/dominicfrugoli/Desktop/ProgrammingCode/DaisyCode/DaisyExamples/libDaisy/src/hid/audio.h **** class AudioHandle
  23:/Users/dominicfrugoli/Desktop/ProgrammingCode/DaisyCode/DaisyExamples/libDaisy/src/hid/audio.h **** {
  24:/Users/dominicfrugoli/Desktop/ProgrammingCode/DaisyCode/DaisyExamples/libDaisy/src/hid/audio.h ****   public:
  25:/Users/dominicfrugoli/Desktop/ProgrammingCode/DaisyCode/DaisyExamples/libDaisy/src/hid/audio.h ****     /** Manually configurable details about the Audio Engine */
  26:/Users/dominicfrugoli/Desktop/ProgrammingCode/DaisyCode/DaisyExamples/libDaisy/src/hid/audio.h ****     /** TODO: Figure out how to get samplerate in here. */
  27:/Users/dominicfrugoli/Desktop/ProgrammingCode/DaisyCode/DaisyExamples/libDaisy/src/hid/audio.h ****     struct Config
  28:/Users/dominicfrugoli/Desktop/ProgrammingCode/DaisyCode/DaisyExamples/libDaisy/src/hid/audio.h ****     {
  29:/Users/dominicfrugoli/Desktop/ProgrammingCode/DaisyCode/DaisyExamples/libDaisy/src/hid/audio.h ****         /** number of samples to process per callback */
  30:/Users/dominicfrugoli/Desktop/ProgrammingCode/DaisyCode/DaisyExamples/libDaisy/src/hid/audio.h ****         size_t blocksize;
  31:/Users/dominicfrugoli/Desktop/ProgrammingCode/DaisyCode/DaisyExamples/libDaisy/src/hid/audio.h **** 
ARM GAS  /var/folders/m5/x8wc2gdj7z5cpgcqdsb_gkj40000gn/T//cckXFIsJ.s 			page 10


  32:/Users/dominicfrugoli/Desktop/ProgrammingCode/DaisyCode/DaisyExamples/libDaisy/src/hid/audio.h ****         /**< Sample rate of audio */
  33:/Users/dominicfrugoli/Desktop/ProgrammingCode/DaisyCode/DaisyExamples/libDaisy/src/hid/audio.h ****         SaiHandle::Config::SampleRate samplerate;
  34:/Users/dominicfrugoli/Desktop/ProgrammingCode/DaisyCode/DaisyExamples/libDaisy/src/hid/audio.h **** 
  35:/Users/dominicfrugoli/Desktop/ProgrammingCode/DaisyCode/DaisyExamples/libDaisy/src/hid/audio.h ****         /** factor for adjustment before and after callback for hardware that may have extra headro
  36:/Users/dominicfrugoli/Desktop/ProgrammingCode/DaisyCode/DaisyExamples/libDaisy/src/hid/audio.h ****         float postgain;
  37:/Users/dominicfrugoli/Desktop/ProgrammingCode/DaisyCode/DaisyExamples/libDaisy/src/hid/audio.h **** 
  38:/Users/dominicfrugoli/Desktop/ProgrammingCode/DaisyCode/DaisyExamples/libDaisy/src/hid/audio.h ****         /** factor for additional one-sided compensation to audio path for hardware that may
  39:/Users/dominicfrugoli/Desktop/ProgrammingCode/DaisyCode/DaisyExamples/libDaisy/src/hid/audio.h ****          *  have unequal input/output ranges
  40:/Users/dominicfrugoli/Desktop/ProgrammingCode/DaisyCode/DaisyExamples/libDaisy/src/hid/audio.h ****          */
  41:/Users/dominicfrugoli/Desktop/ProgrammingCode/DaisyCode/DaisyExamples/libDaisy/src/hid/audio.h ****         float output_compensation;
  42:/Users/dominicfrugoli/Desktop/ProgrammingCode/DaisyCode/DaisyExamples/libDaisy/src/hid/audio.h **** 
  43:/Users/dominicfrugoli/Desktop/ProgrammingCode/DaisyCode/DaisyExamples/libDaisy/src/hid/audio.h ****         /** Sets default values for config struct */
  44:/Users/dominicfrugoli/Desktop/ProgrammingCode/DaisyCode/DaisyExamples/libDaisy/src/hid/audio.h ****         Config()
  45:/Users/dominicfrugoli/Desktop/ProgrammingCode/DaisyCode/DaisyExamples/libDaisy/src/hid/audio.h ****         : blocksize(48),
  46:/Users/dominicfrugoli/Desktop/ProgrammingCode/DaisyCode/DaisyExamples/libDaisy/src/hid/audio.h ****           samplerate(SaiHandle::Config::SampleRate::SAI_48KHZ),
  47:/Users/dominicfrugoli/Desktop/ProgrammingCode/DaisyCode/DaisyExamples/libDaisy/src/hid/audio.h ****           postgain(1.f),
  48:/Users/dominicfrugoli/Desktop/ProgrammingCode/DaisyCode/DaisyExamples/libDaisy/src/hid/audio.h ****           output_compensation(1.f)
  49:/Users/dominicfrugoli/Desktop/ProgrammingCode/DaisyCode/DaisyExamples/libDaisy/src/hid/audio.h ****         {
  50:/Users/dominicfrugoli/Desktop/ProgrammingCode/DaisyCode/DaisyExamples/libDaisy/src/hid/audio.h ****         }
  51:/Users/dominicfrugoli/Desktop/ProgrammingCode/DaisyCode/DaisyExamples/libDaisy/src/hid/audio.h ****     };
  52:/Users/dominicfrugoli/Desktop/ProgrammingCode/DaisyCode/DaisyExamples/libDaisy/src/hid/audio.h **** 
  53:/Users/dominicfrugoli/Desktop/ProgrammingCode/DaisyCode/DaisyExamples/libDaisy/src/hid/audio.h ****     enum class Result
  54:/Users/dominicfrugoli/Desktop/ProgrammingCode/DaisyCode/DaisyExamples/libDaisy/src/hid/audio.h ****     {
  55:/Users/dominicfrugoli/Desktop/ProgrammingCode/DaisyCode/DaisyExamples/libDaisy/src/hid/audio.h ****         OK,
  56:/Users/dominicfrugoli/Desktop/ProgrammingCode/DaisyCode/DaisyExamples/libDaisy/src/hid/audio.h ****         ERR,
  57:/Users/dominicfrugoli/Desktop/ProgrammingCode/DaisyCode/DaisyExamples/libDaisy/src/hid/audio.h ****     };
  58:/Users/dominicfrugoli/Desktop/ProgrammingCode/DaisyCode/DaisyExamples/libDaisy/src/hid/audio.h **** 
  59:/Users/dominicfrugoli/Desktop/ProgrammingCode/DaisyCode/DaisyExamples/libDaisy/src/hid/audio.h ****     /** Non-Interleaving input buffer
  60:/Users/dominicfrugoli/Desktop/ProgrammingCode/DaisyCode/DaisyExamples/libDaisy/src/hid/audio.h ****      * Buffer arranged by float[chn][sample] 
  61:/Users/dominicfrugoli/Desktop/ProgrammingCode/DaisyCode/DaisyExamples/libDaisy/src/hid/audio.h ****      * const so that the user can't modify the input
  62:/Users/dominicfrugoli/Desktop/ProgrammingCode/DaisyCode/DaisyExamples/libDaisy/src/hid/audio.h ****      */
  63:/Users/dominicfrugoli/Desktop/ProgrammingCode/DaisyCode/DaisyExamples/libDaisy/src/hid/audio.h ****     typedef const float* const* InputBuffer;
  64:/Users/dominicfrugoli/Desktop/ProgrammingCode/DaisyCode/DaisyExamples/libDaisy/src/hid/audio.h **** 
  65:/Users/dominicfrugoli/Desktop/ProgrammingCode/DaisyCode/DaisyExamples/libDaisy/src/hid/audio.h ****     /** Non-Interleaving output buffer
  66:/Users/dominicfrugoli/Desktop/ProgrammingCode/DaisyCode/DaisyExamples/libDaisy/src/hid/audio.h ****      * Arranged by float[chn][sample] 
  67:/Users/dominicfrugoli/Desktop/ProgrammingCode/DaisyCode/DaisyExamples/libDaisy/src/hid/audio.h ****      */
  68:/Users/dominicfrugoli/Desktop/ProgrammingCode/DaisyCode/DaisyExamples/libDaisy/src/hid/audio.h ****     typedef float** OutputBuffer;
  69:/Users/dominicfrugoli/Desktop/ProgrammingCode/DaisyCode/DaisyExamples/libDaisy/src/hid/audio.h **** 
  70:/Users/dominicfrugoli/Desktop/ProgrammingCode/DaisyCode/DaisyExamples/libDaisy/src/hid/audio.h ****     /** Type for a Non-Interleaving audio callback 
  71:/Users/dominicfrugoli/Desktop/ProgrammingCode/DaisyCode/DaisyExamples/libDaisy/src/hid/audio.h ****      * Non-Interleaving audio callbacks in daisy will be of this type
  72:/Users/dominicfrugoli/Desktop/ProgrammingCode/DaisyCode/DaisyExamples/libDaisy/src/hid/audio.h ****      */
  73:/Users/dominicfrugoli/Desktop/ProgrammingCode/DaisyCode/DaisyExamples/libDaisy/src/hid/audio.h ****     typedef void (*AudioCallback)(InputBuffer  in,
  74:/Users/dominicfrugoli/Desktop/ProgrammingCode/DaisyCode/DaisyExamples/libDaisy/src/hid/audio.h ****                                   OutputBuffer out,
  75:/Users/dominicfrugoli/Desktop/ProgrammingCode/DaisyCode/DaisyExamples/libDaisy/src/hid/audio.h ****                                   size_t       size);
  76:/Users/dominicfrugoli/Desktop/ProgrammingCode/DaisyCode/DaisyExamples/libDaisy/src/hid/audio.h **** 
  77:/Users/dominicfrugoli/Desktop/ProgrammingCode/DaisyCode/DaisyExamples/libDaisy/src/hid/audio.h ****     /** Interleaving Input buffer
  78:/Users/dominicfrugoli/Desktop/ProgrammingCode/DaisyCode/DaisyExamples/libDaisy/src/hid/audio.h ****      ** audio is prepared as { L0, R0, L1, R1, . . . LN, RN }]
  79:/Users/dominicfrugoli/Desktop/ProgrammingCode/DaisyCode/DaisyExamples/libDaisy/src/hid/audio.h ****      ** this is const, as the user shouldn't modify it
  80:/Users/dominicfrugoli/Desktop/ProgrammingCode/DaisyCode/DaisyExamples/libDaisy/src/hid/audio.h ****     */
  81:/Users/dominicfrugoli/Desktop/ProgrammingCode/DaisyCode/DaisyExamples/libDaisy/src/hid/audio.h ****     typedef const float* InterleavingInputBuffer;
  82:/Users/dominicfrugoli/Desktop/ProgrammingCode/DaisyCode/DaisyExamples/libDaisy/src/hid/audio.h **** 
  83:/Users/dominicfrugoli/Desktop/ProgrammingCode/DaisyCode/DaisyExamples/libDaisy/src/hid/audio.h ****     /** Interleaving Output buffer 
  84:/Users/dominicfrugoli/Desktop/ProgrammingCode/DaisyCode/DaisyExamples/libDaisy/src/hid/audio.h ****      ** audio is prepared as { L0, R0, L1, R1, . . . LN, RN }
  85:/Users/dominicfrugoli/Desktop/ProgrammingCode/DaisyCode/DaisyExamples/libDaisy/src/hid/audio.h ****     */
  86:/Users/dominicfrugoli/Desktop/ProgrammingCode/DaisyCode/DaisyExamples/libDaisy/src/hid/audio.h ****     typedef float* InterleavingOutputBuffer;
  87:/Users/dominicfrugoli/Desktop/ProgrammingCode/DaisyCode/DaisyExamples/libDaisy/src/hid/audio.h **** 
  88:/Users/dominicfrugoli/Desktop/ProgrammingCode/DaisyCode/DaisyExamples/libDaisy/src/hid/audio.h ****     /** Interleaving Audio Callback 
ARM GAS  /var/folders/m5/x8wc2gdj7z5cpgcqdsb_gkj40000gn/T//cckXFIsJ.s 			page 11


  89:/Users/dominicfrugoli/Desktop/ProgrammingCode/DaisyCode/DaisyExamples/libDaisy/src/hid/audio.h ****      * Interleaving audio callbacks in daisy must be of this type
  90:/Users/dominicfrugoli/Desktop/ProgrammingCode/DaisyCode/DaisyExamples/libDaisy/src/hid/audio.h ****      */
  91:/Users/dominicfrugoli/Desktop/ProgrammingCode/DaisyCode/DaisyExamples/libDaisy/src/hid/audio.h ****     typedef void (*InterleavingAudioCallback)(InterleavingInputBuffer  in,
  92:/Users/dominicfrugoli/Desktop/ProgrammingCode/DaisyCode/DaisyExamples/libDaisy/src/hid/audio.h ****                                               InterleavingOutputBuffer out,
  93:/Users/dominicfrugoli/Desktop/ProgrammingCode/DaisyCode/DaisyExamples/libDaisy/src/hid/audio.h ****                                               size_t                   size);
  94:/Users/dominicfrugoli/Desktop/ProgrammingCode/DaisyCode/DaisyExamples/libDaisy/src/hid/audio.h **** 
  95:/Users/dominicfrugoli/Desktop/ProgrammingCode/DaisyCode/DaisyExamples/libDaisy/src/hid/audio.h ****     AudioHandle() : pimpl_(nullptr) {}
  96:/Users/dominicfrugoli/Desktop/ProgrammingCode/DaisyCode/DaisyExamples/libDaisy/src/hid/audio.h ****     ~AudioHandle() {}
 133              		.loc 8 96 5 is_stmt 1 view .LVU15
 134              		.loc 8 96 5 is_stmt 0 view .LVU16
 135              	.LBE413:
 136              		.loc 4 22 19 view .LVU17
 137 0000 7047     		bx	lr
 138              		.cfi_endproc
 139              	.LFE2556:
 141              		.weak	_ZN5daisy9DaisySeedD1Ev
 142              		.thumb_set _ZN5daisy9DaisySeedD1Ev,_ZN5daisy9DaisySeedD2Ev
 143 0002 00BF     		.section	.text._ZN7daisysp3SvfD2Ev,"axG",%progbits,_ZN7daisysp3SvfD5Ev,comdat
 144              		.align	1
 145              		.p2align 2,,3
 146              		.weak	_ZN7daisysp3SvfD2Ev
 147              		.syntax unified
 148              		.thumb
 149              		.thumb_func
 151              	_ZN7daisysp3SvfD2Ev:
 152              	.LVL4:
 153              	.LFB4258:
 154              		.file 9 "/Users/dominicfrugoli/Desktop/ProgrammingCode/DaisyCode/DaisyExamples/DaisySP/Source/Filt
   1:/Users/dominicfrugoli/Desktop/ProgrammingCode/DaisyCode/DaisyExamples/DaisySP/Source/Filters/svf.h **** /*
   2:/Users/dominicfrugoli/Desktop/ProgrammingCode/DaisyCode/DaisyExamples/DaisySP/Source/Filters/svf.h **** Copyright (c) 2020 Electrosmith, Corp
   3:/Users/dominicfrugoli/Desktop/ProgrammingCode/DaisyCode/DaisyExamples/DaisySP/Source/Filters/svf.h **** 
   4:/Users/dominicfrugoli/Desktop/ProgrammingCode/DaisyCode/DaisyExamples/DaisySP/Source/Filters/svf.h **** Use of this source code is governed by an MIT-style
   5:/Users/dominicfrugoli/Desktop/ProgrammingCode/DaisyCode/DaisyExamples/DaisySP/Source/Filters/svf.h **** license that can be found in the LICENSE file or at
   6:/Users/dominicfrugoli/Desktop/ProgrammingCode/DaisyCode/DaisyExamples/DaisySP/Source/Filters/svf.h **** https://opensource.org/licenses/MIT.
   7:/Users/dominicfrugoli/Desktop/ProgrammingCode/DaisyCode/DaisyExamples/DaisySP/Source/Filters/svf.h **** */
   8:/Users/dominicfrugoli/Desktop/ProgrammingCode/DaisyCode/DaisyExamples/DaisySP/Source/Filters/svf.h **** 
   9:/Users/dominicfrugoli/Desktop/ProgrammingCode/DaisyCode/DaisyExamples/DaisySP/Source/Filters/svf.h **** #pragma once
  10:/Users/dominicfrugoli/Desktop/ProgrammingCode/DaisyCode/DaisyExamples/DaisySP/Source/Filters/svf.h **** #ifndef DSY_SVF_H
  11:/Users/dominicfrugoli/Desktop/ProgrammingCode/DaisyCode/DaisyExamples/DaisySP/Source/Filters/svf.h **** #define DSY_SVF_H
  12:/Users/dominicfrugoli/Desktop/ProgrammingCode/DaisyCode/DaisyExamples/DaisySP/Source/Filters/svf.h **** 
  13:/Users/dominicfrugoli/Desktop/ProgrammingCode/DaisyCode/DaisyExamples/DaisySP/Source/Filters/svf.h **** namespace daisysp
  14:/Users/dominicfrugoli/Desktop/ProgrammingCode/DaisyCode/DaisyExamples/DaisySP/Source/Filters/svf.h **** {
  15:/Users/dominicfrugoli/Desktop/ProgrammingCode/DaisyCode/DaisyExamples/DaisySP/Source/Filters/svf.h **** /**      Double Sampled, Stable State Variable Filter
  16:/Users/dominicfrugoli/Desktop/ProgrammingCode/DaisyCode/DaisyExamples/DaisySP/Source/Filters/svf.h **** 
  17:/Users/dominicfrugoli/Desktop/ProgrammingCode/DaisyCode/DaisyExamples/DaisySP/Source/Filters/svf.h **** Credit to Andrew Simper from musicdsp.org
  18:/Users/dominicfrugoli/Desktop/ProgrammingCode/DaisyCode/DaisyExamples/DaisySP/Source/Filters/svf.h **** 
  19:/Users/dominicfrugoli/Desktop/ProgrammingCode/DaisyCode/DaisyExamples/DaisySP/Source/Filters/svf.h **** This is his "State Variable Filter (Double Sampled, Stable)"
  20:/Users/dominicfrugoli/Desktop/ProgrammingCode/DaisyCode/DaisyExamples/DaisySP/Source/Filters/svf.h **** 
  21:/Users/dominicfrugoli/Desktop/ProgrammingCode/DaisyCode/DaisyExamples/DaisySP/Source/Filters/svf.h **** Additional thanks to Laurent de Soras for stability limit, and 
  22:/Users/dominicfrugoli/Desktop/ProgrammingCode/DaisyCode/DaisyExamples/DaisySP/Source/Filters/svf.h **** Stefan Diedrichsen for the correct notch output
  23:/Users/dominicfrugoli/Desktop/ProgrammingCode/DaisyCode/DaisyExamples/DaisySP/Source/Filters/svf.h **** 
  24:/Users/dominicfrugoli/Desktop/ProgrammingCode/DaisyCode/DaisyExamples/DaisySP/Source/Filters/svf.h **** Ported by: Stephen Hensley
  25:/Users/dominicfrugoli/Desktop/ProgrammingCode/DaisyCode/DaisyExamples/DaisySP/Source/Filters/svf.h **** */
  26:/Users/dominicfrugoli/Desktop/ProgrammingCode/DaisyCode/DaisyExamples/DaisySP/Source/Filters/svf.h **** class Svf
  27:/Users/dominicfrugoli/Desktop/ProgrammingCode/DaisyCode/DaisyExamples/DaisySP/Source/Filters/svf.h **** {
  28:/Users/dominicfrugoli/Desktop/ProgrammingCode/DaisyCode/DaisyExamples/DaisySP/Source/Filters/svf.h ****   public:
  29:/Users/dominicfrugoli/Desktop/ProgrammingCode/DaisyCode/DaisyExamples/DaisySP/Source/Filters/svf.h ****     Svf() {}
ARM GAS  /var/folders/m5/x8wc2gdj7z5cpgcqdsb_gkj40000gn/T//cckXFIsJ.s 			page 12


  30:/Users/dominicfrugoli/Desktop/ProgrammingCode/DaisyCode/DaisyExamples/DaisySP/Source/Filters/svf.h ****     ~Svf() {}
 155              		.loc 9 30 5 is_stmt 1 view -0
 156              		.cfi_startproc
 157              		@ args = 0, pretend = 0, frame = 0
 158              		@ frame_needed = 0, uses_anonymous_args = 0
 159              		@ link register save eliminated.
 160              		.loc 9 30 13 is_stmt 0 view .LVU19
 161 0000 7047     		bx	lr
 162              		.cfi_endproc
 163              	.LFE4258:
 165              		.weak	_ZN7daisysp3SvfD1Ev
 166              		.thumb_set _ZN7daisysp3SvfD1Ev,_ZN7daisysp3SvfD2Ev
 167 0002 00BF     		.section	.text._ZN7daisysp6ChorusD2Ev,"axG",%progbits,_ZN7daisysp6ChorusD5Ev,comdat
 168              		.align	1
 169              		.p2align 2,,3
 170              		.weak	_ZN7daisysp6ChorusD2Ev
 171              		.syntax unified
 172              		.thumb
 173              		.thumb_func
 175              	_ZN7daisysp6ChorusD2Ev:
 176              	.LVL5:
 177              	.LFB4375:
 178              		.file 10 "/Users/dominicfrugoli/Desktop/ProgrammingCode/DaisyCode/DaisyExamples/DaisySP/Source/Eff
   1:/Users/dominicfrugoli/Desktop/ProgrammingCode/DaisyCode/DaisyExamples/DaisySP/Source/Effects/chorus.h **** /*
   2:/Users/dominicfrugoli/Desktop/ProgrammingCode/DaisyCode/DaisyExamples/DaisySP/Source/Effects/chorus.h **** Copyright (c) 2020 Electrosmith, Corp
   3:/Users/dominicfrugoli/Desktop/ProgrammingCode/DaisyCode/DaisyExamples/DaisySP/Source/Effects/chorus.h **** 
   4:/Users/dominicfrugoli/Desktop/ProgrammingCode/DaisyCode/DaisyExamples/DaisySP/Source/Effects/chorus.h **** Use of this source code is governed by an MIT-style
   5:/Users/dominicfrugoli/Desktop/ProgrammingCode/DaisyCode/DaisyExamples/DaisySP/Source/Effects/chorus.h **** license that can be found in the LICENSE file or at
   6:/Users/dominicfrugoli/Desktop/ProgrammingCode/DaisyCode/DaisyExamples/DaisySP/Source/Effects/chorus.h **** https://opensource.org/licenses/MIT.
   7:/Users/dominicfrugoli/Desktop/ProgrammingCode/DaisyCode/DaisyExamples/DaisySP/Source/Effects/chorus.h **** */
   8:/Users/dominicfrugoli/Desktop/ProgrammingCode/DaisyCode/DaisyExamples/DaisySP/Source/Effects/chorus.h **** 
   9:/Users/dominicfrugoli/Desktop/ProgrammingCode/DaisyCode/DaisyExamples/DaisySP/Source/Effects/chorus.h **** #pragma once
  10:/Users/dominicfrugoli/Desktop/ProgrammingCode/DaisyCode/DaisyExamples/DaisySP/Source/Effects/chorus.h **** #ifndef DSY_CHORUS_H
  11:/Users/dominicfrugoli/Desktop/ProgrammingCode/DaisyCode/DaisyExamples/DaisySP/Source/Effects/chorus.h **** #define DSY_CHORUS_H
  12:/Users/dominicfrugoli/Desktop/ProgrammingCode/DaisyCode/DaisyExamples/DaisySP/Source/Effects/chorus.h **** #ifdef __cplusplus
  13:/Users/dominicfrugoli/Desktop/ProgrammingCode/DaisyCode/DaisyExamples/DaisySP/Source/Effects/chorus.h **** 
  14:/Users/dominicfrugoli/Desktop/ProgrammingCode/DaisyCode/DaisyExamples/DaisySP/Source/Effects/chorus.h **** #include <stdint.h>
  15:/Users/dominicfrugoli/Desktop/ProgrammingCode/DaisyCode/DaisyExamples/DaisySP/Source/Effects/chorus.h **** #include "Utility/delayline.h"
  16:/Users/dominicfrugoli/Desktop/ProgrammingCode/DaisyCode/DaisyExamples/DaisySP/Source/Effects/chorus.h **** 
  17:/Users/dominicfrugoli/Desktop/ProgrammingCode/DaisyCode/DaisyExamples/DaisySP/Source/Effects/chorus.h **** /** @file chorus.h */
  18:/Users/dominicfrugoli/Desktop/ProgrammingCode/DaisyCode/DaisyExamples/DaisySP/Source/Effects/chorus.h **** 
  19:/Users/dominicfrugoli/Desktop/ProgrammingCode/DaisyCode/DaisyExamples/DaisySP/Source/Effects/chorus.h **** namespace daisysp
  20:/Users/dominicfrugoli/Desktop/ProgrammingCode/DaisyCode/DaisyExamples/DaisySP/Source/Effects/chorus.h **** {
  21:/Users/dominicfrugoli/Desktop/ProgrammingCode/DaisyCode/DaisyExamples/DaisySP/Source/Effects/chorus.h **** /**  
  22:/Users/dominicfrugoli/Desktop/ProgrammingCode/DaisyCode/DaisyExamples/DaisySP/Source/Effects/chorus.h ****     @brief Single Chorus engine. Used in Chorus.
  23:/Users/dominicfrugoli/Desktop/ProgrammingCode/DaisyCode/DaisyExamples/DaisySP/Source/Effects/chorus.h ****     @author Ben Sergentanis
  24:/Users/dominicfrugoli/Desktop/ProgrammingCode/DaisyCode/DaisyExamples/DaisySP/Source/Effects/chorus.h **** */
  25:/Users/dominicfrugoli/Desktop/ProgrammingCode/DaisyCode/DaisyExamples/DaisySP/Source/Effects/chorus.h **** class ChorusEngine
  26:/Users/dominicfrugoli/Desktop/ProgrammingCode/DaisyCode/DaisyExamples/DaisySP/Source/Effects/chorus.h **** {
  27:/Users/dominicfrugoli/Desktop/ProgrammingCode/DaisyCode/DaisyExamples/DaisySP/Source/Effects/chorus.h ****   public:
  28:/Users/dominicfrugoli/Desktop/ProgrammingCode/DaisyCode/DaisyExamples/DaisySP/Source/Effects/chorus.h ****     ChorusEngine() {}
  29:/Users/dominicfrugoli/Desktop/ProgrammingCode/DaisyCode/DaisyExamples/DaisySP/Source/Effects/chorus.h ****     ~ChorusEngine() {}
  30:/Users/dominicfrugoli/Desktop/ProgrammingCode/DaisyCode/DaisyExamples/DaisySP/Source/Effects/chorus.h **** 
  31:/Users/dominicfrugoli/Desktop/ProgrammingCode/DaisyCode/DaisyExamples/DaisySP/Source/Effects/chorus.h ****     /** Initialize the module
  32:/Users/dominicfrugoli/Desktop/ProgrammingCode/DaisyCode/DaisyExamples/DaisySP/Source/Effects/chorus.h ****         \param sample_rate Audio engine sample rate.
  33:/Users/dominicfrugoli/Desktop/ProgrammingCode/DaisyCode/DaisyExamples/DaisySP/Source/Effects/chorus.h ****     */
  34:/Users/dominicfrugoli/Desktop/ProgrammingCode/DaisyCode/DaisyExamples/DaisySP/Source/Effects/chorus.h ****     void Init(float sample_rate);
ARM GAS  /var/folders/m5/x8wc2gdj7z5cpgcqdsb_gkj40000gn/T//cckXFIsJ.s 			page 13


  35:/Users/dominicfrugoli/Desktop/ProgrammingCode/DaisyCode/DaisyExamples/DaisySP/Source/Effects/chorus.h **** 
  36:/Users/dominicfrugoli/Desktop/ProgrammingCode/DaisyCode/DaisyExamples/DaisySP/Source/Effects/chorus.h ****     /** Get the next sample
  37:/Users/dominicfrugoli/Desktop/ProgrammingCode/DaisyCode/DaisyExamples/DaisySP/Source/Effects/chorus.h ****         \param in Sample to process
  38:/Users/dominicfrugoli/Desktop/ProgrammingCode/DaisyCode/DaisyExamples/DaisySP/Source/Effects/chorus.h ****     */
  39:/Users/dominicfrugoli/Desktop/ProgrammingCode/DaisyCode/DaisyExamples/DaisySP/Source/Effects/chorus.h ****     float Process(float in);
  40:/Users/dominicfrugoli/Desktop/ProgrammingCode/DaisyCode/DaisyExamples/DaisySP/Source/Effects/chorus.h **** 
  41:/Users/dominicfrugoli/Desktop/ProgrammingCode/DaisyCode/DaisyExamples/DaisySP/Source/Effects/chorus.h ****     /** How much to modulate the delay by.
  42:/Users/dominicfrugoli/Desktop/ProgrammingCode/DaisyCode/DaisyExamples/DaisySP/Source/Effects/chorus.h ****         \param depth Works 0-1.
  43:/Users/dominicfrugoli/Desktop/ProgrammingCode/DaisyCode/DaisyExamples/DaisySP/Source/Effects/chorus.h ****     */
  44:/Users/dominicfrugoli/Desktop/ProgrammingCode/DaisyCode/DaisyExamples/DaisySP/Source/Effects/chorus.h ****     void SetLfoDepth(float depth);
  45:/Users/dominicfrugoli/Desktop/ProgrammingCode/DaisyCode/DaisyExamples/DaisySP/Source/Effects/chorus.h **** 
  46:/Users/dominicfrugoli/Desktop/ProgrammingCode/DaisyCode/DaisyExamples/DaisySP/Source/Effects/chorus.h ****     /** Set lfo frequency.
  47:/Users/dominicfrugoli/Desktop/ProgrammingCode/DaisyCode/DaisyExamples/DaisySP/Source/Effects/chorus.h ****         \param freq Frequency in Hz
  48:/Users/dominicfrugoli/Desktop/ProgrammingCode/DaisyCode/DaisyExamples/DaisySP/Source/Effects/chorus.h ****     */
  49:/Users/dominicfrugoli/Desktop/ProgrammingCode/DaisyCode/DaisyExamples/DaisySP/Source/Effects/chorus.h ****     void SetLfoFreq(float freq);
  50:/Users/dominicfrugoli/Desktop/ProgrammingCode/DaisyCode/DaisyExamples/DaisySP/Source/Effects/chorus.h **** 
  51:/Users/dominicfrugoli/Desktop/ProgrammingCode/DaisyCode/DaisyExamples/DaisySP/Source/Effects/chorus.h ****     /** Set the internal delay rate. 
  52:/Users/dominicfrugoli/Desktop/ProgrammingCode/DaisyCode/DaisyExamples/DaisySP/Source/Effects/chorus.h ****         \param delay Tuned for 0-1. Maps to .1 to 50 ms.
  53:/Users/dominicfrugoli/Desktop/ProgrammingCode/DaisyCode/DaisyExamples/DaisySP/Source/Effects/chorus.h ****     */
  54:/Users/dominicfrugoli/Desktop/ProgrammingCode/DaisyCode/DaisyExamples/DaisySP/Source/Effects/chorus.h ****     void SetDelay(float delay);
  55:/Users/dominicfrugoli/Desktop/ProgrammingCode/DaisyCode/DaisyExamples/DaisySP/Source/Effects/chorus.h **** 
  56:/Users/dominicfrugoli/Desktop/ProgrammingCode/DaisyCode/DaisyExamples/DaisySP/Source/Effects/chorus.h ****     /** Set the delay time in ms.
  57:/Users/dominicfrugoli/Desktop/ProgrammingCode/DaisyCode/DaisyExamples/DaisySP/Source/Effects/chorus.h ****         \param ms Delay time in ms, 0 to 50 ms.
  58:/Users/dominicfrugoli/Desktop/ProgrammingCode/DaisyCode/DaisyExamples/DaisySP/Source/Effects/chorus.h ****     */
  59:/Users/dominicfrugoli/Desktop/ProgrammingCode/DaisyCode/DaisyExamples/DaisySP/Source/Effects/chorus.h ****     void SetDelayMs(float ms);
  60:/Users/dominicfrugoli/Desktop/ProgrammingCode/DaisyCode/DaisyExamples/DaisySP/Source/Effects/chorus.h **** 
  61:/Users/dominicfrugoli/Desktop/ProgrammingCode/DaisyCode/DaisyExamples/DaisySP/Source/Effects/chorus.h ****     /** Set the feedback amount.
  62:/Users/dominicfrugoli/Desktop/ProgrammingCode/DaisyCode/DaisyExamples/DaisySP/Source/Effects/chorus.h ****         \param feedback Amount from 0-1.
  63:/Users/dominicfrugoli/Desktop/ProgrammingCode/DaisyCode/DaisyExamples/DaisySP/Source/Effects/chorus.h ****     */
  64:/Users/dominicfrugoli/Desktop/ProgrammingCode/DaisyCode/DaisyExamples/DaisySP/Source/Effects/chorus.h ****     void SetFeedback(float feedback);
  65:/Users/dominicfrugoli/Desktop/ProgrammingCode/DaisyCode/DaisyExamples/DaisySP/Source/Effects/chorus.h **** 
  66:/Users/dominicfrugoli/Desktop/ProgrammingCode/DaisyCode/DaisyExamples/DaisySP/Source/Effects/chorus.h ****   private:
  67:/Users/dominicfrugoli/Desktop/ProgrammingCode/DaisyCode/DaisyExamples/DaisySP/Source/Effects/chorus.h ****     float                    sample_rate_;
  68:/Users/dominicfrugoli/Desktop/ProgrammingCode/DaisyCode/DaisyExamples/DaisySP/Source/Effects/chorus.h ****     static constexpr int32_t kDelayLength
  69:/Users/dominicfrugoli/Desktop/ProgrammingCode/DaisyCode/DaisyExamples/DaisySP/Source/Effects/chorus.h ****         = 2400; // 50 ms at 48kHz = .05 * 48000
  70:/Users/dominicfrugoli/Desktop/ProgrammingCode/DaisyCode/DaisyExamples/DaisySP/Source/Effects/chorus.h **** 
  71:/Users/dominicfrugoli/Desktop/ProgrammingCode/DaisyCode/DaisyExamples/DaisySP/Source/Effects/chorus.h ****     //triangle lfos
  72:/Users/dominicfrugoli/Desktop/ProgrammingCode/DaisyCode/DaisyExamples/DaisySP/Source/Effects/chorus.h ****     float lfo_phase_;
  73:/Users/dominicfrugoli/Desktop/ProgrammingCode/DaisyCode/DaisyExamples/DaisySP/Source/Effects/chorus.h ****     float lfo_freq_;
  74:/Users/dominicfrugoli/Desktop/ProgrammingCode/DaisyCode/DaisyExamples/DaisySP/Source/Effects/chorus.h ****     float lfo_amp_;
  75:/Users/dominicfrugoli/Desktop/ProgrammingCode/DaisyCode/DaisyExamples/DaisySP/Source/Effects/chorus.h **** 
  76:/Users/dominicfrugoli/Desktop/ProgrammingCode/DaisyCode/DaisyExamples/DaisySP/Source/Effects/chorus.h ****     float feedback_;
  77:/Users/dominicfrugoli/Desktop/ProgrammingCode/DaisyCode/DaisyExamples/DaisySP/Source/Effects/chorus.h **** 
  78:/Users/dominicfrugoli/Desktop/ProgrammingCode/DaisyCode/DaisyExamples/DaisySP/Source/Effects/chorus.h ****     float delay_;
  79:/Users/dominicfrugoli/Desktop/ProgrammingCode/DaisyCode/DaisyExamples/DaisySP/Source/Effects/chorus.h **** 
  80:/Users/dominicfrugoli/Desktop/ProgrammingCode/DaisyCode/DaisyExamples/DaisySP/Source/Effects/chorus.h ****     DelayLine<float, kDelayLength> del_;
  81:/Users/dominicfrugoli/Desktop/ProgrammingCode/DaisyCode/DaisyExamples/DaisySP/Source/Effects/chorus.h **** 
  82:/Users/dominicfrugoli/Desktop/ProgrammingCode/DaisyCode/DaisyExamples/DaisySP/Source/Effects/chorus.h ****     float ProcessLfo();
  83:/Users/dominicfrugoli/Desktop/ProgrammingCode/DaisyCode/DaisyExamples/DaisySP/Source/Effects/chorus.h **** };
  84:/Users/dominicfrugoli/Desktop/ProgrammingCode/DaisyCode/DaisyExamples/DaisySP/Source/Effects/chorus.h **** 
  85:/Users/dominicfrugoli/Desktop/ProgrammingCode/DaisyCode/DaisyExamples/DaisySP/Source/Effects/chorus.h **** //wraps up all of the chorus engines
  86:/Users/dominicfrugoli/Desktop/ProgrammingCode/DaisyCode/DaisyExamples/DaisySP/Source/Effects/chorus.h **** /**  
  87:/Users/dominicfrugoli/Desktop/ProgrammingCode/DaisyCode/DaisyExamples/DaisySP/Source/Effects/chorus.h ****     @brief Chorus Effect.
  88:/Users/dominicfrugoli/Desktop/ProgrammingCode/DaisyCode/DaisyExamples/DaisySP/Source/Effects/chorus.h ****     @author Ben Sergentanis
  89:/Users/dominicfrugoli/Desktop/ProgrammingCode/DaisyCode/DaisyExamples/DaisySP/Source/Effects/chorus.h ****     @date Jan 2021
  90:/Users/dominicfrugoli/Desktop/ProgrammingCode/DaisyCode/DaisyExamples/DaisySP/Source/Effects/chorus.h ****     Based on https://www.izotope.com/en/learn/understanding-chorus-flangers-and-phasers-in-audio-pr
  91:/Users/dominicfrugoli/Desktop/ProgrammingCode/DaisyCode/DaisyExamples/DaisySP/Source/Effects/chorus.h ****     and https://www.researchgate.net/publication/236629475_Implementing_Professional_Audio_Effects_
ARM GAS  /var/folders/m5/x8wc2gdj7z5cpgcqdsb_gkj40000gn/T//cckXFIsJ.s 			page 14


  92:/Users/dominicfrugoli/Desktop/ProgrammingCode/DaisyCode/DaisyExamples/DaisySP/Source/Effects/chorus.h **** */
  93:/Users/dominicfrugoli/Desktop/ProgrammingCode/DaisyCode/DaisyExamples/DaisySP/Source/Effects/chorus.h **** class Chorus
  94:/Users/dominicfrugoli/Desktop/ProgrammingCode/DaisyCode/DaisyExamples/DaisySP/Source/Effects/chorus.h **** {
  95:/Users/dominicfrugoli/Desktop/ProgrammingCode/DaisyCode/DaisyExamples/DaisySP/Source/Effects/chorus.h ****   public:
  96:/Users/dominicfrugoli/Desktop/ProgrammingCode/DaisyCode/DaisyExamples/DaisySP/Source/Effects/chorus.h ****     Chorus() {}
  97:/Users/dominicfrugoli/Desktop/ProgrammingCode/DaisyCode/DaisyExamples/DaisySP/Source/Effects/chorus.h ****     ~Chorus() {}
 179              		.loc 10 97 5 is_stmt 1 view -0
 180              		.cfi_startproc
 181              		@ args = 0, pretend = 0, frame = 0
 182              		@ frame_needed = 0, uses_anonymous_args = 0
 183              		@ link register save eliminated.
 184              		.loc 10 97 16 is_stmt 0 view .LVU21
 185 0000 7047     		bx	lr
 186              		.cfi_endproc
 187              	.LFE4375:
 189              		.weak	_ZN7daisysp6ChorusD1Ev
 190              		.thumb_set _ZN7daisysp6ChorusD1Ev,_ZN7daisysp6ChorusD2Ev
 191 0002 00BF     		.section	.text._ZN7daisysp9OverdriveD2Ev,"axG",%progbits,_ZN7daisysp9OverdriveD5Ev,comdat
 192              		.align	1
 193              		.p2align 2,,3
 194              		.weak	_ZN7daisysp9OverdriveD2Ev
 195              		.syntax unified
 196              		.thumb
 197              		.thumb_func
 199              	_ZN7daisysp9OverdriveD2Ev:
 200              	.LVL6:
 201              	.LFB4395:
 202              		.file 11 "/Users/dominicfrugoli/Desktop/ProgrammingCode/DaisyCode/DaisyExamples/DaisySP/Source/Eff
   1:/Users/dominicfrugoli/Desktop/ProgrammingCode/DaisyCode/DaisyExamples/DaisySP/Source/Effects/overdrive.h **** /*
   2:/Users/dominicfrugoli/Desktop/ProgrammingCode/DaisyCode/DaisyExamples/DaisySP/Source/Effects/overdrive.h **** Copyright (c) 2020 Electrosmith, Corp, Emilie Gillet
   3:/Users/dominicfrugoli/Desktop/ProgrammingCode/DaisyCode/DaisyExamples/DaisySP/Source/Effects/overdrive.h **** 
   4:/Users/dominicfrugoli/Desktop/ProgrammingCode/DaisyCode/DaisyExamples/DaisySP/Source/Effects/overdrive.h **** Use of this source code is governed by an MIT-style
   5:/Users/dominicfrugoli/Desktop/ProgrammingCode/DaisyCode/DaisyExamples/DaisySP/Source/Effects/overdrive.h **** license that can be found in the LICENSE file or at
   6:/Users/dominicfrugoli/Desktop/ProgrammingCode/DaisyCode/DaisyExamples/DaisySP/Source/Effects/overdrive.h **** https://opensource.org/licenses/MIT.
   7:/Users/dominicfrugoli/Desktop/ProgrammingCode/DaisyCode/DaisyExamples/DaisySP/Source/Effects/overdrive.h **** */
   8:/Users/dominicfrugoli/Desktop/ProgrammingCode/DaisyCode/DaisyExamples/DaisySP/Source/Effects/overdrive.h **** 
   9:/Users/dominicfrugoli/Desktop/ProgrammingCode/DaisyCode/DaisyExamples/DaisySP/Source/Effects/overdrive.h **** #pragma once
  10:/Users/dominicfrugoli/Desktop/ProgrammingCode/DaisyCode/DaisyExamples/DaisySP/Source/Effects/overdrive.h **** #ifndef DSY_OVERDRIVE_H
  11:/Users/dominicfrugoli/Desktop/ProgrammingCode/DaisyCode/DaisyExamples/DaisySP/Source/Effects/overdrive.h **** #define DSY_OVERDRIVE_H
  12:/Users/dominicfrugoli/Desktop/ProgrammingCode/DaisyCode/DaisyExamples/DaisySP/Source/Effects/overdrive.h **** 
  13:/Users/dominicfrugoli/Desktop/ProgrammingCode/DaisyCode/DaisyExamples/DaisySP/Source/Effects/overdrive.h **** #include <stdint.h>
  14:/Users/dominicfrugoli/Desktop/ProgrammingCode/DaisyCode/DaisyExamples/DaisySP/Source/Effects/overdrive.h **** #ifdef __cplusplus
  15:/Users/dominicfrugoli/Desktop/ProgrammingCode/DaisyCode/DaisyExamples/DaisySP/Source/Effects/overdrive.h **** 
  16:/Users/dominicfrugoli/Desktop/ProgrammingCode/DaisyCode/DaisyExamples/DaisySP/Source/Effects/overdrive.h **** /** @file overdrive.h */
  17:/Users/dominicfrugoli/Desktop/ProgrammingCode/DaisyCode/DaisyExamples/DaisySP/Source/Effects/overdrive.h **** 
  18:/Users/dominicfrugoli/Desktop/ProgrammingCode/DaisyCode/DaisyExamples/DaisySP/Source/Effects/overdrive.h **** namespace daisysp
  19:/Users/dominicfrugoli/Desktop/ProgrammingCode/DaisyCode/DaisyExamples/DaisySP/Source/Effects/overdrive.h **** {
  20:/Users/dominicfrugoli/Desktop/ProgrammingCode/DaisyCode/DaisyExamples/DaisySP/Source/Effects/overdrive.h **** /**  
  21:/Users/dominicfrugoli/Desktop/ProgrammingCode/DaisyCode/DaisyExamples/DaisySP/Source/Effects/overdrive.h ****        @brief Distortion / Overdrive Module
  22:/Users/dominicfrugoli/Desktop/ProgrammingCode/DaisyCode/DaisyExamples/DaisySP/Source/Effects/overdrive.h ****        @author Ported by Ben Sergentanis 
  23:/Users/dominicfrugoli/Desktop/ProgrammingCode/DaisyCode/DaisyExamples/DaisySP/Source/Effects/overdrive.h ****        @date Jan 2021 
  24:/Users/dominicfrugoli/Desktop/ProgrammingCode/DaisyCode/DaisyExamples/DaisySP/Source/Effects/overdrive.h ****        Ported from pichenettes/eurorack/plaits/dsp/fx/overdrive.h \n
  25:/Users/dominicfrugoli/Desktop/ProgrammingCode/DaisyCode/DaisyExamples/DaisySP/Source/Effects/overdrive.h ****        to an independent module. \n
  26:/Users/dominicfrugoli/Desktop/ProgrammingCode/DaisyCode/DaisyExamples/DaisySP/Source/Effects/overdrive.h ****        Original code written by Emilie Gillet in 2014. \n
  27:/Users/dominicfrugoli/Desktop/ProgrammingCode/DaisyCode/DaisyExamples/DaisySP/Source/Effects/overdrive.h **** */
  28:/Users/dominicfrugoli/Desktop/ProgrammingCode/DaisyCode/DaisyExamples/DaisySP/Source/Effects/overdrive.h **** class Overdrive
  29:/Users/dominicfrugoli/Desktop/ProgrammingCode/DaisyCode/DaisyExamples/DaisySP/Source/Effects/overdrive.h **** {
ARM GAS  /var/folders/m5/x8wc2gdj7z5cpgcqdsb_gkj40000gn/T//cckXFIsJ.s 			page 15


  30:/Users/dominicfrugoli/Desktop/ProgrammingCode/DaisyCode/DaisyExamples/DaisySP/Source/Effects/overdrive.h ****   public:
  31:/Users/dominicfrugoli/Desktop/ProgrammingCode/DaisyCode/DaisyExamples/DaisySP/Source/Effects/overdrive.h ****     Overdrive() {}
  32:/Users/dominicfrugoli/Desktop/ProgrammingCode/DaisyCode/DaisyExamples/DaisySP/Source/Effects/overdrive.h ****     ~Overdrive() {}
 203              		.loc 11 32 5 is_stmt 1 view -0
 204              		.cfi_startproc
 205              		@ args = 0, pretend = 0, frame = 0
 206              		@ frame_needed = 0, uses_anonymous_args = 0
 207              		@ link register save eliminated.
 208              		.loc 11 32 19 is_stmt 0 view .LVU23
 209 0000 7047     		bx	lr
 210              		.cfi_endproc
 211              	.LFE4395:
 213              		.weak	_ZN7daisysp9OverdriveD1Ev
 214              		.thumb_set _ZN7daisysp9OverdriveD1Ev,_ZN7daisysp9OverdriveD2Ev
 215 0002 00BF     		.section	.text._ZN7daisysp7OnePoleD2Ev,"axG",%progbits,_ZN7daisysp7OnePoleD5Ev,comdat
 216              		.align	1
 217              		.p2align 2,,3
 218              		.weak	_ZN7daisysp7OnePoleD2Ev
 219              		.syntax unified
 220              		.thumb
 221              		.thumb_func
 223              	_ZN7daisysp7OnePoleD2Ev:
 224              	.LVL7:
 225              	.LFB4453:
 226              		.file 12 "/Users/dominicfrugoli/Desktop/ProgrammingCode/DaisyCode/DaisyExamples/DaisySP/Source/Fil
   1:/Users/dominicfrugoli/Desktop/ProgrammingCode/DaisyCode/DaisyExamples/DaisySP/Source/Filters/onepole.h **** /*
   2:/Users/dominicfrugoli/Desktop/ProgrammingCode/DaisyCode/DaisyExamples/DaisySP/Source/Filters/onepole.h **** Copyright (c) 2020 Electrosmith, Corp, Emilie Gillet
   3:/Users/dominicfrugoli/Desktop/ProgrammingCode/DaisyCode/DaisyExamples/DaisySP/Source/Filters/onepole.h **** 
   4:/Users/dominicfrugoli/Desktop/ProgrammingCode/DaisyCode/DaisyExamples/DaisySP/Source/Filters/onepole.h **** Use of this source code is governed by an MIT-style
   5:/Users/dominicfrugoli/Desktop/ProgrammingCode/DaisyCode/DaisyExamples/DaisySP/Source/Filters/onepole.h **** license that can be found in the LICENSE file or at
   6:/Users/dominicfrugoli/Desktop/ProgrammingCode/DaisyCode/DaisyExamples/DaisySP/Source/Filters/onepole.h **** https://opensource.org/licenses/MIT.
   7:/Users/dominicfrugoli/Desktop/ProgrammingCode/DaisyCode/DaisyExamples/DaisySP/Source/Filters/onepole.h **** */
   8:/Users/dominicfrugoli/Desktop/ProgrammingCode/DaisyCode/DaisyExamples/DaisySP/Source/Filters/onepole.h **** 
   9:/Users/dominicfrugoli/Desktop/ProgrammingCode/DaisyCode/DaisyExamples/DaisySP/Source/Filters/onepole.h **** #ifndef DSY_ONEPOLE_H
  10:/Users/dominicfrugoli/Desktop/ProgrammingCode/DaisyCode/DaisyExamples/DaisySP/Source/Filters/onepole.h **** #define DSY_ONEPOLE_H
  11:/Users/dominicfrugoli/Desktop/ProgrammingCode/DaisyCode/DaisyExamples/DaisySP/Source/Filters/onepole.h **** 
  12:/Users/dominicfrugoli/Desktop/ProgrammingCode/DaisyCode/DaisyExamples/DaisySP/Source/Filters/onepole.h **** #include "Utility/dsp.h"
  13:/Users/dominicfrugoli/Desktop/ProgrammingCode/DaisyCode/DaisyExamples/DaisySP/Source/Filters/onepole.h **** #include <cmath>
  14:/Users/dominicfrugoli/Desktop/ProgrammingCode/DaisyCode/DaisyExamples/DaisySP/Source/Filters/onepole.h **** #include <algorithm>
  15:/Users/dominicfrugoli/Desktop/ProgrammingCode/DaisyCode/DaisyExamples/DaisySP/Source/Filters/onepole.h **** 
  16:/Users/dominicfrugoli/Desktop/ProgrammingCode/DaisyCode/DaisyExamples/DaisySP/Source/Filters/onepole.h **** namespace daisysp
  17:/Users/dominicfrugoli/Desktop/ProgrammingCode/DaisyCode/DaisyExamples/DaisySP/Source/Filters/onepole.h **** {
  18:/Users/dominicfrugoli/Desktop/ProgrammingCode/DaisyCode/DaisyExamples/DaisySP/Source/Filters/onepole.h **** /**         
  19:/Users/dominicfrugoli/Desktop/ProgrammingCode/DaisyCode/DaisyExamples/DaisySP/Source/Filters/onepole.h ****     @brief One Pole Lowpass / Highpass Filter
  20:/Users/dominicfrugoli/Desktop/ProgrammingCode/DaisyCode/DaisyExamples/DaisySP/Source/Filters/onepole.h ****     @author beserge
  21:/Users/dominicfrugoli/Desktop/ProgrammingCode/DaisyCode/DaisyExamples/DaisySP/Source/Filters/onepole.h ****     @date Dec 2023 
  22:/Users/dominicfrugoli/Desktop/ProgrammingCode/DaisyCode/DaisyExamples/DaisySP/Source/Filters/onepole.h ****     Ported from pichenettes/stmlib/dsp/filter.h \n 
  23:/Users/dominicfrugoli/Desktop/ProgrammingCode/DaisyCode/DaisyExamples/DaisySP/Source/Filters/onepole.h ****     \n to an independent module. \n
  24:/Users/dominicfrugoli/Desktop/ProgrammingCode/DaisyCode/DaisyExamples/DaisySP/Source/Filters/onepole.h ****     Original code written by Emilie Gillet. \n
  25:/Users/dominicfrugoli/Desktop/ProgrammingCode/DaisyCode/DaisyExamples/DaisySP/Source/Filters/onepole.h **** */
  26:/Users/dominicfrugoli/Desktop/ProgrammingCode/DaisyCode/DaisyExamples/DaisySP/Source/Filters/onepole.h **** class OnePole
  27:/Users/dominicfrugoli/Desktop/ProgrammingCode/DaisyCode/DaisyExamples/DaisySP/Source/Filters/onepole.h **** {
  28:/Users/dominicfrugoli/Desktop/ProgrammingCode/DaisyCode/DaisyExamples/DaisySP/Source/Filters/onepole.h ****   public:
  29:/Users/dominicfrugoli/Desktop/ProgrammingCode/DaisyCode/DaisyExamples/DaisySP/Source/Filters/onepole.h ****     OnePole() {}
  30:/Users/dominicfrugoli/Desktop/ProgrammingCode/DaisyCode/DaisyExamples/DaisySP/Source/Filters/onepole.h ****     ~OnePole() {}
 227              		.loc 12 30 5 is_stmt 1 view -0
 228              		.cfi_startproc
ARM GAS  /var/folders/m5/x8wc2gdj7z5cpgcqdsb_gkj40000gn/T//cckXFIsJ.s 			page 16


 229              		@ args = 0, pretend = 0, frame = 0
 230              		@ frame_needed = 0, uses_anonymous_args = 0
 231              		@ link register save eliminated.
 232              		.loc 12 30 17 is_stmt 0 view .LVU25
 233 0000 7047     		bx	lr
 234              		.cfi_endproc
 235              	.LFE4453:
 237              		.weak	_ZN7daisysp7OnePoleD1Ev
 238              		.thumb_set _ZN7daisysp7OnePoleD1Ev,_ZN7daisysp7OnePoleD2Ev
 239 0002 00BF     		.section	.text._Z16AdvanceReadIndexv.part.0,"ax",%progbits
 240              		.align	1
 241              		.p2align 2,,3
 242              		.syntax unified
 243              		.thumb
 244              		.thumb_func
 246              	_Z16AdvanceReadIndexv.part.0:
 247              	.LFB5284:
 248              		.file 13 "sampleengine.h"
   1:sampleengine.h **** // ================================
   2:sampleengine.h **** // COMPANY: Feni Design
   3:sampleengine.h **** // AUTHOR: Dominic Frugoli
   4:sampleengine.h **** // CREATE DATE: 9/15/2024
   5:sampleengine.h **** // PROJECT: Fall 2024 Independent Project
   6:sampleengine.h **** // HEADER FILE FOR USE WITH: "sardinia.cpp"
   7:sampleengine.h **** // SPECIAL NOTES: Code is meant for Electrosmith Daisy microcontroller
   8:sampleengine.h **** // ================================
   9:sampleengine.h **** 
  10:sampleengine.h **** 
  11:sampleengine.h **** using namespace daisy;
  12:sampleengine.h **** using namespace daisy::seed;
  13:sampleengine.h **** using namespace daisysp;
  14:sampleengine.h **** 
  15:sampleengine.h **** 
  16:sampleengine.h **** // |Audio Objects|---------------------------------------------------------------------------------
  17:sampleengine.h **** 
  18:sampleengine.h **** #define MAX_RECORD_SIZE (48000 * 120) // 60 seconds of floats at 48 khz
  19:sampleengine.h **** #define MAX_SPLICE_SIZE (48000 * 20) // 5 seconds of floats at 48 khz
  20:sampleengine.h **** float DSY_SDRAM_BSS recordingBuffer[MAX_RECORD_SIZE];
  21:sampleengine.h **** float DSY_SDRAM_BSS spliceBufferOne[MAX_SPLICE_SIZE];
  22:sampleengine.h **** float DSY_SDRAM_BSS spliceBufferTwo[MAX_SPLICE_SIZE];
  23:sampleengine.h **** float DSY_SDRAM_BSS spliceBufferThree[MAX_SPLICE_SIZE];
  24:sampleengine.h **** float DSY_SDRAM_BSS spliceBufferFour[MAX_SPLICE_SIZE];
  25:sampleengine.h **** 
  26:sampleengine.h **** float readIndex = 0; // index for reading buffer
  27:sampleengine.h **** uint32_t readIndexInt;
  28:sampleengine.h **** float readIndexFraction;
  29:sampleengine.h **** float readFactor = 1; // playback speed
  30:sampleengine.h **** float readPitch;
  31:sampleengine.h **** uint32_t writeIndex = 0; // index for writing into buffer
  32:sampleengine.h **** uint32_t recordingLength = MAX_RECORD_SIZE; // tracks size of sample recording
  33:sampleengine.h **** uint32_t lengthTrack = 0; // for tracking recording size while recording
  34:sampleengine.h **** 
  35:sampleengine.h **** float fullSampleReadIndex = 0.0f;
  36:sampleengine.h **** uint32_t fullSampleReadIndexInt;
  37:sampleengine.h **** float fullSampleReadIndexFraction;
  38:sampleengine.h **** 
  39:sampleengine.h **** uint32_t keyStartIndex[numKeyPads];
ARM GAS  /var/folders/m5/x8wc2gdj7z5cpgcqdsb_gkj40000gn/T//cckXFIsJ.s 			page 17


  40:sampleengine.h **** uint32_t keyStopIndex[numKeyPads];
  41:sampleengine.h **** bool keyStates[numKeyPads];
  42:sampleengine.h **** uint32_t startPoint = 0;
  43:sampleengine.h **** uint32_t stopPoint = MAX_RECORD_SIZE;
  44:sampleengine.h **** int currentKey = 0;
  45:sampleengine.h **** int noteKey = 0;
  46:sampleengine.h **** 
  47:sampleengine.h **** bool isRecording = false;
  48:sampleengine.h **** bool isPlaying = false;
  49:sampleengine.h **** 
  50:sampleengine.h **** float baseFreq = 440.0f;
  51:sampleengine.h **** int currentSpliceBuffer = 1; // Which splice buffer we are currently playing
  52:sampleengine.h **** 
  53:sampleengine.h **** bool SpliceBufferIsPlaying = false;
  54:sampleengine.h **** float spliceBufferReadIndex = 0.0f;
  55:sampleengine.h **** uint32_t spliceBufferReadIndexInt;
  56:sampleengine.h **** float spliceBufferReadIndexFraction;
  57:sampleengine.h **** uint32_t spliceBufferOneLength = MAX_SPLICE_SIZE;
  58:sampleengine.h **** uint32_t spliceBufferTwoLength = MAX_SPLICE_SIZE;
  59:sampleengine.h **** uint32_t spliceBufferThreeLength = MAX_SPLICE_SIZE;
  60:sampleengine.h **** uint32_t spliceBufferFourLength = MAX_SPLICE_SIZE;
  61:sampleengine.h **** 
  62:sampleengine.h **** 
  63:sampleengine.h **** // |Init Functions|--------------------------------------------------------------------------------
  64:sampleengine.h **** 
  65:sampleengine.h **** void InitBuffer();
  66:sampleengine.h **** int FindNextPressedKey(int key);
  67:sampleengine.h **** void RecordSample(float sample);
  68:sampleengine.h **** void ResetReadIndex();
  69:sampleengine.h **** void AdvanceReadIndex();
  70:sampleengine.h **** float GetSample();
  71:sampleengine.h **** float FullSampleGetSample();
  72:sampleengine.h **** void StoreSpliceBuffer(int bufferNum);
  73:sampleengine.h **** bool AnyKeyIsPressed();
  74:sampleengine.h **** void SetKeyIndexs();
  75:sampleengine.h **** uint32_t GetStartPoint();
  76:sampleengine.h **** uint32_t GetStopPoint();
  77:sampleengine.h **** 
  78:sampleengine.h **** void InitBuffer()
  79:sampleengine.h **** {
  80:sampleengine.h ****     readIndex = 0.0f;
  81:sampleengine.h ****     for(uint32_t i = 0; i < MAX_RECORD_SIZE; i++) // initializes buffer to all 0s
  82:sampleengine.h ****     {
  83:sampleengine.h ****         recordingBuffer[i] = 0.0f;
  84:sampleengine.h ****     }
  85:sampleengine.h ****     for (uint32_t i = 0; i < MAX_SPLICE_SIZE; i++)
  86:sampleengine.h ****     {
  87:sampleengine.h ****         spliceBufferOne[i] = 0.0f;
  88:sampleengine.h ****         spliceBufferTwo[i] = 0.0f;
  89:sampleengine.h ****         spliceBufferThree[i] = 0.0f;
  90:sampleengine.h ****         spliceBufferFour[i] = 0.0f;
  91:sampleengine.h ****     }
  92:sampleengine.h **** }
  93:sampleengine.h **** 
  94:sampleengine.h **** void RecordSample(float sample) // Records sample from argument and moves forward write index
  95:sampleengine.h **** {
  96:sampleengine.h ****     recordingBuffer[writeIndex] = sample;
ARM GAS  /var/folders/m5/x8wc2gdj7z5cpgcqdsb_gkj40000gn/T//cckXFIsJ.s 			page 18


  97:sampleengine.h ****     writeIndex++;
  98:sampleengine.h **** }
  99:sampleengine.h **** 
 100:sampleengine.h **** void ResetReadIndex()
 101:sampleengine.h **** {
 102:sampleengine.h ****     readIndex = startPoint;
 103:sampleengine.h **** }
 104:sampleengine.h **** 
 105:sampleengine.h **** void AdvanceReadIndex()
 249              		.loc 13 105 6 is_stmt 1 view -0
 250              		.cfi_startproc
 251              		@ args = 0, pretend = 0, frame = 0
 252              		@ frame_needed = 0, uses_anonymous_args = 0
 253              		@ link register save eliminated.
 106:sampleengine.h **** {
 107:sampleengine.h ****     readIndex += readFactor;
 108:sampleengine.h **** 
 109:sampleengine.h ****     if(readIndex >= stopPoint)
 110:sampleengine.h ****     {
 111:sampleengine.h ****         currentKey = FindNextPressedKey(currentKey);
 254              		.loc 13 111 9 view .LVU27
 105:sampleengine.h **** {
 255              		.loc 13 105 6 is_stmt 0 view .LVU28
 256 0000 30B4     		push	{r4, r5}
 257              		.cfi_def_cfa_offset 8
 258              		.cfi_offset 4, -8
 259              		.cfi_offset 5, -4
 260              		.loc 13 111 40 view .LVU29
 261 0002 114C     		ldr	r4, .L17
 262 0004 2022     		movs	r2, #32
 263 0006 1148     		ldr	r0, .L17+4
 264 0008 2368     		ldr	r3, [r4]
 265              	.LVL8:
 266              	.LBB419:
 267              	.LBI419:
 112:sampleengine.h ****         startPoint = keyStartIndex[currentKey];
 113:sampleengine.h ****         stopPoint = keyStopIndex[currentKey];
 114:sampleengine.h ****         ResetReadIndex();
 115:sampleengine.h ****     }
 116:sampleengine.h **** }
 117:sampleengine.h **** 
 118:sampleengine.h **** float GetSample()
 119:sampleengine.h **** {
 120:sampleengine.h ****     float a, b, out;
 121:sampleengine.h **** 
 122:sampleengine.h ****     readIndexInt = static_cast<int32_t>(readIndex);
 123:sampleengine.h **** 	readIndexFraction = readIndex - readIndexInt;
 124:sampleengine.h **** 
 125:sampleengine.h **** 	a = recordingBuffer[readIndexInt]; // current sample
 126:sampleengine.h **** 	b = recordingBuffer[readIndexInt + 1]; // next sample
 127:sampleengine.h **** 	out = a + (b - a) * readIndexFraction; // Linear Interpolation
 128:sampleengine.h **** 
 129:sampleengine.h ****     return out;
 130:sampleengine.h **** }
 131:sampleengine.h **** 
 132:sampleengine.h **** float FullSampleGetSample()
 133:sampleengine.h **** {
ARM GAS  /var/folders/m5/x8wc2gdj7z5cpgcqdsb_gkj40000gn/T//cckXFIsJ.s 			page 19


 134:sampleengine.h ****     fullSampleReadIndex += readFactor;
 135:sampleengine.h ****     if(fullSampleReadIndex > recordingLength) 
 136:sampleengine.h ****     {
 137:sampleengine.h ****         fullSampleReadIndex = 0;
 138:sampleengine.h ****     }
 139:sampleengine.h **** 
 140:sampleengine.h ****     float a, b, out;
 141:sampleengine.h ****     fullSampleReadIndexInt = static_cast<int32_t>(fullSampleReadIndex);
 142:sampleengine.h ****     fullSampleReadIndexFraction = fullSampleReadIndex - fullSampleReadIndexInt;
 143:sampleengine.h ****     a = recordingBuffer[fullSampleReadIndexInt]; // current sample
 144:sampleengine.h ****     b = recordingBuffer[fullSampleReadIndexInt + 1]; // next sample
 145:sampleengine.h ****     out = a + (b - a) * fullSampleReadIndexFraction; // Linear Interpolation
 146:sampleengine.h **** 
 147:sampleengine.h ****     return out;
 148:sampleengine.h **** }
 149:sampleengine.h **** 
 150:sampleengine.h **** float SpliceBufferGetSample(int currentBuffer, int mode, int keynum)
 151:sampleengine.h **** {
 152:sampleengine.h ****     float a, b, out = 0;
 153:sampleengine.h ****     if(currentBuffer == 1)
 154:sampleengine.h ****     {
 155:sampleengine.h ****         if(mode == 0)
 156:sampleengine.h ****         {
 157:sampleengine.h ****             spliceBufferReadIndex += readFactor;
 158:sampleengine.h ****         }
 159:sampleengine.h ****         else if(mode == 1)
 160:sampleengine.h ****         {
 161:sampleengine.h ****             float playFreq = baseFreq * powf(2.0f, static_cast<float>((keynum-12) / 12.0f));
 162:sampleengine.h ****             float readFactorPitch = playFreq / baseFreq;
 163:sampleengine.h ****             spliceBufferReadIndex += readFactorPitch;
 164:sampleengine.h ****         }
 165:sampleengine.h **** 
 166:sampleengine.h ****         if(spliceBufferReadIndex > spliceBufferOneLength) 
 167:sampleengine.h ****         {
 168:sampleengine.h ****             spliceBufferReadIndex = 0;
 169:sampleengine.h ****         }
 170:sampleengine.h **** 
 171:sampleengine.h ****         spliceBufferReadIndexInt = static_cast<int32_t>(spliceBufferReadIndex);
 172:sampleengine.h ****         spliceBufferReadIndexFraction = spliceBufferReadIndex - spliceBufferReadIndexInt;
 173:sampleengine.h ****         a = spliceBufferOne[spliceBufferReadIndexInt]; // current sample
 174:sampleengine.h ****         b = spliceBufferOne[spliceBufferReadIndexInt + 1]; // next sample
 175:sampleengine.h ****         out = a + (b - a) * spliceBufferReadIndexFraction; // Linear Interpolation
 176:sampleengine.h ****     }
 177:sampleengine.h ****     else if(currentBuffer == 2)
 178:sampleengine.h ****     {
 179:sampleengine.h ****         if(mode == 0)
 180:sampleengine.h ****         {
 181:sampleengine.h ****             spliceBufferReadIndex += readFactor;
 182:sampleengine.h ****         }
 183:sampleengine.h ****         else if(mode == 1)
 184:sampleengine.h ****         {
 185:sampleengine.h ****             float playFreq = baseFreq * powf(2.0f, static_cast<float>(keynum / 12.0f));
 186:sampleengine.h ****             float readFactorPitch = playFreq / baseFreq;
 187:sampleengine.h ****             spliceBufferReadIndex += readFactorPitch;
 188:sampleengine.h ****         }
 189:sampleengine.h **** 
 190:sampleengine.h ****         if(spliceBufferReadIndex > spliceBufferTwoLength) 
ARM GAS  /var/folders/m5/x8wc2gdj7z5cpgcqdsb_gkj40000gn/T//cckXFIsJ.s 			page 20


 191:sampleengine.h ****         {
 192:sampleengine.h ****             spliceBufferReadIndex = 0;
 193:sampleengine.h ****         }
 194:sampleengine.h **** 
 195:sampleengine.h ****         spliceBufferReadIndexInt = static_cast<int32_t>(spliceBufferReadIndex);
 196:sampleengine.h ****         spliceBufferReadIndexFraction = spliceBufferReadIndex - spliceBufferReadIndexInt;
 197:sampleengine.h ****         a = spliceBufferTwo[spliceBufferReadIndexInt]; // current sample
 198:sampleengine.h ****         b = spliceBufferTwo[spliceBufferReadIndexInt + 1]; // next sample
 199:sampleengine.h ****         out = a + (b - a) * spliceBufferReadIndexFraction; // Linear Interpolation
 200:sampleengine.h ****     }
 201:sampleengine.h ****     else if(currentBuffer == 3)
 202:sampleengine.h ****     {
 203:sampleengine.h ****         if(mode == 0)
 204:sampleengine.h ****         {
 205:sampleengine.h ****             spliceBufferReadIndex += readFactor;
 206:sampleengine.h ****         }
 207:sampleengine.h ****         else if(mode == 1)
 208:sampleengine.h ****         {
 209:sampleengine.h ****             float playFreq = baseFreq * powf(2.0f, static_cast<float>(keynum / 12.0f));
 210:sampleengine.h ****             float readFactorPitch = playFreq / baseFreq;
 211:sampleengine.h ****             spliceBufferReadIndex += readFactorPitch;
 212:sampleengine.h ****         }
 213:sampleengine.h **** 
 214:sampleengine.h ****         if(spliceBufferReadIndex > spliceBufferThreeLength) 
 215:sampleengine.h ****         {
 216:sampleengine.h ****             spliceBufferReadIndex = 0;
 217:sampleengine.h ****         }
 218:sampleengine.h **** 
 219:sampleengine.h ****         spliceBufferReadIndexInt = static_cast<int32_t>(spliceBufferReadIndex);
 220:sampleengine.h ****         spliceBufferReadIndexFraction = spliceBufferReadIndex - spliceBufferReadIndexInt;
 221:sampleengine.h ****         a = spliceBufferThree[spliceBufferReadIndexInt]; // current sample
 222:sampleengine.h ****         b = spliceBufferThree[spliceBufferReadIndexInt + 1]; // next sample
 223:sampleengine.h ****         out = a + (b - a) * spliceBufferReadIndexFraction; // Linear Interpolation
 224:sampleengine.h ****     }
 225:sampleengine.h ****     else if(currentBuffer == 4)
 226:sampleengine.h ****     {
 227:sampleengine.h ****         if(mode == 0)
 228:sampleengine.h ****         {
 229:sampleengine.h ****             spliceBufferReadIndex += readFactor;
 230:sampleengine.h ****         }
 231:sampleengine.h ****         else if(mode == 1)
 232:sampleengine.h ****         {
 233:sampleengine.h ****             float playFreq = baseFreq * powf(2.0f, static_cast<float>(keynum / 12.0f));
 234:sampleengine.h ****             float readFactorPitch = playFreq / baseFreq;
 235:sampleengine.h ****             spliceBufferReadIndex += readFactorPitch;
 236:sampleengine.h ****         }
 237:sampleengine.h **** 
 238:sampleengine.h ****         if(spliceBufferReadIndex > spliceBufferFourLength) 
 239:sampleengine.h ****         {
 240:sampleengine.h ****             spliceBufferReadIndex = 0;
 241:sampleengine.h ****         }
 242:sampleengine.h **** 
 243:sampleengine.h ****         spliceBufferReadIndexInt = static_cast<int32_t>(spliceBufferReadIndex);
 244:sampleengine.h ****         spliceBufferReadIndexFraction = spliceBufferReadIndex - spliceBufferReadIndexInt;
 245:sampleengine.h ****         a = spliceBufferFour[spliceBufferReadIndexInt]; // current sample
 246:sampleengine.h ****         b = spliceBufferFour[spliceBufferReadIndexInt + 1]; // next sample
 247:sampleengine.h ****         out = a + (b - a) * spliceBufferReadIndexFraction; // Linear Interpolation
ARM GAS  /var/folders/m5/x8wc2gdj7z5cpgcqdsb_gkj40000gn/T//cckXFIsJ.s 			page 21


 248:sampleengine.h ****     }
 249:sampleengine.h **** 
 250:sampleengine.h ****     return out;
 251:sampleengine.h **** }
 252:sampleengine.h **** 
 253:sampleengine.h **** void StoreSpliceBuffer(int bufferNum)
 254:sampleengine.h **** {
 255:sampleengine.h ****     readIndex = startPoint;
 256:sampleengine.h ****     float startSample = startPoint;
 257:sampleengine.h ****     if(bufferNum == 1)
 258:sampleengine.h ****     {
 259:sampleengine.h ****         for (uint32_t i = 0; i < MAX_SPLICE_SIZE; i++)
 260:sampleengine.h ****         {
 261:sampleengine.h ****             spliceBufferOne[i] = GetSample();
 262:sampleengine.h ****             AdvanceReadIndex();
 263:sampleengine.h ****             if(readIndex == startSample)
 264:sampleengine.h ****             {
 265:sampleengine.h ****                 spliceBufferOneLength = i;
 266:sampleengine.h ****                 break;
 267:sampleengine.h ****             }
 268:sampleengine.h ****         }
 269:sampleengine.h ****     }
 270:sampleengine.h ****     else if(bufferNum == 2)
 271:sampleengine.h ****     {
 272:sampleengine.h ****         for (uint32_t i = 0; i < MAX_SPLICE_SIZE; i++)
 273:sampleengine.h ****         {
 274:sampleengine.h ****             spliceBufferTwo[i] = GetSample();
 275:sampleengine.h ****             AdvanceReadIndex();
 276:sampleengine.h ****             if(readIndex == startSample)
 277:sampleengine.h ****             {
 278:sampleengine.h ****                 spliceBufferTwoLength = i;
 279:sampleengine.h ****                 break;
 280:sampleengine.h ****             }
 281:sampleengine.h ****         }
 282:sampleengine.h ****     }
 283:sampleengine.h ****     else if(bufferNum == 3)
 284:sampleengine.h ****     {
 285:sampleengine.h ****         for (uint32_t i = 0; i < MAX_SPLICE_SIZE; i++)
 286:sampleengine.h ****         {
 287:sampleengine.h ****             spliceBufferThree[i] = GetSample();
 288:sampleengine.h ****             AdvanceReadIndex();
 289:sampleengine.h ****             if(readIndex == startSample)
 290:sampleengine.h ****             {
 291:sampleengine.h ****                 spliceBufferThreeLength = i;
 292:sampleengine.h ****                 break;
 293:sampleengine.h ****             }
 294:sampleengine.h ****         }
 295:sampleengine.h ****     }
 296:sampleengine.h ****     else if(bufferNum == 4)
 297:sampleengine.h ****     {
 298:sampleengine.h ****         for (uint32_t i = 0; i < MAX_SPLICE_SIZE; i++)
 299:sampleengine.h ****         {
 300:sampleengine.h ****             spliceBufferFour[i] = GetSample();
 301:sampleengine.h ****             AdvanceReadIndex();
 302:sampleengine.h ****             if(readIndex == startSample)
 303:sampleengine.h ****             {
 304:sampleengine.h ****                 spliceBufferFourLength = i;
ARM GAS  /var/folders/m5/x8wc2gdj7z5cpgcqdsb_gkj40000gn/T//cckXFIsJ.s 			page 22


 305:sampleengine.h ****                 break;
 306:sampleengine.h ****             }
 307:sampleengine.h ****         }
 308:sampleengine.h ****     }
 309:sampleengine.h ****     readIndex = startPoint;
 310:sampleengine.h **** }
 311:sampleengine.h **** 
 312:sampleengine.h **** bool AnyKeyIsPressed()
 313:sampleengine.h **** {
 314:sampleengine.h ****     for(int i = 0; i < numKeyPads; i++)
 315:sampleengine.h ****     {
 316:sampleengine.h ****         if(keyStates[i])
 317:sampleengine.h ****         {
 318:sampleengine.h ****             return true;
 319:sampleengine.h ****         }
 320:sampleengine.h ****     }
 321:sampleengine.h ****     return false;
 322:sampleengine.h **** }
 323:sampleengine.h **** 
 324:sampleengine.h **** int FindNextPressedKey(int key)
 268              		.loc 13 324 5 is_stmt 1 view .LVU30
 269              	.LBB420:
 270              	.LBB421:
 325:sampleengine.h **** {
 326:sampleengine.h ****     int nextKey = key;
 327:sampleengine.h ****     for(int i = 0; i < numKeyPads; i++)
 271              		.loc 13 327 22 view .LVU31
 272 000a 01E0     		b	.L13
 273              	.LVL9:
 274              	.L16:
 275              		.loc 13 327 22 is_stmt 0 view .LVU32
 276 000c 013A     		subs	r2, r2, #1
 277              	.LVL10:
 278              		.loc 13 327 22 view .LVU33
 279 000e 06D0     		beq	.L12
 280              	.LVL11:
 281              	.L13:
 328:sampleengine.h ****     {
 329:sampleengine.h ****         nextKey++;
 282              		.loc 13 329 9 is_stmt 1 view .LVU34
 327:sampleengine.h ****     {
 283              		.loc 13 327 5 view .LVU35
 284              		.loc 13 329 16 is_stmt 0 view .LVU36
 285 0010 0133     		adds	r3, r3, #1
 286              	.LVL12:
 330:sampleengine.h ****         if(nextKey >= numKeyPads)
 287              		.loc 13 330 9 is_stmt 1 view .LVU37
 331:sampleengine.h ****         {
 332:sampleengine.h ****             nextKey = 0;
 288              		.loc 13 332 21 is_stmt 0 view .LVU38
 289 0012 202B     		cmp	r3, #32
 290 0014 A8BF     		it	ge
 291 0016 0023     		movge	r3, #0
 292              	.LVL13:
 333:sampleengine.h ****         }
 334:sampleengine.h ****         if(keyStates[nextKey])
 293              		.loc 13 334 9 is_stmt 1 view .LVU39
ARM GAS  /var/folders/m5/x8wc2gdj7z5cpgcqdsb_gkj40000gn/T//cckXFIsJ.s 			page 23


 327:sampleengine.h ****     {
 294              		.loc 13 327 22 view .LVU40
 295              		.loc 13 334 9 is_stmt 0 view .LVU41
 296 0018 C15C     		ldrb	r1, [r0, r3]	@ zero_extendqisi2
 297 001a 0029     		cmp	r1, #0
 298 001c F6D0     		beq	.L16
 299              	.LVL14:
 300              	.L12:
 301              		.loc 13 334 9 view .LVU42
 302              	.LBE421:
 335:sampleengine.h ****         {
 336:sampleengine.h ****             break;
 337:sampleengine.h ****         }
 338:sampleengine.h ****     }
 339:sampleengine.h ****     return nextKey;
 303              		.loc 13 339 5 is_stmt 1 view .LVU43
 304              		.loc 13 339 5 is_stmt 0 view .LVU44
 305              	.LBE420:
 306              	.LBE419:
 112:sampleengine.h ****         stopPoint = keyStopIndex[currentKey];
 307              		.loc 13 112 46 view .LVU45
 308 001e 0C4A     		ldr	r2, .L17+8
 113:sampleengine.h ****         ResetReadIndex();
 309              		.loc 13 113 44 view .LVU46
 310 0020 0C48     		ldr	r0, .L17+12
 112:sampleengine.h ****         stopPoint = keyStopIndex[currentKey];
 311              		.loc 13 112 46 view .LVU47
 312 0022 52F82320 		ldr	r2, [r2, r3, lsl #2]
 112:sampleengine.h ****         stopPoint = keyStopIndex[currentKey];
 313              		.loc 13 112 20 view .LVU48
 314 0026 0C4D     		ldr	r5, .L17+16
 315              	.LBB422:
 316              	.LBB423:
 102:sampleengine.h **** }
 317              		.loc 13 102 15 view .LVU49
 318 0028 07EE902A 		vmov	s15, r2	@ int
 319              	.LBE423:
 320              	.LBE422:
 113:sampleengine.h ****         ResetReadIndex();
 321              		.loc 13 113 19 view .LVU50
 322 002c 50F82300 		ldr	r0, [r0, r3, lsl #2]
 111:sampleengine.h ****         startPoint = keyStartIndex[currentKey];
 323              		.loc 13 111 20 view .LVU51
 324 0030 2360     		str	r3, [r4]
 112:sampleengine.h ****         stopPoint = keyStopIndex[currentKey];
 325              		.loc 13 112 9 is_stmt 1 view .LVU52
 326              	.LBB427:
 327              	.LBB424:
 102:sampleengine.h **** }
 328              		.loc 13 102 15 is_stmt 0 view .LVU53
 329 0032 F8EE677A 		vcvt.f32.u32	s15, s15
 330              	.LBE424:
 331              	.LBE427:
 113:sampleengine.h ****         ResetReadIndex();
 332              		.loc 13 113 19 view .LVU54
 333 0036 0949     		ldr	r1, .L17+20
 334              	.LBB428:
ARM GAS  /var/folders/m5/x8wc2gdj7z5cpgcqdsb_gkj40000gn/T//cckXFIsJ.s 			page 24


 335              	.LBB425:
 102:sampleengine.h **** }
 336              		.loc 13 102 15 view .LVU55
 337 0038 094B     		ldr	r3, .L17+24
 338              	.LBE425:
 339              	.LBE428:
 112:sampleengine.h ****         stopPoint = keyStopIndex[currentKey];
 340              		.loc 13 112 20 view .LVU56
 341 003a 2A60     		str	r2, [r5]
 113:sampleengine.h ****         ResetReadIndex();
 342              		.loc 13 113 9 is_stmt 1 view .LVU57
 113:sampleengine.h ****         ResetReadIndex();
 343              		.loc 13 113 19 is_stmt 0 view .LVU58
 344 003c 0860     		str	r0, [r1]
 114:sampleengine.h ****     }
 345              		.loc 13 114 9 is_stmt 1 view .LVU59
 346              	.LBB429:
 347              	.LBI422:
 100:sampleengine.h **** {
 348              		.loc 13 100 6 view .LVU60
 349              	.LBB426:
 102:sampleengine.h **** }
 350              		.loc 13 102 5 view .LVU61
 102:sampleengine.h **** }
 351              		.loc 13 102 15 is_stmt 0 view .LVU62
 352 003e C3ED007A 		vstr.32	s15, [r3]
 353              	.LBE426:
 354              	.LBE429:
 116:sampleengine.h **** 
 355              		.loc 13 116 1 view .LVU63
 356 0042 30BC     		pop	{r4, r5}
 357              		.cfi_restore 5
 358              		.cfi_restore 4
 359              		.cfi_def_cfa_offset 0
 360 0044 7047     		bx	lr
 361              	.L18:
 362 0046 00BF     		.align	2
 363              	.L17:
 364 0048 00000000 		.word	.LANCHOR0
 365 004c 00000000 		.word	.LANCHOR1
 366 0050 00000000 		.word	.LANCHOR2
 367 0054 00000000 		.word	.LANCHOR5
 368 0058 00000000 		.word	.LANCHOR3
 369 005c 00000000 		.word	.LANCHOR4
 370 0060 00000000 		.word	.LANCHOR6
 371              		.cfi_endproc
 372              	.LFE5284:
 374              		.section	.text._Z12InitControlsv,"ax",%progbits
 375              		.align	1
 376              		.p2align 2,,3
 377              		.global	_Z12InitControlsv
 378              		.syntax unified
 379              		.thumb
 380              		.thumb_func
 382              	_Z12InitControlsv:
 383              	.LFB4682:
 384              		.file 14 "hardware.h"
ARM GAS  /var/folders/m5/x8wc2gdj7z5cpgcqdsb_gkj40000gn/T//cckXFIsJ.s 			page 25


   1:hardware.h    **** // ================================
   2:hardware.h    **** // COMPANY: Feni Design
   3:hardware.h    **** // AUTHOR: Dominic Frugoli
   4:hardware.h    **** // CREATE DATE: 8/25/2024
   5:hardware.h    **** // PROJECT: Fall 2024 Independent Project
   6:hardware.h    **** // HEADER FILE FOR USE WITH: "sardinia.cpp"
   7:hardware.h    **** // SPECIAL NOTES: Code is meant for Electrosmith Daisy microcontroller
   8:hardware.h    **** // ================================
   9:hardware.h    **** 
  10:hardware.h    **** 
  11:hardware.h    **** using namespace daisy;
  12:hardware.h    **** using namespace daisy::seed;
  13:hardware.h    **** 
  14:hardware.h    **** 
  15:hardware.h    **** // |Pin Declarations|------------------------------------------------------------------------------
  16:hardware.h    **** // Setting up pin locations for all hardware
  17:hardware.h    **** 
  18:hardware.h    **** #define numKeyPads 32
  19:hardware.h    **** 
  20:hardware.h    **** #define knobMuxPin A0
  21:hardware.h    **** #define keypadMuxPin_Row1 A1
  22:hardware.h    **** #define keypadMuxPin_Row2 A2
  23:hardware.h    **** #define keypadMuxPin_Row3 A3
  24:hardware.h    **** #define keypadMuxPin_Row4 A4
  25:hardware.h    **** #define buttonMuxPin A5 // 0: play, 1: record, 2: ???, 3: ???, 4: ModeOne, 5: ModeTwo, 6: ModeThree
  26:hardware.h    **** 
  27:hardware.h    **** #define muxConPin1 D1
  28:hardware.h    **** #define muxConPin2 D2
  29:hardware.h    **** #define muxConPin3 D3
  30:hardware.h    **** 
  31:hardware.h    **** #define encoderPinA D11
  32:hardware.h    **** #define encoderPinB D10
  33:hardware.h    **** #define encoderPinClick D12
  34:hardware.h    **** 
  35:hardware.h    **** #define playButtonPin D14 
  36:hardware.h    **** #define recButtonPin D13
  37:hardware.h    **** 
  38:hardware.h    **** 
  39:hardware.h    **** // |ADC Config Setup|------------------------------------------------------------------------------
  40:hardware.h    **** // Setting up ADC system for Daisy
  41:hardware.h    **** 
  42:hardware.h    **** enum AdcChannel // Just add knobs before last NUM_ADC_CHANNELS as needed
  43:hardware.h    **** {
  44:hardware.h    **** 	knobMux,
  45:hardware.h    **** 	keypadMuxOne,
  46:hardware.h    **** 	keypadMuxTwo,
  47:hardware.h    **** 	keypadMuxThree,
  48:hardware.h    **** 	keypadMuxFour,
  49:hardware.h    **** 	buttonMux,
  50:hardware.h    **** 	NUM_ADC_CHANNELS // Enum allows for auto tracking the amount
  51:hardware.h    **** };
  52:hardware.h    **** 
  53:hardware.h    **** 
  54:hardware.h    **** // |Hardware Object Instantiations|----------------------------------------------------------------
  55:hardware.h    **** // Instantiating objects for hardware control classes
  56:hardware.h    **** 
  57:hardware.h    **** AdcChannelConfig adcConfig[NUM_ADC_CHANNELS]; // array size for number of ADC channels you need
ARM GAS  /var/folders/m5/x8wc2gdj7z5cpgcqdsb_gkj40000gn/T//cckXFIsJ.s 			page 26


  58:hardware.h    **** 
  59:hardware.h    **** 
  60:hardware.h    **** Encoder encoder;
  61:hardware.h    **** Switch playButton;
  62:hardware.h    **** Switch recButton;
  63:hardware.h    **** 
  64:hardware.h    **** 
  65:hardware.h    **** // |Variable Declarations|-------------------------------------------------------------------------
  66:hardware.h    **** // Variables for all values that need to be stored
  67:hardware.h    **** 
  68:hardware.h    **** 
  69:hardware.h    **** int encoderTurnVal;
  70:hardware.h    **** 
  71:hardware.h    **** // 0: play, 1: record, 2: ???, 3: ???, 4: ModeOne, 5: ModeTwo, 6: ModeThree, 7: ModeFour
  72:hardware.h    **** bool controlButtonStates[8] = {false, false, false, false, false, false, false, false};
  73:hardware.h    **** bool prevControlButtonStates[8] = {false, false, false, false, false, false, false, false};
  74:hardware.h    **** 
  75:hardware.h    **** bool playButtonOverrule; // For when the playing sample off of play button pressed (overrules keypa
  76:hardware.h    **** 
  77:hardware.h    **** 
  78:hardware.h    **** // |Function Declarations|-------------------------------------------------------------------------
  79:hardware.h    **** // Function declarations for any functions needed
  80:hardware.h    **** 
  81:hardware.h    **** void ProcessControlsKR(); // For controls that only need to be processed every audio block
  82:hardware.h    **** void ProcessControlsAR(); // For controls that need to process every sample
  83:hardware.h    **** 
  84:hardware.h    **** void InitControls()
  85:hardware.h    **** {
 385              		.loc 14 85 1 is_stmt 1 view -0
 386              		.cfi_startproc
 387              		@ args = 0, pretend = 0, frame = 128
 388              		@ frame_needed = 0, uses_anonymous_args = 0
  86:hardware.h    **** 	adcConfig[knobMux].InitMux(knobMuxPin, 8, muxConPin1, muxConPin2, muxConPin3);
 389              		.loc 14 86 2 view .LVU65
  85:hardware.h    **** 	adcConfig[knobMux].InitMux(knobMuxPin, 8, muxConPin1, muxConPin2, muxConPin3);
 390              		.loc 14 85 1 is_stmt 0 view .LVU66
 391 0000 2DE9F04F 		push	{r4, r5, r6, r7, r8, r9, r10, fp, lr}
 392              		.cfi_def_cfa_offset 36
 393              		.cfi_offset 4, -36
 394              		.cfi_offset 5, -32
 395              		.cfi_offset 6, -28
 396              		.cfi_offset 7, -24
 397              		.cfi_offset 8, -20
 398              		.cfi_offset 9, -16
 399              		.cfi_offset 10, -12
 400              		.cfi_offset 11, -8
 401              		.cfi_offset 14, -4
 402              		.loc 14 86 28 view .LVU67
 403 0004 0224     		movs	r4, #2
  85:hardware.h    **** 	adcConfig[knobMux].InitMux(knobMuxPin, 8, muxConPin1, muxConPin2, muxConPin3);
 404              		.loc 14 85 1 view .LVU68
 405 0006 A5B0     		sub	sp, sp, #148
 406              		.cfi_def_cfa_offset 184
 407              		.loc 14 86 28 view .LVU69
 408 0008 0926     		movs	r6, #9
 409 000a 4FF00A09 		mov	r9, #10
 410 000e 8DF82840 		strb	r4, [sp, #40]
ARM GAS  /var/folders/m5/x8wc2gdj7z5cpgcqdsb_gkj40000gn/T//cckXFIsJ.s 			page 27


 411 0012 4FF00B08 		mov	r8, #11
 412 0016 8DF82960 		strb	r6, [sp, #41]
 413 001a 4FF0000A 		mov	r10, #0
 414 001e BDF82830 		ldrh	r3, [sp, #40]
 415 0022 0822     		movs	r2, #8
 416 0024 764F     		ldr	r7, .L21
  87:hardware.h    **** 	adcConfig[keypadMuxOne].InitMux(keypadMuxPin_Row1, 8, muxConPin1, muxConPin2, muxConPin3);
  88:hardware.h    **** 	adcConfig[keypadMuxTwo].InitMux(keypadMuxPin_Row2, 8, muxConPin1, muxConPin2, muxConPin3);
 417              		.loc 14 88 33 view .LVU70
 418 0026 0125     		movs	r5, #1
  86:hardware.h    **** 	adcConfig[keypadMuxOne].InitMux(keypadMuxPin_Row1, 8, muxConPin1, muxConPin2, muxConPin3);
 419              		.loc 14 86 28 view .LVU71
 420 0028 8DF82440 		strb	r4, [sp, #36]
  89:hardware.h    **** 	adcConfig[keypadMuxThree].InitMux(keypadMuxPin_Row3, 8, muxConPin1, muxConPin2, muxConPin3);
 421              		.loc 14 89 35 view .LVU72
 422 002c 4FF0070B 		mov	fp, #7
  86:hardware.h    **** 	adcConfig[keypadMuxOne].InitMux(keypadMuxPin_Row1, 8, muxConPin1, muxConPin2, muxConPin3);
 423              		.loc 14 86 28 view .LVU73
 424 0030 8DF82590 		strb	r9, [sp, #37]
 425 0034 3846     		mov	r0, r7
 426 0036 ADF80430 		strh	r3, [sp, #4]	@ movhi
 427 003a BDF82430 		ldrh	r3, [sp, #36]
 428 003e 8DF81DA0 		strb	r10, [sp, #29]
 429 0042 8DF81C40 		strb	r4, [sp, #28]
 430 0046 8DF82040 		strb	r4, [sp, #32]
 431 004a 8DF82180 		strb	r8, [sp, #33]
 432 004e 0799     		ldr	r1, [sp, #28]
 433 0050 ADF80030 		strh	r3, [sp]	@ movhi
 434 0054 0294     		str	r4, [sp, #8]
 435 0056 089B     		ldr	r3, [sp, #32]
 436 0058 FFF7FEFF 		bl	_ZN5daisy16AdcChannelConfig7InitMuxE12dsy_gpio_pinjS1_S1_S1_NS0_15ConversionSpeedE
 437              	.LVL15:
  87:hardware.h    **** 	adcConfig[keypadMuxOne].InitMux(keypadMuxPin_Row1, 8, muxConPin1, muxConPin2, muxConPin3);
 438              		.loc 14 87 2 is_stmt 1 view .LVU74
  87:hardware.h    **** 	adcConfig[keypadMuxOne].InitMux(keypadMuxPin_Row1, 8, muxConPin1, muxConPin2, muxConPin3);
 439              		.loc 14 87 33 is_stmt 0 view .LVU75
 440 005c 0323     		movs	r3, #3
 441 005e 8DF83840 		strb	r4, [sp, #56]
 442 0062 07F11200 		add	r0, r7, #18
 443 0066 8DF82D30 		strb	r3, [sp, #45]
 444 006a 0822     		movs	r2, #8
 445 006c 8DF83960 		strb	r6, [sp, #57]
 446 0070 BDF83830 		ldrh	r3, [sp, #56]
 447 0074 8DF83440 		strb	r4, [sp, #52]
 448 0078 8DF83590 		strb	r9, [sp, #53]
 449 007c ADF80430 		strh	r3, [sp, #4]	@ movhi
 450 0080 BDF83430 		ldrh	r3, [sp, #52]
 451 0084 8DF82CA0 		strb	r10, [sp, #44]
 452 0088 8DF83040 		strb	r4, [sp, #48]
 453 008c 8DF83180 		strb	r8, [sp, #49]
 454 0090 0B99     		ldr	r1, [sp, #44]
 455 0092 ADF80030 		strh	r3, [sp]	@ movhi
 456 0096 0294     		str	r4, [sp, #8]
 457 0098 0C9B     		ldr	r3, [sp, #48]
 458 009a FFF7FEFF 		bl	_ZN5daisy16AdcChannelConfig7InitMuxE12dsy_gpio_pinjS1_S1_S1_NS0_15ConversionSpeedE
 459              	.LVL16:
  88:hardware.h    **** 	adcConfig[keypadMuxThree].InitMux(keypadMuxPin_Row3, 8, muxConPin1, muxConPin2, muxConPin3);
ARM GAS  /var/folders/m5/x8wc2gdj7z5cpgcqdsb_gkj40000gn/T//cckXFIsJ.s 			page 28


 460              		.loc 14 88 2 is_stmt 1 view .LVU76
  88:hardware.h    **** 	adcConfig[keypadMuxThree].InitMux(keypadMuxPin_Row3, 8, muxConPin1, muxConPin2, muxConPin3);
 461              		.loc 14 88 33 is_stmt 0 view .LVU77
 462 009e 8DF84840 		strb	r4, [sp, #72]
 463 00a2 8DF84960 		strb	r6, [sp, #73]
 464 00a6 07F12400 		add	r0, r7, #36
 465 00aa BDF84830 		ldrh	r3, [sp, #72]
 466 00ae 0822     		movs	r2, #8
 467 00b0 8DF84440 		strb	r4, [sp, #68]
 468 00b4 8DF84590 		strb	r9, [sp, #69]
 469 00b8 ADF80430 		strh	r3, [sp, #4]	@ movhi
 470 00bc BDF84430 		ldrh	r3, [sp, #68]
 471 00c0 8DF84040 		strb	r4, [sp, #64]
 472 00c4 8DF84180 		strb	r8, [sp, #65]
 473 00c8 8DF83C50 		strb	r5, [sp, #60]
 474 00cc 8DF83D50 		strb	r5, [sp, #61]
 475 00d0 0F99     		ldr	r1, [sp, #60]
 476 00d2 ADF80030 		strh	r3, [sp]	@ movhi
 477 00d6 0294     		str	r4, [sp, #8]
 478 00d8 109B     		ldr	r3, [sp, #64]
 479 00da FFF7FEFF 		bl	_ZN5daisy16AdcChannelConfig7InitMuxE12dsy_gpio_pinjS1_S1_S1_NS0_15ConversionSpeedE
 480              	.LVL17:
 481              		.loc 14 89 2 is_stmt 1 view .LVU78
 482              		.loc 14 89 35 is_stmt 0 view .LVU79
 483 00de 8DF85840 		strb	r4, [sp, #88]
 484 00e2 8DF85960 		strb	r6, [sp, #89]
 485 00e6 07F13600 		add	r0, r7, #54
 486 00ea BDF85830 		ldrh	r3, [sp, #88]
 487 00ee 0822     		movs	r2, #8
 488 00f0 8DF85440 		strb	r4, [sp, #84]
 489 00f4 8DF85590 		strb	r9, [sp, #85]
 490 00f8 ADF80430 		strh	r3, [sp, #4]	@ movhi
 491 00fc BDF85430 		ldrh	r3, [sp, #84]
 492 0100 8DF84CA0 		strb	r10, [sp, #76]
 493 0104 8DF85040 		strb	r4, [sp, #80]
 494 0108 8DF85180 		strb	r8, [sp, #81]
 495 010c 8DF84DB0 		strb	fp, [sp, #77]
 496 0110 1399     		ldr	r1, [sp, #76]
 497 0112 ADF80030 		strh	r3, [sp]	@ movhi
 498 0116 0294     		str	r4, [sp, #8]
 499 0118 149B     		ldr	r3, [sp, #80]
 500 011a FFF7FEFF 		bl	_ZN5daisy16AdcChannelConfig7InitMuxE12dsy_gpio_pinjS1_S1_S1_NS0_15ConversionSpeedE
 501              	.LVL18:
  90:hardware.h    **** 	adcConfig[keypadMuxFour].InitMux(keypadMuxPin_Row4, 8, muxConPin1, muxConPin2, muxConPin3);
 502              		.loc 14 90 2 is_stmt 1 view .LVU80
 503              		.loc 14 90 34 is_stmt 0 view .LVU81
 504 011e 8DF86840 		strb	r4, [sp, #104]
 505 0122 8DF86960 		strb	r6, [sp, #105]
 506 0126 07F14800 		add	r0, r7, #72
 507 012a BDF86830 		ldrh	r3, [sp, #104]
 508 012e 0822     		movs	r2, #8
 509 0130 8DF85CA0 		strb	r10, [sp, #92]
 510 0134 4FF0060A 		mov	r10, #6
 511 0138 8DF86440 		strb	r4, [sp, #100]
 512 013c 8DF86590 		strb	r9, [sp, #101]
 513 0140 ADF80430 		strh	r3, [sp, #4]	@ movhi
 514 0144 BDF86430 		ldrh	r3, [sp, #100]
ARM GAS  /var/folders/m5/x8wc2gdj7z5cpgcqdsb_gkj40000gn/T//cckXFIsJ.s 			page 29


 515 0148 8DF86040 		strb	r4, [sp, #96]
 516 014c 8DF86180 		strb	r8, [sp, #97]
 517 0150 8DF85DA0 		strb	r10, [sp, #93]
 518 0154 1799     		ldr	r1, [sp, #92]
 519 0156 ADF80030 		strh	r3, [sp]	@ movhi
 520 015a 0294     		str	r4, [sp, #8]
 521 015c 189B     		ldr	r3, [sp, #96]
 522 015e FFF7FEFF 		bl	_ZN5daisy16AdcChannelConfig7InitMuxE12dsy_gpio_pinjS1_S1_S1_NS0_15ConversionSpeedE
 523              	.LVL19:
  91:hardware.h    **** 	adcConfig[buttonMux].InitMux(buttonMuxPin, 8, muxConPin1, muxConPin2, muxConPin3);
 524              		.loc 14 91 2 is_stmt 1 view .LVU82
 525              		.loc 14 91 30 is_stmt 0 view .LVU83
 526 0162 8DF87840 		strb	r4, [sp, #120]
 527 0166 8DF87960 		strb	r6, [sp, #121]
 528 016a 0822     		movs	r2, #8
 529 016c BDF87830 		ldrh	r3, [sp, #120]
 530 0170 07F15A00 		add	r0, r7, #90
 531 0174 8DF87590 		strb	r9, [sp, #117]
 532 0178 8DF87440 		strb	r4, [sp, #116]
 533 017c ADF80430 		strh	r3, [sp, #4]	@ movhi
 534 0180 BDF87430 		ldrh	r3, [sp, #116]
 535 0184 8DF87180 		strb	r8, [sp, #113]
 536 0188 8DF86C40 		strb	r4, [sp, #108]
 537 018c 8DF86D50 		strb	r5, [sp, #109]
 538 0190 8DF87040 		strb	r4, [sp, #112]
 539 0194 1B99     		ldr	r1, [sp, #108]
 540 0196 ADF80030 		strh	r3, [sp]	@ movhi
 541 019a 0294     		str	r4, [sp, #8]
 542 019c 1C9B     		ldr	r3, [sp, #112]
 543 019e FFF7FEFF 		bl	_ZN5daisy16AdcChannelConfig7InitMuxE12dsy_gpio_pinjS1_S1_S1_NS0_15ConversionSpeedE
 544              	.LVL20:
  92:hardware.h    **** 
  93:hardware.h    **** 	playButton.Init(playButtonPin, 1000.0f);
 545              		.loc 14 93 2 is_stmt 1 view .LVU84
 546              		.loc 14 93 17 is_stmt 0 view .LVU85
 547 01a2 9FED180A 		vldr.32	s0, .L21+4
 548 01a6 8DF87C50 		strb	r5, [sp, #124]
 549 01aa 8DF87DB0 		strb	fp, [sp, #125]
 550 01ae 1F99     		ldr	r1, [sp, #124]
 551 01b0 1548     		ldr	r0, .L21+8
 552 01b2 8DED050A 		vstr.32	s0, [sp, #20]	@ int
 553 01b6 FFF7FEFF 		bl	_ZN5daisy6Switch4InitE12dsy_gpio_pinf
 554              	.LVL21:
  94:hardware.h    **** 	recButton.Init(recButtonPin, 1000.0f);
 555              		.loc 14 94 2 is_stmt 1 view .LVU86
 556              		.loc 14 94 16 is_stmt 0 view .LVU87
 557 01ba 8DF88050 		strb	r5, [sp, #128]
 558 01be 8DF881A0 		strb	r10, [sp, #129]
 559 01c2 9DED050A 		vldr.32	s0, [sp, #20]	@ int
 560 01c6 2099     		ldr	r1, [sp, #128]
 561 01c8 1048     		ldr	r0, .L21+12
 562 01ca FFF7FEFF 		bl	_ZN5daisy6Switch4InitE12dsy_gpio_pinf
 563              	.LVL22:
  95:hardware.h    **** 	encoder.Init(encoderPinA, encoderPinB, encoderPinClick);
 564              		.loc 14 95 2 is_stmt 1 view .LVU88
 565              		.loc 14 95 14 is_stmt 0 view .LVU89
 566 01ce 0822     		movs	r2, #8
ARM GAS  /var/folders/m5/x8wc2gdj7z5cpgcqdsb_gkj40000gn/T//cckXFIsJ.s 			page 30


 567 01d0 0523     		movs	r3, #5
 568 01d2 8DF88450 		strb	r5, [sp, #132]
 569 01d6 8DF88520 		strb	r2, [sp, #133]
 570 01da 8DF88850 		strb	r5, [sp, #136]
 571 01de 8DF88930 		strb	r3, [sp, #137]
 572 01e2 8DF88C50 		strb	r5, [sp, #140]
 573 01e6 8DF88D60 		strb	r6, [sp, #141]
 574 01ea 9FED090A 		vldr.32	s0, .L21+16
 575 01ee 2199     		ldr	r1, [sp, #132]
 576 01f0 0848     		ldr	r0, .L21+20
 577 01f2 DDE92223 		ldrd	r2, r3, [sp, #136]
  96:hardware.h    **** 
  97:hardware.h    **** }
 578              		.loc 14 97 1 view .LVU90
 579 01f6 25B0     		add	sp, sp, #148
 580              		.cfi_def_cfa_offset 36
 581              		@ sp needed
 582 01f8 BDE8F04F 		pop	{r4, r5, r6, r7, r8, r9, r10, fp, lr}
 583              		.cfi_restore 14
 584              		.cfi_restore 11
 585              		.cfi_restore 10
 586              		.cfi_restore 9
 587              		.cfi_restore 8
 588              		.cfi_restore 7
 589              		.cfi_restore 6
 590              		.cfi_restore 5
 591              		.cfi_restore 4
 592              		.cfi_def_cfa_offset 0
  95:hardware.h    **** 	encoder.Init(encoderPinA, encoderPinB, encoderPinClick);
 593              		.loc 14 95 14 view .LVU91
 594 01fc FFF7FEBF 		b	_ZN5daisy7Encoder4InitE12dsy_gpio_pinS1_S1_f
 595              	.LVL23:
 596              	.L22:
 597              		.align	2
 598              	.L21:
 599 0200 00000000 		.word	.LANCHOR7
 600 0204 00007A44 		.word	1148846080
 601 0208 00000000 		.word	.LANCHOR8
 602 020c 00000000 		.word	.LANCHOR9
 603 0210 00000000 		.word	0
 604 0214 00000000 		.word	.LANCHOR10
 605              		.cfi_endproc
 606              	.LFE4682:
 608              		.section	.text._Z10RisingEdgebb,"ax",%progbits
 609              		.align	1
 610              		.p2align 2,,3
 611              		.global	_Z10RisingEdgebb
 612              		.syntax unified
 613              		.thumb
 614              		.thumb_func
 616              	_Z10RisingEdgebb:
 617              	.LVL24:
 618              	.LFB4683:
  98:hardware.h    **** 
  99:hardware.h    **** bool RisingEdge(bool buttonState, bool previousButtonState)
 100:hardware.h    **** {
 619              		.loc 14 100 1 is_stmt 1 view -0
ARM GAS  /var/folders/m5/x8wc2gdj7z5cpgcqdsb_gkj40000gn/T//cckXFIsJ.s 			page 31


 620              		.cfi_startproc
 621              		@ args = 0, pretend = 0, frame = 0
 622              		@ frame_needed = 0, uses_anonymous_args = 0
 623              		@ link register save eliminated.
 101:hardware.h    **** 	if(buttonState == true && previousButtonState == false)
 624              		.loc 14 101 2 view .LVU93
 625              		.loc 14 101 25 is_stmt 0 view .LVU94
 626 0000 81F00101 		eor	r1, r1, #1
 627              	.LVL25:
 102:hardware.h    **** 	{
 103:hardware.h    **** 		return true;
 104:hardware.h    **** 	}
 105:hardware.h    **** 	else
 106:hardware.h    **** 	{
 107:hardware.h    **** 		return false;
 108:hardware.h    **** 	}
 109:hardware.h    **** }
 628              		.loc 14 109 1 view .LVU95
 629 0004 0840     		ands	r0, r0, r1
 630              	.LVL26:
 631              		.loc 14 109 1 view .LVU96
 632 0006 7047     		bx	lr
 633              		.cfi_endproc
 634              	.LFE4683:
 636              		.section	.text._Z11FallingEdgebb,"ax",%progbits
 637              		.align	1
 638              		.p2align 2,,3
 639              		.global	_Z11FallingEdgebb
 640              		.syntax unified
 641              		.thumb
 642              		.thumb_func
 644              	_Z11FallingEdgebb:
 645              	.LVL27:
 646              	.LFB4684:
 110:hardware.h    **** 
 111:hardware.h    **** bool FallingEdge(bool buttonState, bool previousButtonState)
 112:hardware.h    **** {
 647              		.loc 14 112 1 is_stmt 1 view -0
 648              		.cfi_startproc
 649              		@ args = 0, pretend = 0, frame = 0
 650              		@ frame_needed = 0, uses_anonymous_args = 0
 651              		@ link register save eliminated.
 113:hardware.h    **** 	if(buttonState == false && previousButtonState == true)
 652              		.loc 14 113 2 view .LVU98
 653 0000 80F00100 		eor	r0, r0, #1
 654              	.LVL28:
 114:hardware.h    **** 	{
 115:hardware.h    **** 		return true;
 116:hardware.h    **** 	}
 117:hardware.h    **** 	else
 118:hardware.h    **** 	{
 119:hardware.h    **** 		return false;
 120:hardware.h    **** 	}
 121:hardware.h    **** }
 655              		.loc 14 121 1 is_stmt 0 view .LVU99
 656 0004 0840     		ands	r0, r0, r1
 657 0006 7047     		bx	lr
ARM GAS  /var/folders/m5/x8wc2gdj7z5cpgcqdsb_gkj40000gn/T//cckXFIsJ.s 			page 32


 658              		.cfi_endproc
 659              	.LFE4684:
 661              		.section	.text._Z25RisingEdge_ControlButtonsi,"ax",%progbits
 662              		.align	1
 663              		.p2align 2,,3
 664              		.global	_Z25RisingEdge_ControlButtonsi
 665              		.syntax unified
 666              		.thumb
 667              		.thumb_func
 669              	_Z25RisingEdge_ControlButtonsi:
 670              	.LVL29:
 671              	.LFB4685:
 122:hardware.h    **** 
 123:hardware.h    **** bool RisingEdge_ControlButtons(int buttonNum)
 124:hardware.h    **** {
 672              		.loc 14 124 1 is_stmt 1 view -0
 673              		.cfi_startproc
 674              		@ args = 0, pretend = 0, frame = 0
 675              		@ frame_needed = 0, uses_anonymous_args = 0
 676              		@ link register save eliminated.
 125:hardware.h    **** 	if(controlButtonStates[buttonNum] == true && prevControlButtonStates[buttonNum] == false)
 677              		.loc 14 125 2 view .LVU101
 678              		.loc 14 125 34 is_stmt 0 view .LVU102
 679 0000 044A     		ldr	r2, .L30
 124:hardware.h    **** 	if(controlButtonStates[buttonNum] == true && prevControlButtonStates[buttonNum] == false)
 680              		.loc 14 124 1 view .LVU103
 681 0002 0346     		mov	r3, r0
 682              		.loc 14 125 34 view .LVU104
 683 0004 105C     		ldrb	r0, [r2, r0]	@ zero_extendqisi2
 684              	.LVL30:
 685              		.loc 14 125 2 view .LVU105
 686 0006 18B1     		cbz	r0, .L26
 687              		.loc 14 125 80 discriminator 1 view .LVU106
 688 0008 034A     		ldr	r2, .L30+4
 689              		.loc 14 125 44 discriminator 1 view .LVU107
 690 000a D05C     		ldrb	r0, [r2, r3]	@ zero_extendqisi2
 691 000c 80F00100 		eor	r0, r0, #1
 692              	.L26:
 126:hardware.h    **** 	{
 127:hardware.h    **** 		return true;
 128:hardware.h    **** 	}
 129:hardware.h    **** 	else
 130:hardware.h    **** 	{
 131:hardware.h    **** 		return false;
 132:hardware.h    **** 	}
 133:hardware.h    **** }
 693              		.loc 14 133 1 view .LVU108
 694 0010 7047     		bx	lr
 695              	.L31:
 696 0012 00BF     		.align	2
 697              	.L30:
 698 0014 00000000 		.word	.LANCHOR11
 699 0018 00000000 		.word	.LANCHOR12
 700              		.cfi_endproc
 701              	.LFE4685:
 703              		.section	.text._Z26FallingEdge_ControlButtonsi,"ax",%progbits
 704              		.align	1
ARM GAS  /var/folders/m5/x8wc2gdj7z5cpgcqdsb_gkj40000gn/T//cckXFIsJ.s 			page 33


 705              		.p2align 2,,3
 706              		.global	_Z26FallingEdge_ControlButtonsi
 707              		.syntax unified
 708              		.thumb
 709              		.thumb_func
 711              	_Z26FallingEdge_ControlButtonsi:
 712              	.LVL31:
 713              	.LFB4686:
 134:hardware.h    **** 
 135:hardware.h    **** bool FallingEdge_ControlButtons(int buttonNum)
 136:hardware.h    **** {
 714              		.loc 14 136 1 is_stmt 1 view -0
 715              		.cfi_startproc
 716              		@ args = 0, pretend = 0, frame = 0
 717              		@ frame_needed = 0, uses_anonymous_args = 0
 718              		@ link register save eliminated.
 137:hardware.h    **** 	if(controlButtonStates[buttonNum] == false && prevControlButtonStates[buttonNum] == true)
 719              		.loc 14 137 2 view .LVU110
 720              		.loc 14 137 34 is_stmt 0 view .LVU111
 721 0000 034B     		ldr	r3, .L35
 722              		.loc 14 137 2 view .LVU112
 723 0002 1B5C     		ldrb	r3, [r3, r0]	@ zero_extendqisi2
 724 0004 13B9     		cbnz	r3, .L34
 725              		.loc 14 137 81 discriminator 1 view .LVU113
 726 0006 034B     		ldr	r3, .L35+4
 727 0008 185C     		ldrb	r0, [r3, r0]	@ zero_extendqisi2
 728              	.LVL32:
 729              		.loc 14 137 81 discriminator 1 view .LVU114
 730 000a 7047     		bx	lr
 731              	.LVL33:
 732              	.L34:
 138:hardware.h    **** 	{
 139:hardware.h    **** 		return true;
 140:hardware.h    **** 	}
 141:hardware.h    **** 	else
 142:hardware.h    **** 	{
 143:hardware.h    **** 		return false;
 733              		.loc 14 143 10 view .LVU115
 734 000c 0020     		movs	r0, #0
 735              	.LVL34:
 144:hardware.h    **** 	}
 145:hardware.h    **** }
 736              		.loc 14 145 1 view .LVU116
 737 000e 7047     		bx	lr
 738              	.L36:
 739              		.align	2
 740              	.L35:
 741 0010 00000000 		.word	.LANCHOR11
 742 0014 00000000 		.word	.LANCHOR12
 743              		.cfi_endproc
 744              	.LFE4686:
 746              		.section	.text._Z13EncoderTurnedv,"ax",%progbits
 747              		.align	1
 748              		.p2align 2,,3
 749              		.global	_Z13EncoderTurnedv
 750              		.syntax unified
 751              		.thumb
ARM GAS  /var/folders/m5/x8wc2gdj7z5cpgcqdsb_gkj40000gn/T//cckXFIsJ.s 			page 34


 752              		.thumb_func
 754              	_Z13EncoderTurnedv:
 755              	.LFB4687:
 146:hardware.h    **** 
 147:hardware.h    **** bool EncoderTurned()
 148:hardware.h    **** {
 756              		.loc 14 148 1 is_stmt 1 view -0
 757              		.cfi_startproc
 758              		@ args = 0, pretend = 0, frame = 0
 759              		@ frame_needed = 0, uses_anonymous_args = 0
 760              		@ link register save eliminated.
 149:hardware.h    **** 	float encoderInc = encoder.Increment();
 761              		.loc 14 149 2 view .LVU118
 762              	.LVL35:
 763              	.LBB430:
 764              	.LBI430:
  22:/Users/dominicfrugoli/Desktop/ProgrammingCode/DaisyCode/DaisyExamples/libDaisy/src/hid/encoder.h **** 
  23:/Users/dominicfrugoli/Desktop/ProgrammingCode/DaisyCode/DaisyExamples/libDaisy/src/hid/encoder.h ****     /** Initializes the encoder with the specified hardware pins.
  24:/Users/dominicfrugoli/Desktop/ProgrammingCode/DaisyCode/DaisyExamples/libDaisy/src/hid/encoder.h ****      * Update rate is to be deprecated in a future release
  25:/Users/dominicfrugoli/Desktop/ProgrammingCode/DaisyCode/DaisyExamples/libDaisy/src/hid/encoder.h ****      */
  26:/Users/dominicfrugoli/Desktop/ProgrammingCode/DaisyCode/DaisyExamples/libDaisy/src/hid/encoder.h ****     void Init(dsy_gpio_pin a,
  27:/Users/dominicfrugoli/Desktop/ProgrammingCode/DaisyCode/DaisyExamples/libDaisy/src/hid/encoder.h ****               dsy_gpio_pin b,
  28:/Users/dominicfrugoli/Desktop/ProgrammingCode/DaisyCode/DaisyExamples/libDaisy/src/hid/encoder.h ****               dsy_gpio_pin click,
  29:/Users/dominicfrugoli/Desktop/ProgrammingCode/DaisyCode/DaisyExamples/libDaisy/src/hid/encoder.h ****               float        update_rate = 0.f);
  30:/Users/dominicfrugoli/Desktop/ProgrammingCode/DaisyCode/DaisyExamples/libDaisy/src/hid/encoder.h ****     /** Called at update_rate to debounce and handle timing for the switch.
  31:/Users/dominicfrugoli/Desktop/ProgrammingCode/DaisyCode/DaisyExamples/libDaisy/src/hid/encoder.h ****      * In order for events not to be missed, its important that the Edge/Pressed checks be made at 
  32:/Users/dominicfrugoli/Desktop/ProgrammingCode/DaisyCode/DaisyExamples/libDaisy/src/hid/encoder.h ****      */
  33:/Users/dominicfrugoli/Desktop/ProgrammingCode/DaisyCode/DaisyExamples/libDaisy/src/hid/encoder.h ****     void Debounce();
  34:/Users/dominicfrugoli/Desktop/ProgrammingCode/DaisyCode/DaisyExamples/libDaisy/src/hid/encoder.h **** 
  35:/Users/dominicfrugoli/Desktop/ProgrammingCode/DaisyCode/DaisyExamples/libDaisy/src/hid/encoder.h ****     /** Returns +1 if the encoder was turned clockwise, -1 if it was turned counter-clockwise, or 0
  36:/Users/dominicfrugoli/Desktop/ProgrammingCode/DaisyCode/DaisyExamples/libDaisy/src/hid/encoder.h ****     inline int32_t Increment() const { return updated_ ? inc_ : 0; }
 765              		.loc 2 36 20 view .LVU119
 766              	.LBB431:
 767              		.loc 2 36 40 view .LVU120
 768              		.loc 2 36 47 is_stmt 0 view .LVU121
 769 0000 074B     		ldr	r3, .L42
 770 0002 1879     		ldrb	r0, [r3, #4]	@ zero_extendqisi2
 771              		.loc 2 36 56 view .LVU122
 772 0004 50B1     		cbz	r0, .L38
 773              	.LVL36:
 774              		.loc 2 36 56 view .LVU123
 775              	.LBE431:
 776              	.LBE430:
 150:hardware.h    **** 	if(encoderInc != 0)
 777              		.loc 14 150 2 is_stmt 1 view .LVU124
 149:hardware.h    **** 	float encoderInc = encoder.Increment();
 778              		.loc 14 149 39 is_stmt 0 view .LVU125
 779 0006 D3ED097A 		vldr.32	s15, [r3, #36]	@ int
 780 000a F8EEE77A 		vcvt.f32.s32	s15, s15
 781              	.LVL37:
 782              		.loc 14 150 2 view .LVU126
 783 000e F5EE407A 		vcmp.f32	s15, #0
 784 0012 F1EE10FA 		vmrs	APSR_nzcv, FPSCR
 785 0016 14BF     		ite	ne
 786 0018 0120     		movne	r0, #1
 787 001a 0020     		moveq	r0, #0
 788              	.LVL38:
ARM GAS  /var/folders/m5/x8wc2gdj7z5cpgcqdsb_gkj40000gn/T//cckXFIsJ.s 			page 35


 789              	.L38:
 151:hardware.h    **** 	{
 152:hardware.h    **** 		return true;
 153:hardware.h    **** 	}
 154:hardware.h    **** 	else
 155:hardware.h    **** 	{
 156:hardware.h    **** 		return false;
 157:hardware.h    **** 	}
 158:hardware.h    **** }
 790              		.loc 14 158 1 view .LVU127
 791 001c 7047     		bx	lr
 792              	.L43:
 793 001e 00BF     		.align	2
 794              	.L42:
 795 0020 00000000 		.word	.LANCHOR10
 796              		.cfi_endproc
 797              	.LFE4687:
 799              		.section	.text._Z13EncoderTurnedN5daisy7EncoderE,"ax",%progbits
 800              		.align	1
 801              		.p2align 2,,3
 802              		.global	_Z13EncoderTurnedN5daisy7EncoderE
 803              		.syntax unified
 804              		.thumb
 805              		.thumb_func
 807              	_Z13EncoderTurnedN5daisy7EncoderE:
 808              	.LVL39:
 809              	.LFB4688:
 159:hardware.h    **** 
 160:hardware.h    **** bool EncoderTurned(Encoder enc)
 161:hardware.h    **** {
 810              		.loc 14 161 1 is_stmt 1 view -0
 811              		.cfi_startproc
 812              		@ args = 0, pretend = 0, frame = 0
 813              		@ frame_needed = 0, uses_anonymous_args = 0
 814              		@ link register save eliminated.
 162:hardware.h    **** 	float encoderInc = enc.Increment();
 815              		.loc 14 162 2 view .LVU129
 816              	.LBB432:
 817              	.LBI432:
 818              		.loc 2 36 20 view .LVU130
 819              	.LBB433:
 820              		.loc 2 36 40 view .LVU131
 821              		.loc 2 36 47 is_stmt 0 view .LVU132
 822 0000 0379     		ldrb	r3, [r0, #4]	@ zero_extendqisi2
 823              		.loc 2 36 56 view .LVU133
 824 0002 53B1     		cbz	r3, .L45
 825              	.LVL40:
 826              		.loc 2 36 56 view .LVU134
 827              	.LBE433:
 828              	.LBE432:
 163:hardware.h    **** 	if(encoderInc != 0)
 829              		.loc 14 163 2 is_stmt 1 view .LVU135
 162:hardware.h    **** 	float encoderInc = enc.Increment();
 830              		.loc 14 162 35 is_stmt 0 view .LVU136
 831 0004 D0ED097A 		vldr.32	s15, [r0, #36]	@ int
 832 0008 F8EEE77A 		vcvt.f32.s32	s15, s15
 833              	.LVL41:
ARM GAS  /var/folders/m5/x8wc2gdj7z5cpgcqdsb_gkj40000gn/T//cckXFIsJ.s 			page 36


 834              		.loc 14 163 2 view .LVU137
 835 000c F5EE407A 		vcmp.f32	s15, #0
 836 0010 F1EE10FA 		vmrs	APSR_nzcv, FPSCR
 837 0014 14BF     		ite	ne
 838 0016 0123     		movne	r3, #1
 839 0018 0023     		moveq	r3, #0
 840              	.LVL42:
 841              	.L45:
 164:hardware.h    **** 	{
 165:hardware.h    **** 		encoderInc = 0;
 166:hardware.h    **** 		return true;
 167:hardware.h    **** 	}
 168:hardware.h    **** 	else
 169:hardware.h    **** 	{
 170:hardware.h    **** 		encoderInc = 0;
 171:hardware.h    **** 		return false;
 172:hardware.h    **** 	}
 173:hardware.h    **** }...
 842              		.loc 14 173 1 view .LVU138
 843 001a 1846     		mov	r0, r3
 844              	.LVL43:
 845              		.loc 14 173 1 view .LVU139
 846 001c 7047     		bx	lr
 847              		.cfi_endproc
 848              	.LFE4688:
 850 001e 00BF     		.section	.text._Z10InitBufferv,"ax",%progbits
 851              		.align	1
 852              		.p2align 2,,3
 853              		.global	_Z10InitBufferv
 854              		.syntax unified
 855              		.thumb
 856              		.thumb_func
 858              	_Z10InitBufferv:
 859              	.LFB4689:
  79:sampleengine.h ****     readIndex = 0.0f;
 860              		.loc 13 79 1 is_stmt 1 view -0
 861              		.cfi_startproc
 862              		@ args = 0, pretend = 0, frame = 0
 863              		@ frame_needed = 0, uses_anonymous_args = 0
  80:sampleengine.h ****     for(uint32_t i = 0; i < MAX_RECORD_SIZE; i++) // initializes buffer to all 0s
 864              		.loc 13 80 5 view .LVU141
  80:sampleengine.h ****     for(uint32_t i = 0; i < MAX_RECORD_SIZE; i++) // initializes buffer to all 0s
 865              		.loc 13 80 15 is_stmt 0 view .LVU142
 866 0000 0F4B     		ldr	r3, .L51
 867 0002 0020     		movs	r0, #0
 868              	.LBB434:
  83:sampleengine.h ****     }
 869              		.loc 13 83 28 view .LVU143
 870 0004 0F4A     		ldr	r2, .L51+4
 871 0006 0021     		movs	r1, #0
 872              	.LBE434:
  79:sampleengine.h ****     readIndex = 0.0f;
 873              		.loc 13 79 1 view .LVU144
 874 0008 10B5     		push	{r4, lr}
 875              		.cfi_def_cfa_offset 8
 876              		.cfi_offset 4, -8
 877              		.cfi_offset 14, -4
ARM GAS  /var/folders/m5/x8wc2gdj7z5cpgcqdsb_gkj40000gn/T//cckXFIsJ.s 			page 37


 878              	.LBB435:
  87:sampleengine.h ****         spliceBufferTwo[i] = 0.0f;
 879              		.loc 13 87 28 view .LVU145
 880 000a 0F4C     		ldr	r4, .L51+8
 881              	.LBE435:
  80:sampleengine.h ****     for(uint32_t i = 0; i < MAX_RECORD_SIZE; i++) // initializes buffer to all 0s
 882              		.loc 13 80 15 view .LVU146
 883 000c 1860     		str	r0, [r3]	@ float
  81:sampleengine.h ****     {
 884              		.loc 13 81 5 is_stmt 1 view .LVU147
 885              	.LVL44:
 886              	.LBB436:
  81:sampleengine.h ****     {
 887              		.loc 13 81 27 view .LVU148
  83:sampleengine.h ****     }
 888              		.loc 13 83 28 is_stmt 0 view .LVU149
 889 000e 0F48     		ldr	r0, .L51+12
 890 0010 FFF7FEFF 		bl	memset
 891              	.LVL45:
  83:sampleengine.h ****     }
 892              		.loc 13 83 28 view .LVU150
 893              	.LBE436:
 894              	.LBB437:
  87:sampleengine.h ****         spliceBufferTwo[i] = 0.0f;
 895              		.loc 13 87 28 view .LVU151
 896 0014 2246     		mov	r2, r4
 897 0016 0021     		movs	r1, #0
 898 0018 0D48     		ldr	r0, .L51+16
 899 001a FFF7FEFF 		bl	memset
 900              	.LVL46:
  88:sampleengine.h ****         spliceBufferThree[i] = 0.0f;
 901              		.loc 13 88 28 view .LVU152
 902 001e 2246     		mov	r2, r4
 903 0020 0021     		movs	r1, #0
 904 0022 0C48     		ldr	r0, .L51+20
 905 0024 FFF7FEFF 		bl	memset
 906              	.LVL47:
  89:sampleengine.h ****         spliceBufferFour[i] = 0.0f;
 907              		.loc 13 89 30 view .LVU153
 908 0028 2246     		mov	r2, r4
 909 002a 0021     		movs	r1, #0
 910 002c 0A48     		ldr	r0, .L51+24
 911 002e FFF7FEFF 		bl	memset
 912              	.LVL48:
  90:sampleengine.h ****     }
 913              		.loc 13 90 29 view .LVU154
 914 0032 2246     		mov	r2, r4
 915 0034 0021     		movs	r1, #0
 916 0036 0948     		ldr	r0, .L51+28
 917              	.LBE437:
  92:sampleengine.h **** 
 918              		.loc 13 92 1 view .LVU155
 919 0038 BDE81040 		pop	{r4, lr}
 920              		.cfi_restore 14
 921              		.cfi_restore 4
 922              		.cfi_def_cfa_offset 0
 923              	.LBB438:
ARM GAS  /var/folders/m5/x8wc2gdj7z5cpgcqdsb_gkj40000gn/T//cckXFIsJ.s 			page 38


  90:sampleengine.h ****     }
 924              		.loc 13 90 29 view .LVU156
 925 003c FFF7FEBF 		b	memset
 926              	.LVL49:
 927              	.L52:
 928              		.align	2
 929              	.L51:
 930 0040 00000000 		.word	.LANCHOR6
 931 0044 00905F01 		.word	23040000
 932 0048 00983A00 		.word	3840000
 933 004c 00000000 		.word	recordingBuffer
 934 0050 00000000 		.word	spliceBufferOne
 935 0054 00000000 		.word	spliceBufferTwo
 936 0058 00000000 		.word	spliceBufferThree
 937 005c 00000000 		.word	spliceBufferFour
 938              	.LBE438:
 939              		.cfi_endproc
 940              	.LFE4689:
 942              		.section	.text._Z12RecordSamplef,"ax",%progbits
 943              		.align	1
 944              		.p2align 2,,3
 945              		.global	_Z12RecordSamplef
 946              		.syntax unified
 947              		.thumb
 948              		.thumb_func
 950              	_Z12RecordSamplef:
 951              	.LVL50:
 952              	.LFB4690:
  95:sampleengine.h ****     recordingBuffer[writeIndex] = sample;
 953              		.loc 13 95 1 is_stmt 1 view -0
 954              		.cfi_startproc
 955              		@ args = 0, pretend = 0, frame = 0
 956              		@ frame_needed = 0, uses_anonymous_args = 0
 957              		@ link register save eliminated.
  96:sampleengine.h ****     writeIndex++;
 958              		.loc 13 96 5 view .LVU158
  96:sampleengine.h ****     writeIndex++;
 959              		.loc 13 96 31 is_stmt 0 view .LVU159
 960 0000 0449     		ldr	r1, .L54
  96:sampleengine.h ****     writeIndex++;
 961              		.loc 13 96 33 view .LVU160
 962 0002 054A     		ldr	r2, .L54+4
  96:sampleengine.h ****     writeIndex++;
 963              		.loc 13 96 31 view .LVU161
 964 0004 0B68     		ldr	r3, [r1]
  96:sampleengine.h ****     writeIndex++;
 965              		.loc 13 96 33 view .LVU162
 966 0006 02EB8302 		add	r2, r2, r3, lsl #2
  97:sampleengine.h **** }
 967              		.loc 13 97 15 view .LVU163
 968 000a 0133     		adds	r3, r3, #1
  96:sampleengine.h ****     writeIndex++;
 969              		.loc 13 96 33 view .LVU164
 970 000c 82ED000A 		vstr.32	s0, [r2]
  97:sampleengine.h **** }
 971              		.loc 13 97 5 is_stmt 1 view .LVU165
  97:sampleengine.h **** }
ARM GAS  /var/folders/m5/x8wc2gdj7z5cpgcqdsb_gkj40000gn/T//cckXFIsJ.s 			page 39


 972              		.loc 13 97 15 is_stmt 0 view .LVU166
 973 0010 0B60     		str	r3, [r1]
  98:sampleengine.h **** 
 974              		.loc 13 98 1 view .LVU167
 975 0012 7047     		bx	lr
 976              	.L55:
 977              		.align	2
 978              	.L54:
 979 0014 00000000 		.word	.LANCHOR13
 980 0018 00000000 		.word	recordingBuffer
 981              		.cfi_endproc
 982              	.LFE4690:
 984              		.section	.text._Z14ResetReadIndexv,"ax",%progbits
 985              		.align	1
 986              		.p2align 2,,3
 987              		.global	_Z14ResetReadIndexv
 988              		.syntax unified
 989              		.thumb
 990              		.thumb_func
 992              	_Z14ResetReadIndexv:
 993              	.LFB4691:
 101:sampleengine.h ****     readIndex = startPoint;
 994              		.loc 13 101 1 is_stmt 1 view -0
 995              		.cfi_startproc
 996              		@ args = 0, pretend = 0, frame = 0
 997              		@ frame_needed = 0, uses_anonymous_args = 0
 998              		@ link register save eliminated.
 102:sampleengine.h **** }
 999              		.loc 13 102 5 view .LVU169
 102:sampleengine.h **** }
 1000              		.loc 13 102 15 is_stmt 0 view .LVU170
 1001 0000 044A     		ldr	r2, .L57
 1002 0002 054B     		ldr	r3, .L57+4
 1003 0004 D2ED007A 		vldr.32	s15, [r2]	@ int
 1004 0008 F8EE677A 		vcvt.f32.u32	s15, s15
 1005 000c C3ED007A 		vstr.32	s15, [r3]
 103:sampleengine.h **** 
 1006              		.loc 13 103 1 view .LVU171
 1007 0010 7047     		bx	lr
 1008              	.L58:
 1009 0012 00BF     		.align	2
 1010              	.L57:
 1011 0014 00000000 		.word	.LANCHOR3
 1012 0018 00000000 		.word	.LANCHOR6
 1013              		.cfi_endproc
 1014              	.LFE4691:
 1016              		.section	.text._Z16AdvanceReadIndexv,"ax",%progbits
 1017              		.align	1
 1018              		.p2align 2,,3
 1019              		.global	_Z16AdvanceReadIndexv
 1020              		.syntax unified
 1021              		.thumb
 1022              		.thumb_func
 1024              	_Z16AdvanceReadIndexv:
 1025              	.LFB4692:
 106:sampleengine.h ****     readIndex += readFactor;
 1026              		.loc 13 106 1 is_stmt 1 view -0
ARM GAS  /var/folders/m5/x8wc2gdj7z5cpgcqdsb_gkj40000gn/T//cckXFIsJ.s 			page 40


 1027              		.cfi_startproc
 1028              		@ args = 0, pretend = 0, frame = 0
 1029              		@ frame_needed = 0, uses_anonymous_args = 0
 1030              		@ link register save eliminated.
 107:sampleengine.h **** 
 1031              		.loc 13 107 5 view .LVU173
 107:sampleengine.h **** 
 1032              		.loc 13 107 15 is_stmt 0 view .LVU174
 1033 0000 0B4B     		ldr	r3, .L64
 1034 0002 0C49     		ldr	r1, .L64+4
 109:sampleengine.h ****     {
 1035              		.loc 13 109 18 view .LVU175
 1036 0004 0C4A     		ldr	r2, .L64+8
 107:sampleengine.h **** 
 1037              		.loc 13 107 15 view .LVU176
 1038 0006 D3ED007A 		vldr.32	s15, [r3]
 1039 000a D1ED006A 		vldr.32	s13, [r1]
 109:sampleengine.h ****     {
 1040              		.loc 13 109 18 view .LVU177
 1041 000e 92ED007A 		vldr.32	s14, [r2]	@ int
 107:sampleengine.h **** 
 1042              		.loc 13 107 15 view .LVU178
 1043 0012 77EEA67A 		vadd.f32	s15, s15, s13
 109:sampleengine.h ****     {
 1044              		.loc 13 109 18 view .LVU179
 1045 0016 B8EE477A 		vcvt.f32.u32	s14, s14
 107:sampleengine.h **** 
 1046              		.loc 13 107 15 view .LVU180
 1047 001a C3ED007A 		vstr.32	s15, [r3]
 109:sampleengine.h ****     {
 1048              		.loc 13 109 5 is_stmt 1 view .LVU181
 1049 001e F4EEC77A 		vcmpe.f32	s15, s14
 1050 0022 F1EE10FA 		vmrs	APSR_nzcv, FPSCR
 1051 0026 01DB     		blt	.L63
 1052 0028 FFF7FEBF 		b	_Z16AdvanceReadIndexv.part.0
 1053              	.LVL51:
 1054              	.L63:
 116:sampleengine.h **** 
 1055              		.loc 13 116 1 is_stmt 0 view .LVU182
 1056 002c 7047     		bx	lr
 1057              	.L65:
 1058 002e 00BF     		.align	2
 1059              	.L64:
 1060 0030 00000000 		.word	.LANCHOR6
 1061 0034 00000000 		.word	.LANCHOR14
 1062 0038 00000000 		.word	.LANCHOR4
 1063              		.cfi_endproc
 1064              	.LFE4692:
 1066              		.section	.text._Z9GetSamplev,"ax",%progbits
 1067              		.align	1
 1068              		.p2align 2,,3
 1069              		.global	_Z9GetSamplev
 1070              		.syntax unified
 1071              		.thumb
 1072              		.thumb_func
 1074              	_Z9GetSamplev:
 1075              	.LFB4693:
ARM GAS  /var/folders/m5/x8wc2gdj7z5cpgcqdsb_gkj40000gn/T//cckXFIsJ.s 			page 41


 119:sampleengine.h ****     float a, b, out;
 1076              		.loc 13 119 1 is_stmt 1 view -0
 1077              		.cfi_startproc
 1078              		@ args = 0, pretend = 0, frame = 0
 1079              		@ frame_needed = 0, uses_anonymous_args = 0
 1080              		@ link register save eliminated.
 120:sampleengine.h **** 
 1081              		.loc 13 120 5 view .LVU184
 122:sampleengine.h **** 	readIndexFraction = readIndex - readIndexInt;
 1082              		.loc 13 122 5 view .LVU185
 122:sampleengine.h **** 	readIndexFraction = readIndex - readIndexInt;
 1083              		.loc 13 122 20 is_stmt 0 view .LVU186
 1084 0000 0F4A     		ldr	r2, .L68
 125:sampleengine.h **** 	b = recordingBuffer[readIndexInt + 1]; // next sample
 1085              		.loc 13 125 4 view .LVU187
 1086 0002 104B     		ldr	r3, .L68+4
 122:sampleengine.h **** 	readIndexFraction = readIndex - readIndexInt;
 1087              		.loc 13 122 20 view .LVU188
 1088 0004 D2ED007A 		vldr.32	s15, [r2]
 123:sampleengine.h **** 
 1089              		.loc 13 123 20 view .LVU189
 1090 0008 0F49     		ldr	r1, .L68+8
 122:sampleengine.h **** 	readIndexFraction = readIndex - readIndexInt;
 1091              		.loc 13 122 20 view .LVU190
 1092 000a BDEEE77A 		vcvt.s32.f32	s14, s15
 119:sampleengine.h ****     float a, b, out;
 1093              		.loc 13 119 1 view .LVU191
 1094 000e 10B4     		push	{r4}
 1095              		.cfi_def_cfa_offset 4
 1096              		.cfi_offset 4, -4
 122:sampleengine.h **** 	readIndexFraction = readIndex - readIndexInt;
 1097              		.loc 13 122 20 view .LVU192
 1098 0010 17EE102A 		vmov	r2, s14	@ int
 122:sampleengine.h **** 	readIndexFraction = readIndex - readIndexInt;
 1099              		.loc 13 122 18 view .LVU193
 1100 0014 0D4C     		ldr	r4, .L68+12
 123:sampleengine.h **** 
 1101              		.loc 13 123 32 view .LVU194
 1102 0016 F8EE476A 		vcvt.f32.u32	s13, s14
 125:sampleengine.h **** 	b = recordingBuffer[readIndexInt + 1]; // next sample
 1103              		.loc 13 125 4 view .LVU195
 1104 001a 03EB8200 		add	r0, r3, r2, lsl #2
 122:sampleengine.h **** 	readIndexFraction = readIndex - readIndexInt;
 1105              		.loc 13 122 18 view .LVU196
 1106 001e 84ED007A 		vstr.32	s14, [r4]	@ int
 123:sampleengine.h **** 
 1107              		.loc 13 123 2 is_stmt 1 view .LVU197
 130:sampleengine.h **** 
 1108              		.loc 13 130 1 is_stmt 0 view .LVU198
 1109 0022 5DF8044B 		ldr	r4, [sp], #4
 1110              		.cfi_restore 4
 1111              		.cfi_def_cfa_offset 0
 125:sampleengine.h **** 	b = recordingBuffer[readIndexInt + 1]; // next sample
 1112              		.loc 13 125 4 view .LVU199
 1113 0026 90ED000A 		vldr.32	s0, [r0]
 123:sampleengine.h **** 
 1114              		.loc 13 123 32 view .LVU200
ARM GAS  /var/folders/m5/x8wc2gdj7z5cpgcqdsb_gkj40000gn/T//cckXFIsJ.s 			page 42


 1115 002a 77EEE67A 		vsub.f32	s15, s15, s13
 127:sampleengine.h **** 
 1116              		.loc 13 127 15 view .LVU201
 1117 002e 90ED017A 		vldr.32	s14, [r0, #4]
 1118 0032 37EE407A 		vsub.f32	s14, s14, s0
 123:sampleengine.h **** 
 1119              		.loc 13 123 20 view .LVU202
 1120 0036 C1ED007A 		vstr.32	s15, [r1]
 125:sampleengine.h **** 	b = recordingBuffer[readIndexInt + 1]; // next sample
 1121              		.loc 13 125 2 is_stmt 1 view .LVU203
 1122              	.LVL52:
 126:sampleengine.h **** 	out = a + (b - a) * readIndexFraction; // Linear Interpolation
 1123              		.loc 13 126 2 view .LVU204
 127:sampleengine.h **** 
 1124              		.loc 13 127 2 view .LVU205
 129:sampleengine.h **** }
 1125              		.loc 13 129 5 view .LVU206
 130:sampleengine.h **** 
 1126              		.loc 13 130 1 is_stmt 0 view .LVU207
 1127 003a A7EE870A 		vfma.f32	s0, s15, s14
 1128              	.LVL53:
 130:sampleengine.h **** 
 1129              		.loc 13 130 1 view .LVU208
 1130 003e 7047     		bx	lr
 1131              	.L69:
 1132              		.align	2
 1133              	.L68:
 1134 0040 00000000 		.word	.LANCHOR6
 1135 0044 00000000 		.word	recordingBuffer
 1136 0048 00000000 		.word	.LANCHOR16
 1137 004c 00000000 		.word	.LANCHOR15
 1138              		.cfi_endproc
 1139              	.LFE4693:
 1141              		.section	.text._Z19FullSampleGetSamplev,"ax",%progbits
 1142              		.align	1
 1143              		.p2align 2,,3
 1144              		.global	_Z19FullSampleGetSamplev
 1145              		.syntax unified
 1146              		.thumb
 1147              		.thumb_func
 1149              	_Z19FullSampleGetSamplev:
 1150              	.LFB4694:
 133:sampleengine.h ****     fullSampleReadIndex += readFactor;
 1151              		.loc 13 133 1 is_stmt 1 view -0
 1152              		.cfi_startproc
 1153              		@ args = 0, pretend = 0, frame = 0
 1154              		@ frame_needed = 0, uses_anonymous_args = 0
 1155              		@ link register save eliminated.
 134:sampleengine.h ****     if(fullSampleReadIndex > recordingLength) 
 1156              		.loc 13 134 5 view .LVU210
 134:sampleengine.h ****     if(fullSampleReadIndex > recordingLength) 
 1157              		.loc 13 134 25 is_stmt 0 view .LVU211
 1158 0000 1D4B     		ldr	r3, .L74
 1159 0002 1E49     		ldr	r1, .L74+4
 135:sampleengine.h ****     {
 1160              		.loc 13 135 28 view .LVU212
 1161 0004 1E4A     		ldr	r2, .L74+8
ARM GAS  /var/folders/m5/x8wc2gdj7z5cpgcqdsb_gkj40000gn/T//cckXFIsJ.s 			page 43


 134:sampleengine.h ****     if(fullSampleReadIndex > recordingLength) 
 1162              		.loc 13 134 25 view .LVU213
 1163 0006 D3ED007A 		vldr.32	s15, [r3]
 1164 000a D1ED006A 		vldr.32	s13, [r1]
 135:sampleengine.h ****     {
 1165              		.loc 13 135 28 view .LVU214
 1166 000e 92ED007A 		vldr.32	s14, [r2]	@ int
 134:sampleengine.h ****     if(fullSampleReadIndex > recordingLength) 
 1167              		.loc 13 134 25 view .LVU215
 1168 0012 77EEA67A 		vadd.f32	s15, s15, s13
 135:sampleengine.h ****     {
 1169              		.loc 13 135 28 view .LVU216
 1170 0016 B8EE477A 		vcvt.f32.u32	s14, s14
 133:sampleengine.h ****     fullSampleReadIndex += readFactor;
 1171              		.loc 13 133 1 view .LVU217
 1172 001a 10B4     		push	{r4}
 1173              		.cfi_def_cfa_offset 4
 1174              		.cfi_offset 4, -4
 135:sampleengine.h ****     {
 1175              		.loc 13 135 5 view .LVU218
 1176 001c F4EEC77A 		vcmpe.f32	s15, s14
 134:sampleengine.h ****     if(fullSampleReadIndex > recordingLength) 
 1177              		.loc 13 134 25 view .LVU219
 1178 0020 C3ED007A 		vstr.32	s15, [r3]
 135:sampleengine.h ****     {
 1179              		.loc 13 135 5 is_stmt 1 view .LVU220
 1180 0024 F1EE10FA 		vmrs	APSR_nzcv, FPSCR
 1181 0028 1DDC     		bgt	.L71
 141:sampleengine.h ****     fullSampleReadIndexFraction = fullSampleReadIndex - fullSampleReadIndexInt;
 1182              		.loc 13 141 30 is_stmt 0 view .LVU221
 1183 002a BDEEE77A 		vcvt.s32.f32	s14, s15
 1184 002e 17EE101A 		vmov	r1, s14	@ int
 142:sampleengine.h ****     a = recordingBuffer[fullSampleReadIndexInt]; // current sample
 1185              		.loc 13 142 55 view .LVU222
 1186 0032 B8EE477A 		vcvt.f32.u32	s14, s14
 144:sampleengine.h ****     out = a + (b - a) * fullSampleReadIndexFraction; // Linear Interpolation
 1187              		.loc 13 144 48 view .LVU223
 1188 0036 4A1C     		adds	r2, r1, #1
 142:sampleengine.h ****     a = recordingBuffer[fullSampleReadIndexInt]; // current sample
 1189              		.loc 13 142 55 view .LVU224
 1190 0038 77EEC77A 		vsub.f32	s15, s15, s14
 1191              	.L72:
 140:sampleengine.h ****     fullSampleReadIndexInt = static_cast<int32_t>(fullSampleReadIndex);
 1192              		.loc 13 140 5 is_stmt 1 view .LVU225
 141:sampleengine.h ****     fullSampleReadIndexFraction = fullSampleReadIndex - fullSampleReadIndexInt;
 1193              		.loc 13 141 5 view .LVU226
 143:sampleengine.h ****     b = recordingBuffer[fullSampleReadIndexInt + 1]; // next sample
 1194              		.loc 13 143 7 is_stmt 0 view .LVU227
 1195 003c 114B     		ldr	r3, .L74+12
 141:sampleengine.h ****     fullSampleReadIndexFraction = fullSampleReadIndex - fullSampleReadIndexInt;
 1196              		.loc 13 141 28 view .LVU228
 1197 003e 124C     		ldr	r4, .L74+16
 144:sampleengine.h ****     out = a + (b - a) * fullSampleReadIndexFraction; // Linear Interpolation
 1198              		.loc 13 144 7 view .LVU229
 1199 0040 03EB8202 		add	r2, r3, r2, lsl #2
 142:sampleengine.h ****     a = recordingBuffer[fullSampleReadIndexInt]; // current sample
 1200              		.loc 13 142 33 view .LVU230
ARM GAS  /var/folders/m5/x8wc2gdj7z5cpgcqdsb_gkj40000gn/T//cckXFIsJ.s 			page 44


 1201 0044 1148     		ldr	r0, .L74+20
 143:sampleengine.h ****     b = recordingBuffer[fullSampleReadIndexInt + 1]; // next sample
 1202              		.loc 13 143 7 view .LVU231
 1203 0046 03EB8103 		add	r3, r3, r1, lsl #2
 141:sampleengine.h ****     fullSampleReadIndexFraction = fullSampleReadIndex - fullSampleReadIndexInt;
 1204              		.loc 13 141 28 view .LVU232
 1205 004a 2160     		str	r1, [r4]
 142:sampleengine.h ****     a = recordingBuffer[fullSampleReadIndexInt]; // current sample
 1206              		.loc 13 142 5 is_stmt 1 view .LVU233
 145:sampleengine.h **** 
 1207              		.loc 13 145 18 is_stmt 0 view .LVU234
 1208 004c 92ED007A 		vldr.32	s14, [r2]
 143:sampleengine.h ****     b = recordingBuffer[fullSampleReadIndexInt + 1]; // next sample
 1209              		.loc 13 143 7 view .LVU235
 1210 0050 93ED000A 		vldr.32	s0, [r3]
 148:sampleengine.h **** 
 1211              		.loc 13 148 1 view .LVU236
 1212 0054 5DF8044B 		ldr	r4, [sp], #4
 1213              		.cfi_remember_state
 1214              		.cfi_restore 4
 1215              		.cfi_def_cfa_offset 0
 145:sampleengine.h **** 
 1216              		.loc 13 145 18 view .LVU237
 1217 0058 37EE407A 		vsub.f32	s14, s14, s0
 142:sampleengine.h ****     a = recordingBuffer[fullSampleReadIndexInt]; // current sample
 1218              		.loc 13 142 33 view .LVU238
 1219 005c C0ED007A 		vstr.32	s15, [r0]
 143:sampleengine.h ****     b = recordingBuffer[fullSampleReadIndexInt + 1]; // next sample
 1220              		.loc 13 143 5 is_stmt 1 view .LVU239
 1221              	.LVL54:
 144:sampleengine.h ****     out = a + (b - a) * fullSampleReadIndexFraction; // Linear Interpolation
 1222              		.loc 13 144 5 view .LVU240
 145:sampleengine.h **** 
 1223              		.loc 13 145 5 view .LVU241
 147:sampleengine.h **** }
 1224              		.loc 13 147 5 view .LVU242
 148:sampleengine.h **** 
 1225              		.loc 13 148 1 is_stmt 0 view .LVU243
 1226 0060 A7EE270A 		vfma.f32	s0, s14, s15
 1227              	.LVL55:
 148:sampleengine.h **** 
 1228              		.loc 13 148 1 view .LVU244
 1229 0064 7047     		bx	lr
 1230              	.LVL56:
 1231              	.L71:
 1232              		.cfi_restore_state
 137:sampleengine.h ****     }
 1233              		.loc 13 137 9 is_stmt 1 view .LVU245
 137:sampleengine.h ****     }
 1234              		.loc 13 137 29 is_stmt 0 view .LVU246
 1235 0066 9FED0A7A 		vldr.32	s14, .L74+24
 1236 006a 0122     		movs	r2, #1
 1237 006c 0021     		movs	r1, #0
 1238 006e F0EE477A 		vmov.f32	s15, s14
 1239 0072 83ED007A 		vstr.32	s14, [r3]
 1240 0076 E1E7     		b	.L72
 1241              	.L75:
ARM GAS  /var/folders/m5/x8wc2gdj7z5cpgcqdsb_gkj40000gn/T//cckXFIsJ.s 			page 45


 1242              		.align	2
 1243              	.L74:
 1244 0078 00000000 		.word	.LANCHOR17
 1245 007c 00000000 		.word	.LANCHOR14
 1246 0080 00000000 		.word	.LANCHOR18
 1247 0084 00000000 		.word	recordingBuffer
 1248 0088 00000000 		.word	.LANCHOR19
 1249 008c 00000000 		.word	.LANCHOR20
 1250 0090 00000000 		.word	0
 1251              		.cfi_endproc
 1252              	.LFE4694:
 1254              		.section	.text._Z21SpliceBufferGetSampleiii,"ax",%progbits
 1255              		.align	1
 1256              		.p2align 2,,3
 1257              		.global	_Z21SpliceBufferGetSampleiii
 1258              		.syntax unified
 1259              		.thumb
 1260              		.thumb_func
 1262              	_Z21SpliceBufferGetSampleiii:
 1263              	.LVL57:
 1264              	.LFB4695:
 151:sampleengine.h ****     float a, b, out = 0;
 1265              		.loc 13 151 1 is_stmt 1 view -0
 1266              		.cfi_startproc
 1267              		@ args = 0, pretend = 0, frame = 0
 1268              		@ frame_needed = 0, uses_anonymous_args = 0
 152:sampleengine.h ****     if(currentBuffer == 1)
 1269              		.loc 13 152 5 view .LVU248
 153:sampleengine.h ****     {
 1270              		.loc 13 153 5 view .LVU249
 1271              	.LBB439:
 1272 0000 0128     		cmp	r0, #1
 1273              	.LBE439:
 151:sampleengine.h ****     float a, b, out = 0;
 1274              		.loc 13 151 1 is_stmt 0 view .LVU250
 1275 0002 10B5     		push	{r4, lr}
 1276              		.cfi_def_cfa_offset 8
 1277              		.cfi_offset 4, -8
 1278              		.cfi_offset 14, -4
 1279              	.LBB512:
 153:sampleengine.h ****     {
 1280              		.loc 13 153 5 view .LVU251
 1281 0004 27D0     		beq	.L104
 1282              	.LBE512:
 177:sampleengine.h ****     {
 1283              		.loc 13 177 10 is_stmt 1 view .LVU252
 1284              	.LBB513:
 1285              	.LBB440:
 1286 0006 0228     		cmp	r0, #2
 1287 0008 07D0     		beq	.L105
 1288              	.LBE440:
 1289              	.LBE513:
 201:sampleengine.h ****     {
 1290              		.loc 13 201 10 view .LVU253
 1291              	.LBB514:
 1292              	.LBB490:
 1293              	.LBB441:
ARM GAS  /var/folders/m5/x8wc2gdj7z5cpgcqdsb_gkj40000gn/T//cckXFIsJ.s 			page 46


 1294 000a 0328     		cmp	r0, #3
 1295 000c 00F08C80 		beq	.L106
 1296              	.LBE441:
 1297              	.LBE490:
 1298              	.LBE514:
 225:sampleengine.h ****     {
 1299              		.loc 13 225 10 view .LVU254
 1300              	.LBB515:
 1301              	.LBB491:
 1302              	.LBB470:
 1303              	.LBB442:
 1304 0010 0428     		cmp	r0, #4
 1305 0012 63D0     		beq	.L107
 1306              	.LBE442:
 1307              	.LBE470:
 1308              	.LBE491:
 1309              	.LBE515:
 152:sampleengine.h ****     if(currentBuffer == 1)
 1310              		.loc 13 152 17 is_stmt 0 view .LVU255
 1311 0014 9FEDA10A 		vldr.32	s0, .L111
 250:sampleengine.h **** }
 1312              		.loc 13 250 5 is_stmt 1 view .LVU256
 251:sampleengine.h **** 
 1313              		.loc 13 251 1 is_stmt 0 view .LVU257
 1314 0018 10BD     		pop	{r4, pc}
 1315              	.L105:
 1316              	.LBB516:
 1317              	.LBB492:
 1318              	.LBB471:
 179:sampleengine.h ****         {
 1319              		.loc 13 179 9 is_stmt 1 view .LVU258
 1320              	.LBB472:
 1321 001a 0029     		cmp	r1, #0
 1322 001c 53D0     		beq	.L108
 1323              	.LBE472:
 1324              	.LBE471:
 1325              	.LBE492:
 1326              	.LBE516:
 183:sampleengine.h ****         {
 1327              		.loc 13 183 14 view .LVU259
 1328              	.LBB517:
 1329              	.LBB493:
 1330              	.LBB479:
 1331              	.LBB476:
 1332              	.LBB473:
 1333 001e 0129     		cmp	r1, #1
 1334 0020 00F0EA80 		beq	.L87
 1335              	.LBE473:
 1336              	.LBE476:
 190:sampleengine.h ****         {
 1337              		.loc 13 190 34 is_stmt 0 view .LVU260
 1338 0024 9E4B     		ldr	r3, .L111+4
 1339 0026 D3ED007A 		vldr.32	s15, [r3]
 1340              	.LVL58:
 1341              	.L86:
 190:sampleengine.h ****         {
 1342              		.loc 13 190 9 is_stmt 1 view .LVU261
ARM GAS  /var/folders/m5/x8wc2gdj7z5cpgcqdsb_gkj40000gn/T//cckXFIsJ.s 			page 47


 190:sampleengine.h ****         {
 1343              		.loc 13 190 34 is_stmt 0 view .LVU262
 1344 002a 9E4A     		ldr	r2, .L111+8
 1345 002c 92ED007A 		vldr.32	s14, [r2]	@ int
 1346 0030 B8EE477A 		vcvt.f32.u32	s14, s14
 190:sampleengine.h ****         {
 1347              		.loc 13 190 9 view .LVU263
 1348 0034 B4EEE77A 		vcmpe.f32	s14, s15
 1349 0038 F1EE10FA 		vmrs	APSR_nzcv, FPSCR
 1350 003c 00F19480 		bmi	.L88
 195:sampleengine.h ****         spliceBufferReadIndexFraction = spliceBufferReadIndex - spliceBufferReadIndexInt;
 1351              		.loc 13 195 36 view .LVU264
 1352 0040 BDEEE77A 		vcvt.s32.f32	s14, s15
 1353 0044 17EE101A 		vmov	r1, s14	@ int
 196:sampleengine.h ****         a = spliceBufferTwo[spliceBufferReadIndexInt]; // current sample
 1354              		.loc 13 196 63 view .LVU265
 1355 0048 B8EE477A 		vcvt.f32.u32	s14, s14
 198:sampleengine.h ****         out = a + (b - a) * spliceBufferReadIndexFraction; // Linear Interpolation
 1356              		.loc 13 198 54 view .LVU266
 1357 004c 4A1C     		adds	r2, r1, #1
 196:sampleengine.h ****         a = spliceBufferTwo[spliceBufferReadIndexInt]; // current sample
 1358              		.loc 13 196 63 view .LVU267
 1359 004e 77EEC77A 		vsub.f32	s15, s15, s14
 1360              	.L89:
 195:sampleengine.h ****         spliceBufferReadIndexFraction = spliceBufferReadIndex - spliceBufferReadIndexInt;
 1361              		.loc 13 195 9 is_stmt 1 view .LVU268
 197:sampleengine.h ****         b = spliceBufferTwo[spliceBufferReadIndexInt + 1]; // next sample
 1362              		.loc 13 197 11 is_stmt 0 view .LVU269
 1363 0052 954B     		ldr	r3, .L111+12
 1364 0054 1AE0     		b	.L103
 1365              	.LVL59:
 1366              	.L104:
 197:sampleengine.h ****         b = spliceBufferTwo[spliceBufferReadIndexInt + 1]; // next sample
 1367              		.loc 13 197 11 view .LVU270
 1368              	.LBE479:
 1369              	.LBE493:
 1370              	.LBB494:
 155:sampleengine.h ****         {
 1371              		.loc 13 155 9 is_stmt 1 view .LVU271
 1372              	.LBB495:
 1373 0056 59B3     		cbz	r1, .L109
 1374              	.LBE495:
 1375              	.LBE494:
 1376              	.LBE517:
 159:sampleengine.h ****         {
 1377              		.loc 13 159 14 view .LVU272
 1378              	.LBB518:
 1379              	.LBB502:
 1380              	.LBB499:
 1381              	.LBB496:
 1382 0058 0129     		cmp	r1, #1
 1383 005a 00F0B180 		beq	.L80
 1384              	.LBE496:
 1385              	.LBE499:
 166:sampleengine.h ****         {
 1386              		.loc 13 166 34 is_stmt 0 view .LVU273
 1387 005e 904B     		ldr	r3, .L111+4
ARM GAS  /var/folders/m5/x8wc2gdj7z5cpgcqdsb_gkj40000gn/T//cckXFIsJ.s 			page 48


 1388 0060 D3ED007A 		vldr.32	s15, [r3]
 1389              	.LVL60:
 1390              	.L79:
 166:sampleengine.h ****         {
 1391              		.loc 13 166 9 is_stmt 1 view .LVU274
 166:sampleengine.h ****         {
 1392              		.loc 13 166 34 is_stmt 0 view .LVU275
 1393 0064 914A     		ldr	r2, .L111+16
 1394 0066 92ED007A 		vldr.32	s14, [r2]	@ int
 1395 006a B8EE477A 		vcvt.f32.u32	s14, s14
 166:sampleengine.h ****         {
 1396              		.loc 13 166 9 view .LVU276
 1397 006e B4EEE77A 		vcmpe.f32	s14, s15
 1398 0072 F1EE10FA 		vmrs	APSR_nzcv, FPSCR
 1399 0076 4ED4     		bmi	.L81
 171:sampleengine.h ****         spliceBufferReadIndexFraction = spliceBufferReadIndex - spliceBufferReadIndexInt;
 1400              		.loc 13 171 36 view .LVU277
 1401 0078 BDEEE77A 		vcvt.s32.f32	s14, s15
 1402 007c 17EE101A 		vmov	r1, s14	@ int
 172:sampleengine.h ****         a = spliceBufferOne[spliceBufferReadIndexInt]; // current sample
 1403              		.loc 13 172 63 view .LVU278
 1404 0080 B8EE477A 		vcvt.f32.u32	s14, s14
 174:sampleengine.h ****         out = a + (b - a) * spliceBufferReadIndexFraction; // Linear Interpolation
 1405              		.loc 13 174 54 view .LVU279
 1406 0084 4A1C     		adds	r2, r1, #1
 172:sampleengine.h ****         a = spliceBufferOne[spliceBufferReadIndexInt]; // current sample
 1407              		.loc 13 172 63 view .LVU280
 1408 0086 77EEC77A 		vsub.f32	s15, s15, s14
 1409              	.L82:
 171:sampleengine.h ****         spliceBufferReadIndexFraction = spliceBufferReadIndex - spliceBufferReadIndexInt;
 1410              		.loc 13 171 9 is_stmt 1 view .LVU281
 173:sampleengine.h ****         b = spliceBufferOne[spliceBufferReadIndexInt + 1]; // next sample
 1411              		.loc 13 173 11 is_stmt 0 view .LVU282
 1412 008a 894B     		ldr	r3, .L111+20
 1413              	.L103:
 1414              	.LBE502:
 1415              	.LBB503:
 1416              	.LBB480:
 1417              	.LBB455:
 1418              	.LBB443:
 246:sampleengine.h ****         out = a + (b - a) * spliceBufferReadIndexFraction; // Linear Interpolation
 1419              		.loc 13 246 11 view .LVU283
 1420 008c 03EB8202 		add	r2, r3, r2, lsl #2
 244:sampleengine.h ****         a = spliceBufferFour[spliceBufferReadIndexInt]; // current sample
 1421              		.loc 13 244 39 view .LVU284
 1422 0090 8848     		ldr	r0, .L111+24
 245:sampleengine.h ****         b = spliceBufferFour[spliceBufferReadIndexInt + 1]; // next sample
 1423              		.loc 13 245 11 view .LVU285
 1424 0092 03EB8103 		add	r3, r3, r1, lsl #2
 243:sampleengine.h ****         spliceBufferReadIndexFraction = spliceBufferReadIndex - spliceBufferReadIndexInt;
 1425              		.loc 13 243 34 view .LVU286
 1426 0096 884C     		ldr	r4, .L111+28
 244:sampleengine.h ****         a = spliceBufferFour[spliceBufferReadIndexInt]; // current sample
 1427              		.loc 13 244 39 view .LVU287
 1428 0098 C0ED007A 		vstr.32	s15, [r0]
 245:sampleengine.h ****         b = spliceBufferFour[spliceBufferReadIndexInt + 1]; // next sample
 1429              		.loc 13 245 11 view .LVU288
ARM GAS  /var/folders/m5/x8wc2gdj7z5cpgcqdsb_gkj40000gn/T//cckXFIsJ.s 			page 49


 1430 009c 93ED000A 		vldr.32	s0, [r3]
 247:sampleengine.h ****     }
 1431              		.loc 13 247 22 view .LVU289
 1432 00a0 92ED007A 		vldr.32	s14, [r2]
 243:sampleengine.h ****         spliceBufferReadIndexFraction = spliceBufferReadIndex - spliceBufferReadIndexInt;
 1433              		.loc 13 243 34 view .LVU290
 1434 00a4 2160     		str	r1, [r4]
 244:sampleengine.h ****         a = spliceBufferFour[spliceBufferReadIndexInt]; // current sample
 1435              		.loc 13 244 9 is_stmt 1 view .LVU291
 245:sampleengine.h ****         b = spliceBufferFour[spliceBufferReadIndexInt + 1]; // next sample
 1436              		.loc 13 245 9 view .LVU292
 1437              	.LVL61:
 246:sampleengine.h ****         out = a + (b - a) * spliceBufferReadIndexFraction; // Linear Interpolation
 1438              		.loc 13 246 9 view .LVU293
 247:sampleengine.h ****     }
 1439              		.loc 13 247 9 view .LVU294
 247:sampleengine.h ****     }
 1440              		.loc 13 247 22 is_stmt 0 view .LVU295
 1441 00a6 37EE407A 		vsub.f32	s14, s14, s0
 247:sampleengine.h ****     }
 1442              		.loc 13 247 13 view .LVU296
 1443 00aa A7EE270A 		vfma.f32	s0, s14, s15
 1444              	.LVL62:
 247:sampleengine.h ****     }
 1445              		.loc 13 247 13 view .LVU297
 1446              	.LBE443:
 1447              	.LBE455:
 1448              	.LBE480:
 1449              	.LBE503:
 1450              	.LBE518:
 251:sampleengine.h **** 
 1451              		.loc 13 251 1 view .LVU298
 1452 00ae 10BD     		pop	{r4, pc}
 1453              	.LVL63:
 1454              	.L109:
 1455              	.LBB519:
 1456              	.LBB504:
 1457              	.LBB500:
 157:sampleengine.h ****         }
 1458              		.loc 13 157 13 is_stmt 1 view .LVU299
 157:sampleengine.h ****         }
 1459              		.loc 13 157 35 is_stmt 0 view .LVU300
 1460 00b0 7B4B     		ldr	r3, .L111+4
 1461 00b2 824A     		ldr	r2, .L111+32
 1462              	.LVL64:
 157:sampleengine.h ****         }
 1463              		.loc 13 157 35 view .LVU301
 1464 00b4 D3ED007A 		vldr.32	s15, [r3]
 1465 00b8 92ED007A 		vldr.32	s14, [r2]
 1466 00bc 77EE877A 		vadd.f32	s15, s15, s14
 1467 00c0 C3ED007A 		vstr.32	s15, [r3]
 1468 00c4 CEE7     		b	.L79
 1469              	.LVL65:
 1470              	.L108:
 157:sampleengine.h ****         }
 1471              		.loc 13 157 35 view .LVU302
 1472              	.LBE500:
ARM GAS  /var/folders/m5/x8wc2gdj7z5cpgcqdsb_gkj40000gn/T//cckXFIsJ.s 			page 50


 1473              	.LBE504:
 1474              	.LBB505:
 1475              	.LBB481:
 1476              	.LBB477:
 181:sampleengine.h ****         }
 1477              		.loc 13 181 13 is_stmt 1 view .LVU303
 181:sampleengine.h ****         }
 1478              		.loc 13 181 35 is_stmt 0 view .LVU304
 1479 00c6 764B     		ldr	r3, .L111+4
 1480 00c8 7C4A     		ldr	r2, .L111+32
 1481              	.LVL66:
 181:sampleengine.h ****         }
 1482              		.loc 13 181 35 view .LVU305
 1483 00ca D3ED007A 		vldr.32	s15, [r3]
 1484 00ce 92ED007A 		vldr.32	s14, [r2]
 1485 00d2 77EE877A 		vadd.f32	s15, s15, s14
 1486 00d6 C3ED007A 		vstr.32	s15, [r3]
 1487 00da A6E7     		b	.L86
 1488              	.LVL67:
 1489              	.L107:
 181:sampleengine.h ****         }
 1490              		.loc 13 181 35 view .LVU306
 1491              	.LBE477:
 1492              	.LBE481:
 1493              	.LBB482:
 1494              	.LBB456:
 1495              	.LBB451:
 227:sampleengine.h ****         {
 1496              		.loc 13 227 9 is_stmt 1 view .LVU307
 1497              	.LBB444:
 1498 00dc 0029     		cmp	r1, #0
 1499 00de 5BD0     		beq	.L110
 1500              	.LBE444:
 1501              	.LBE451:
 1502              	.LBE456:
 1503              	.LBE482:
 1504              	.LBE505:
 1505              	.LBE519:
 231:sampleengine.h ****         {
 1506              		.loc 13 231 14 view .LVU308
 1507              	.LBB520:
 1508              	.LBB506:
 1509              	.LBB483:
 1510              	.LBB457:
 1511              	.LBB452:
 1512              	.LBB448:
 1513              	.LBB445:
 1514 00e0 0129     		cmp	r1, #1
 1515 00e2 00F0BF80 		beq	.L98
 1516              	.LBE445:
 1517              	.LBE448:
 238:sampleengine.h ****         {
 1518              		.loc 13 238 34 is_stmt 0 view .LVU309
 1519 00e6 6E4B     		ldr	r3, .L111+4
 1520 00e8 D3ED007A 		vldr.32	s15, [r3]
 1521              	.LVL68:
 1522              	.L97:
ARM GAS  /var/folders/m5/x8wc2gdj7z5cpgcqdsb_gkj40000gn/T//cckXFIsJ.s 			page 51


 238:sampleengine.h ****         {
 1523              		.loc 13 238 9 is_stmt 1 view .LVU310
 238:sampleengine.h ****         {
 1524              		.loc 13 238 34 is_stmt 0 view .LVU311
 1525 00ec 744A     		ldr	r2, .L111+36
 1526 00ee 92ED007A 		vldr.32	s14, [r2]	@ int
 1527 00f2 B8EE477A 		vcvt.f32.u32	s14, s14
 238:sampleengine.h ****         {
 1528              		.loc 13 238 9 view .LVU312
 1529 00f6 B4EEE77A 		vcmpe.f32	s14, s15
 1530 00fa F1EE10FA 		vmrs	APSR_nzcv, FPSCR
 1531 00fe 56D4     		bmi	.L99
 243:sampleengine.h ****         spliceBufferReadIndexFraction = spliceBufferReadIndex - spliceBufferReadIndexInt;
 1532              		.loc 13 243 36 view .LVU313
 1533 0100 BDEEE77A 		vcvt.s32.f32	s14, s15
 1534 0104 17EE101A 		vmov	r1, s14	@ int
 244:sampleengine.h ****         a = spliceBufferFour[spliceBufferReadIndexInt]; // current sample
 1535              		.loc 13 244 63 view .LVU314
 1536 0108 B8EE477A 		vcvt.f32.u32	s14, s14
 246:sampleengine.h ****         out = a + (b - a) * spliceBufferReadIndexFraction; // Linear Interpolation
 1537              		.loc 13 246 55 view .LVU315
 1538 010c 4A1C     		adds	r2, r1, #1
 244:sampleengine.h ****         a = spliceBufferFour[spliceBufferReadIndexInt]; // current sample
 1539              		.loc 13 244 63 view .LVU316
 1540 010e 77EEC77A 		vsub.f32	s15, s15, s14
 1541              	.L100:
 243:sampleengine.h ****         spliceBufferReadIndexFraction = spliceBufferReadIndex - spliceBufferReadIndexInt;
 1542              		.loc 13 243 9 is_stmt 1 view .LVU317
 245:sampleengine.h ****         b = spliceBufferFour[spliceBufferReadIndexInt + 1]; // next sample
 1543              		.loc 13 245 11 is_stmt 0 view .LVU318
 1544 0112 6C4B     		ldr	r3, .L111+40
 1545 0114 BAE7     		b	.L103
 1546              	.L81:
 1547              	.LBE452:
 1548              	.LBE457:
 1549              	.LBE483:
 1550              	.LBE506:
 1551              	.LBB507:
 168:sampleengine.h ****         }
 1552              		.loc 13 168 13 is_stmt 1 view .LVU319
 168:sampleengine.h ****         }
 1553              		.loc 13 168 35 is_stmt 0 view .LVU320
 1554 0116 9FED617A 		vldr.32	s14, .L111
 1555 011a 0122     		movs	r2, #1
 1556 011c 0021     		movs	r1, #0
 1557 011e F0EE477A 		vmov.f32	s15, s14
 1558 0122 83ED007A 		vstr.32	s14, [r3]
 1559 0126 B0E7     		b	.L82
 1560              	.LVL69:
 1561              	.L106:
 168:sampleengine.h ****         }
 1562              		.loc 13 168 35 view .LVU321
 1563              	.LBE507:
 1564              	.LBB508:
 1565              	.LBB484:
 1566              	.LBB458:
 203:sampleengine.h ****         {
ARM GAS  /var/folders/m5/x8wc2gdj7z5cpgcqdsb_gkj40000gn/T//cckXFIsJ.s 			page 52


 1567              		.loc 13 203 9 is_stmt 1 view .LVU322
 1568              	.LBB459:
 1569 0128 81BB     		cbnz	r1, .L91
 205:sampleengine.h ****         }
 1570              		.loc 13 205 13 view .LVU323
 205:sampleengine.h ****         }
 1571              		.loc 13 205 35 is_stmt 0 view .LVU324
 1572 012a 5D4B     		ldr	r3, .L111+4
 1573 012c 634A     		ldr	r2, .L111+32
 1574              	.LVL70:
 205:sampleengine.h ****         }
 1575              		.loc 13 205 35 view .LVU325
 1576 012e D3ED007A 		vldr.32	s15, [r3]
 1577 0132 92ED007A 		vldr.32	s14, [r2]
 1578 0136 77EE877A 		vadd.f32	s15, s15, s14
 1579 013a C3ED007A 		vstr.32	s15, [r3]
 1580              	.LVL71:
 1581              	.L92:
 205:sampleengine.h ****         }
 1582              		.loc 13 205 35 view .LVU326
 1583              	.LBE459:
 214:sampleengine.h ****         {
 1584              		.loc 13 214 9 is_stmt 1 view .LVU327
 214:sampleengine.h ****         {
 1585              		.loc 13 214 34 is_stmt 0 view .LVU328
 1586 013e 624A     		ldr	r2, .L111+44
 1587 0140 92ED007A 		vldr.32	s14, [r2]	@ int
 1588 0144 B8EE477A 		vcvt.f32.u32	s14, s14
 214:sampleengine.h ****         {
 1589              		.loc 13 214 9 view .LVU329
 1590 0148 B4EEE77A 		vcmpe.f32	s14, s15
 1591 014c F1EE10FA 		vmrs	APSR_nzcv, FPSCR
 1592 0150 13D4     		bmi	.L94
 219:sampleengine.h ****         spliceBufferReadIndexFraction = spliceBufferReadIndex - spliceBufferReadIndexInt;
 1593              		.loc 13 219 36 view .LVU330
 1594 0152 BDEEE77A 		vcvt.s32.f32	s14, s15
 1595 0156 17EE101A 		vmov	r1, s14	@ int
 220:sampleengine.h ****         a = spliceBufferThree[spliceBufferReadIndexInt]; // current sample
 1596              		.loc 13 220 63 view .LVU331
 1597 015a B8EE477A 		vcvt.f32.u32	s14, s14
 222:sampleengine.h ****         out = a + (b - a) * spliceBufferReadIndexFraction; // Linear Interpolation
 1598              		.loc 13 222 56 view .LVU332
 1599 015e 4A1C     		adds	r2, r1, #1
 220:sampleengine.h ****         a = spliceBufferThree[spliceBufferReadIndexInt]; // current sample
 1600              		.loc 13 220 63 view .LVU333
 1601 0160 77EEC77A 		vsub.f32	s15, s15, s14
 1602              	.L95:
 219:sampleengine.h ****         spliceBufferReadIndexFraction = spliceBufferReadIndex - spliceBufferReadIndexInt;
 1603              		.loc 13 219 9 is_stmt 1 view .LVU334
 221:sampleengine.h ****         b = spliceBufferThree[spliceBufferReadIndexInt + 1]; // next sample
 1604              		.loc 13 221 11 is_stmt 0 view .LVU335
 1605 0164 594B     		ldr	r3, .L111+48
 1606 0166 91E7     		b	.L103
 1607              	.L88:
 1608              	.LBE458:
 1609              	.LBE484:
 1610              	.LBB485:
ARM GAS  /var/folders/m5/x8wc2gdj7z5cpgcqdsb_gkj40000gn/T//cckXFIsJ.s 			page 53


 192:sampleengine.h ****         }
 1611              		.loc 13 192 13 is_stmt 1 view .LVU336
 192:sampleengine.h ****         }
 1612              		.loc 13 192 35 is_stmt 0 view .LVU337
 1613 0168 9FED4C7A 		vldr.32	s14, .L111
 1614 016c 0122     		movs	r2, #1
 1615 016e 0021     		movs	r1, #0
 1616 0170 F0EE477A 		vmov.f32	s15, s14
 1617 0174 83ED007A 		vstr.32	s14, [r3]
 1618 0178 6BE7     		b	.L89
 1619              	.L94:
 1620              	.LBE485:
 1621              	.LBB486:
 1622              	.LBB465:
 216:sampleengine.h ****         }
 1623              		.loc 13 216 13 is_stmt 1 view .LVU338
 216:sampleengine.h ****         }
 1624              		.loc 13 216 35 is_stmt 0 view .LVU339
 1625 017a 9FED487A 		vldr.32	s14, .L111
 1626 017e 0122     		movs	r2, #1
 1627 0180 0021     		movs	r1, #0
 1628 0182 F0EE477A 		vmov.f32	s15, s14
 1629 0186 83ED007A 		vstr.32	s14, [r3]
 1630 018a EBE7     		b	.L95
 1631              	.LVL72:
 1632              	.L91:
 216:sampleengine.h ****         }
 1633              		.loc 13 216 35 view .LVU340
 1634              	.LBE465:
 1635              	.LBE486:
 1636              	.LBE508:
 1637              	.LBE520:
 207:sampleengine.h ****         {
 1638              		.loc 13 207 14 is_stmt 1 view .LVU341
 1639              	.LBB521:
 1640              	.LBB509:
 1641              	.LBB487:
 1642              	.LBB466:
 1643              	.LBB463:
 1644              	.LBB460:
 1645 018c 0129     		cmp	r1, #1
 1646 018e 4ED0     		beq	.L93
 1647              	.LBE460:
 1648              	.LBE463:
 214:sampleengine.h ****         {
 1649              		.loc 13 214 34 is_stmt 0 view .LVU342
 1650 0190 434B     		ldr	r3, .L111+4
 1651 0192 D3ED007A 		vldr.32	s15, [r3]
 1652 0196 D2E7     		b	.L92
 1653              	.L110:
 214:sampleengine.h ****         {
 1654              		.loc 13 214 34 view .LVU343
 1655              	.LBE466:
 1656              	.LBB467:
 1657              	.LBB453:
 1658              	.LBB449:
 229:sampleengine.h ****         }
ARM GAS  /var/folders/m5/x8wc2gdj7z5cpgcqdsb_gkj40000gn/T//cckXFIsJ.s 			page 54


 1659              		.loc 13 229 13 is_stmt 1 view .LVU344
 229:sampleengine.h ****         }
 1660              		.loc 13 229 35 is_stmt 0 view .LVU345
 1661 0198 414B     		ldr	r3, .L111+4
 1662 019a 484A     		ldr	r2, .L111+32
 1663              	.LVL73:
 229:sampleengine.h ****         }
 1664              		.loc 13 229 35 view .LVU346
 1665 019c D3ED007A 		vldr.32	s15, [r3]
 1666 01a0 92ED007A 		vldr.32	s14, [r2]
 1667 01a4 77EE877A 		vadd.f32	s15, s15, s14
 1668 01a8 C3ED007A 		vstr.32	s15, [r3]
 1669 01ac 9EE7     		b	.L97
 1670              	.LVL74:
 1671              	.L99:
 229:sampleengine.h ****         }
 1672              		.loc 13 229 35 view .LVU347
 1673              	.LBE449:
 240:sampleengine.h ****         }
 1674              		.loc 13 240 13 is_stmt 1 view .LVU348
 240:sampleengine.h ****         }
 1675              		.loc 13 240 35 is_stmt 0 view .LVU349
 1676 01ae 9FED3B7A 		vldr.32	s14, .L111
 1677 01b2 0122     		movs	r2, #1
 1678 01b4 0021     		movs	r1, #0
 1679 01b6 F0EE477A 		vmov.f32	s15, s14
 1680 01ba 83ED007A 		vstr.32	s14, [r3]
 1681 01be A8E7     		b	.L100
 1682              	.LVL75:
 1683              	.L80:
 240:sampleengine.h ****         }
 1684              		.loc 13 240 35 view .LVU350
 1685              	.LBE453:
 1686              	.LBE467:
 1687              	.LBE487:
 1688              	.LBE509:
 1689              	.LBB510:
 1690              	.LBB501:
 1691              	.LBB498:
 1692              	.LBB497:
 161:sampleengine.h ****             float readFactorPitch = playFreq / baseFreq;
 1693              		.loc 13 161 13 is_stmt 1 view .LVU351
 161:sampleengine.h ****             float readFactorPitch = playFreq / baseFreq;
 1694              		.loc 13 161 78 is_stmt 0 view .LVU352
 1695 01c0 0C3A     		subs	r2, r2, #12
 1696              	.LVL76:
 161:sampleengine.h ****             float readFactorPitch = playFreq / baseFreq;
 1697              		.loc 13 161 45 view .LVU353
 1698 01c2 F2EE080A 		vmov.f32	s1, #1.2e+1
 1699 01c6 B0EE000A 		vmov.f32	s0, #2.0e+0
 1700 01ca 07EE902A 		vmov	s15, r2	@ int
 1701 01ce F8EEE77A 		vcvt.f32.s32	s15, s15
 1702 01d2 C7EEA00A 		vdiv.f32	s1, s15, s1
 1703 01d6 FFF7FEFF 		bl	powf
 1704              	.LVL77:
 161:sampleengine.h ****             float readFactorPitch = playFreq / baseFreq;
 1705              		.loc 13 161 39 view .LVU354
ARM GAS  /var/folders/m5/x8wc2gdj7z5cpgcqdsb_gkj40000gn/T//cckXFIsJ.s 			page 55


 1706 01da 3D4A     		ldr	r2, .L111+52
 163:sampleengine.h ****         }
 1707              		.loc 13 163 35 view .LVU355
 1708 01dc 304B     		ldr	r3, .L111+4
 161:sampleengine.h ****             float readFactorPitch = playFreq / baseFreq;
 1709              		.loc 13 161 39 view .LVU356
 1710 01de 92ED007A 		vldr.32	s14, [r2]
 1711              	.LVL78:
 162:sampleengine.h ****             spliceBufferReadIndex += readFactorPitch;
 1712              		.loc 13 162 13 is_stmt 1 view .LVU357
 163:sampleengine.h ****         }
 1713              		.loc 13 163 13 view .LVU358
 163:sampleengine.h ****         }
 1714              		.loc 13 163 35 is_stmt 0 view .LVU359
 1715 01e2 D3ED006A 		vldr.32	s13, [r3]
 161:sampleengine.h ****             float readFactorPitch = playFreq / baseFreq;
 1716              		.loc 13 161 91 view .LVU360
 1717 01e6 20EE070A 		vmul.f32	s0, s0, s14
 1718              	.LVL79:
 162:sampleengine.h ****             spliceBufferReadIndex += readFactorPitch;
 1719              		.loc 13 162 19 view .LVU361
 1720 01ea C0EE077A 		vdiv.f32	s15, s0, s14
 1721              	.LVL80:
 163:sampleengine.h ****         }
 1722              		.loc 13 163 35 view .LVU362
 1723 01ee 77EEA67A 		vadd.f32	s15, s15, s13
 1724              	.LVL81:
 163:sampleengine.h ****         }
 1725              		.loc 13 163 35 view .LVU363
 1726 01f2 C3ED007A 		vstr.32	s15, [r3]
 1727              	.LBE497:
 1728 01f6 35E7     		b	.L79
 1729              	.LVL82:
 1730              	.L87:
 163:sampleengine.h ****         }
 1731              		.loc 13 163 35 view .LVU364
 1732              	.LBE498:
 1733              	.LBE501:
 1734              	.LBE510:
 1735              	.LBB511:
 1736              	.LBB488:
 1737              	.LBB478:
 1738              	.LBB475:
 1739              	.LBB474:
 185:sampleengine.h ****             float readFactorPitch = playFreq / baseFreq;
 1740              		.loc 13 185 13 is_stmt 1 view .LVU365
 185:sampleengine.h ****             float readFactorPitch = playFreq / baseFreq;
 1741              		.loc 13 185 45 is_stmt 0 view .LVU366
 1742 01f8 07EE902A 		vmov	s15, r2	@ int
 1743 01fc F2EE080A 		vmov.f32	s1, #1.2e+1
 1744 0200 B0EE000A 		vmov.f32	s0, #2.0e+0
 1745 0204 F8EEE77A 		vcvt.f32.s32	s15, s15
 1746 0208 C7EEA00A 		vdiv.f32	s1, s15, s1
 1747 020c FFF7FEFF 		bl	powf
 1748              	.LVL83:
 185:sampleengine.h ****             float readFactorPitch = playFreq / baseFreq;
 1749              		.loc 13 185 39 view .LVU367
ARM GAS  /var/folders/m5/x8wc2gdj7z5cpgcqdsb_gkj40000gn/T//cckXFIsJ.s 			page 56


 1750 0210 2F4A     		ldr	r2, .L111+52
 187:sampleengine.h ****         }
 1751              		.loc 13 187 35 view .LVU368
 1752 0212 234B     		ldr	r3, .L111+4
 185:sampleengine.h ****             float readFactorPitch = playFreq / baseFreq;
 1753              		.loc 13 185 39 view .LVU369
 1754 0214 92ED007A 		vldr.32	s14, [r2]
 1755              	.LVL84:
 186:sampleengine.h ****             spliceBufferReadIndex += readFactorPitch;
 1756              		.loc 13 186 13 is_stmt 1 view .LVU370
 187:sampleengine.h ****         }
 1757              		.loc 13 187 13 view .LVU371
 187:sampleengine.h ****         }
 1758              		.loc 13 187 35 is_stmt 0 view .LVU372
 1759 0218 D3ED006A 		vldr.32	s13, [r3]
 185:sampleengine.h ****             float readFactorPitch = playFreq / baseFreq;
 1760              		.loc 13 185 86 view .LVU373
 1761 021c 20EE070A 		vmul.f32	s0, s0, s14
 1762              	.LVL85:
 186:sampleengine.h ****             spliceBufferReadIndex += readFactorPitch;
 1763              		.loc 13 186 19 view .LVU374
 1764 0220 C0EE077A 		vdiv.f32	s15, s0, s14
 1765              	.LVL86:
 187:sampleengine.h ****         }
 1766              		.loc 13 187 35 view .LVU375
 1767 0224 77EEA67A 		vadd.f32	s15, s15, s13
 1768              	.LVL87:
 187:sampleengine.h ****         }
 1769              		.loc 13 187 35 view .LVU376
 1770 0228 C3ED007A 		vstr.32	s15, [r3]
 1771              	.LBE474:
 1772 022c FDE6     		b	.L86
 1773              	.LVL88:
 1774              	.L93:
 187:sampleengine.h ****         }
 1775              		.loc 13 187 35 view .LVU377
 1776              	.LBE475:
 1777              	.LBE478:
 1778              	.LBE488:
 1779              	.LBB489:
 1780              	.LBB468:
 1781              	.LBB464:
 1782              	.LBB462:
 1783              	.LBB461:
 209:sampleengine.h ****             float readFactorPitch = playFreq / baseFreq;
 1784              		.loc 13 209 13 is_stmt 1 view .LVU378
 209:sampleengine.h ****             float readFactorPitch = playFreq / baseFreq;
 1785              		.loc 13 209 45 is_stmt 0 view .LVU379
 1786 022e 07EE902A 		vmov	s15, r2	@ int
 1787 0232 F2EE080A 		vmov.f32	s1, #1.2e+1
 1788 0236 B0EE000A 		vmov.f32	s0, #2.0e+0
 1789 023a F8EEE77A 		vcvt.f32.s32	s15, s15
 1790 023e C7EEA00A 		vdiv.f32	s1, s15, s1
 1791 0242 FFF7FEFF 		bl	powf
 1792              	.LVL89:
 209:sampleengine.h ****             float readFactorPitch = playFreq / baseFreq;
 1793              		.loc 13 209 39 view .LVU380
ARM GAS  /var/folders/m5/x8wc2gdj7z5cpgcqdsb_gkj40000gn/T//cckXFIsJ.s 			page 57


 1794 0246 224A     		ldr	r2, .L111+52
 211:sampleengine.h ****         }
 1795              		.loc 13 211 35 view .LVU381
 1796 0248 154B     		ldr	r3, .L111+4
 209:sampleengine.h ****             float readFactorPitch = playFreq / baseFreq;
 1797              		.loc 13 209 39 view .LVU382
 1798 024a 92ED007A 		vldr.32	s14, [r2]
 1799              	.LVL90:
 210:sampleengine.h ****             spliceBufferReadIndex += readFactorPitch;
 1800              		.loc 13 210 13 is_stmt 1 view .LVU383
 211:sampleengine.h ****         }
 1801              		.loc 13 211 13 view .LVU384
 211:sampleengine.h ****         }
 1802              		.loc 13 211 35 is_stmt 0 view .LVU385
 1803 024e D3ED006A 		vldr.32	s13, [r3]
 209:sampleengine.h ****             float readFactorPitch = playFreq / baseFreq;
 1804              		.loc 13 209 86 view .LVU386
 1805 0252 20EE070A 		vmul.f32	s0, s0, s14
 1806              	.LVL91:
 210:sampleengine.h ****             spliceBufferReadIndex += readFactorPitch;
 1807              		.loc 13 210 19 view .LVU387
 1808 0256 C0EE077A 		vdiv.f32	s15, s0, s14
 1809              	.LVL92:
 211:sampleengine.h ****         }
 1810              		.loc 13 211 35 view .LVU388
 1811 025a 77EEA67A 		vadd.f32	s15, s15, s13
 1812              	.LVL93:
 211:sampleengine.h ****         }
 1813              		.loc 13 211 35 view .LVU389
 1814 025e C3ED007A 		vstr.32	s15, [r3]
 1815              	.LBE461:
 1816 0262 6CE7     		b	.L92
 1817              	.LVL94:
 1818              	.L98:
 211:sampleengine.h ****         }
 1819              		.loc 13 211 35 view .LVU390
 1820              	.LBE462:
 1821              	.LBE464:
 1822              	.LBE468:
 1823              	.LBB469:
 1824              	.LBB454:
 1825              	.LBB450:
 1826              	.LBB447:
 1827              	.LBB446:
 233:sampleengine.h ****             float readFactorPitch = playFreq / baseFreq;
 1828              		.loc 13 233 13 is_stmt 1 view .LVU391
 233:sampleengine.h ****             float readFactorPitch = playFreq / baseFreq;
 1829              		.loc 13 233 45 is_stmt 0 view .LVU392
 1830 0264 07EE902A 		vmov	s15, r2	@ int
 1831 0268 F2EE080A 		vmov.f32	s1, #1.2e+1
 1832 026c B0EE000A 		vmov.f32	s0, #2.0e+0
 1833 0270 F8EEE77A 		vcvt.f32.s32	s15, s15
 1834 0274 C7EEA00A 		vdiv.f32	s1, s15, s1
 1835 0278 FFF7FEFF 		bl	powf
 1836              	.LVL95:
 233:sampleengine.h ****             float readFactorPitch = playFreq / baseFreq;
 1837              		.loc 13 233 39 view .LVU393
ARM GAS  /var/folders/m5/x8wc2gdj7z5cpgcqdsb_gkj40000gn/T//cckXFIsJ.s 			page 58


 1838 027c 144A     		ldr	r2, .L111+52
 235:sampleengine.h ****         }
 1839              		.loc 13 235 35 view .LVU394
 1840 027e 084B     		ldr	r3, .L111+4
 233:sampleengine.h ****             float readFactorPitch = playFreq / baseFreq;
 1841              		.loc 13 233 39 view .LVU395
 1842 0280 92ED007A 		vldr.32	s14, [r2]
 1843              	.LVL96:
 234:sampleengine.h ****             spliceBufferReadIndex += readFactorPitch;
 1844              		.loc 13 234 13 is_stmt 1 view .LVU396
 235:sampleengine.h ****         }
 1845              		.loc 13 235 13 view .LVU397
 235:sampleengine.h ****         }
 1846              		.loc 13 235 35 is_stmt 0 view .LVU398
 1847 0284 D3ED006A 		vldr.32	s13, [r3]
 233:sampleengine.h ****             float readFactorPitch = playFreq / baseFreq;
 1848              		.loc 13 233 86 view .LVU399
 1849 0288 20EE070A 		vmul.f32	s0, s0, s14
 1850              	.LVL97:
 234:sampleengine.h ****             spliceBufferReadIndex += readFactorPitch;
 1851              		.loc 13 234 19 view .LVU400
 1852 028c C0EE077A 		vdiv.f32	s15, s0, s14
 1853              	.LVL98:
 235:sampleengine.h ****         }
 1854              		.loc 13 235 35 view .LVU401
 1855 0290 77EEA67A 		vadd.f32	s15, s15, s13
 1856              	.LVL99:
 235:sampleengine.h ****         }
 1857              		.loc 13 235 35 view .LVU402
 1858 0294 C3ED007A 		vstr.32	s15, [r3]
 1859              	.LBE446:
 1860 0298 28E7     		b	.L97
 1861              	.L112:
 1862 029a 00BF     		.align	2
 1863              	.L111:
 1864 029c 00000000 		.word	0
 1865 02a0 00000000 		.word	.LANCHOR21
 1866 02a4 00000000 		.word	.LANCHOR26
 1867 02a8 00000000 		.word	spliceBufferTwo
 1868 02ac 00000000 		.word	.LANCHOR23
 1869 02b0 00000000 		.word	spliceBufferOne
 1870 02b4 00000000 		.word	.LANCHOR25
 1871 02b8 00000000 		.word	.LANCHOR24
 1872 02bc 00000000 		.word	.LANCHOR14
 1873 02c0 00000000 		.word	.LANCHOR28
 1874 02c4 00000000 		.word	spliceBufferFour
 1875 02c8 00000000 		.word	.LANCHOR27
 1876 02cc 00000000 		.word	spliceBufferThree
 1877 02d0 00000000 		.word	.LANCHOR22
 1878              	.LBE447:
 1879              	.LBE450:
 1880              	.LBE454:
 1881              	.LBE469:
 1882              	.LBE489:
 1883              	.LBE511:
 1884              	.LBE521:
 1885              		.cfi_endproc
ARM GAS  /var/folders/m5/x8wc2gdj7z5cpgcqdsb_gkj40000gn/T//cckXFIsJ.s 			page 59


 1886              	.LFE4695:
 1888              		.section	.text._Z17StoreSpliceBufferi,"ax",%progbits
 1889              		.align	1
 1890              		.p2align 2,,3
 1891              		.global	_Z17StoreSpliceBufferi
 1892              		.syntax unified
 1893              		.thumb
 1894              		.thumb_func
 1896              	_Z17StoreSpliceBufferi:
 1897              	.LVL100:
 1898              	.LFB4696:
 254:sampleengine.h ****     readIndex = startPoint;
 1899              		.loc 13 254 1 is_stmt 1 view -0
 1900              		.cfi_startproc
 1901              		@ args = 0, pretend = 0, frame = 8
 1902              		@ frame_needed = 0, uses_anonymous_args = 0
 255:sampleengine.h ****     float startSample = startPoint;
 1903              		.loc 13 255 5 view .LVU404
 255:sampleengine.h ****     float startSample = startPoint;
 1904              		.loc 13 255 15 is_stmt 0 view .LVU405
 1905 0000 B14B     		ldr	r3, .L147
 1906              	.LBB546:
 257:sampleengine.h ****     {
 1907              		.loc 13 257 5 view .LVU406
 1908 0002 0128     		cmp	r0, #1
 1909              	.LBE546:
 255:sampleengine.h ****     float startSample = startPoint;
 1910              		.loc 13 255 15 view .LVU407
 1911 0004 1B68     		ldr	r3, [r3]
 254:sampleengine.h ****     readIndex = startPoint;
 1912              		.loc 13 254 1 view .LVU408
 1913 0006 2DE9F04F 		push	{r4, r5, r6, r7, r8, r9, r10, fp, lr}
 1914              		.cfi_def_cfa_offset 36
 1915              		.cfi_offset 4, -36
 1916              		.cfi_offset 5, -32
 1917              		.cfi_offset 6, -28
 1918              		.cfi_offset 7, -24
 1919              		.cfi_offset 8, -20
 1920              		.cfi_offset 9, -16
 1921              		.cfi_offset 10, -12
 1922              		.cfi_offset 11, -8
 1923              		.cfi_offset 14, -4
 255:sampleengine.h ****     float startSample = startPoint;
 1924              		.loc 13 255 15 view .LVU409
 1925 000a 07EE903A 		vmov	s15, r3	@ int
 254:sampleengine.h ****     readIndex = startPoint;
 1926              		.loc 13 254 1 view .LVU410
 1927 000e 83B0     		sub	sp, sp, #12
 1928              		.cfi_def_cfa_offset 48
 255:sampleengine.h ****     float startSample = startPoint;
 1929              		.loc 13 255 15 view .LVU411
 1930 0010 AE4D     		ldr	r5, .L147+4
 256:sampleengine.h ****     if(bufferNum == 1)
 1931              		.loc 13 256 5 is_stmt 1 view .LVU412
 255:sampleengine.h ****     float startSample = startPoint;
 1932              		.loc 13 255 15 is_stmt 0 view .LVU413
 1933 0012 B8EE675A 		vcvt.f32.u32	s10, s15
ARM GAS  /var/folders/m5/x8wc2gdj7z5cpgcqdsb_gkj40000gn/T//cckXFIsJ.s 			page 60


 1934              	.LVL101:
 257:sampleengine.h ****     {
 1935              		.loc 13 257 5 is_stmt 1 view .LVU414
 255:sampleengine.h ****     float startSample = startPoint;
 1936              		.loc 13 255 15 is_stmt 0 view .LVU415
 1937 0016 0193     		str	r3, [sp, #4]
 1938              	.LBB685:
 257:sampleengine.h ****     {
 1939              		.loc 13 257 5 view .LVU416
 1940 0018 5DD0     		beq	.L143
 1941              	.LBE685:
 270:sampleengine.h ****     {
 1942              		.loc 13 270 10 is_stmt 1 view .LVU417
 1943              	.LBB686:
 1944              	.LBB547:
 1945 001a 0228     		cmp	r0, #2
 1946 001c 0AD0     		beq	.L144
 1947              	.LBE547:
 1948              	.LBE686:
 283:sampleengine.h ****     {
 1949              		.loc 13 283 10 view .LVU418
 1950              	.LBB687:
 1951              	.LBB645:
 1952              	.LBB548:
 1953 001e 0328     		cmp	r0, #3
 1954 0020 00F0F780 		beq	.L145
 1955              	.LBE548:
 1956              	.LBE645:
 1957              	.LBE687:
 296:sampleengine.h ****     {
 1958              		.loc 13 296 10 view .LVU419
 1959              	.LBB688:
 1960              	.LBB646:
 1961              	.LBB609:
 1962              	.LBB549:
 1963 0024 0428     		cmp	r0, #4
 1964 0026 00F0A580 		beq	.L146
 1965              	.LVL102:
 1966              	.L118:
 296:sampleengine.h ****     {
 1967              		.loc 13 296 10 is_stmt 0 view .LVU420
 1968              	.LBE549:
 1969              	.LBE609:
 1970              	.LBE646:
 1971              	.LBE688:
 309:sampleengine.h **** }
 1972              		.loc 13 309 5 is_stmt 1 view .LVU421
 309:sampleengine.h **** }
 1973              		.loc 13 309 15 is_stmt 0 view .LVU422
 1974 002a 85ED005A 		vstr.32	s10, [r5]
 310:sampleengine.h **** 
 1975              		.loc 13 310 1 view .LVU423
 1976 002e 03B0     		add	sp, sp, #12
 1977              		.cfi_remember_state
 1978              		.cfi_def_cfa_offset 36
 1979              		@ sp needed
 1980 0030 BDE8F08F 		pop	{r4, r5, r6, r7, r8, r9, r10, fp, pc}
ARM GAS  /var/folders/m5/x8wc2gdj7z5cpgcqdsb_gkj40000gn/T//cckXFIsJ.s 			page 61


 1981              	.LVL103:
 1982              	.L144:
 1983              		.cfi_restore_state
 1984              	.LBB689:
 1985              	.LBB647:
 270:sampleengine.h ****     {
 1986              		.loc 13 270 10 view .LVU424
 1987 0034 F0EE457A 		vmov.f32	s15, s10
 1988 0038 A54A     		ldr	r2, .L147+8
 1989              	.LBB610:
 272:sampleengine.h ****         {
 1990              		.loc 13 272 23 view .LVU425
 1991 003a 0026     		movs	r6, #0
 1992 003c DFF8B8B2 		ldr	fp, .L147+48
 1993 0040 DFF8B8A2 		ldr	r10, .L147+52
 1994 0044 A34C     		ldr	r4, .L147+12
 1995 0046 DFF8B892 		ldr	r9, .L147+56
 1996 004a DFF8B882 		ldr	r8, .L147+60
 1997 004e 03E0     		b	.L125
 1998              	.LVL104:
 1999              	.L124:
 272:sampleengine.h ****         {
 2000              		.loc 13 272 9 discriminator 2 view .LVU426
 2001 0050 0136     		adds	r6, r6, #1
 2002              	.LVL105:
 272:sampleengine.h ****         {
 2003              		.loc 13 272 32 is_stmt 1 discriminator 2 view .LVU427
 2004 0052 9E42     		cmp	r6, r3
 2005 0054 00F02D81 		beq	.L119
 2006              	.LVL106:
 2007              	.L125:
 274:sampleengine.h ****             AdvanceReadIndex();
 2008              		.loc 13 274 13 view .LVU428
 2009              	.LBB611:
 2010              	.LBI611:
 118:sampleengine.h **** {
 2011              		.loc 13 118 7 view .LVU429
 2012              	.LBB612:
 120:sampleengine.h **** 
 2013              		.loc 13 120 5 view .LVU430
 122:sampleengine.h **** 	readIndexFraction = readIndex - readIndexInt;
 2014              		.loc 13 122 5 view .LVU431
 122:sampleengine.h **** 	readIndexFraction = readIndex - readIndexInt;
 2015              		.loc 13 122 20 is_stmt 0 view .LVU432
 2016 0058 BDEEE77A 		vcvt.s32.f32	s14, s15
 2017              	.LBE612:
 2018              	.LBE611:
 2019              	.LBB618:
 2020              	.LBB619:
 107:sampleengine.h **** 
 2021              		.loc 13 107 15 view .LVU433
 2022 005c D9ED004A 		vldr.32	s9, [r9]
 2023              	.LBE619:
 2024              	.LBE618:
 2025              	.LBB626:
 2026              	.LBB613:
 122:sampleengine.h **** 	readIndexFraction = readIndex - readIndexInt;
ARM GAS  /var/folders/m5/x8wc2gdj7z5cpgcqdsb_gkj40000gn/T//cckXFIsJ.s 			page 62


 2027              		.loc 13 122 20 view .LVU434
 2028 0060 17EE103A 		vmov	r3, s14	@ int
 123:sampleengine.h **** 
 2029              		.loc 13 123 32 view .LVU435
 2030 0064 F8EE476A 		vcvt.f32.u32	s13, s14
 2031              	.LBE613:
 2032              	.LBE626:
 2033              	.LBB627:
 2034              	.LBB620:
 109:sampleengine.h ****     {
 2035              		.loc 13 109 18 view .LVU436
 2036 0068 98ED007A 		vldr.32	s14, [r8]	@ int
 2037              	.LBE620:
 2038              	.LBE627:
 2039              	.LBB628:
 2040              	.LBB614:
 125:sampleengine.h **** 	b = recordingBuffer[readIndexInt + 1]; // next sample
 2041              		.loc 13 125 4 view .LVU437
 2042 006c 04EB8300 		add	r0, r4, r3, lsl #2
 122:sampleengine.h **** 	readIndexFraction = readIndex - readIndexInt;
 2043              		.loc 13 122 18 view .LVU438
 2044 0070 CBF80030 		str	r3, [fp]
 2045              	.LBE614:
 2046              	.LBE628:
 2047              	.LBB629:
 2048              	.LBB621:
 109:sampleengine.h ****     {
 2049              		.loc 13 109 18 view .LVU439
 2050 0074 B8EE476A 		vcvt.f32.u32	s12, s14
 2051              	.LBE621:
 2052              	.LBE629:
 2053              	.LBB630:
 2054              	.LBB615:
 127:sampleengine.h **** 
 2055              		.loc 13 127 15 view .LVU440
 2056 0078 D0ED015A 		vldr.32	s11, [r0, #4]
 123:sampleengine.h **** 
 2057              		.loc 13 123 2 is_stmt 1 view .LVU441
 123:sampleengine.h **** 
 2058              		.loc 13 123 32 is_stmt 0 view .LVU442
 2059 007c 77EEE66A 		vsub.f32	s13, s15, s13
 125:sampleengine.h **** 	b = recordingBuffer[readIndexInt + 1]; // next sample
 2060              		.loc 13 125 4 view .LVU443
 2061 0080 90ED007A 		vldr.32	s14, [r0]
 2062              	.LBE615:
 2063              	.LBE630:
 2064              	.LBB631:
 2065              	.LBB622:
 107:sampleengine.h **** 
 2066              		.loc 13 107 15 view .LVU444
 2067 0084 77EEA47A 		vadd.f32	s15, s15, s9
 2068              	.LBE622:
 2069              	.LBE631:
 2070              	.LBB632:
 2071              	.LBB616:
 127:sampleengine.h **** 
 2072              		.loc 13 127 15 view .LVU445
ARM GAS  /var/folders/m5/x8wc2gdj7z5cpgcqdsb_gkj40000gn/T//cckXFIsJ.s 			page 63


 2073 0088 75EEC75A 		vsub.f32	s11, s11, s14
 123:sampleengine.h **** 
 2074              		.loc 13 123 20 view .LVU446
 2075 008c CAED006A 		vstr.32	s13, [r10]
 125:sampleengine.h **** 	b = recordingBuffer[readIndexInt + 1]; // next sample
 2076              		.loc 13 125 2 is_stmt 1 view .LVU447
 2077              	.LVL107:
 126:sampleengine.h **** 	out = a + (b - a) * readIndexFraction; // Linear Interpolation
 2078              		.loc 13 126 2 view .LVU448
 127:sampleengine.h **** 
 2079              		.loc 13 127 2 view .LVU449
 2080              	.LBE616:
 2081              	.LBE632:
 2082              	.LBB633:
 2083              	.LBB623:
 109:sampleengine.h ****     {
 2084              		.loc 13 109 5 is_stmt 0 view .LVU450
 2085 0090 F4EEC67A 		vcmpe.f32	s15, s12
 107:sampleengine.h **** 
 2086              		.loc 13 107 15 view .LVU451
 2087 0094 C5ED007A 		vstr.32	s15, [r5]
 2088              	.LBE623:
 2089              	.LBE633:
 2090              	.LBB634:
 2091              	.LBB617:
 127:sampleengine.h **** 
 2092              		.loc 13 127 6 view .LVU452
 2093 0098 A6EEA57A 		vfma.f32	s14, s13, s11
 2094              	.LVL108:
 129:sampleengine.h **** }
 2095              		.loc 13 129 5 is_stmt 1 view .LVU453
 129:sampleengine.h **** }
 2096              		.loc 13 129 5 is_stmt 0 view .LVU454
 2097              	.LBE617:
 2098              	.LBE634:
 2099              	.LBB635:
 2100              	.LBB624:
 109:sampleengine.h ****     {
 2101              		.loc 13 109 5 view .LVU455
 2102 009c F1EE10FA 		vmrs	APSR_nzcv, FPSCR
 2103              	.LBE624:
 2104              	.LBE635:
 274:sampleengine.h ****             AdvanceReadIndex();
 2105              		.loc 13 274 32 view .LVU456
 2106 00a0 A2EC017A 		vstmia.32	r2!, {s14}
 275:sampleengine.h ****             if(readIndex == startSample)
 2107              		.loc 13 275 13 is_stmt 1 view .LVU457
 2108              	.LBB636:
 2109              	.LBI618:
 105:sampleengine.h **** {
 2110              		.loc 13 105 6 view .LVU458
 2111              	.LBB625:
 107:sampleengine.h **** 
 2112              		.loc 13 107 5 view .LVU459
 109:sampleengine.h ****     {
 2113              		.loc 13 109 5 view .LVU460
 2114 00a4 05DB     		blt	.L122
ARM GAS  /var/folders/m5/x8wc2gdj7z5cpgcqdsb_gkj40000gn/T//cckXFIsJ.s 			page 64


 2115 00a6 0192     		str	r2, [sp, #4]
 2116 00a8 FFF7FEFF 		bl	_Z16AdvanceReadIndexv.part.0
 2117              	.LVL109:
 2118              	.LBE625:
 2119              	.LBE636:
 276:sampleengine.h ****             {
 2120              		.loc 13 276 26 is_stmt 0 view .LVU461
 2121 00ac D5ED007A 		vldr.32	s15, [r5]
 2122 00b0 019A     		ldr	r2, [sp, #4]
 2123              	.L122:
 276:sampleengine.h ****             {
 2124              		.loc 13 276 13 is_stmt 1 view .LVU462
 272:sampleengine.h ****         {
 2125              		.loc 13 272 9 view .LVU463
 276:sampleengine.h ****             {
 2126              		.loc 13 276 13 is_stmt 0 view .LVU464
 2127 00b2 B4EE675A 		vcmp.f32	s10, s15
 272:sampleengine.h ****         {
 2128              		.loc 13 272 32 view .LVU465
 2129 00b6 884B     		ldr	r3, .L147+16
 276:sampleengine.h ****             {
 2130              		.loc 13 276 13 view .LVU466
 2131 00b8 F1EE10FA 		vmrs	APSR_nzcv, FPSCR
 2132 00bc C8D1     		bne	.L124
 278:sampleengine.h ****                 break;
 2133              		.loc 13 278 17 is_stmt 1 view .LVU467
 2134              	.LBE610:
 2135              	.LBE647:
 2136              	.LBE689:
 309:sampleengine.h **** }
 2137              		.loc 13 309 15 is_stmt 0 view .LVU468
 2138 00be 824A     		ldr	r2, .L147
 2139              	.LBB690:
 2140              	.LBB648:
 2141              	.LBB637:
 278:sampleengine.h ****                 break;
 2142              		.loc 13 278 39 view .LVU469
 2143 00c0 864B     		ldr	r3, .L147+20
 2144              	.LBE637:
 2145              	.LBE648:
 2146              	.LBE690:
 309:sampleengine.h **** }
 2147              		.loc 13 309 15 view .LVU470
 2148 00c2 92ED005A 		vldr.32	s10, [r2]	@ int
 2149              	.LVL110:
 2150              	.LBB691:
 2151              	.LBB649:
 2152              	.LBB638:
 278:sampleengine.h ****                 break;
 2153              		.loc 13 278 39 view .LVU471
 2154 00c6 1E60     		str	r6, [r3]
 279:sampleengine.h ****             }
 2155              		.loc 13 279 17 is_stmt 1 view .LVU472
 2156              	.LBE638:
 2157              	.LBE649:
 2158              	.LBE691:
 309:sampleengine.h **** }
ARM GAS  /var/folders/m5/x8wc2gdj7z5cpgcqdsb_gkj40000gn/T//cckXFIsJ.s 			page 65


 2159              		.loc 13 309 15 is_stmt 0 view .LVU473
 2160 00c8 B8EE455A 		vcvt.f32.u32	s10, s10
 309:sampleengine.h **** }
 2161              		.loc 13 309 5 is_stmt 1 view .LVU474
 309:sampleengine.h **** }
 2162              		.loc 13 309 15 is_stmt 0 view .LVU475
 2163 00cc 85ED005A 		vstr.32	s10, [r5]
 310:sampleengine.h **** 
 2164              		.loc 13 310 1 view .LVU476
 2165 00d0 03B0     		add	sp, sp, #12
 2166              		.cfi_remember_state
 2167              		.cfi_def_cfa_offset 36
 2168              		@ sp needed
 2169 00d2 BDE8F08F 		pop	{r4, r5, r6, r7, r8, r9, r10, fp, pc}
 2170              	.LVL111:
 2171              	.L143:
 2172              		.cfi_restore_state
 2173              	.LBB692:
 257:sampleengine.h ****     {
 2174              		.loc 13 257 5 view .LVU477
 2175 00d6 F0EE457A 		vmov.f32	s15, s10
 2176 00da 814F     		ldr	r7, .L147+24
 2177              	.LBB650:
 259:sampleengine.h ****         {
 2178              		.loc 13 259 23 view .LVU478
 2179 00dc 0026     		movs	r6, #0
 2180 00de DFF818B2 		ldr	fp, .L147+48
 2181 00e2 DFF818A2 		ldr	r10, .L147+52
 2182 00e6 7B4C     		ldr	r4, .L147+12
 2183 00e8 DFF81492 		ldr	r9, .L147+56
 2184 00ec DFF81482 		ldr	r8, .L147+60
 2185 00f0 03E0     		b	.L120
 2186              	.LVL112:
 2187              	.L117:
 259:sampleengine.h ****         {
 2188              		.loc 13 259 9 discriminator 2 view .LVU479
 2189 00f2 0136     		adds	r6, r6, #1
 2190              	.LVL113:
 259:sampleengine.h ****         {
 2191              		.loc 13 259 32 is_stmt 1 discriminator 2 view .LVU480
 2192 00f4 9E42     		cmp	r6, r3
 2193 00f6 00F0DC80 		beq	.L119
 2194              	.LVL114:
 2195              	.L120:
 261:sampleengine.h ****             AdvanceReadIndex();
 2196              		.loc 13 261 13 view .LVU481
 2197              	.LBB651:
 2198              	.LBI651:
 118:sampleengine.h **** {
 2199              		.loc 13 118 7 view .LVU482
 2200              	.LBB652:
 120:sampleengine.h **** 
 2201              		.loc 13 120 5 view .LVU483
 122:sampleengine.h **** 	readIndexFraction = readIndex - readIndexInt;
 2202              		.loc 13 122 5 view .LVU484
 122:sampleengine.h **** 	readIndexFraction = readIndex - readIndexInt;
 2203              		.loc 13 122 20 is_stmt 0 view .LVU485
ARM GAS  /var/folders/m5/x8wc2gdj7z5cpgcqdsb_gkj40000gn/T//cckXFIsJ.s 			page 66


 2204 00fa BDEEE77A 		vcvt.s32.f32	s14, s15
 2205              	.LBE652:
 2206              	.LBE651:
 2207              	.LBB658:
 2208              	.LBB659:
 107:sampleengine.h **** 
 2209              		.loc 13 107 15 view .LVU486
 2210 00fe D9ED004A 		vldr.32	s9, [r9]
 2211              	.LBE659:
 2212              	.LBE658:
 2213              	.LBB666:
 2214              	.LBB653:
 122:sampleengine.h **** 	readIndexFraction = readIndex - readIndexInt;
 2215              		.loc 13 122 20 view .LVU487
 2216 0102 17EE103A 		vmov	r3, s14	@ int
 123:sampleengine.h **** 
 2217              		.loc 13 123 32 view .LVU488
 2218 0106 F8EE476A 		vcvt.f32.u32	s13, s14
 2219              	.LBE653:
 2220              	.LBE666:
 2221              	.LBB667:
 2222              	.LBB660:
 109:sampleengine.h ****     {
 2223              		.loc 13 109 18 view .LVU489
 2224 010a 98ED007A 		vldr.32	s14, [r8]	@ int
 2225              	.LBE660:
 2226              	.LBE667:
 2227              	.LBB668:
 2228              	.LBB654:
 125:sampleengine.h **** 	b = recordingBuffer[readIndexInt + 1]; // next sample
 2229              		.loc 13 125 4 view .LVU490
 2230 010e 04EB8300 		add	r0, r4, r3, lsl #2
 122:sampleengine.h **** 	readIndexFraction = readIndex - readIndexInt;
 2231              		.loc 13 122 18 view .LVU491
 2232 0112 CBF80030 		str	r3, [fp]
 2233              	.LBE654:
 2234              	.LBE668:
 2235              	.LBB669:
 2236              	.LBB661:
 109:sampleengine.h ****     {
 2237              		.loc 13 109 18 view .LVU492
 2238 0116 B8EE476A 		vcvt.f32.u32	s12, s14
 2239              	.LBE661:
 2240              	.LBE669:
 2241              	.LBB670:
 2242              	.LBB655:
 127:sampleengine.h **** 
 2243              		.loc 13 127 15 view .LVU493
 2244 011a D0ED015A 		vldr.32	s11, [r0, #4]
 123:sampleengine.h **** 
 2245              		.loc 13 123 2 is_stmt 1 view .LVU494
 123:sampleengine.h **** 
 2246              		.loc 13 123 32 is_stmt 0 view .LVU495
 2247 011e 77EEE66A 		vsub.f32	s13, s15, s13
 125:sampleengine.h **** 	b = recordingBuffer[readIndexInt + 1]; // next sample
 2248              		.loc 13 125 4 view .LVU496
 2249 0122 90ED007A 		vldr.32	s14, [r0]
ARM GAS  /var/folders/m5/x8wc2gdj7z5cpgcqdsb_gkj40000gn/T//cckXFIsJ.s 			page 67


 2250              	.LBE655:
 2251              	.LBE670:
 2252              	.LBB671:
 2253              	.LBB662:
 107:sampleengine.h **** 
 2254              		.loc 13 107 15 view .LVU497
 2255 0126 77EEA47A 		vadd.f32	s15, s15, s9
 2256              	.LBE662:
 2257              	.LBE671:
 2258              	.LBB672:
 2259              	.LBB656:
 127:sampleengine.h **** 
 2260              		.loc 13 127 15 view .LVU498
 2261 012a 75EEC75A 		vsub.f32	s11, s11, s14
 123:sampleengine.h **** 
 2262              		.loc 13 123 20 view .LVU499
 2263 012e CAED006A 		vstr.32	s13, [r10]
 125:sampleengine.h **** 	b = recordingBuffer[readIndexInt + 1]; // next sample
 2264              		.loc 13 125 2 is_stmt 1 view .LVU500
 2265              	.LVL115:
 126:sampleengine.h **** 	out = a + (b - a) * readIndexFraction; // Linear Interpolation
 2266              		.loc 13 126 2 view .LVU501
 127:sampleengine.h **** 
 2267              		.loc 13 127 2 view .LVU502
 2268              	.LBE656:
 2269              	.LBE672:
 2270              	.LBB673:
 2271              	.LBB663:
 109:sampleengine.h ****     {
 2272              		.loc 13 109 5 is_stmt 0 view .LVU503
 2273 0132 F4EEC67A 		vcmpe.f32	s15, s12
 107:sampleengine.h **** 
 2274              		.loc 13 107 15 view .LVU504
 2275 0136 C5ED007A 		vstr.32	s15, [r5]
 2276              	.LBE663:
 2277              	.LBE673:
 2278              	.LBB674:
 2279              	.LBB657:
 127:sampleengine.h **** 
 2280              		.loc 13 127 6 view .LVU505
 2281 013a A6EEA57A 		vfma.f32	s14, s13, s11
 2282              	.LVL116:
 129:sampleengine.h **** }
 2283              		.loc 13 129 5 is_stmt 1 view .LVU506
 129:sampleengine.h **** }
 2284              		.loc 13 129 5 is_stmt 0 view .LVU507
 2285              	.LBE657:
 2286              	.LBE674:
 2287              	.LBB675:
 2288              	.LBB664:
 109:sampleengine.h ****     {
 2289              		.loc 13 109 5 view .LVU508
 2290 013e F1EE10FA 		vmrs	APSR_nzcv, FPSCR
 2291              	.LBE664:
 2292              	.LBE675:
 261:sampleengine.h ****             AdvanceReadIndex();
 2293              		.loc 13 261 32 view .LVU509
ARM GAS  /var/folders/m5/x8wc2gdj7z5cpgcqdsb_gkj40000gn/T//cckXFIsJ.s 			page 68


 2294 0142 A7EC017A 		vstmia.32	r7!, {s14}
 262:sampleengine.h ****             if(readIndex == startSample)
 2295              		.loc 13 262 13 is_stmt 1 view .LVU510
 2296              	.LBB676:
 2297              	.LBI658:
 105:sampleengine.h **** {
 2298              		.loc 13 105 6 view .LVU511
 2299              	.LBB665:
 107:sampleengine.h **** 
 2300              		.loc 13 107 5 view .LVU512
 109:sampleengine.h ****     {
 2301              		.loc 13 109 5 view .LVU513
 2302 0146 03DB     		blt	.L115
 2303 0148 FFF7FEFF 		bl	_Z16AdvanceReadIndexv.part.0
 2304              	.LVL117:
 2305              	.LBE665:
 2306              	.LBE676:
 263:sampleengine.h ****             {
 2307              		.loc 13 263 26 is_stmt 0 view .LVU514
 2308 014c D5ED007A 		vldr.32	s15, [r5]
 2309              	.L115:
 263:sampleengine.h ****             {
 2310              		.loc 13 263 13 is_stmt 1 view .LVU515
 259:sampleengine.h ****         {
 2311              		.loc 13 259 9 view .LVU516
 263:sampleengine.h ****             {
 2312              		.loc 13 263 13 is_stmt 0 view .LVU517
 2313 0150 B4EE675A 		vcmp.f32	s10, s15
 259:sampleengine.h ****         {
 2314              		.loc 13 259 32 view .LVU518
 2315 0154 604B     		ldr	r3, .L147+16
 263:sampleengine.h ****             {
 2316              		.loc 13 263 13 view .LVU519
 2317 0156 F1EE10FA 		vmrs	APSR_nzcv, FPSCR
 2318 015a CAD1     		bne	.L117
 265:sampleengine.h ****                 break;
 2319              		.loc 13 265 17 is_stmt 1 view .LVU520
 2320              	.LBE650:
 2321              	.LBE692:
 309:sampleengine.h **** }
 2322              		.loc 13 309 15 is_stmt 0 view .LVU521
 2323 015c 5A4A     		ldr	r2, .L147
 2324              	.LBB693:
 2325              	.LBB677:
 265:sampleengine.h ****                 break;
 2326              		.loc 13 265 39 view .LVU522
 2327 015e 614B     		ldr	r3, .L147+28
 2328              	.LBE677:
 2329              	.LBE693:
 309:sampleengine.h **** }
 2330              		.loc 13 309 15 view .LVU523
 2331 0160 92ED005A 		vldr.32	s10, [r2]	@ int
 2332              	.LVL118:
 2333              	.LBB694:
 2334              	.LBB678:
 265:sampleengine.h ****                 break;
 2335              		.loc 13 265 39 view .LVU524
ARM GAS  /var/folders/m5/x8wc2gdj7z5cpgcqdsb_gkj40000gn/T//cckXFIsJ.s 			page 69


 2336 0164 1E60     		str	r6, [r3]
 266:sampleengine.h ****             }
 2337              		.loc 13 266 17 is_stmt 1 view .LVU525
 2338              	.LBE678:
 2339              	.LBE694:
 309:sampleengine.h **** }
 2340              		.loc 13 309 15 is_stmt 0 view .LVU526
 2341 0166 B8EE455A 		vcvt.f32.u32	s10, s10
 309:sampleengine.h **** }
 2342              		.loc 13 309 5 is_stmt 1 view .LVU527
 309:sampleengine.h **** }
 2343              		.loc 13 309 15 is_stmt 0 view .LVU528
 2344 016a 85ED005A 		vstr.32	s10, [r5]
 310:sampleengine.h **** 
 2345              		.loc 13 310 1 view .LVU529
 2346 016e 03B0     		add	sp, sp, #12
 2347              		.cfi_remember_state
 2348              		.cfi_def_cfa_offset 36
 2349              		@ sp needed
 2350 0170 BDE8F08F 		pop	{r4, r5, r6, r7, r8, r9, r10, fp, pc}
 2351              	.LVL119:
 2352              	.L146:
 2353              		.cfi_restore_state
 2354              	.LBB695:
 2355              	.LBB679:
 2356              	.LBB639:
 2357              	.LBB576:
 296:sampleengine.h ****     {
 2358              		.loc 13 296 10 view .LVU530
 2359 0174 F0EE457A 		vmov.f32	s15, s10
 2360 0178 5B4A     		ldr	r2, .L147+32
 2361              	.LBB550:
 298:sampleengine.h ****         {
 2362              		.loc 13 298 23 view .LVU531
 2363 017a 0026     		movs	r6, #0
 2364 017c DFF878B1 		ldr	fp, .L147+48
 2365 0180 DFF878A1 		ldr	r10, .L147+52
 2366 0184 534C     		ldr	r4, .L147+12
 2367 0186 DFF87891 		ldr	r9, .L147+56
 2368 018a DFF87881 		ldr	r8, .L147+60
 2369 018e 03E0     		b	.L134
 2370              	.LVL120:
 2371              	.L133:
 298:sampleengine.h ****         {
 2372              		.loc 13 298 9 discriminator 2 view .LVU532
 2373 0190 0136     		adds	r6, r6, #1
 2374              	.LVL121:
 298:sampleengine.h ****         {
 2375              		.loc 13 298 32 is_stmt 1 discriminator 2 view .LVU533
 2376 0192 9E42     		cmp	r6, r3
 2377 0194 00F08D80 		beq	.L119
 2378              	.LVL122:
 2379              	.L134:
 300:sampleengine.h ****             AdvanceReadIndex();
 2380              		.loc 13 300 13 view .LVU534
 2381              	.LBB551:
 2382              	.LBI551:
ARM GAS  /var/folders/m5/x8wc2gdj7z5cpgcqdsb_gkj40000gn/T//cckXFIsJ.s 			page 70


 118:sampleengine.h **** {
 2383              		.loc 13 118 7 view .LVU535
 2384              	.LBB552:
 120:sampleengine.h **** 
 2385              		.loc 13 120 5 view .LVU536
 122:sampleengine.h **** 	readIndexFraction = readIndex - readIndexInt;
 2386              		.loc 13 122 5 view .LVU537
 122:sampleengine.h **** 	readIndexFraction = readIndex - readIndexInt;
 2387              		.loc 13 122 20 is_stmt 0 view .LVU538
 2388 0198 BDEEE77A 		vcvt.s32.f32	s14, s15
 2389              	.LBE552:
 2390              	.LBE551:
 2391              	.LBB557:
 2392              	.LBB558:
 109:sampleengine.h ****     {
 2393              		.loc 13 109 18 view .LVU539
 2394 019c 98ED006A 		vldr.32	s12, [r8]	@ int
 2395 01a0 B8EE466A 		vcvt.f32.u32	s12, s12
 2396              	.LBE558:
 2397              	.LBE557:
 2398              	.LBB564:
 2399              	.LBB553:
 122:sampleengine.h **** 	readIndexFraction = readIndex - readIndexInt;
 2400              		.loc 13 122 20 view .LVU540
 2401 01a4 17EE103A 		vmov	r3, s14	@ int
 2402              	.LBE553:
 2403              	.LBE564:
 2404              	.LBB565:
 2405              	.LBB559:
 107:sampleengine.h **** 
 2406              		.loc 13 107 15 view .LVU541
 2407 01a8 99ED007A 		vldr.32	s14, [r9]
 2408              	.LBE559:
 2409              	.LBE565:
 2410              	.LBB566:
 2411              	.LBB554:
 123:sampleengine.h **** 
 2412              		.loc 13 123 32 view .LVU542
 2413 01ac 06EE903A 		vmov	s13, r3	@ int
 125:sampleengine.h **** 	b = recordingBuffer[readIndexInt + 1]; // next sample
 2414              		.loc 13 125 4 view .LVU543
 2415 01b0 04EB8301 		add	r1, r4, r3, lsl #2
 122:sampleengine.h **** 	readIndexFraction = readIndex - readIndexInt;
 2416              		.loc 13 122 18 view .LVU544
 2417 01b4 CBF80030 		str	r3, [fp]
 123:sampleengine.h **** 
 2418              		.loc 13 123 2 is_stmt 1 view .LVU545
 123:sampleengine.h **** 
 2419              		.loc 13 123 32 is_stmt 0 view .LVU546
 2420 01b8 F8EE666A 		vcvt.f32.u32	s13, s13
 127:sampleengine.h **** 
 2421              		.loc 13 127 15 view .LVU547
 2422 01bc D1ED015A 		vldr.32	s11, [r1, #4]
 123:sampleengine.h **** 
 2423              		.loc 13 123 32 view .LVU548
 2424 01c0 77EEE66A 		vsub.f32	s13, s15, s13
 2425              	.LBE554:
ARM GAS  /var/folders/m5/x8wc2gdj7z5cpgcqdsb_gkj40000gn/T//cckXFIsJ.s 			page 71


 2426              	.LBE566:
 2427              	.LBB567:
 2428              	.LBB560:
 107:sampleengine.h **** 
 2429              		.loc 13 107 15 view .LVU549
 2430 01c4 77EE877A 		vadd.f32	s15, s15, s14
 2431              	.LBE560:
 2432              	.LBE567:
 2433              	.LBB568:
 2434              	.LBB555:
 125:sampleengine.h **** 	b = recordingBuffer[readIndexInt + 1]; // next sample
 2435              		.loc 13 125 4 view .LVU550
 2436 01c8 91ED007A 		vldr.32	s14, [r1]
 127:sampleengine.h **** 
 2437              		.loc 13 127 15 view .LVU551
 2438 01cc 75EEC75A 		vsub.f32	s11, s11, s14
 123:sampleengine.h **** 
 2439              		.loc 13 123 20 view .LVU552
 2440 01d0 CAED006A 		vstr.32	s13, [r10]
 125:sampleengine.h **** 	b = recordingBuffer[readIndexInt + 1]; // next sample
 2441              		.loc 13 125 2 is_stmt 1 view .LVU553
 2442              	.LBE555:
 2443              	.LBE568:
 2444              	.LBB569:
 2445              	.LBB561:
 109:sampleengine.h ****     {
 2446              		.loc 13 109 5 is_stmt 0 view .LVU554
 2447 01d4 F4EEC67A 		vcmpe.f32	s15, s12
 107:sampleengine.h **** 
 2448              		.loc 13 107 15 view .LVU555
 2449 01d8 C5ED007A 		vstr.32	s15, [r5]
 2450              	.LVL123:
 107:sampleengine.h **** 
 2451              		.loc 13 107 15 view .LVU556
 2452              	.LBE561:
 2453              	.LBE569:
 2454              	.LBB570:
 2455              	.LBB556:
 126:sampleengine.h **** 	out = a + (b - a) * readIndexFraction; // Linear Interpolation
 2456              		.loc 13 126 2 is_stmt 1 view .LVU557
 127:sampleengine.h **** 
 2457              		.loc 13 127 2 view .LVU558
 127:sampleengine.h **** 
 2458              		.loc 13 127 6 is_stmt 0 view .LVU559
 2459 01dc A6EEA57A 		vfma.f32	s14, s13, s11
 2460              	.LVL124:
 129:sampleengine.h **** }
 2461              		.loc 13 129 5 is_stmt 1 view .LVU560
 129:sampleengine.h **** }
 2462              		.loc 13 129 5 is_stmt 0 view .LVU561
 2463              	.LBE556:
 2464              	.LBE570:
 2465              	.LBB571:
 2466              	.LBB562:
 109:sampleengine.h ****     {
 2467              		.loc 13 109 5 view .LVU562
 2468 01e0 F1EE10FA 		vmrs	APSR_nzcv, FPSCR
ARM GAS  /var/folders/m5/x8wc2gdj7z5cpgcqdsb_gkj40000gn/T//cckXFIsJ.s 			page 72


 2469              	.LBE562:
 2470              	.LBE571:
 300:sampleengine.h ****             AdvanceReadIndex();
 2471              		.loc 13 300 33 view .LVU563
 2472 01e4 A2EC017A 		vstmia.32	r2!, {s14}
 301:sampleengine.h ****             if(readIndex == startSample)
 2473              		.loc 13 301 13 is_stmt 1 view .LVU564
 2474              	.LBB572:
 2475              	.LBI557:
 105:sampleengine.h **** {
 2476              		.loc 13 105 6 view .LVU565
 2477              	.LBB563:
 107:sampleengine.h **** 
 2478              		.loc 13 107 5 view .LVU566
 109:sampleengine.h ****     {
 2479              		.loc 13 109 5 view .LVU567
 2480 01e8 05DB     		blt	.L131
 2481 01ea 0192     		str	r2, [sp, #4]
 2482 01ec FFF7FEFF 		bl	_Z16AdvanceReadIndexv.part.0
 2483              	.LVL125:
 2484              	.LBE563:
 2485              	.LBE572:
 302:sampleengine.h ****             {
 2486              		.loc 13 302 26 is_stmt 0 view .LVU568
 2487 01f0 D5ED007A 		vldr.32	s15, [r5]
 2488 01f4 019A     		ldr	r2, [sp, #4]
 2489              	.L131:
 302:sampleengine.h ****             {
 2490              		.loc 13 302 13 is_stmt 1 view .LVU569
 298:sampleengine.h ****         {
 2491              		.loc 13 298 9 view .LVU570
 302:sampleengine.h ****             {
 2492              		.loc 13 302 13 is_stmt 0 view .LVU571
 2493 01f6 B4EE675A 		vcmp.f32	s10, s15
 298:sampleengine.h ****         {
 2494              		.loc 13 298 32 view .LVU572
 2495 01fa 374B     		ldr	r3, .L147+16
 302:sampleengine.h ****             {
 2496              		.loc 13 302 13 view .LVU573
 2497 01fc F1EE10FA 		vmrs	APSR_nzcv, FPSCR
 2498 0200 C6D1     		bne	.L133
 304:sampleengine.h ****                 break;
 2499              		.loc 13 304 17 is_stmt 1 view .LVU574
 2500              	.LBE550:
 2501              	.LBE576:
 2502              	.LBE639:
 2503              	.LBE679:
 2504              	.LBE695:
 309:sampleengine.h **** }
 2505              		.loc 13 309 15 is_stmt 0 view .LVU575
 2506 0202 314A     		ldr	r2, .L147
 2507              	.LBB696:
 2508              	.LBB680:
 2509              	.LBB640:
 2510              	.LBB577:
 2511              	.LBB573:
 304:sampleengine.h ****                 break;
ARM GAS  /var/folders/m5/x8wc2gdj7z5cpgcqdsb_gkj40000gn/T//cckXFIsJ.s 			page 73


 2512              		.loc 13 304 40 view .LVU576
 2513 0204 394B     		ldr	r3, .L147+36
 2514              	.LBE573:
 2515              	.LBE577:
 2516              	.LBE640:
 2517              	.LBE680:
 2518              	.LBE696:
 309:sampleengine.h **** }
 2519              		.loc 13 309 15 view .LVU577
 2520 0206 92ED005A 		vldr.32	s10, [r2]	@ int
 2521              	.LVL126:
 2522              	.LBB697:
 2523              	.LBB681:
 2524              	.LBB641:
 2525              	.LBB578:
 2526              	.LBB574:
 304:sampleengine.h ****                 break;
 2527              		.loc 13 304 40 view .LVU578
 2528 020a 1E60     		str	r6, [r3]
 305:sampleengine.h ****             }
 2529              		.loc 13 305 17 is_stmt 1 view .LVU579
 2530              	.LBE574:
 2531              	.LBE578:
 2532              	.LBE641:
 2533              	.LBE681:
 2534              	.LBE697:
 309:sampleengine.h **** }
 2535              		.loc 13 309 15 is_stmt 0 view .LVU580
 2536 020c B8EE455A 		vcvt.f32.u32	s10, s10
 2537              	.LBB698:
 2538              	.LBB682:
 2539              	.LBB642:
 2540              	.LBB579:
 2541              	.LBB575:
 305:sampleengine.h ****             }
 2542              		.loc 13 305 17 view .LVU581
 2543 0210 0BE7     		b	.L118
 2544              	.LVL127:
 2545              	.L145:
 305:sampleengine.h ****             }
 2546              		.loc 13 305 17 view .LVU582
 2547              	.LBE575:
 2548              	.LBE579:
 283:sampleengine.h ****     {
 2549              		.loc 13 283 10 view .LVU583
 2550 0212 F0EE457A 		vmov.f32	s15, s10
 2551 0216 364A     		ldr	r2, .L147+40
 2552              	.LBB580:
 285:sampleengine.h ****         {
 2553              		.loc 13 285 23 view .LVU584
 2554 0218 0026     		movs	r6, #0
 2555 021a DFF8DCB0 		ldr	fp, .L147+48
 2556 021e DFF8DCA0 		ldr	r10, .L147+52
 2557 0222 2C4C     		ldr	r4, .L147+12
 2558 0224 DFF8D890 		ldr	r9, .L147+56
 2559 0228 DFF8D880 		ldr	r8, .L147+60
 2560 022c 02E0     		b	.L130
ARM GAS  /var/folders/m5/x8wc2gdj7z5cpgcqdsb_gkj40000gn/T//cckXFIsJ.s 			page 74


 2561              	.LVL128:
 2562              	.L129:
 285:sampleengine.h ****         {
 2563              		.loc 13 285 9 discriminator 2 view .LVU585
 2564 022e 0136     		adds	r6, r6, #1
 2565              	.LVL129:
 285:sampleengine.h ****         {
 2566              		.loc 13 285 32 is_stmt 1 discriminator 2 view .LVU586
 2567 0230 9E42     		cmp	r6, r3
 2568 0232 3ED0     		beq	.L119
 2569              	.LVL130:
 2570              	.L130:
 287:sampleengine.h ****             AdvanceReadIndex();
 2571              		.loc 13 287 13 view .LVU587
 2572              	.LBB581:
 2573              	.LBI581:
 118:sampleengine.h **** {
 2574              		.loc 13 118 7 view .LVU588
 2575              	.LBB582:
 120:sampleengine.h **** 
 2576              		.loc 13 120 5 view .LVU589
 122:sampleengine.h **** 	readIndexFraction = readIndex - readIndexInt;
 2577              		.loc 13 122 5 view .LVU590
 122:sampleengine.h **** 	readIndexFraction = readIndex - readIndexInt;
 2578              		.loc 13 122 20 is_stmt 0 view .LVU591
 2579 0234 BDEEE77A 		vcvt.s32.f32	s14, s15
 2580              	.LBE582:
 2581              	.LBE581:
 2582              	.LBB588:
 2583              	.LBB589:
 107:sampleengine.h **** 
 2584              		.loc 13 107 15 view .LVU592
 2585 0238 D9ED005A 		vldr.32	s11, [r9]
 2586              	.LBE589:
 2587              	.LBE588:
 2588              	.LBB596:
 2589              	.LBB583:
 122:sampleengine.h **** 	readIndexFraction = readIndex - readIndexInt;
 2590              		.loc 13 122 20 view .LVU593
 2591 023c 17EE103A 		vmov	r3, s14	@ int
 123:sampleengine.h **** 
 2592              		.loc 13 123 32 view .LVU594
 2593 0240 F8EE476A 		vcvt.f32.u32	s13, s14
 2594              	.LBE583:
 2595              	.LBE596:
 2596              	.LBB597:
 2597              	.LBB590:
 109:sampleengine.h ****     {
 2598              		.loc 13 109 18 view .LVU595
 2599 0244 98ED007A 		vldr.32	s14, [r8]	@ int
 2600              	.LBE590:
 2601              	.LBE597:
 2602              	.LBB598:
 2603              	.LBB584:
 125:sampleengine.h **** 	b = recordingBuffer[readIndexInt + 1]; // next sample
 2604              		.loc 13 125 4 view .LVU596
 2605 0248 04EB8301 		add	r1, r4, r3, lsl #2
ARM GAS  /var/folders/m5/x8wc2gdj7z5cpgcqdsb_gkj40000gn/T//cckXFIsJ.s 			page 75


 122:sampleengine.h **** 	readIndexFraction = readIndex - readIndexInt;
 2606              		.loc 13 122 18 view .LVU597
 2607 024c CBF80030 		str	r3, [fp]
 123:sampleengine.h **** 
 2608              		.loc 13 123 32 view .LVU598
 2609 0250 77EEE66A 		vsub.f32	s13, s15, s13
 2610              	.LBE584:
 2611              	.LBE598:
 2612              	.LBB599:
 2613              	.LBB591:
 109:sampleengine.h ****     {
 2614              		.loc 13 109 18 view .LVU599
 2615 0254 B8EE476A 		vcvt.f32.u32	s12, s14
 2616              	.LBE591:
 2617              	.LBE599:
 2618              	.LBB600:
 2619              	.LBB585:
 123:sampleengine.h **** 
 2620              		.loc 13 123 2 is_stmt 1 view .LVU600
 125:sampleengine.h **** 	b = recordingBuffer[readIndexInt + 1]; // next sample
 2621              		.loc 13 125 4 is_stmt 0 view .LVU601
 2622 0258 91ED007A 		vldr.32	s14, [r1]
 2623              	.LBE585:
 2624              	.LBE600:
 2625              	.LBB601:
 2626              	.LBB592:
 107:sampleengine.h **** 
 2627              		.loc 13 107 15 view .LVU602
 2628 025c 77EEA57A 		vadd.f32	s15, s15, s11
 2629              	.LBE592:
 2630              	.LBE601:
 2631              	.LBB602:
 2632              	.LBB586:
 127:sampleengine.h **** 
 2633              		.loc 13 127 15 view .LVU603
 2634 0260 D1ED015A 		vldr.32	s11, [r1, #4]
 123:sampleengine.h **** 
 2635              		.loc 13 123 20 view .LVU604
 2636 0264 CAED006A 		vstr.32	s13, [r10]
 125:sampleengine.h **** 	b = recordingBuffer[readIndexInt + 1]; // next sample
 2637              		.loc 13 125 2 is_stmt 1 view .LVU605
 2638              	.LVL131:
 126:sampleengine.h **** 	out = a + (b - a) * readIndexFraction; // Linear Interpolation
 2639              		.loc 13 126 2 view .LVU606
 127:sampleengine.h **** 
 2640              		.loc 13 127 2 view .LVU607
 127:sampleengine.h **** 
 2641              		.loc 13 127 15 is_stmt 0 view .LVU608
 2642 0268 75EEC75A 		vsub.f32	s11, s11, s14
 2643              	.LBE586:
 2644              	.LBE602:
 2645              	.LBB603:
 2646              	.LBB593:
 109:sampleengine.h ****     {
 2647              		.loc 13 109 5 view .LVU609
 2648 026c F4EEC67A 		vcmpe.f32	s15, s12
 107:sampleengine.h **** 
ARM GAS  /var/folders/m5/x8wc2gdj7z5cpgcqdsb_gkj40000gn/T//cckXFIsJ.s 			page 76


 2649              		.loc 13 107 15 view .LVU610
 2650 0270 C5ED007A 		vstr.32	s15, [r5]
 2651              	.LBE593:
 2652              	.LBE603:
 2653              	.LBB604:
 2654              	.LBB587:
 127:sampleengine.h **** 
 2655              		.loc 13 127 6 view .LVU611
 2656 0274 A6EEA57A 		vfma.f32	s14, s13, s11
 2657              	.LVL132:
 129:sampleengine.h **** }
 2658              		.loc 13 129 5 is_stmt 1 view .LVU612
 129:sampleengine.h **** }
 2659              		.loc 13 129 5 is_stmt 0 view .LVU613
 2660              	.LBE587:
 2661              	.LBE604:
 2662              	.LBB605:
 2663              	.LBB594:
 109:sampleengine.h ****     {
 2664              		.loc 13 109 5 view .LVU614
 2665 0278 F1EE10FA 		vmrs	APSR_nzcv, FPSCR
 2666              	.LBE594:
 2667              	.LBE605:
 287:sampleengine.h ****             AdvanceReadIndex();
 2668              		.loc 13 287 34 view .LVU615
 2669 027c A2EC017A 		vstmia.32	r2!, {s14}
 288:sampleengine.h ****             if(readIndex == startSample)
 2670              		.loc 13 288 13 is_stmt 1 view .LVU616
 2671              	.LBB606:
 2672              	.LBI588:
 105:sampleengine.h **** {
 2673              		.loc 13 105 6 view .LVU617
 2674              	.LBB595:
 107:sampleengine.h **** 
 2675              		.loc 13 107 5 view .LVU618
 109:sampleengine.h ****     {
 2676              		.loc 13 109 5 view .LVU619
 2677 0280 05DB     		blt	.L127
 2678 0282 0192     		str	r2, [sp, #4]
 2679 0284 FFF7FEFF 		bl	_Z16AdvanceReadIndexv.part.0
 2680              	.LVL133:
 2681              	.LBE595:
 2682              	.LBE606:
 289:sampleengine.h ****             {
 2683              		.loc 13 289 26 is_stmt 0 view .LVU620
 2684 0288 D5ED007A 		vldr.32	s15, [r5]
 2685 028c 019A     		ldr	r2, [sp, #4]
 2686              	.L127:
 289:sampleengine.h ****             {
 2687              		.loc 13 289 13 is_stmt 1 view .LVU621
 285:sampleengine.h ****         {
 2688              		.loc 13 285 9 view .LVU622
 289:sampleengine.h ****             {
 2689              		.loc 13 289 13 is_stmt 0 view .LVU623
 2690 028e B4EE675A 		vcmp.f32	s10, s15
 285:sampleengine.h ****         {
 2691              		.loc 13 285 32 view .LVU624
ARM GAS  /var/folders/m5/x8wc2gdj7z5cpgcqdsb_gkj40000gn/T//cckXFIsJ.s 			page 77


 2692 0292 114B     		ldr	r3, .L147+16
 289:sampleengine.h ****             {
 2693              		.loc 13 289 13 view .LVU625
 2694 0294 F1EE10FA 		vmrs	APSR_nzcv, FPSCR
 2695 0298 C9D1     		bne	.L129
 291:sampleengine.h ****                 break;
 2696              		.loc 13 291 17 is_stmt 1 view .LVU626
 2697              	.LBE580:
 2698              	.LBE642:
 2699              	.LBE682:
 2700              	.LBE698:
 309:sampleengine.h **** }
 2701              		.loc 13 309 15 is_stmt 0 view .LVU627
 2702 029a 0B4A     		ldr	r2, .L147
 2703              	.LBB699:
 2704              	.LBB683:
 2705              	.LBB643:
 2706              	.LBB607:
 291:sampleengine.h ****                 break;
 2707              		.loc 13 291 41 view .LVU628
 2708 029c 154B     		ldr	r3, .L147+44
 2709              	.LBE607:
 2710              	.LBE643:
 2711              	.LBE683:
 2712              	.LBE699:
 309:sampleengine.h **** }
 2713              		.loc 13 309 15 view .LVU629
 2714 029e 92ED005A 		vldr.32	s10, [r2]	@ int
 2715              	.LVL134:
 2716              	.LBB700:
 2717              	.LBB684:
 2718              	.LBB644:
 2719              	.LBB608:
 291:sampleengine.h ****                 break;
 2720              		.loc 13 291 41 view .LVU630
 2721 02a2 1E60     		str	r6, [r3]
 292:sampleengine.h ****             }
 2722              		.loc 13 292 17 is_stmt 1 view .LVU631
 2723              	.LBE608:
 2724              	.LBE644:
 2725              	.LBE684:
 2726              	.LBE700:
 309:sampleengine.h **** }
 2727              		.loc 13 309 15 is_stmt 0 view .LVU632
 2728 02a4 B8EE455A 		vcvt.f32.u32	s10, s10
 309:sampleengine.h **** }
 2729              		.loc 13 309 5 is_stmt 1 view .LVU633
 309:sampleengine.h **** }
 2730              		.loc 13 309 15 is_stmt 0 view .LVU634
 2731 02a8 85ED005A 		vstr.32	s10, [r5]
 310:sampleengine.h **** 
 2732              		.loc 13 310 1 view .LVU635
 2733 02ac 03B0     		add	sp, sp, #12
 2734              		.cfi_remember_state
 2735              		.cfi_def_cfa_offset 36
 2736              		@ sp needed
 2737 02ae BDE8F08F 		pop	{r4, r5, r6, r7, r8, r9, r10, fp, pc}
ARM GAS  /var/folders/m5/x8wc2gdj7z5cpgcqdsb_gkj40000gn/T//cckXFIsJ.s 			page 78


 2738              	.LVL135:
 2739              	.L119:
 2740              		.cfi_restore_state
 309:sampleengine.h **** }
 2741              		.loc 13 309 15 view .LVU636
 2742 02b2 054B     		ldr	r3, .L147
 2743 02b4 93ED005A 		vldr.32	s10, [r3]	@ int
 2744              	.LVL136:
 309:sampleengine.h **** }
 2745              		.loc 13 309 15 view .LVU637
 2746 02b8 B8EE455A 		vcvt.f32.u32	s10, s10
 309:sampleengine.h **** }
 2747              		.loc 13 309 5 is_stmt 1 view .LVU638
 309:sampleengine.h **** }
 2748              		.loc 13 309 15 is_stmt 0 view .LVU639
 2749 02bc 85ED005A 		vstr.32	s10, [r5]
 310:sampleengine.h **** 
 2750              		.loc 13 310 1 view .LVU640
 2751 02c0 03B0     		add	sp, sp, #12
 2752              		.cfi_def_cfa_offset 36
 2753              		@ sp needed
 2754 02c2 BDE8F08F 		pop	{r4, r5, r6, r7, r8, r9, r10, fp, pc}
 2755              	.L148:
 2756 02c6 00BF     		.align	2
 2757              	.L147:
 2758 02c8 00000000 		.word	.LANCHOR3
 2759 02cc 00000000 		.word	.LANCHOR6
 2760 02d0 00000000 		.word	spliceBufferTwo
 2761 02d4 00000000 		.word	recordingBuffer
 2762 02d8 00A60E00 		.word	960000
 2763 02dc 00000000 		.word	.LANCHOR26
 2764 02e0 00000000 		.word	spliceBufferOne
 2765 02e4 00000000 		.word	.LANCHOR23
 2766 02e8 00000000 		.word	spliceBufferFour
 2767 02ec 00000000 		.word	.LANCHOR28
 2768 02f0 00000000 		.word	spliceBufferThree
 2769 02f4 00000000 		.word	.LANCHOR27
 2770 02f8 00000000 		.word	.LANCHOR15
 2771 02fc 00000000 		.word	.LANCHOR16
 2772 0300 00000000 		.word	.LANCHOR14
 2773 0304 00000000 		.word	.LANCHOR4
 2774              		.cfi_endproc
 2775              	.LFE4696:
 2777              		.section	.text._Z15AnyKeyIsPressedv,"ax",%progbits
 2778              		.align	1
 2779              		.p2align 2,,3
 2780              		.global	_Z15AnyKeyIsPressedv
 2781              		.syntax unified
 2782              		.thumb
 2783              		.thumb_func
 2785              	_Z15AnyKeyIsPressedv:
 2786              	.LFB4697:
 313:sampleengine.h ****     for(int i = 0; i < numKeyPads; i++)
 2787              		.loc 13 313 1 is_stmt 1 view -0
 2788              		.cfi_startproc
 2789              		@ args = 0, pretend = 0, frame = 0
 2790              		@ frame_needed = 0, uses_anonymous_args = 0
ARM GAS  /var/folders/m5/x8wc2gdj7z5cpgcqdsb_gkj40000gn/T//cckXFIsJ.s 			page 79


 2791              		@ link register save eliminated.
 314:sampleengine.h ****     {
 2792              		.loc 13 314 5 view .LVU642
 2793              	.LVL137:
 2794              	.LBB701:
 314:sampleengine.h ****     {
 2795              		.loc 13 314 22 view .LVU643
 2796 0000 054B     		ldr	r3, .L154
 2797 0002 03F12002 		add	r2, r3, #32
 2798 0006 01E0     		b	.L151
 2799              	.LVL138:
 2800              	.L153:
 314:sampleengine.h ****     {
 2801              		.loc 13 314 22 is_stmt 0 discriminator 2 view .LVU644
 2802 0008 9342     		cmp	r3, r2
 2803 000a 03D0     		beq	.L150
 2804              	.LVL139:
 2805              	.L151:
 316:sampleengine.h ****         {
 2806              		.loc 13 316 9 is_stmt 1 view .LVU645
 314:sampleengine.h ****     {
 2807              		.loc 13 314 5 view .LVU646
 316:sampleengine.h ****         {
 2808              		.loc 13 316 23 is_stmt 0 view .LVU647
 2809 000c 13F8010B 		ldrb	r0, [r3], #1	@ zero_extendqisi2
 2810              	.LVL140:
 314:sampleengine.h ****     {
 2811              		.loc 13 314 22 is_stmt 1 view .LVU648
 316:sampleengine.h ****         {
 2812              		.loc 13 316 9 is_stmt 0 view .LVU649
 2813 0010 0028     		cmp	r0, #0
 2814 0012 F9D0     		beq	.L153
 2815              	.L150:
 2816              	.LBE701:
 322:sampleengine.h **** 
 2817              		.loc 13 322 1 view .LVU650
 2818 0014 7047     		bx	lr
 2819              	.L155:
 2820 0016 00BF     		.align	2
 2821              	.L154:
 2822 0018 00000000 		.word	.LANCHOR1
 2823              		.cfi_endproc
 2824              	.LFE4697:
 2826              		.section	.text._Z18FindNextPressedKeyi,"ax",%progbits
 2827              		.align	1
 2828              		.p2align 2,,3
 2829              		.global	_Z18FindNextPressedKeyi
 2830              		.syntax unified
 2831              		.thumb
 2832              		.thumb_func
 2834              	_Z18FindNextPressedKeyi:
 2835              	.LVL141:
 2836              	.LFB4698:
 325:sampleengine.h ****     int nextKey = key;
 2837              		.loc 13 325 1 is_stmt 1 view -0
 2838              		.cfi_startproc
 2839              		@ args = 0, pretend = 0, frame = 0
ARM GAS  /var/folders/m5/x8wc2gdj7z5cpgcqdsb_gkj40000gn/T//cckXFIsJ.s 			page 80


 2840              		@ frame_needed = 0, uses_anonymous_args = 0
 2841              		@ link register save eliminated.
 326:sampleengine.h ****     for(int i = 0; i < numKeyPads; i++)
 2842              		.loc 13 326 5 view .LVU652
 325:sampleengine.h ****     int nextKey = key;
 2843              		.loc 13 325 1 is_stmt 0 view .LVU653
 2844 0000 2023     		movs	r3, #32
 2845 0002 0649     		ldr	r1, .L162
 2846              	.LVL142:
 327:sampleengine.h ****     {
 2847              		.loc 13 327 5 is_stmt 1 view .LVU654
 2848              	.LBB703:
 327:sampleengine.h ****     {
 2849              		.loc 13 327 22 view .LVU655
 2850 0004 01E0     		b	.L159
 2851              	.LVL143:
 2852              	.L161:
 327:sampleengine.h ****     {
 2853              		.loc 13 327 22 is_stmt 0 discriminator 2 view .LVU656
 2854 0006 013B     		subs	r3, r3, #1
 2855              	.LVL144:
 327:sampleengine.h ****     {
 2856              		.loc 13 327 22 discriminator 2 view .LVU657
 2857 0008 06D0     		beq	.L158
 2858              	.LVL145:
 2859              	.L159:
 329:sampleengine.h ****         if(nextKey >= numKeyPads)
 2860              		.loc 13 329 9 is_stmt 1 view .LVU658
 327:sampleengine.h ****     {
 2861              		.loc 13 327 5 view .LVU659
 329:sampleengine.h ****         if(nextKey >= numKeyPads)
 2862              		.loc 13 329 16 is_stmt 0 view .LVU660
 2863 000a 0130     		adds	r0, r0, #1
 2864              	.LVL146:
 330:sampleengine.h ****         {
 2865              		.loc 13 330 9 is_stmt 1 view .LVU661
 332:sampleengine.h ****         }
 2866              		.loc 13 332 21 is_stmt 0 view .LVU662
 2867 000c 2028     		cmp	r0, #32
 2868 000e A8BF     		it	ge
 2869 0010 0020     		movge	r0, #0
 2870              	.LVL147:
 334:sampleengine.h ****         {
 2871              		.loc 13 334 9 is_stmt 1 view .LVU663
 327:sampleengine.h ****     {
 2872              		.loc 13 327 22 view .LVU664
 334:sampleengine.h ****         {
 2873              		.loc 13 334 9 is_stmt 0 view .LVU665
 2874 0012 0A5C     		ldrb	r2, [r1, r0]	@ zero_extendqisi2
 2875 0014 002A     		cmp	r2, #0
 2876 0016 F6D0     		beq	.L161
 2877              	.LVL148:
 2878              	.L158:
 334:sampleengine.h ****         {
 2879              		.loc 13 334 9 view .LVU666
 2880              	.LBE703:
 2881              		.loc 13 339 5 is_stmt 1 view .LVU667
ARM GAS  /var/folders/m5/x8wc2gdj7z5cpgcqdsb_gkj40000gn/T//cckXFIsJ.s 			page 81


 340:sampleengine.h **** }
 2882              		.loc 13 340 1 is_stmt 0 view .LVU668
 2883 0018 7047     		bx	lr
 2884              	.L163:
 2885 001a 00BF     		.align	2
 2886              	.L162:
 2887 001c 00000000 		.word	.LANCHOR1
 2888              		.cfi_endproc
 2889              	.LFE4698:
 2891              		.section	.text._Z19FindFirstPressedKeyv,"ax",%progbits
 2892              		.align	1
 2893              		.p2align 2,,3
 2894              		.global	_Z19FindFirstPressedKeyv
 2895              		.syntax unified
 2896              		.thumb
 2897              		.thumb_func
 2899              	_Z19FindFirstPressedKeyv:
 2900              	.LFB4699:
 341:sampleengine.h **** 
 342:sampleengine.h **** int FindFirstPressedKey()
 343:sampleengine.h **** {
 2901              		.loc 13 343 1 is_stmt 1 view -0
 2902              		.cfi_startproc
 2903              		@ args = 0, pretend = 0, frame = 0
 2904              		@ frame_needed = 0, uses_anonymous_args = 0
 2905              		@ link register save eliminated.
 344:sampleengine.h ****     for(int i = 0; i < numKeyPads; i++)
 2906              		.loc 13 344 5 view .LVU670
 2907              	.LVL149:
 2908              	.LBB704:
 2909              		.loc 13 344 22 view .LVU671
 2910 0000 064B     		ldr	r3, .L170
 2911              		.loc 13 344 13 is_stmt 0 view .LVU672
 2912 0002 0020     		movs	r0, #0
 2913 0004 02E0     		b	.L166
 2914              	.LVL150:
 2915              	.L169:
 2916              		.loc 13 344 5 discriminator 2 view .LVU673
 2917 0006 0130     		adds	r0, r0, #1
 2918              	.LVL151:
 2919              		.loc 13 344 22 is_stmt 1 discriminator 2 view .LVU674
 2920 0008 2028     		cmp	r0, #32
 2921 000a 04D0     		beq	.L168
 2922              	.LVL152:
 2923              	.L166:
 345:sampleengine.h ****     {
 346:sampleengine.h ****         if(keyStates[i])
 2924              		.loc 13 346 9 view .LVU675
 344:sampleengine.h ****     for(int i = 0; i < numKeyPads; i++)
 2925              		.loc 13 344 5 view .LVU676
 2926              		.loc 13 346 23 is_stmt 0 view .LVU677
 2927 000c 13F8012B 		ldrb	r2, [r3], #1	@ zero_extendqisi2
 2928              		.loc 13 346 9 view .LVU678
 2929 0010 002A     		cmp	r2, #0
 2930 0012 F8D0     		beq	.L169
 2931              	.LBE704:
 347:sampleengine.h ****         {
ARM GAS  /var/folders/m5/x8wc2gdj7z5cpgcqdsb_gkj40000gn/T//cckXFIsJ.s 			page 82


 348:sampleengine.h ****             return (i);
 349:sampleengine.h ****         }
 350:sampleengine.h ****     }
 351:sampleengine.h ****     return -1;
 352:sampleengine.h **** }
 2932              		.loc 13 352 1 view .LVU679
 2933 0014 7047     		bx	lr
 2934              	.L168:
 351:sampleengine.h **** }
 2935              		.loc 13 351 13 view .LVU680
 2936 0016 4FF0FF30 		mov	r0, #-1
 2937              	.LVL153:
 2938              		.loc 13 352 1 view .LVU681
 2939 001a 7047     		bx	lr
 2940              	.L171:
 2941              		.align	2
 2942              	.L170:
 2943 001c 00000000 		.word	.LANCHOR1
 2944              		.cfi_endproc
 2945              	.LFE4699:
 2947              		.section	.text._Z12SetKeyIndexsv,"ax",%progbits
 2948              		.align	1
 2949              		.p2align 2,,3
 2950              		.global	_Z12SetKeyIndexsv
 2951              		.syntax unified
 2952              		.thumb
 2953              		.thumb_func
 2955              	_Z12SetKeyIndexsv:
 2956              	.LFB4700:
 353:sampleengine.h **** 
 354:sampleengine.h **** void SetKeyIndexs()
 355:sampleengine.h **** {
 2957              		.loc 13 355 1 is_stmt 1 view -0
 2958              		.cfi_startproc
 2959              		@ args = 0, pretend = 0, frame = 0
 2960              		@ frame_needed = 0, uses_anonymous_args = 0
 2961              		@ link register save eliminated.
 356:sampleengine.h ****     float fraction;
 2962              		.loc 13 356 5 view .LVU683
 357:sampleengine.h ****     auto recordingLengthFloat = static_cast<float>(recordingLength);
 2963              		.loc 13 357 5 view .LVU684
 2964              		.loc 13 357 33 is_stmt 0 view .LVU685
 2965 0000 2648     		ldr	r0, .L181
 2966              	.LBB711:
 358:sampleengine.h ****     for(int i = 0; i < numKeyPads; i++)
 2967              		.loc 13 358 13 view .LVU686
 2968 0002 0023     		movs	r3, #0
 2969 0004 2649     		ldr	r1, .L181+4
 2970              	.LBE711:
 357:sampleengine.h ****     auto recordingLengthFloat = static_cast<float>(recordingLength);
 2971              		.loc 13 357 10 view .LVU687
 2972 0006 90ED006A 		vldr.32	s12, [r0]	@ int
 2973 000a 264A     		ldr	r2, .L181+8
 2974 000c B8EE466A 		vcvt.f32.u32	s12, s12
 2975              	.LVL154:
 2976              		.loc 13 358 5 is_stmt 1 view .LVU688
 2977              	.LBB712:
ARM GAS  /var/folders/m5/x8wc2gdj7z5cpgcqdsb_gkj40000gn/T//cckXFIsJ.s 			page 83


 2978              		.loc 13 358 22 view .LVU689
 2979 0010 DFED256A 		vldr.32	s13, .L181+12
 2980              	.LBE712:
 355:sampleengine.h ****     float fraction;
 2981              		.loc 13 355 1 is_stmt 0 view .LVU690
 2982 0014 10B4     		push	{r4}
 2983              		.cfi_def_cfa_offset 4
 2984              		.cfi_offset 4, -4
 2985              	.LVL155:
 2986              	.L173:
 2987              	.LBB713:
 359:sampleengine.h ****     {
 360:sampleengine.h ****         fraction = static_cast<float>(i) / static_cast<float>(numKeyPads);
 2988              		.loc 13 360 9 is_stmt 1 discriminator 2 view .LVU691
 361:sampleengine.h ****         keyStartIndex[i] = static_cast<uint32_t>((recordingLengthFloat * fraction) + 1.0f);
 2989              		.loc 13 361 9 discriminator 2 view .LVU692
 360:sampleengine.h ****         keyStartIndex[i] = static_cast<uint32_t>((recordingLengthFloat * fraction) + 1.0f);
 2990              		.loc 13 360 18 is_stmt 0 discriminator 2 view .LVU693
 2991 0016 DFED257A 		vldr.32	s15, .L181+16
 362:sampleengine.h ****         fraction = static_cast<float>(i + 1) / static_cast<float>(numKeyPads);
 2992              		.loc 13 362 41 discriminator 2 view .LVU694
 2993 001a 0133     		adds	r3, r3, #1
 2994              	.LVL156:
 361:sampleengine.h ****         keyStartIndex[i] = static_cast<uint32_t>((recordingLengthFloat * fraction) + 1.0f);
 2995              		.loc 13 361 84 discriminator 2 view .LVU695
 2996 001c B7EE007A 		vmov.f32	s14, #1.0e+0
 360:sampleengine.h ****         keyStartIndex[i] = static_cast<uint32_t>((recordingLengthFloat * fraction) + 1.0f);
 2997              		.loc 13 360 18 discriminator 2 view .LVU696
 2998 0020 66EEA75A 		vmul.f32	s11, s13, s15
 2999              		.loc 13 362 20 discriminator 2 view .LVU697
 3000 0024 06EE903A 		vmov	s13, r3	@ int
 358:sampleengine.h ****     {
 3001              		.loc 13 358 22 discriminator 2 view .LVU698
 3002 0028 202B     		cmp	r3, #32
 3003              		.loc 13 362 20 discriminator 2 view .LVU699
 3004 002a F8EEE66A 		vcvt.f32.s32	s13, s13
 361:sampleengine.h ****         fraction = static_cast<float>(i + 1) / static_cast<float>(numKeyPads);
 3005              		.loc 13 361 84 discriminator 2 view .LVU700
 3006 002e A6EE257A 		vfma.f32	s14, s12, s11
 3007              		.loc 13 362 18 discriminator 2 view .LVU701
 3008 0032 66EEA77A 		vmul.f32	s15, s13, s15
 363:sampleengine.h ****         keyStopIndex[i] = static_cast<uint32_t>(recordingLengthFloat * fraction);
 3009              		.loc 13 363 70 discriminator 2 view .LVU702
 3010 0036 67EE867A 		vmul.f32	s15, s15, s12
 361:sampleengine.h ****         fraction = static_cast<float>(i + 1) / static_cast<float>(numKeyPads);
 3011              		.loc 13 361 28 discriminator 2 view .LVU703
 3012 003a BCEEC77A 		vcvt.u32.f32	s14, s14
 3013              		.loc 13 363 27 discriminator 2 view .LVU704
 3014 003e FCEEE77A 		vcvt.u32.f32	s15, s15
 361:sampleengine.h ****         fraction = static_cast<float>(i + 1) / static_cast<float>(numKeyPads);
 3015              		.loc 13 361 28 discriminator 2 view .LVU705
 3016 0042 17EE100A 		vmov	r0, s14	@ int
 3017 0046 41F8040F 		str	r0, [r1, #4]!
 362:sampleengine.h ****         keyStopIndex[i] = static_cast<uint32_t>(recordingLengthFloat * fraction);
 3018              		.loc 13 362 9 is_stmt 1 discriminator 2 view .LVU706
 3019              	.LVL157:
 3020              		.loc 13 363 9 discriminator 2 view .LVU707
ARM GAS  /var/folders/m5/x8wc2gdj7z5cpgcqdsb_gkj40000gn/T//cckXFIsJ.s 			page 84


 3021              		.loc 13 363 27 is_stmt 0 discriminator 2 view .LVU708
 3022 004a 17EE900A 		vmov	r0, s15	@ int
 3023 004e 42F8040F 		str	r0, [r2, #4]!
 358:sampleengine.h ****     {
 3024              		.loc 13 358 5 is_stmt 1 discriminator 2 view .LVU709
 3025              	.LVL158:
 358:sampleengine.h ****     {
 3026              		.loc 13 358 22 discriminator 2 view .LVU710
 3027 0052 E0D1     		bne	.L173
 3028              	.LBE713:
 3029              	.LBB714:
 3030              	.LBB715:
 326:sampleengine.h ****     for(int i = 0; i < numKeyPads; i++)
 3031              		.loc 13 326 9 is_stmt 0 view .LVU711
 3032 0054 4FF0FF32 		mov	r2, #-1
 3033 0058 1548     		ldr	r0, .L181+20
 3034 005a 01E0     		b	.L176
 3035              	.LVL159:
 3036              	.L180:
 3037              	.LBB716:
 327:sampleengine.h ****     {
 3038              		.loc 13 327 22 view .LVU712
 3039 005c 013B     		subs	r3, r3, #1
 3040 005e 06D0     		beq	.L175
 3041              	.LVL160:
 3042              	.L176:
 329:sampleengine.h ****         if(nextKey >= numKeyPads)
 3043              		.loc 13 329 9 is_stmt 1 view .LVU713
 327:sampleengine.h ****     {
 3044              		.loc 13 327 5 view .LVU714
 329:sampleengine.h ****         if(nextKey >= numKeyPads)
 3045              		.loc 13 329 16 is_stmt 0 view .LVU715
 3046 0060 0132     		adds	r2, r2, #1
 3047              	.LVL161:
 330:sampleengine.h ****         {
 3048              		.loc 13 330 9 is_stmt 1 view .LVU716
 332:sampleengine.h ****         }
 3049              		.loc 13 332 21 is_stmt 0 view .LVU717
 3050 0062 202A     		cmp	r2, #32
 3051 0064 A8BF     		it	ge
 3052 0066 0022     		movge	r2, #0
 3053              	.LVL162:
 334:sampleengine.h ****         {
 3054              		.loc 13 334 9 is_stmt 1 view .LVU718
 327:sampleengine.h ****     {
 3055              		.loc 13 327 22 view .LVU719
 334:sampleengine.h ****         {
 3056              		.loc 13 334 9 is_stmt 0 view .LVU720
 3057 0068 815C     		ldrb	r1, [r0, r2]	@ zero_extendqisi2
 3058 006a 0029     		cmp	r1, #0
 3059 006c F6D0     		beq	.L180
 3060              	.L175:
 334:sampleengine.h ****         {
 3061              		.loc 13 334 9 view .LVU721
 3062              	.LBE716:
 339:sampleengine.h **** }
 3063              		.loc 13 339 5 is_stmt 1 view .LVU722
ARM GAS  /var/folders/m5/x8wc2gdj7z5cpgcqdsb_gkj40000gn/T//cckXFIsJ.s 			page 85


 3064              	.LVL163:
 339:sampleengine.h **** }
 3065              		.loc 13 339 5 is_stmt 0 view .LVU723
 3066              	.LBE715:
 3067              	.LBE714:
 364:sampleengine.h ****     }
 365:sampleengine.h ****     currentKey = FindNextPressedKey(-1);
 366:sampleengine.h ****     startPoint = keyStartIndex[currentKey];
 3068              		.loc 13 366 42 view .LVU724
 3069 006e 114B     		ldr	r3, .L181+24
 365:sampleengine.h ****     startPoint = keyStartIndex[currentKey];
 3070              		.loc 13 365 16 view .LVU725
 3071 0070 114C     		ldr	r4, .L181+28
 3072              		.loc 13 366 42 view .LVU726
 3073 0072 53F82230 		ldr	r3, [r3, r2, lsl #2]
 367:sampleengine.h ****     stopPoint = keyStopIndex[currentKey];
 3074              		.loc 13 367 40 view .LVU727
 3075 0076 1149     		ldr	r1, .L181+32
 3076              	.LBB717:
 3077              	.LBB718:
 102:sampleengine.h **** }
 3078              		.loc 13 102 15 view .LVU728
 3079 0078 07EE903A 		vmov	s15, r3	@ int
 3080              	.LBE718:
 3081              	.LBE717:
 366:sampleengine.h ****     stopPoint = keyStopIndex[currentKey];
 3082              		.loc 13 366 16 view .LVU729
 3083 007c 1048     		ldr	r0, .L181+36
 3084              		.loc 13 367 15 view .LVU730
 3085 007e 51F82210 		ldr	r1, [r1, r2, lsl #2]
 3086              	.LBB722:
 3087              	.LBB719:
 102:sampleengine.h **** }
 3088              		.loc 13 102 15 view .LVU731
 3089 0082 F8EE677A 		vcvt.f32.u32	s15, s15
 3090              	.LBE719:
 3091              	.LBE722:
 365:sampleengine.h ****     startPoint = keyStartIndex[currentKey];
 3092              		.loc 13 365 16 view .LVU732
 3093 0086 2260     		str	r2, [r4]
 366:sampleengine.h ****     stopPoint = keyStopIndex[currentKey];
 3094              		.loc 13 366 5 is_stmt 1 view .LVU733
 366:sampleengine.h ****     stopPoint = keyStopIndex[currentKey];
 3095              		.loc 13 366 16 is_stmt 0 view .LVU734
 3096 0088 0360     		str	r3, [r0]
 3097              		.loc 13 367 5 is_stmt 1 view .LVU735
 3098              		.loc 13 367 15 is_stmt 0 view .LVU736
 3099 008a 0E4A     		ldr	r2, .L181+40
 3100              	.LBB723:
 3101              	.LBB720:
 102:sampleengine.h **** }
 3102              		.loc 13 102 15 view .LVU737
 3103 008c 0E4B     		ldr	r3, .L181+44
 3104              	.LBE720:
 3105              	.LBE723:
 368:sampleengine.h ****     ResetReadIndex();
 369:sampleengine.h **** }
ARM GAS  /var/folders/m5/x8wc2gdj7z5cpgcqdsb_gkj40000gn/T//cckXFIsJ.s 			page 86


 3106              		.loc 13 369 1 view .LVU738
 3107 008e 5DF8044B 		ldr	r4, [sp], #4
 3108              		.cfi_restore 4
 3109              		.cfi_def_cfa_offset 0
 367:sampleengine.h ****     ResetReadIndex();
 3110              		.loc 13 367 15 view .LVU739
 3111 0092 1160     		str	r1, [r2]
 368:sampleengine.h ****     ResetReadIndex();
 3112              		.loc 13 368 5 is_stmt 1 view .LVU740
 3113              	.LBB724:
 3114              	.LBI717:
 100:sampleengine.h **** {
 3115              		.loc 13 100 6 view .LVU741
 3116              	.LBB721:
 102:sampleengine.h **** }
 3117              		.loc 13 102 5 view .LVU742
 102:sampleengine.h **** }
 3118              		.loc 13 102 15 is_stmt 0 view .LVU743
 3119 0094 C3ED007A 		vstr.32	s15, [r3]
 3120              	.LBE721:
 3121              	.LBE724:
 3122              		.loc 13 369 1 view .LVU744
 3123 0098 7047     		bx	lr
 3124              	.L182:
 3125 009a 00BF     		.align	2
 3126              	.L181:
 3127 009c 00000000 		.word	.LANCHOR18
 3128 00a0 FCFFFFFF 		.word	.LANCHOR2-4
 3129 00a4 FCFFFFFF 		.word	.LANCHOR5-4
 3130 00a8 00000000 		.word	0
 3131 00ac 0000003D 		.word	1023410176
 3132 00b0 00000000 		.word	.LANCHOR1
 3133 00b4 00000000 		.word	.LANCHOR2
 3134 00b8 00000000 		.word	.LANCHOR0
 3135 00bc 00000000 		.word	.LANCHOR5
 3136 00c0 00000000 		.word	.LANCHOR3
 3137 00c4 00000000 		.word	.LANCHOR4
 3138 00c8 00000000 		.word	.LANCHOR6
 3139              		.cfi_endproc
 3140              	.LFE4700:
 3142              		.section	.text._Z13GetStartPointv,"ax",%progbits
 3143              		.align	1
 3144              		.p2align 2,,3
 3145              		.global	_Z13GetStartPointv
 3146              		.syntax unified
 3147              		.thumb
 3148              		.thumb_func
 3150              	_Z13GetStartPointv:
 3151              	.LFB4701:
 370:sampleengine.h **** 
 371:sampleengine.h **** uint32_t GetStartPoint()
 372:sampleengine.h **** {
 3152              		.loc 13 372 1 is_stmt 1 view -0
 3153              		.cfi_startproc
 3154              		@ args = 0, pretend = 0, frame = 0
 3155              		@ frame_needed = 0, uses_anonymous_args = 0
 3156              		@ link register save eliminated.
ARM GAS  /var/folders/m5/x8wc2gdj7z5cpgcqdsb_gkj40000gn/T//cckXFIsJ.s 			page 87


 373:sampleengine.h ****     return keyStartIndex[1];
 3157              		.loc 13 373 5 view .LVU746
 3158              		.loc 13 373 27 is_stmt 0 view .LVU747
 3159 0000 014B     		ldr	r3, .L184
 374:sampleengine.h **** }
 3160              		.loc 13 374 1 view .LVU748
 3161 0002 5868     		ldr	r0, [r3, #4]
 3162 0004 7047     		bx	lr
 3163              	.L185:
 3164 0006 00BF     		.align	2
 3165              	.L184:
 3166 0008 00000000 		.word	.LANCHOR2
 3167              		.cfi_endproc
 3168              	.LFE4701:
 3170              		.section	.text._Z12GetStopPointv,"ax",%progbits
 3171              		.align	1
 3172              		.p2align 2,,3
 3173              		.global	_Z12GetStopPointv
 3174              		.syntax unified
 3175              		.thumb
 3176              		.thumb_func
 3178              	_Z12GetStopPointv:
 3179              	.LFB4702:
 375:sampleengine.h **** 
 376:sampleengine.h **** uint32_t GetStopPoint() // check if it works with just one stop point then change it
 377:sampleengine.h **** {
 3180              		.loc 13 377 1 is_stmt 1 view -0
 3181              		.cfi_startproc
 3182              		@ args = 0, pretend = 0, frame = 0
 3183              		@ frame_needed = 0, uses_anonymous_args = 0
 3184              		@ link register save eliminated.
 378:sampleengine.h ****     return keyStopIndex[1];
 3185              		.loc 13 378 5 view .LVU750
 3186              		.loc 13 378 26 is_stmt 0 view .LVU751
 3187 0000 014B     		ldr	r3, .L187
 379:sampleengine.h **** }
 3188              		.loc 13 379 1 view .LVU752
 3189 0002 5868     		ldr	r0, [r3, #4]
 3190 0004 7047     		bx	lr
 3191              	.L188:
 3192 0006 00BF     		.align	2
 3193              	.L187:
 3194 0008 00000000 		.word	.LANCHOR5
 3195              		.cfi_endproc
 3196              	.LFE4702:
 3198              		.section	.text._Z7InitLCDv,"ax",%progbits
 3199              		.align	1
 3200              		.p2align 2,,3
 3201              		.global	_Z7InitLCDv
 3202              		.syntax unified
 3203              		.thumb
 3204              		.thumb_func
 3206              	_Z7InitLCDv:
 3207              	.LFB4703:
 3208              		.file 15 "display.h"
   1:display.h     **** // ================================
   2:display.h     **** // COMPANY: Feni Design
ARM GAS  /var/folders/m5/x8wc2gdj7z5cpgcqdsb_gkj40000gn/T//cckXFIsJ.s 			page 88


   3:display.h     **** // AUTHOR: Dominic Frugoli
   4:display.h     **** // CREATE DATE: 10/04/2024
   5:display.h     **** // PROJECT: Fall 2024 Independent Project
   6:display.h     **** // HEADER FILE FOR USE WITH: "sardinia.cpp"
   7:display.h     **** // SPECIAL NOTES: Code is meant for Electrosmith Daisy microcontroller
   8:display.h     **** // ================================
   9:display.h     **** 
  10:display.h     **** 
  11:display.h     **** using namespace daisy;
  12:display.h     **** using namespace daisy::seed;
  13:display.h     **** 
  14:display.h     **** 
  15:display.h     **** // |Pin Declarations|------------------------------------------------------------------------------
  16:display.h     **** 
  17:display.h     **** 
  18:display.h     **** #define PIN_LCD_RS D28 // LCD: pin 8
  19:display.h     **** #define PIN_LCD_EN D27 // LCD: pin 9
  20:display.h     **** #define PIN_LCD_D4 D26 // LCD: D4
  21:display.h     **** #define PIN_LCD_D5 D25 // LCD: D5
  22:display.h     **** #define PIN_LCD_D6 D24 // LCD: D6
  23:display.h     **** #define PIN_LCD_D7 D23 // LCD: D7
  24:display.h     **** 
  25:display.h     **** #define PLAY_MODE 0
  26:display.h     **** #define RECORD_MODE 1
  27:display.h     **** 
  28:display.h     **** 
  29:display.h     **** // |Mode Setup|------------------------------------------------------------------------------------
  30:display.h     **** 
  31:display.h     **** 
  32:display.h     **** enum Mode // Just add knobs before last NUM_ADC_CHANNELS as needed
  33:display.h     **** {
  34:display.h     **** 	record,
  35:display.h     **** 	play
  36:display.h     **** };
  37:display.h     **** 
  38:display.h     **** 
  39:display.h     **** // |Object Instantiations|-------------------------------------------------------------------------
  40:display.h     **** 
  41:display.h     **** 
  42:display.h     **** LcdHD44780 lcd;
  43:display.h     **** enum Mode mode = record;
  44:display.h     **** 
  45:display.h     **** 
  46:display.h     **** // |Function Declarations|-------------------------------------------------------------------------
  47:display.h     **** 
  48:display.h     **** 
  49:display.h     **** void InitLCD()
  50:display.h     **** {
 3209              		.loc 15 50 1 is_stmt 1 view -0
 3210              		.cfi_startproc
 3211              		@ args = 0, pretend = 0, frame = 16
 3212              		@ frame_needed = 0, uses_anonymous_args = 0
  51:display.h     ****     LcdHD44780::Config lcd_config;
 3213              		.loc 15 51 5 view .LVU754
  52:display.h     **** 	lcd_config.cursor_on = false;
 3214              		.loc 15 52 2 view .LVU755
  53:display.h     **** 	lcd_config.cursor_blink = false;
ARM GAS  /var/folders/m5/x8wc2gdj7z5cpgcqdsb_gkj40000gn/T//cckXFIsJ.s 			page 89


  54:display.h     **** 	lcd_config.rs = PIN_LCD_RS;
  55:display.h     **** 	lcd_config.en = PIN_LCD_EN;
 3215              		.loc 15 55 16 is_stmt 0 view .LVU756
 3216 0000 164A     		ldr	r2, .L191
  52:display.h     **** 	lcd_config.cursor_on = false;
 3217              		.loc 15 52 23 view .LVU757
 3218 0002 0023     		movs	r3, #0
  56:display.h     **** 	lcd_config.d4 = PIN_LCD_D4;
  57:display.h     **** 	lcd_config.d5 = PIN_LCD_D5;
  58:display.h     **** 	lcd_config.d6 = PIN_LCD_D6;
  59:display.h     **** 	lcd_config.d7 = PIN_LCD_D7;
  60:display.h     **** 	lcd.Init(lcd_config);
 3219              		.loc 15 60 10 view .LVU758
 3220 0004 1648     		ldr	r0, .L191+4
  55:display.h     **** 	lcd_config.d4 = PIN_LCD_D4;
 3221              		.loc 15 55 16 view .LVU759
 3222 0006 1188     		ldrh	r1, [r2]
  56:display.h     **** 	lcd_config.d4 = PIN_LCD_D4;
 3223              		.loc 15 56 16 view .LVU760
 3224 0008 B2F804C0 		ldrh	ip, [r2, #4]
  59:display.h     **** 	lcd.Init(lcd_config);
 3225              		.loc 15 59 16 view .LVU761
 3226 000c 0422     		movs	r2, #4
  50:display.h     ****     LcdHD44780::Config lcd_config;
 3227              		.loc 15 50 1 view .LVU762
 3228 000e 00B5     		push	{lr}
 3229              		.cfi_def_cfa_offset 4
 3230              		.cfi_offset 14, -4
 3231 0010 85B0     		sub	sp, sp, #20
 3232              		.cfi_def_cfa_offset 24
  54:display.h     **** 	lcd_config.en = PIN_LCD_EN;
 3233              		.loc 15 54 16 view .LVU763
 3234 0012 4FF0020E 		mov	lr, #2
  55:display.h     **** 	lcd_config.d4 = PIN_LCD_D4;
 3235              		.loc 15 55 16 view .LVU764
 3236 0016 ADF80410 		strh	r1, [sp, #4]	@ movhi
  58:display.h     **** 	lcd_config.d7 = PIN_LCD_D7;
 3237              		.loc 15 58 16 view .LVU765
 3238 001a 0121     		movs	r1, #1
  52:display.h     **** 	lcd_config.cursor_blink = false;
 3239              		.loc 15 52 23 view .LVU766
 3240 001c 8DF80030 		strb	r3, [sp]
  53:display.h     **** 	lcd_config.rs = PIN_LCD_RS;
 3241              		.loc 15 53 2 is_stmt 1 view .LVU767
  58:display.h     **** 	lcd_config.d7 = PIN_LCD_D7;
 3242              		.loc 15 58 16 is_stmt 0 view .LVU768
 3243 0020 8DF80B10 		strb	r1, [sp, #11]
 3244              		.loc 15 60 10 view .LVU769
 3245 0024 6946     		mov	r1, sp
  53:display.h     **** 	lcd_config.rs = PIN_LCD_RS;
 3246              		.loc 15 53 26 view .LVU770
 3247 0026 8DF80130 		strb	r3, [sp, #1]
  54:display.h     **** 	lcd_config.en = PIN_LCD_EN;
 3248              		.loc 15 54 2 is_stmt 1 view .LVU771
  54:display.h     **** 	lcd_config.en = PIN_LCD_EN;
 3249              		.loc 15 54 16 is_stmt 0 view .LVU772
 3250 002a 8DF80230 		strb	r3, [sp, #2]
ARM GAS  /var/folders/m5/x8wc2gdj7z5cpgcqdsb_gkj40000gn/T//cckXFIsJ.s 			page 90


 3251 002e 8DF803E0 		strb	lr, [sp, #3]
  55:display.h     **** 	lcd_config.d4 = PIN_LCD_D4;
 3252              		.loc 15 55 2 is_stmt 1 view .LVU773
  56:display.h     **** 	lcd_config.d5 = PIN_LCD_D5;
 3253              		.loc 15 56 2 view .LVU774
  56:display.h     **** 	lcd_config.d5 = PIN_LCD_D5;
 3254              		.loc 15 56 16 is_stmt 0 view .LVU775
 3255 0032 ADF806C0 		strh	ip, [sp, #6]	@ movhi
  57:display.h     **** 	lcd_config.d6 = PIN_LCD_D6;
 3256              		.loc 15 57 2 is_stmt 1 view .LVU776
  57:display.h     **** 	lcd_config.d6 = PIN_LCD_D6;
 3257              		.loc 15 57 16 is_stmt 0 view .LVU777
 3258 0036 8DF80830 		strb	r3, [sp, #8]
 3259 003a 8DF80930 		strb	r3, [sp, #9]
  58:display.h     **** 	lcd_config.d7 = PIN_LCD_D7;
 3260              		.loc 15 58 2 is_stmt 1 view .LVU778
  59:display.h     **** 	lcd.Init(lcd_config);
 3261              		.loc 15 59 2 view .LVU779
  58:display.h     **** 	lcd_config.d7 = PIN_LCD_D7;
 3262              		.loc 15 58 16 is_stmt 0 view .LVU780
 3263 003e 8DF80A30 		strb	r3, [sp, #10]
  59:display.h     **** 	lcd.Init(lcd_config);
 3264              		.loc 15 59 16 view .LVU781
 3265 0042 8DF80C30 		strb	r3, [sp, #12]
 3266 0046 8DF80D20 		strb	r2, [sp, #13]
 3267              		.loc 15 60 2 is_stmt 1 view .LVU782
 3268              		.loc 15 60 10 is_stmt 0 view .LVU783
 3269 004a FFF7FEFF 		bl	_ZN5daisy10LcdHD447804InitERKNS0_6ConfigE
 3270              	.LVL164:
  61:display.h     **** 	lcd.Clear();
 3271              		.loc 15 61 2 is_stmt 1 view .LVU784
 3272              		.loc 15 61 11 is_stmt 0 view .LVU785
 3273 004e 0448     		ldr	r0, .L191+4
 3274 0050 FFF7FEFF 		bl	_ZN5daisy10LcdHD447805ClearEv
 3275              	.LVL165:
  62:display.h     **** }
 3276              		.loc 15 62 1 view .LVU786
 3277 0054 05B0     		add	sp, sp, #20
 3278              		.cfi_def_cfa_offset 4
 3279              		@ sp needed
 3280 0056 5DF804FB 		ldr	pc, [sp], #4
 3281              	.L192:
 3282 005a 00BF     		.align	2
 3283              	.L191:
 3284 005c 00000000 		.word	.LANCHOR29
 3285 0060 00000000 		.word	.LANCHOR30
 3286              		.cfi_endproc
 3287              	.LFE4703:
 3289              		.section	.rodata._Z9PrintMenufPb.str1.4,"aMS",%progbits,1
 3290              		.align	2
 3291              	.LC12:
 3292 0000 5265636F 		.ascii	"Record Mode     \000"
 3292      7264204D 
 3292      6F646520 
 3292      20202020 
 3292      00
 3293 0011 000000   		.align	2
ARM GAS  /var/folders/m5/x8wc2gdj7z5cpgcqdsb_gkj40000gn/T//cckXFIsJ.s 			page 91


 3294              	.LC13:
 3295 0014 506C6179 		.ascii	"Play Mode       \000"
 3295      204D6F64 
 3295      65202020 
 3295      20202020 
 3295      00
 3296 0025 000000   		.align	2
 3297              	.LC14:
 3298 0028 4F766572 		.ascii	"Overdrive:   \000"
 3298      64726976 
 3298      653A2020 
 3298      2000
 3299 0036 0000     		.align	2
 3300              	.LC15:
 3301 0038 204F6E00 		.ascii	" On\000"
 3302              		.align	2
 3303              	.LC16:
 3304 003c 4F666600 		.ascii	"Off\000"
 3305              		.align	2
 3306              	.LC17:
 3307 0040 43686F72 		.ascii	"Chorus:      \000"
 3307      75733A20 
 3307      20202020 
 3307      2000
 3308 004e 0000     		.align	2
 3309              	.LC18:
 3310 0050 4C6F772D 		.ascii	"Low-Pass:    \000"
 3310      50617373 
 3310      3A202020 
 3310      2000
 3311              		.section	.text._Z9PrintMenufPb,"ax",%progbits
 3312              		.align	1
 3313              		.p2align 2,,3
 3314              		.global	_Z9PrintMenufPb
 3315              		.syntax unified
 3316              		.thumb
 3317              		.thumb_func
 3319              	_Z9PrintMenufPb:
 3320              	.LVL166:
 3321              	.LFB4704:
  63:display.h     **** 
  64:display.h     **** void PrintMenu(float currenteffect, bool effectstates[])
  65:display.h     **** {
 3322              		.loc 15 65 1 is_stmt 1 view -0
 3323              		.cfi_startproc
 3324              		@ args = 0, pretend = 0, frame = 0
 3325              		@ frame_needed = 0, uses_anonymous_args = 0
  66:display.h     **** 	//Print Mode Readout
  67:display.h     **** 	lcd.SetCursor(0, 0);
 3326              		.loc 15 67 2 view .LVU788
 3327              		.loc 15 67 15 is_stmt 0 view .LVU789
 3328 0000 0022     		movs	r2, #0
  65:display.h     **** 	//Print Mode Readout
 3329              		.loc 15 65 1 view .LVU790
 3330 0002 10B5     		push	{r4, lr}
 3331              		.cfi_def_cfa_offset 8
 3332              		.cfi_offset 4, -8
ARM GAS  /var/folders/m5/x8wc2gdj7z5cpgcqdsb_gkj40000gn/T//cckXFIsJ.s 			page 92


 3333              		.cfi_offset 14, -4
 3334              		.loc 15 67 15 view .LVU791
 3335 0004 1146     		mov	r1, r2
  65:display.h     **** 	//Print Mode Readout
 3336              		.loc 15 65 1 view .LVU792
 3337 0006 0446     		mov	r4, r0
 3338              		.loc 15 67 15 view .LVU793
 3339 0008 2B48     		ldr	r0, .L210
 3340              	.LVL167:
  65:display.h     **** 	//Print Mode Readout
 3341              		.loc 15 65 1 view .LVU794
 3342 000a 2DED028B 		vpush.64	{d8}
 3343              		.cfi_def_cfa_offset 16
 3344              		.cfi_offset 80, -16
 3345              		.cfi_offset 81, -12
  65:display.h     **** 	//Print Mode Readout
 3346              		.loc 15 65 1 view .LVU795
 3347 000e B0EE408A 		vmov.f32	s16, s0
 3348              		.loc 15 67 15 view .LVU796
 3349 0012 FFF7FEFF 		bl	_ZN5daisy10LcdHD447809SetCursorEhh
 3350              	.LVL168:
  68:display.h     **** 	if(mode == record)
 3351              		.loc 15 68 2 is_stmt 1 view .LVU797
 3352              		.loc 15 68 10 is_stmt 0 view .LVU798
 3353 0016 294B     		ldr	r3, .L210+4
 3354 0018 1B78     		ldrb	r3, [r3]	@ zero_extendqisi2
 3355              		.loc 15 68 2 view .LVU799
 3356 001a 002B     		cmp	r3, #0
 3357 001c 39D0     		beq	.L205
  69:display.h     **** 	{
  70:display.h     **** 		lcd.Print("Record Mode     ");
  71:display.h     **** 	}
  72:display.h     **** 	else if(mode == play)
 3358              		.loc 15 72 7 is_stmt 1 view .LVU800
 3359 001e 012B     		cmp	r3, #1
 3360 0020 44D0     		beq	.L206
 3361              	.L195:
  73:display.h     **** 	{
  74:display.h     **** 		lcd.Print("Play Mode       ");
  75:display.h     **** 	}
  76:display.h     **** 
  77:display.h     **** 	// Print Effect Readout
  78:display.h     **** 	lcd.SetCursor(1, 0);
 3362              		.loc 15 78 2 view .LVU801
 3363              		.loc 15 78 15 is_stmt 0 view .LVU802
 3364 0022 0022     		movs	r2, #0
 3365 0024 0121     		movs	r1, #1
 3366 0026 2448     		ldr	r0, .L210
 3367 0028 FFF7FEFF 		bl	_ZN5daisy10LcdHD447809SetCursorEhh
 3368              	.LVL169:
  79:display.h     **** 	if(currenteffect == 0)
 3369              		.loc 15 79 2 is_stmt 1 view .LVU803
 3370 002c B5EE408A 		vcmp.f32	s16, #0
 3371 0030 F1EE10FA 		vmrs	APSR_nzcv, FPSCR
 3372 0034 1ED0     		beq	.L207
  80:display.h     **** 	{
  81:display.h     **** 		lcd.Print("Overdrive:   ");
ARM GAS  /var/folders/m5/x8wc2gdj7z5cpgcqdsb_gkj40000gn/T//cckXFIsJ.s 			page 93


  82:display.h     **** 		if(effectstates[0])
  83:display.h     **** 		{
  84:display.h     **** 			lcd.Print(" On");
  85:display.h     **** 		}
  86:display.h     **** 		else
  87:display.h     **** 		{
  88:display.h     **** 			lcd.Print("Off");
  89:display.h     **** 		}
  90:display.h     **** 	}
  91:display.h     **** 	else if(currenteffect == 1)
 3373              		.loc 15 91 7 view .LVU804
 3374 0036 F7EE007A 		vmov.f32	s15, #1.0e+0
 3375 003a B4EE678A 		vcmp.f32	s16, s15
 3376 003e F1EE10FA 		vmrs	APSR_nzcv, FPSCR
 3377 0042 09D0     		beq	.L208
  92:display.h     **** 	{
  93:display.h     **** 		lcd.Print("Chorus:      ");
  94:display.h     **** 		if(effectstates[1])
  95:display.h     **** 		{
  96:display.h     **** 			lcd.Print(" On");
  97:display.h     **** 		}
  98:display.h     **** 		else
  99:display.h     **** 		{
 100:display.h     **** 			lcd.Print("Off");
 101:display.h     **** 		}
 102:display.h     **** 	}
 103:display.h     **** 	else if(currenteffect == 2)
 3378              		.loc 15 103 7 view .LVU805
 3379 0044 F0EE007A 		vmov.f32	s15, #2.0e+0
 3380 0048 B4EE678A 		vcmp.f32	s16, s15
 3381 004c F1EE10FA 		vmrs	APSR_nzcv, FPSCR
 3382 0050 24D0     		beq	.L209
 104:display.h     **** 	{
 105:display.h     **** 		lcd.Print("Low-Pass:    ");
 106:display.h     **** 		if(effectstates[2])
 107:display.h     **** 		{
 108:display.h     **** 			lcd.Print(" On");
 109:display.h     **** 		}
 110:display.h     **** 		else
 111:display.h     **** 		{
 112:display.h     **** 			lcd.Print("Off");
 113:display.h     **** 		}
 114:display.h     **** 	}
 115:display.h     **** 
 116:display.h     **** 	// For Testing Values
 117:display.h     **** 	/*
 118:display.h     **** 	lcd.SetCursor(1, 0);
 119:display.h     **** 	lcd.PrintInt(testValFloat);
 120:display.h     **** 	lcd.SetCursor(1, 8);
 121:display.h     **** 	lcd.PrintInt(testValInt);
 122:display.h     **** 	*/
 123:display.h     **** }
 3383              		.loc 15 123 1 is_stmt 0 view .LVU806
 3384 0052 BDEC028B 		vldm	sp!, {d8}
 3385              		.cfi_remember_state
 3386              		.cfi_restore 80
 3387              		.cfi_restore 81
ARM GAS  /var/folders/m5/x8wc2gdj7z5cpgcqdsb_gkj40000gn/T//cckXFIsJ.s 			page 94


 3388              		.cfi_def_cfa_offset 8
 3389              	.LVL170:
 3390              		.loc 15 123 1 view .LVU807
 3391 0056 10BD     		pop	{r4, pc}
 3392              	.LVL171:
 3393              	.L208:
 3394              		.cfi_restore_state
  93:display.h     **** 		if(effectstates[1])
 3395              		.loc 15 93 3 is_stmt 1 view .LVU808
  93:display.h     **** 		if(effectstates[1])
 3396              		.loc 15 93 12 is_stmt 0 view .LVU809
 3397 0058 1949     		ldr	r1, .L210+8
 3398 005a 1748     		ldr	r0, .L210
 3399 005c FFF7FEFF 		bl	_ZN5daisy10LcdHD447805PrintEPKc
 3400              	.LVL172:
  94:display.h     **** 		{
 3401              		.loc 15 94 3 is_stmt 1 view .LVU810
 3402 0060 6378     		ldrb	r3, [r4, #1]	@ zero_extendqisi2
 3403 0062 73B1     		cbz	r3, .L197
 3404              	.L199:
  84:display.h     **** 		}
 3405              		.loc 15 84 4 view .LVU811
  84:display.h     **** 		}
 3406              		.loc 15 84 13 is_stmt 0 view .LVU812
 3407 0064 1749     		ldr	r1, .L210+12
 3408 0066 1448     		ldr	r0, .L210
 3409              		.loc 15 123 1 view .LVU813
 3410 0068 BDEC028B 		vldm	sp!, {d8}
 3411              		.cfi_remember_state
 3412              		.cfi_restore 80
 3413              		.cfi_restore 81
 3414              		.cfi_def_cfa_offset 8
 3415              	.LVL173:
 3416              		.loc 15 123 1 view .LVU814
 3417 006c BDE81040 		pop	{r4, lr}
 3418              		.cfi_restore 14
 3419              		.cfi_restore 4
 3420              		.cfi_def_cfa_offset 0
 3421              	.LVL174:
  84:display.h     **** 		}
 3422              		.loc 15 84 13 view .LVU815
 3423 0070 FFF7FEBF 		b	_ZN5daisy10LcdHD447805PrintEPKc
 3424              	.LVL175:
 3425              	.L207:
 3426              		.cfi_restore_state
  81:display.h     **** 		if(effectstates[0])
 3427              		.loc 15 81 3 is_stmt 1 view .LVU816
  81:display.h     **** 		if(effectstates[0])
 3428              		.loc 15 81 12 is_stmt 0 view .LVU817
 3429 0074 1449     		ldr	r1, .L210+16
 3430 0076 1048     		ldr	r0, .L210
 3431 0078 FFF7FEFF 		bl	_ZN5daisy10LcdHD447805PrintEPKc
 3432              	.LVL176:
  82:display.h     **** 		{
 3433              		.loc 15 82 3 is_stmt 1 view .LVU818
 3434 007c 2378     		ldrb	r3, [r4]	@ zero_extendqisi2
 3435 007e 002B     		cmp	r3, #0
ARM GAS  /var/folders/m5/x8wc2gdj7z5cpgcqdsb_gkj40000gn/T//cckXFIsJ.s 			page 95


 3436 0080 F0D1     		bne	.L199
 3437              	.L197:
  88:display.h     **** 		}
 3438              		.loc 15 88 4 view .LVU819
  88:display.h     **** 		}
 3439              		.loc 15 88 13 is_stmt 0 view .LVU820
 3440 0082 1249     		ldr	r1, .L210+20
 3441 0084 0C48     		ldr	r0, .L210
 3442              		.loc 15 123 1 view .LVU821
 3443 0086 BDEC028B 		vldm	sp!, {d8}
 3444              		.cfi_remember_state
 3445              		.cfi_restore 80
 3446              		.cfi_restore 81
 3447              		.cfi_def_cfa_offset 8
 3448              	.LVL177:
 3449              		.loc 15 123 1 view .LVU822
 3450 008a BDE81040 		pop	{r4, lr}
 3451              		.cfi_restore 14
 3452              		.cfi_restore 4
 3453              		.cfi_def_cfa_offset 0
 3454              	.LVL178:
  88:display.h     **** 		}
 3455              		.loc 15 88 13 view .LVU823
 3456 008e FFF7FEBF 		b	_ZN5daisy10LcdHD447805PrintEPKc
 3457              	.LVL179:
 3458              	.L205:
 3459              		.cfi_restore_state
  70:display.h     **** 	}
 3460              		.loc 15 70 3 is_stmt 1 view .LVU824
  70:display.h     **** 	}
 3461              		.loc 15 70 12 is_stmt 0 view .LVU825
 3462 0092 0F49     		ldr	r1, .L210+24
 3463 0094 0848     		ldr	r0, .L210
 3464 0096 FFF7FEFF 		bl	_ZN5daisy10LcdHD447805PrintEPKc
 3465              	.LVL180:
 3466 009a C2E7     		b	.L195
 3467              	.L209:
 105:display.h     **** 		if(effectstates[2])
 3468              		.loc 15 105 3 is_stmt 1 view .LVU826
 105:display.h     **** 		if(effectstates[2])
 3469              		.loc 15 105 12 is_stmt 0 view .LVU827
 3470 009c 0D49     		ldr	r1, .L210+28
 3471 009e 0648     		ldr	r0, .L210
 3472 00a0 FFF7FEFF 		bl	_ZN5daisy10LcdHD447805PrintEPKc
 3473              	.LVL181:
 106:display.h     **** 		{
 3474              		.loc 15 106 3 is_stmt 1 view .LVU828
 3475 00a4 A378     		ldrb	r3, [r4, #2]	@ zero_extendqisi2
 3476 00a6 002B     		cmp	r3, #0
 3477 00a8 DCD1     		bne	.L199
 3478 00aa EAE7     		b	.L197
 3479              	.L206:
  74:display.h     **** 	}
 3480              		.loc 15 74 3 view .LVU829
  74:display.h     **** 	}
 3481              		.loc 15 74 12 is_stmt 0 view .LVU830
 3482 00ac 0A49     		ldr	r1, .L210+32
ARM GAS  /var/folders/m5/x8wc2gdj7z5cpgcqdsb_gkj40000gn/T//cckXFIsJ.s 			page 96


 3483 00ae 0248     		ldr	r0, .L210
 3484 00b0 FFF7FEFF 		bl	_ZN5daisy10LcdHD447805PrintEPKc
 3485              	.LVL182:
 3486 00b4 B5E7     		b	.L195
 3487              	.L211:
 3488 00b6 00BF     		.align	2
 3489              	.L210:
 3490 00b8 00000000 		.word	.LANCHOR30
 3491 00bc 00000000 		.word	.LANCHOR31
 3492 00c0 40000000 		.word	.LC17
 3493 00c4 38000000 		.word	.LC15
 3494 00c8 28000000 		.word	.LC14
 3495 00cc 3C000000 		.word	.LC16
 3496 00d0 00000000 		.word	.LC12
 3497 00d4 50000000 		.word	.LC18
 3498 00d8 14000000 		.word	.LC13
 3499              		.cfi_endproc
 3500              	.LFE4704:
 3502              		.section	.text._Z10UpdateModei,"ax",%progbits
 3503              		.align	1
 3504              		.p2align 2,,3
 3505              		.global	_Z10UpdateModei
 3506              		.syntax unified
 3507              		.thumb
 3508              		.thumb_func
 3510              	_Z10UpdateModei:
 3511              	.LVL183:
 3512              	.LFB4705:
 124:display.h     **** 
 125:display.h     **** void UpdateMode(int menuSelect)
 126:display.h     **** {
 3513              		.loc 15 126 1 is_stmt 1 view -0
 3514              		.cfi_startproc
 3515              		@ args = 0, pretend = 0, frame = 0
 3516              		@ frame_needed = 0, uses_anonymous_args = 0
 3517              		@ link register save eliminated.
 127:display.h     **** 	if(menuSelect == 0)
 3518              		.loc 15 127 2 view .LVU832
 3519 0000 10B1     		cbz	r0, .L215
 128:display.h     **** 	{
 129:display.h     **** 		mode = record;
 130:display.h     **** 	}
 131:display.h     **** 	else if(menuSelect == 1)
 3520              		.loc 15 131 7 view .LVU833
 3521 0002 0128     		cmp	r0, #1
 3522 0004 00D0     		beq	.L215
 132:display.h     **** 	{
 133:display.h     **** 		mode = play;
 134:display.h     **** 	}
 135:display.h     **** }
 3523              		.loc 15 135 1 is_stmt 0 view .LVU834
 3524 0006 7047     		bx	lr
 3525              	.L215:
 133:display.h     **** 	}
 3526              		.loc 15 133 3 is_stmt 1 view .LVU835
 133:display.h     **** 	}
 3527              		.loc 15 133 8 is_stmt 0 view .LVU836
ARM GAS  /var/folders/m5/x8wc2gdj7z5cpgcqdsb_gkj40000gn/T//cckXFIsJ.s 			page 97


 3528 0008 014B     		ldr	r3, .L216
 3529 000a 1870     		strb	r0, [r3]
 3530              		.loc 15 135 1 view .LVU837
 3531 000c 7047     		bx	lr
 3532              	.L217:
 3533 000e 00BF     		.align	2
 3534              	.L216:
 3535 0010 00000000 		.word	.LANCHOR31
 3536              		.cfi_endproc
 3537              	.LFE4705:
 3539              		.section	.text._Z11InitEffectsf,"ax",%progbits
 3540              		.align	1
 3541              		.p2align 2,,3
 3542              		.global	_Z11InitEffectsf
 3543              		.syntax unified
 3544              		.thumb
 3545              		.thumb_func
 3547              	_Z11InitEffectsf:
 3548              	.LVL184:
 3549              	.LFB4706:
 3550              		.file 16 "effects.h"
   1:effects.h     **** // ================================
   2:effects.h     **** // COMPANY: Feni Design
   3:effects.h     **** // AUTHOR: Dominic Frugoli
   4:effects.h     **** // CREATE DATE: 10/29/2024
   5:effects.h     **** // PROJECT: Fall 2024 Independent Project
   6:effects.h     **** // HEADER FILE FOR USE WITH: "sardinia.cpp"
   7:effects.h     **** // SPECIAL NOTES: Code is meant for Electrosmith Daisy microcontroller
   8:effects.h     **** // ================================
   9:effects.h     **** 
  10:effects.h     **** 
  11:effects.h     **** using namespace daisy;
  12:effects.h     **** using namespace daisy::seed;
  13:effects.h     **** using namespace daisysp;
  14:effects.h     **** 
  15:effects.h     **** 
  16:effects.h     **** // |Audio Objects|---------------------------------------------------------------------------------
  17:effects.h     **** 
  18:effects.h     **** 
  19:effects.h     **** Chorus chorus;
  20:effects.h     **** Overdrive overdrive;
  21:effects.h     **** OnePole odTone;
  22:effects.h     **** Svf lopass;
  23:effects.h     **** 
  24:effects.h     **** 
  25:effects.h     **** // |Audio Variables|-------------------------------------------------------------------------------
  26:effects.h     **** 
  27:effects.h     **** int currentEffect = 0; // 0: overdrive, 1: chorus, 2: LoPass
  28:effects.h     **** bool effectStates[3] = {false, false, false}; // 0: overdrive, 1: chorus, 2: LoPass
  29:effects.h     **** 
  30:effects.h     **** float effectValues[3][2] = {{0.5f, 550.0f}, {0.5f, 1.0f}, {1000.0f, 0.25f}};
  31:effects.h     **** /*
  32:effects.h     ****     {[0][0]: overdrive gain, [0][1] overdrive tone freq}
  33:effects.h     ****     {[1][0]: chorus lfo depth, [1][1] chorus lfo freq}
  34:effects.h     ****     {[2][0]: LoPass cutoff, [2][1] LoPass resonance}
  35:effects.h     **** */
  36:effects.h     **** 
ARM GAS  /var/folders/m5/x8wc2gdj7z5cpgcqdsb_gkj40000gn/T//cckXFIsJ.s 			page 98


  37:effects.h     **** 
  38:effects.h     **** // |Init Functions|--------------------------------------------------------------------------------
  39:effects.h     **** 
  40:effects.h     **** 
  41:effects.h     **** void InitEffects(float samplerate)
  42:effects.h     **** {
 3551              		.loc 16 42 1 is_stmt 1 view -0
 3552              		.cfi_startproc
 3553              		@ args = 0, pretend = 0, frame = 0
 3554              		@ frame_needed = 0, uses_anonymous_args = 0
  43:effects.h     ****     // Overdrive
  44:effects.h     ****     overdrive.Init();
 3555              		.loc 16 44 5 view .LVU839
  42:effects.h     ****     // Overdrive
 3556              		.loc 16 42 1 is_stmt 0 view .LVU840
 3557 0000 70B5     		push	{r4, r5, r6, lr}
 3558              		.cfi_def_cfa_offset 16
 3559              		.cfi_offset 4, -16
 3560              		.cfi_offset 5, -12
 3561              		.cfi_offset 6, -8
 3562              		.cfi_offset 14, -4
 3563              		.loc 16 44 19 view .LVU841
 3564 0002 2A48     		ldr	r0, .L225
 3565              	.LBB733:
 3566              	.LBB734:
  31:/Users/dominicfrugoli/Desktop/ProgrammingCode/DaisyCode/DaisyExamples/DaisySP/Source/Filters/onepole.h **** 
  32:/Users/dominicfrugoli/Desktop/ProgrammingCode/DaisyCode/DaisyExamples/DaisySP/Source/Filters/onepole.h ****     /**
  33:/Users/dominicfrugoli/Desktop/ProgrammingCode/DaisyCode/DaisyExamples/DaisySP/Source/Filters/onepole.h ****      * @brief Operational modes of the filter
  34:/Users/dominicfrugoli/Desktop/ProgrammingCode/DaisyCode/DaisyExamples/DaisySP/Source/Filters/onepole.h ****      * - LOW_PASS = cuts out high frequency sound, lets low frequency sound pass through
  35:/Users/dominicfrugoli/Desktop/ProgrammingCode/DaisyCode/DaisyExamples/DaisySP/Source/Filters/onepole.h ****      * - HIGH_PASS = cuts out low frequency sound, lets high frequency sound pass through
  36:/Users/dominicfrugoli/Desktop/ProgrammingCode/DaisyCode/DaisyExamples/DaisySP/Source/Filters/onepole.h ****      */
  37:/Users/dominicfrugoli/Desktop/ProgrammingCode/DaisyCode/DaisyExamples/DaisySP/Source/Filters/onepole.h ****     enum FilterMode
  38:/Users/dominicfrugoli/Desktop/ProgrammingCode/DaisyCode/DaisyExamples/DaisySP/Source/Filters/onepole.h ****     {
  39:/Users/dominicfrugoli/Desktop/ProgrammingCode/DaisyCode/DaisyExamples/DaisySP/Source/Filters/onepole.h ****         FILTER_MODE_LOW_PASS,
  40:/Users/dominicfrugoli/Desktop/ProgrammingCode/DaisyCode/DaisyExamples/DaisySP/Source/Filters/onepole.h ****         FILTER_MODE_HIGH_PASS
  41:/Users/dominicfrugoli/Desktop/ProgrammingCode/DaisyCode/DaisyExamples/DaisySP/Source/Filters/onepole.h ****     };
  42:/Users/dominicfrugoli/Desktop/ProgrammingCode/DaisyCode/DaisyExamples/DaisySP/Source/Filters/onepole.h **** 
  43:/Users/dominicfrugoli/Desktop/ProgrammingCode/DaisyCode/DaisyExamples/DaisySP/Source/Filters/onepole.h ****     /** Initializes the module */
  44:/Users/dominicfrugoli/Desktop/ProgrammingCode/DaisyCode/DaisyExamples/DaisySP/Source/Filters/onepole.h ****     void Init()
  45:/Users/dominicfrugoli/Desktop/ProgrammingCode/DaisyCode/DaisyExamples/DaisySP/Source/Filters/onepole.h ****     {
  46:/Users/dominicfrugoli/Desktop/ProgrammingCode/DaisyCode/DaisyExamples/DaisySP/Source/Filters/onepole.h ****         Reset();
  47:/Users/dominicfrugoli/Desktop/ProgrammingCode/DaisyCode/DaisyExamples/DaisySP/Source/Filters/onepole.h ****         mode_ = FILTER_MODE_LOW_PASS;
 3567              		.loc 12 47 15 view .LVU842
 3568 0004 0026     		movs	r6, #0
 3569              	.LBE734:
 3570              	.LBE733:
  45:effects.h     ****     odTone.Init();
  46:effects.h     ****     overdrive.SetDrive(effectValues[0][0]);
 3571              		.loc 16 46 23 view .LVU843
 3572 0006 2A4C     		ldr	r4, .L225+4
 3573              	.LBB744:
 3574              	.LBB741:
 3575              	.LBB735:
 3576              	.LBB736:
  48:/Users/dominicfrugoli/Desktop/ProgrammingCode/DaisyCode/DaisyExamples/DaisySP/Source/Filters/onepole.h ****     }
  49:/Users/dominicfrugoli/Desktop/ProgrammingCode/DaisyCode/DaisyExamples/DaisySP/Source/Filters/onepole.h **** 
  50:/Users/dominicfrugoli/Desktop/ProgrammingCode/DaisyCode/DaisyExamples/DaisySP/Source/Filters/onepole.h ****     /** Reset the module to its default state */
ARM GAS  /var/folders/m5/x8wc2gdj7z5cpgcqdsb_gkj40000gn/T//cckXFIsJ.s 			page 99


  51:/Users/dominicfrugoli/Desktop/ProgrammingCode/DaisyCode/DaisyExamples/DaisySP/Source/Filters/onepole.h ****     inline void Reset() { state_ = 0.0f; }
 3577              		.loc 12 51 34 view .LVU844
 3578 0008 2A4D     		ldr	r5, .L225+8
 3579              	.LBE736:
 3580              	.LBE735:
 3581              	.LBE741:
 3582              	.LBE744:
  42:effects.h     ****     // Overdrive
 3583              		.loc 16 42 1 view .LVU845
 3584 000a 2DED028B 		vpush.64	{d8}
 3585              		.cfi_def_cfa_offset 24
 3586              		.cfi_offset 80, -24
 3587              		.cfi_offset 81, -20
  42:effects.h     ****     // Overdrive
 3588              		.loc 16 42 1 view .LVU846
 3589 000e B0EE408A 		vmov.f32	s16, s0
  44:effects.h     ****     odTone.Init();
 3590              		.loc 16 44 19 view .LVU847
 3591 0012 FFF7FEFF 		bl	_ZN7daisysp9Overdrive4InitEv
 3592              	.LVL185:
  45:effects.h     ****     overdrive.SetDrive(effectValues[0][0]);
 3593              		.loc 16 45 5 is_stmt 1 view .LVU848
 3594              	.LBB745:
 3595              	.LBI733:
  44:/Users/dominicfrugoli/Desktop/ProgrammingCode/DaisyCode/DaisyExamples/DaisySP/Source/Filters/onepole.h ****     {
 3596              		.loc 12 44 10 view .LVU849
 3597              	.LBB742:
  46:/Users/dominicfrugoli/Desktop/ProgrammingCode/DaisyCode/DaisyExamples/DaisySP/Source/Filters/onepole.h ****         mode_ = FILTER_MODE_LOW_PASS;
 3598              		.loc 12 46 9 view .LVU850
 3599              	.LBB739:
 3600              	.LBI735:
 3601              		.loc 12 51 17 view .LVU851
 3602              	.LBB737:
 3603              		.loc 12 51 27 view .LVU852
 3604              		.loc 12 51 34 is_stmt 0 view .LVU853
 3605 0016 0023     		movs	r3, #0
 3606              	.LBE737:
 3607              	.LBE739:
 3608              	.LBE742:
 3609              	.LBE745:
 3610              		.loc 16 46 23 view .LVU854
 3611 0018 94ED000A 		vldr.32	s0, [r4]
 3612 001c 2348     		ldr	r0, .L225
 3613              	.LBB746:
 3614              	.LBB743:
 3615              	.LBB740:
 3616              	.LBB738:
 3617              		.loc 12 51 34 view .LVU855
 3618 001e AB60     		str	r3, [r5, #8]	@ float
 3619              	.LVL186:
 3620              		.loc 12 51 34 view .LVU856
 3621              	.LBE738:
 3622              	.LBE740:
  47:/Users/dominicfrugoli/Desktop/ProgrammingCode/DaisyCode/DaisyExamples/DaisySP/Source/Filters/onepole.h ****     }
 3623              		.loc 12 47 9 is_stmt 1 view .LVU857
  47:/Users/dominicfrugoli/Desktop/ProgrammingCode/DaisyCode/DaisyExamples/DaisySP/Source/Filters/onepole.h ****     }
 3624              		.loc 12 47 15 is_stmt 0 view .LVU858
ARM GAS  /var/folders/m5/x8wc2gdj7z5cpgcqdsb_gkj40000gn/T//cckXFIsJ.s 			page 100


 3625 0020 2E73     		strb	r6, [r5, #12]
 3626              	.LVL187:
  47:/Users/dominicfrugoli/Desktop/ProgrammingCode/DaisyCode/DaisyExamples/DaisySP/Source/Filters/onepole.h ****     }
 3627              		.loc 12 47 15 view .LVU859
 3628              	.LBE743:
 3629              	.LBE746:
 3630              		.loc 16 46 5 is_stmt 1 view .LVU860
 3631              		.loc 16 46 23 is_stmt 0 view .LVU861
 3632 0022 FFF7FEFF 		bl	_ZN7daisysp9Overdrive8SetDriveEf
 3633              	.LVL188:
  47:effects.h     ****     odTone.SetFilterMode(OnePole::FILTER_MODE_LOW_PASS);
 3634              		.loc 16 47 5 is_stmt 1 view .LVU862
 3635              	.LBB747:
 3636              	.LBI747:
  52:/Users/dominicfrugoli/Desktop/ProgrammingCode/DaisyCode/DaisyExamples/DaisySP/Source/Filters/onepole.h **** 
  53:/Users/dominicfrugoli/Desktop/ProgrammingCode/DaisyCode/DaisyExamples/DaisySP/Source/Filters/onepole.h ****     /** Set the filter cutoff frequency
  54:/Users/dominicfrugoli/Desktop/ProgrammingCode/DaisyCode/DaisyExamples/DaisySP/Source/Filters/onepole.h ****     *   \param freq Cutoff frequency. Valid range from 0 to .497f
  55:/Users/dominicfrugoli/Desktop/ProgrammingCode/DaisyCode/DaisyExamples/DaisySP/Source/Filters/onepole.h ****     */
  56:/Users/dominicfrugoli/Desktop/ProgrammingCode/DaisyCode/DaisyExamples/DaisySP/Source/Filters/onepole.h ****     inline void SetFrequency(float freq)
  57:/Users/dominicfrugoli/Desktop/ProgrammingCode/DaisyCode/DaisyExamples/DaisySP/Source/Filters/onepole.h ****     {
  58:/Users/dominicfrugoli/Desktop/ProgrammingCode/DaisyCode/DaisyExamples/DaisySP/Source/Filters/onepole.h ****         // Clip coefficient to about 100.
  59:/Users/dominicfrugoli/Desktop/ProgrammingCode/DaisyCode/DaisyExamples/DaisySP/Source/Filters/onepole.h ****         freq = freq < 0.497f ? freq : 0.497f;
  60:/Users/dominicfrugoli/Desktop/ProgrammingCode/DaisyCode/DaisyExamples/DaisySP/Source/Filters/onepole.h **** 
  61:/Users/dominicfrugoli/Desktop/ProgrammingCode/DaisyCode/DaisyExamples/DaisySP/Source/Filters/onepole.h ****         g_  = tanf(PI_F * freq);
  62:/Users/dominicfrugoli/Desktop/ProgrammingCode/DaisyCode/DaisyExamples/DaisySP/Source/Filters/onepole.h ****         gi_ = 1.f / (1.f + g_);
  63:/Users/dominicfrugoli/Desktop/ProgrammingCode/DaisyCode/DaisyExamples/DaisySP/Source/Filters/onepole.h ****     }
  64:/Users/dominicfrugoli/Desktop/ProgrammingCode/DaisyCode/DaisyExamples/DaisySP/Source/Filters/onepole.h **** 
  65:/Users/dominicfrugoli/Desktop/ProgrammingCode/DaisyCode/DaisyExamples/DaisySP/Source/Filters/onepole.h ****     /** Set the filter mode
  66:/Users/dominicfrugoli/Desktop/ProgrammingCode/DaisyCode/DaisyExamples/DaisySP/Source/Filters/onepole.h ****     *   \param mode Filter mode. Can be lowpass or highpass
  67:/Users/dominicfrugoli/Desktop/ProgrammingCode/DaisyCode/DaisyExamples/DaisySP/Source/Filters/onepole.h ****     */
  68:/Users/dominicfrugoli/Desktop/ProgrammingCode/DaisyCode/DaisyExamples/DaisySP/Source/Filters/onepole.h ****     inline void SetFilterMode(FilterMode mode) { mode_ = mode; }
 3637              		.loc 12 68 17 view .LVU863
 3638              	.LBB748:
 3639              		.loc 12 68 50 view .LVU864
 3640              	.LBE748:
 3641              	.LBE747:
  48:effects.h     ****     odTone.SetFrequency(effectValues[0][1]);
 3642              		.loc 16 48 24 is_stmt 0 view .LVU865
 3643 0026 D4ED017A 		vldr.32	s15, [r4, #4]
 3644              	.LBB750:
 3645              	.LBB751:
  59:/Users/dominicfrugoli/Desktop/ProgrammingCode/DaisyCode/DaisyExamples/DaisySP/Source/Filters/onepole.h **** 
 3646              		.loc 12 59 30 view .LVU866
 3647 002a 9FED237A 		vldr.32	s14, .L225+12
 3648              	.LBE751:
 3649              	.LBE750:
 3650              	.LBB755:
 3651              	.LBB749:
 3652              		.loc 12 68 56 view .LVU867
 3653 002e 2E73     		strb	r6, [r5, #12]
 3654              	.LVL189:
 3655              		.loc 12 68 56 view .LVU868
 3656              	.LBE749:
 3657              	.LBE755:
 3658              		.loc 16 48 5 is_stmt 1 view .LVU869
 3659              	.LBB756:
 3660              	.LBI750:
ARM GAS  /var/folders/m5/x8wc2gdj7z5cpgcqdsb_gkj40000gn/T//cckXFIsJ.s 			page 101


  56:/Users/dominicfrugoli/Desktop/ProgrammingCode/DaisyCode/DaisyExamples/DaisySP/Source/Filters/onepole.h ****     {
 3661              		.loc 12 56 17 view .LVU870
 3662              	.LBB752:
  59:/Users/dominicfrugoli/Desktop/ProgrammingCode/DaisyCode/DaisyExamples/DaisySP/Source/Filters/onepole.h **** 
 3663              		.loc 12 59 9 view .LVU871
  59:/Users/dominicfrugoli/Desktop/ProgrammingCode/DaisyCode/DaisyExamples/DaisySP/Source/Filters/onepole.h **** 
 3664              		.loc 12 59 30 is_stmt 0 view .LVU872
 3665 0030 F4EEC77A 		vcmpe.f32	s15, s14
 3666 0034 F1EE10FA 		vmrs	APSR_nzcv, FPSCR
 3667 0038 33D5     		bpl	.L223
  61:/Users/dominicfrugoli/Desktop/ProgrammingCode/DaisyCode/DaisyExamples/DaisySP/Source/Filters/onepole.h ****         gi_ = 1.f / (1.f + g_);
 3668              		.loc 12 61 19 view .LVU873
 3669 003a 9FED200A 		vldr.32	s0, .L225+16
 3670 003e 27EE800A 		vmul.f32	s0, s15, s0
 3671 0042 FFF7FEFF 		bl	tanf
 3672              	.LVL190:
  62:/Users/dominicfrugoli/Desktop/ProgrammingCode/DaisyCode/DaisyExamples/DaisySP/Source/Filters/onepole.h ****     }
 3673              		.loc 12 62 26 view .LVU874
 3674 0046 F7EE006A 		vmov.f32	s13, #1.0e+0
  61:/Users/dominicfrugoli/Desktop/ProgrammingCode/DaisyCode/DaisyExamples/DaisySP/Source/Filters/onepole.h ****         gi_ = 1.f / (1.f + g_);
 3675              		.loc 12 61 19 view .LVU875
 3676 004a F0EE407A 		vmov.f32	s15, s0
  62:/Users/dominicfrugoli/Desktop/ProgrammingCode/DaisyCode/DaisyExamples/DaisySP/Source/Filters/onepole.h ****     }
 3677              		.loc 12 62 26 view .LVU876
 3678 004e 30EE266A 		vadd.f32	s12, s0, s13
  62:/Users/dominicfrugoli/Desktop/ProgrammingCode/DaisyCode/DaisyExamples/DaisySP/Source/Filters/onepole.h ****     }
 3679              		.loc 12 62 19 view .LVU877
 3680 0052 86EE867A 		vdiv.f32	s14, s13, s12
 3681              	.L219:
  61:/Users/dominicfrugoli/Desktop/ProgrammingCode/DaisyCode/DaisyExamples/DaisySP/Source/Filters/onepole.h ****         gi_ = 1.f / (1.f + g_);
 3682              		.loc 12 61 9 is_stmt 1 view .LVU878
 3683              	.LBE752:
 3684              	.LBE756:
  49:effects.h     ****     // Chorus
  50:effects.h     ****     chorus.Init(samplerate);
 3685              		.loc 16 50 16 is_stmt 0 view .LVU879
 3686 0056 1A48     		ldr	r0, .L225+20
 3687              	.LBB757:
 3688              	.LBB753:
  61:/Users/dominicfrugoli/Desktop/ProgrammingCode/DaisyCode/DaisyExamples/DaisySP/Source/Filters/onepole.h ****         gi_ = 1.f / (1.f + g_);
 3689              		.loc 12 61 13 view .LVU880
 3690 0058 C5ED007A 		vstr.32	s15, [r5]
  62:/Users/dominicfrugoli/Desktop/ProgrammingCode/DaisyCode/DaisyExamples/DaisySP/Source/Filters/onepole.h ****     }
 3691              		.loc 12 62 9 is_stmt 1 view .LVU881
  62:/Users/dominicfrugoli/Desktop/ProgrammingCode/DaisyCode/DaisyExamples/DaisySP/Source/Filters/onepole.h ****     }
 3692              		.loc 12 62 13 is_stmt 0 view .LVU882
 3693 005c 85ED017A 		vstr.32	s14, [r5, #4]
 3694              	.LVL191:
  62:/Users/dominicfrugoli/Desktop/ProgrammingCode/DaisyCode/DaisyExamples/DaisySP/Source/Filters/onepole.h ****     }
 3695              		.loc 12 62 13 view .LVU883
 3696              	.LBE753:
 3697              	.LBE757:
 3698              		.loc 16 50 5 is_stmt 1 view .LVU884
 3699              		.loc 16 50 16 is_stmt 0 view .LVU885
 3700 0060 B0EE480A 		vmov.f32	s0, s16
 3701 0064 FFF7FEFF 		bl	_ZN7daisysp6Chorus4InitEf
 3702              	.LVL192:
ARM GAS  /var/folders/m5/x8wc2gdj7z5cpgcqdsb_gkj40000gn/T//cckXFIsJ.s 			page 102


  51:effects.h     ****     chorus.SetLfoDepth(effectValues[1][0]);
 3703              		.loc 16 51 5 is_stmt 1 view .LVU886
 3704              		.loc 16 51 23 is_stmt 0 view .LVU887
 3705 0068 94ED020A 		vldr.32	s0, [r4, #8]
 3706 006c 1448     		ldr	r0, .L225+20
 3707 006e FFF7FEFF 		bl	_ZN7daisysp6Chorus11SetLfoDepthEf
 3708              	.LVL193:
  52:effects.h     ****     chorus.SetLfoFreq(effectValues[1][1]);
 3709              		.loc 16 52 5 is_stmt 1 view .LVU888
 3710              		.loc 16 52 22 is_stmt 0 view .LVU889
 3711 0072 94ED030A 		vldr.32	s0, [r4, #12]
 3712 0076 1248     		ldr	r0, .L225+20
 3713 0078 FFF7FEFF 		bl	_ZN7daisysp6Chorus10SetLfoFreqEf
 3714              	.LVL194:
  53:effects.h     ****     // LoPass
  54:effects.h     ****     lopass.Init(samplerate);
 3715              		.loc 16 54 5 is_stmt 1 view .LVU890
 3716              		.loc 16 54 16 is_stmt 0 view .LVU891
 3717 007c B0EE480A 		vmov.f32	s0, s16
 3718 0080 1048     		ldr	r0, .L225+24
 3719 0082 FFF7FEFF 		bl	_ZN7daisysp3Svf4InitEf
 3720              	.LVL195:
  55:effects.h     ****     lopass.SetFreq(effectValues[2][0]);
 3721              		.loc 16 55 5 is_stmt 1 view .LVU892
 3722              		.loc 16 55 19 is_stmt 0 view .LVU893
 3723 0086 94ED040A 		vldr.32	s0, [r4, #16]
 3724 008a 0E48     		ldr	r0, .L225+24
 3725 008c FFF7FEFF 		bl	_ZN7daisysp3Svf7SetFreqEf
 3726              	.LVL196:
  56:effects.h     ****     lopass.SetRes(effectValues[2][1]);
 3727              		.loc 16 56 5 is_stmt 1 view .LVU894
 3728              		.loc 16 56 18 is_stmt 0 view .LVU895
 3729 0090 94ED050A 		vldr.32	s0, [r4, #20]
 3730 0094 0B48     		ldr	r0, .L225+24
  57:effects.h     **** }
 3731              		.loc 16 57 1 view .LVU896
 3732 0096 BDEC028B 		vldm	sp!, {d8}
 3733              		.cfi_remember_state
 3734              		.cfi_restore 80
 3735              		.cfi_restore 81
 3736              		.cfi_def_cfa_offset 16
 3737              	.LVL197:
 3738              		.loc 16 57 1 view .LVU897
 3739 009a BDE87040 		pop	{r4, r5, r6, lr}
 3740              		.cfi_restore 14
 3741              		.cfi_restore 6
 3742              		.cfi_restore 5
 3743              		.cfi_restore 4
 3744              		.cfi_def_cfa_offset 0
  56:effects.h     ****     lopass.SetRes(effectValues[2][1]);
 3745              		.loc 16 56 18 view .LVU898
 3746 009e FFF7FEBF 		b	_ZN7daisysp3Svf6SetResEf
 3747              	.LVL198:
 3748              	.L223:
 3749              		.cfi_restore_state
 3750              	.LBB758:
 3751              	.LBB754:
ARM GAS  /var/folders/m5/x8wc2gdj7z5cpgcqdsb_gkj40000gn/T//cckXFIsJ.s 			page 103


  56:effects.h     ****     lopass.SetRes(effectValues[2][1]);
 3752              		.loc 16 56 18 view .LVU899
 3753 00a2 9FED097A 		vldr.32	s14, .L225+28
 3754 00a6 DFED097A 		vldr.32	s15, .L225+32
 3755              	.LVL199:
  56:effects.h     ****     lopass.SetRes(effectValues[2][1]);
 3756              		.loc 16 56 18 view .LVU900
 3757 00aa D4E7     		b	.L219
 3758              	.L226:
 3759              		.align	2
 3760              	.L225:
 3761 00ac 00000000 		.word	.LANCHOR32
 3762 00b0 00000000 		.word	.LANCHOR34
 3763 00b4 00000000 		.word	.LANCHOR33
 3764 00b8 C976FE3E 		.word	1056863945
 3765 00bc DB0F4940 		.word	1078530011
 3766 00c0 00000000 		.word	chorus
 3767 00c4 00000000 		.word	.LANCHOR35
 3768 00c8 61FA183C 		.word	1008269921
 3769 00cc 5F33D442 		.word	1121203039
 3770              	.LBE754:
 3771              	.LBE758:
 3772              		.cfi_endproc
 3773              	.LFE4706:
 3775              		.section	.text._Z14ProcessEffectsf,"ax",%progbits
 3776              		.align	1
 3777              		.p2align 2,,3
 3778              		.global	_Z14ProcessEffectsf
 3779              		.syntax unified
 3780              		.thumb
 3781              		.thumb_func
 3783              	_Z14ProcessEffectsf:
 3784              	.LVL200:
 3785              	.LFB4707:
  58:effects.h     **** 
  59:effects.h     **** float ProcessEffects(float sample)
  60:effects.h     **** {
 3786              		.loc 16 60 1 is_stmt 1 view -0
 3787              		.cfi_startproc
 3788              		@ args = 0, pretend = 0, frame = 0
 3789              		@ frame_needed = 0, uses_anonymous_args = 0
  61:effects.h     ****     float output = sample;
 3790              		.loc 16 61 5 view .LVU902
  60:effects.h     ****     float output = sample;
 3791              		.loc 16 60 1 is_stmt 0 view .LVU903
 3792 0000 10B5     		push	{r4, lr}
 3793              		.cfi_def_cfa_offset 8
 3794              		.cfi_offset 4, -8
 3795              		.cfi_offset 14, -4
  62:effects.h     **** 
  63:effects.h     ****     if(effectStates[0]) // Overdrive
 3796              		.loc 16 63 22 view .LVU904
 3797 0002 264C     		ldr	r4, .L248
  60:effects.h     ****     float output = sample;
 3798              		.loc 16 60 1 view .LVU905
 3799 0004 F0EE407A 		vmov.f32	s15, s0
 3800              	.LVL201:
ARM GAS  /var/folders/m5/x8wc2gdj7z5cpgcqdsb_gkj40000gn/T//cckXFIsJ.s 			page 104


 3801              		.loc 16 63 5 is_stmt 1 view .LVU906
 3802 0008 2378     		ldrb	r3, [r4]	@ zero_extendqisi2
 3803 000a 3BB9     		cbnz	r3, .L245
 3804              	.LVL202:
 3805              	.L228:
  64:effects.h     ****     {
  65:effects.h     ****         output = overdrive.Process(output) * (1.1f - effectValues[0][0]);
  66:effects.h     ****         output = odTone.Process(output);
  67:effects.h     ****     }
  68:effects.h     ****     if (effectStates[1]) // Chorus
 3806              		.loc 16 68 5 view .LVU907
 3807 000c 6378     		ldrb	r3, [r4, #1]	@ zero_extendqisi2
 3808 000e 7BBB     		cbnz	r3, .L246
 3809              	.L229:
  69:effects.h     ****     {
  70:effects.h     ****         output = chorus.Process(output) * 2.0f;
  71:effects.h     ****     }
  72:effects.h     ****     if(effectStates[2]) // LoPass
 3810              		.loc 16 72 5 view .LVU908
 3811 0010 A378     		ldrb	r3, [r4, #2]	@ zero_extendqisi2
 3812 0012 002B     		cmp	r3, #0
 3813 0014 36D1     		bne	.L247
 3814              	.L230:
  73:effects.h     ****     {
  74:effects.h     ****         lopass.Process(output);
  75:effects.h     ****         output = lopass.Low();
  76:effects.h     ****     }   
  77:effects.h     **** 
  78:effects.h     ****     return output;
 3815              		.loc 16 78 5 view .LVU909
  79:effects.h     **** }
 3816              		.loc 16 79 1 is_stmt 0 view .LVU910
 3817 0016 B0EE670A 		vmov.f32	s0, s15
 3818 001a 10BD     		pop	{r4, pc}
 3819              	.LVL203:
 3820              	.L245:
  65:effects.h     ****         output = odTone.Process(output);
 3821              		.loc 16 65 9 is_stmt 1 view .LVU911
  65:effects.h     ****         output = odTone.Process(output);
 3822              		.loc 16 65 35 is_stmt 0 view .LVU912
 3823 001c 2048     		ldr	r0, .L248+4
 3824 001e FFF7FEFF 		bl	_ZN7daisysp9Overdrive7ProcessEf
 3825              	.LVL204:
  65:effects.h     ****         output = odTone.Process(output);
 3826              		.loc 16 65 71 view .LVU913
 3827 0022 204A     		ldr	r2, .L248+8
  65:effects.h     ****         output = odTone.Process(output);
 3828              		.loc 16 65 52 view .LVU914
 3829 0024 9FED207A 		vldr.32	s14, .L248+12
 3830 0028 92ED006A 		vldr.32	s12, [r2]
 3831              	.LBB763:
 3832              	.LBB764:
  69:/Users/dominicfrugoli/Desktop/ProgrammingCode/DaisyCode/DaisyExamples/DaisySP/Source/Filters/onepole.h **** 
  70:/Users/dominicfrugoli/Desktop/ProgrammingCode/DaisyCode/DaisyExamples/DaisySP/Source/Filters/onepole.h ****     /** Process audio through the filter
  71:/Users/dominicfrugoli/Desktop/ProgrammingCode/DaisyCode/DaisyExamples/DaisySP/Source/Filters/onepole.h ****     *   \param in The next sample to be processed
  72:/Users/dominicfrugoli/Desktop/ProgrammingCode/DaisyCode/DaisyExamples/DaisySP/Source/Filters/onepole.h ****     */
  73:/Users/dominicfrugoli/Desktop/ProgrammingCode/DaisyCode/DaisyExamples/DaisySP/Source/Filters/onepole.h ****     inline float Process(float in)
ARM GAS  /var/folders/m5/x8wc2gdj7z5cpgcqdsb_gkj40000gn/T//cckXFIsJ.s 			page 105


  74:/Users/dominicfrugoli/Desktop/ProgrammingCode/DaisyCode/DaisyExamples/DaisySP/Source/Filters/onepole.h ****     {
  75:/Users/dominicfrugoli/Desktop/ProgrammingCode/DaisyCode/DaisyExamples/DaisySP/Source/Filters/onepole.h ****         float lp;
  76:/Users/dominicfrugoli/Desktop/ProgrammingCode/DaisyCode/DaisyExamples/DaisySP/Source/Filters/onepole.h ****         lp     = (g_ * in + state_) * gi_;
 3833              		.loc 12 76 19 view .LVU915
 3834 002c 1F4B     		ldr	r3, .L248+16
 3835              	.LBE764:
 3836              	.LBE763:
  65:effects.h     ****         output = odTone.Process(output);
 3837              		.loc 16 65 52 view .LVU916
 3838 002e 37EE467A 		vsub.f32	s14, s14, s12
 3839              	.LBB768:
 3840              	.LBB765:
 3841              		.loc 12 76 19 view .LVU917
 3842 0032 D3ED006A 		vldr.32	s13, [r3]
 3843              		.loc 12 76 27 view .LVU918
 3844 0036 D3ED027A 		vldr.32	s15, [r3, #8]
 3845              	.LBE765:
 3846              	.LBE768:
  65:effects.h     ****         output = odTone.Process(output);
 3847              		.loc 16 65 16 view .LVU919
 3848 003a 27EE000A 		vmul.f32	s0, s14, s0
 3849              	.LVL205:
  66:effects.h     ****     }
 3850              		.loc 16 66 9 is_stmt 1 view .LVU920
 3851              	.LBB769:
 3852              	.LBI763:
  73:/Users/dominicfrugoli/Desktop/ProgrammingCode/DaisyCode/DaisyExamples/DaisySP/Source/Filters/onepole.h ****     {
 3853              		.loc 12 73 18 view .LVU921
 3854              	.LBB766:
  75:/Users/dominicfrugoli/Desktop/ProgrammingCode/DaisyCode/DaisyExamples/DaisySP/Source/Filters/onepole.h ****         lp     = (g_ * in + state_) * gi_;
 3855              		.loc 12 75 9 view .LVU922
 3856              		.loc 12 76 9 view .LVU923
 3857              		.loc 12 76 16 is_stmt 0 view .LVU924
 3858 003e 93ED016A 		vldr.32	s12, [r3, #4]
  77:/Users/dominicfrugoli/Desktop/ProgrammingCode/DaisyCode/DaisyExamples/DaisySP/Source/Filters/onepole.h ****         state_ = g_ * (in - lp) + lp;
  78:/Users/dominicfrugoli/Desktop/ProgrammingCode/DaisyCode/DaisyExamples/DaisySP/Source/Filters/onepole.h **** 
  79:/Users/dominicfrugoli/Desktop/ProgrammingCode/DaisyCode/DaisyExamples/DaisySP/Source/Filters/onepole.h ****         switch(mode_)
 3859              		.loc 12 79 16 view .LVU925
 3860 0042 1A7B     		ldrb	r2, [r3, #12]	@ zero_extendqisi2
  76:/Users/dominicfrugoli/Desktop/ProgrammingCode/DaisyCode/DaisyExamples/DaisySP/Source/Filters/onepole.h ****         state_ = g_ * (in - lp) + lp;
 3861              		.loc 12 76 27 view .LVU926
 3862 0044 E0EE267A 		vfma.f32	s15, s0, s13
  76:/Users/dominicfrugoli/Desktop/ProgrammingCode/DaisyCode/DaisyExamples/DaisySP/Source/Filters/onepole.h ****         state_ = g_ * (in - lp) + lp;
 3863              		.loc 12 76 16 view .LVU927
 3864 0048 67EE867A 		vmul.f32	s15, s15, s12
 3865              	.LVL206:
  77:/Users/dominicfrugoli/Desktop/ProgrammingCode/DaisyCode/DaisyExamples/DaisySP/Source/Filters/onepole.h ****         state_ = g_ * (in - lp) + lp;
 3866              		.loc 12 77 9 is_stmt 1 view .LVU928
  77:/Users/dominicfrugoli/Desktop/ProgrammingCode/DaisyCode/DaisyExamples/DaisySP/Source/Filters/onepole.h ****         state_ = g_ * (in - lp) + lp;
 3867              		.loc 12 77 27 is_stmt 0 view .LVU929
 3868 004c 30EE670A 		vsub.f32	s0, s0, s15
 3869              	.LVL207:
  77:/Users/dominicfrugoli/Desktop/ProgrammingCode/DaisyCode/DaisyExamples/DaisySP/Source/Filters/onepole.h ****         state_ = g_ * (in - lp) + lp;
 3870              		.loc 12 77 33 view .LVU930
 3871 0050 B0EE677A 		vmov.f32	s14, s15
  77:/Users/dominicfrugoli/Desktop/ProgrammingCode/DaisyCode/DaisyExamples/DaisySP/Source/Filters/onepole.h ****         state_ = g_ * (in - lp) + lp;
 3872              		.loc 12 77 33 view .LVU931
ARM GAS  /var/folders/m5/x8wc2gdj7z5cpgcqdsb_gkj40000gn/T//cckXFIsJ.s 			page 106


 3873 0054 A6EE807A 		vfma.f32	s14, s13, s0
  77:/Users/dominicfrugoli/Desktop/ProgrammingCode/DaisyCode/DaisyExamples/DaisySP/Source/Filters/onepole.h ****         state_ = g_ * (in - lp) + lp;
 3874              		.loc 12 77 16 view .LVU932
 3875 0058 83ED027A 		vstr.32	s14, [r3, #8]
 3876              		.loc 12 79 9 is_stmt 1 view .LVU933
 3877 005c 002A     		cmp	r2, #0
 3878 005e D5D0     		beq	.L228
 3879 0060 DFED137A 		vldr.32	s15, .L248+20
 3880              	.LVL208:
 3881              		.loc 12 79 9 is_stmt 0 view .LVU934
 3882 0064 012A     		cmp	r2, #1
 3883              	.LBE766:
 3884              	.LBE769:
  68:effects.h     ****     {
 3885              		.loc 16 68 5 view .LVU935
 3886 0066 6378     		ldrb	r3, [r4, #1]	@ zero_extendqisi2
 3887              	.LBB770:
 3888              	.LBB767:
 3889              		.loc 12 79 9 view .LVU936
 3890 0068 40FE277A 		vseleq.f32	s15, s0, s15
 3891              	.LVL209:
 3892              		.loc 12 79 9 view .LVU937
 3893              	.LBE767:
 3894              	.LBE770:
  68:effects.h     ****     {
 3895              		.loc 16 68 5 is_stmt 1 view .LVU938
 3896 006c 002B     		cmp	r3, #0
 3897 006e CFD0     		beq	.L229
 3898              	.L246:
  70:effects.h     ****     }
 3899              		.loc 16 70 9 view .LVU939
  70:effects.h     ****     }
 3900              		.loc 16 70 32 is_stmt 0 view .LVU940
 3901 0070 B0EE670A 		vmov.f32	s0, s15
 3902 0074 0F48     		ldr	r0, .L248+24
 3903 0076 FFF7FEFF 		bl	_ZN7daisysp6Chorus7ProcessEf
 3904              	.LVL210:
  72:effects.h     ****     {
 3905              		.loc 16 72 5 view .LVU941
 3906 007a A378     		ldrb	r3, [r4, #2]	@ zero_extendqisi2
  70:effects.h     ****     }
 3907              		.loc 16 70 16 view .LVU942
 3908 007c 70EE007A 		vadd.f32	s15, s0, s0
 3909              	.LVL211:
  72:effects.h     ****     {
 3910              		.loc 16 72 5 is_stmt 1 view .LVU943
 3911 0080 002B     		cmp	r3, #0
 3912 0082 C8D0     		beq	.L230
 3913              	.L247:
  74:effects.h     ****         output = lopass.Low();
 3914              		.loc 16 74 9 view .LVU944
  74:effects.h     ****         output = lopass.Low();
 3915              		.loc 16 74 23 is_stmt 0 view .LVU945
 3916 0084 0C4C     		ldr	r4, .L248+28
 3917 0086 B0EE670A 		vmov.f32	s0, s15
 3918 008a 2046     		mov	r0, r4
 3919 008c FFF7FEFF 		bl	_ZN7daisysp3Svf7ProcessEf
ARM GAS  /var/folders/m5/x8wc2gdj7z5cpgcqdsb_gkj40000gn/T//cckXFIsJ.s 			page 107


 3920              	.LVL212:
  75:effects.h     ****     }   
 3921              		.loc 16 75 9 is_stmt 1 view .LVU946
 3922              	.LBB771:
 3923              	.LBI771:
  31:/Users/dominicfrugoli/Desktop/ProgrammingCode/DaisyCode/DaisyExamples/DaisySP/Source/Filters/svf.h ****     /** Initializes the filter
  32:/Users/dominicfrugoli/Desktop/ProgrammingCode/DaisyCode/DaisyExamples/DaisySP/Source/Filters/svf.h ****         float sample_rate - sample rate of the audio engine being run, and the frequency that the P
  33:/Users/dominicfrugoli/Desktop/ProgrammingCode/DaisyCode/DaisyExamples/DaisySP/Source/Filters/svf.h ****     */
  34:/Users/dominicfrugoli/Desktop/ProgrammingCode/DaisyCode/DaisyExamples/DaisySP/Source/Filters/svf.h ****     void Init(float sample_rate);
  35:/Users/dominicfrugoli/Desktop/ProgrammingCode/DaisyCode/DaisyExamples/DaisySP/Source/Filters/svf.h **** 
  36:/Users/dominicfrugoli/Desktop/ProgrammingCode/DaisyCode/DaisyExamples/DaisySP/Source/Filters/svf.h **** 
  37:/Users/dominicfrugoli/Desktop/ProgrammingCode/DaisyCode/DaisyExamples/DaisySP/Source/Filters/svf.h ****     /** 
  38:/Users/dominicfrugoli/Desktop/ProgrammingCode/DaisyCode/DaisyExamples/DaisySP/Source/Filters/svf.h ****         Process the input signal, updating all of the outputs.
  39:/Users/dominicfrugoli/Desktop/ProgrammingCode/DaisyCode/DaisyExamples/DaisySP/Source/Filters/svf.h ****     */
  40:/Users/dominicfrugoli/Desktop/ProgrammingCode/DaisyCode/DaisyExamples/DaisySP/Source/Filters/svf.h ****     void Process(float in);
  41:/Users/dominicfrugoli/Desktop/ProgrammingCode/DaisyCode/DaisyExamples/DaisySP/Source/Filters/svf.h **** 
  42:/Users/dominicfrugoli/Desktop/ProgrammingCode/DaisyCode/DaisyExamples/DaisySP/Source/Filters/svf.h **** 
  43:/Users/dominicfrugoli/Desktop/ProgrammingCode/DaisyCode/DaisyExamples/DaisySP/Source/Filters/svf.h ****     /** sets the frequency of the cutoff frequency. 
  44:/Users/dominicfrugoli/Desktop/ProgrammingCode/DaisyCode/DaisyExamples/DaisySP/Source/Filters/svf.h ****         f must be between 0.0 and sample_rate / 3
  45:/Users/dominicfrugoli/Desktop/ProgrammingCode/DaisyCode/DaisyExamples/DaisySP/Source/Filters/svf.h ****     */
  46:/Users/dominicfrugoli/Desktop/ProgrammingCode/DaisyCode/DaisyExamples/DaisySP/Source/Filters/svf.h ****     void SetFreq(float f);
  47:/Users/dominicfrugoli/Desktop/ProgrammingCode/DaisyCode/DaisyExamples/DaisySP/Source/Filters/svf.h **** 
  48:/Users/dominicfrugoli/Desktop/ProgrammingCode/DaisyCode/DaisyExamples/DaisySP/Source/Filters/svf.h ****     /** sets the resonance of the filter.
  49:/Users/dominicfrugoli/Desktop/ProgrammingCode/DaisyCode/DaisyExamples/DaisySP/Source/Filters/svf.h ****         Must be between 0.0 and 1.0 to ensure stability.
  50:/Users/dominicfrugoli/Desktop/ProgrammingCode/DaisyCode/DaisyExamples/DaisySP/Source/Filters/svf.h ****     */
  51:/Users/dominicfrugoli/Desktop/ProgrammingCode/DaisyCode/DaisyExamples/DaisySP/Source/Filters/svf.h ****     void SetRes(float r);
  52:/Users/dominicfrugoli/Desktop/ProgrammingCode/DaisyCode/DaisyExamples/DaisySP/Source/Filters/svf.h **** 
  53:/Users/dominicfrugoli/Desktop/ProgrammingCode/DaisyCode/DaisyExamples/DaisySP/Source/Filters/svf.h ****     /** sets the drive of the filter 
  54:/Users/dominicfrugoli/Desktop/ProgrammingCode/DaisyCode/DaisyExamples/DaisySP/Source/Filters/svf.h ****         affects the response of the resonance of the filter
  55:/Users/dominicfrugoli/Desktop/ProgrammingCode/DaisyCode/DaisyExamples/DaisySP/Source/Filters/svf.h ****     */
  56:/Users/dominicfrugoli/Desktop/ProgrammingCode/DaisyCode/DaisyExamples/DaisySP/Source/Filters/svf.h ****     void SetDrive(float d);
  57:/Users/dominicfrugoli/Desktop/ProgrammingCode/DaisyCode/DaisyExamples/DaisySP/Source/Filters/svf.h ****     /** lowpass output
  58:/Users/dominicfrugoli/Desktop/ProgrammingCode/DaisyCode/DaisyExamples/DaisySP/Source/Filters/svf.h ****         \return low pass output of the filter
  59:/Users/dominicfrugoli/Desktop/ProgrammingCode/DaisyCode/DaisyExamples/DaisySP/Source/Filters/svf.h ****     */
  60:/Users/dominicfrugoli/Desktop/ProgrammingCode/DaisyCode/DaisyExamples/DaisySP/Source/Filters/svf.h ****     inline float Low() { return out_low_; }
 3924              		.loc 9 60 18 view .LVU947
 3925              	.LBB772:
 3926              		.loc 9 60 26 view .LVU948
 3927              		.loc 9 60 33 is_stmt 0 view .LVU949
 3928 0090 D4ED0C7A 		vldr.32	s15, [r4, #48]
 3929              	.LVL213:
 3930              		.loc 9 60 33 view .LVU950
 3931              	.LBE772:
 3932              	.LBE771:
  78:effects.h     **** }
 3933              		.loc 16 78 5 is_stmt 1 view .LVU951
 3934              		.loc 16 79 1 is_stmt 0 view .LVU952
 3935 0094 B0EE670A 		vmov.f32	s0, s15
 3936 0098 10BD     		pop	{r4, pc}
 3937              	.L249:
 3938 009a 00BF     		.align	2
 3939              	.L248:
 3940 009c 00000000 		.word	.LANCHOR36
 3941 00a0 00000000 		.word	.LANCHOR32
 3942 00a4 00000000 		.word	.LANCHOR34
 3943 00a8 CDCC8C3F 		.word	1066192077
 3944 00ac 00000000 		.word	.LANCHOR33
ARM GAS  /var/folders/m5/x8wc2gdj7z5cpgcqdsb_gkj40000gn/T//cckXFIsJ.s 			page 108


 3945 00b0 00000000 		.word	0
 3946 00b4 00000000 		.word	chorus
 3947 00b8 00000000 		.word	.LANCHOR35
 3948              		.cfi_endproc
 3949              	.LFE4707:
 3951              		.section	.text._Z23ProcessEffectParametersv,"ax",%progbits
 3952              		.align	1
 3953              		.p2align 2,,3
 3954              		.global	_Z23ProcessEffectParametersv
 3955              		.syntax unified
 3956              		.thumb
 3957              		.thumb_func
 3959              	_Z23ProcessEffectParametersv:
 3960              	.LFB4708:
  80:effects.h     **** 
  81:effects.h     **** void ProcessEffectParameters()
  82:effects.h     **** {
 3961              		.loc 16 82 1 is_stmt 1 view -0
 3962              		.cfi_startproc
 3963              		@ args = 0, pretend = 0, frame = 0
 3964              		@ frame_needed = 0, uses_anonymous_args = 0
  83:effects.h     ****     if(currentEffect == 0)
 3965              		.loc 16 83 5 view .LVU954
 3966              		.loc 16 83 22 is_stmt 0 view .LVU955
 3967 0000 244B     		ldr	r3, .L264
 3968 0002 1B68     		ldr	r3, [r3]
  82:effects.h     ****     if(currentEffect == 0)
 3969              		.loc 16 82 1 view .LVU956
 3970 0004 10B5     		push	{r4, lr}
 3971              		.cfi_def_cfa_offset 8
 3972              		.cfi_offset 4, -8
 3973              		.cfi_offset 14, -4
 3974              		.loc 16 83 5 view .LVU957
 3975 0006 23B1     		cbz	r3, .L260
  84:effects.h     ****     {
  85:effects.h     ****         overdrive.SetDrive(effectValues[0][0]);
  86:effects.h     ****         odTone.SetFrequency(effectValues[0][1]);
  87:effects.h     ****     }
  88:effects.h     ****     else if(currentEffect == 1)
 3976              		.loc 16 88 10 is_stmt 1 view .LVU958
 3977 0008 012B     		cmp	r3, #1
 3978 000a 35D0     		beq	.L261
  89:effects.h     ****     {
  90:effects.h     ****         chorus.SetLfoDepth(effectValues[1][0]);
  91:effects.h     ****         chorus.SetLfoFreq(effectValues[1][1]);
  92:effects.h     ****     }
  93:effects.h     ****     else if(currentEffect == 2)
 3979              		.loc 16 93 10 view .LVU959
 3980 000c 022B     		cmp	r3, #2
 3981 000e 26D0     		beq	.L262
  94:effects.h     ****     {
  95:effects.h     ****         lopass.SetFreq(effectValues[2][0]);
  96:effects.h     ****         lopass.SetRes(effectValues[2][1]);
  97:effects.h     ****     }
  98:effects.h     **** }
 3982              		.loc 16 98 1 is_stmt 0 view .LVU960
 3983 0010 10BD     		pop	{r4, pc}
ARM GAS  /var/folders/m5/x8wc2gdj7z5cpgcqdsb_gkj40000gn/T//cckXFIsJ.s 			page 109


 3984              	.L260:
  85:effects.h     ****         odTone.SetFrequency(effectValues[0][1]);
 3985              		.loc 16 85 9 is_stmt 1 view .LVU961
  85:effects.h     ****         odTone.SetFrequency(effectValues[0][1]);
 3986              		.loc 16 85 27 is_stmt 0 view .LVU962
 3987 0012 214C     		ldr	r4, .L264+4
 3988 0014 2148     		ldr	r0, .L264+8
 3989 0016 94ED000A 		vldr.32	s0, [r4]
 3990 001a FFF7FEFF 		bl	_ZN7daisysp9Overdrive8SetDriveEf
 3991              	.LVL214:
  86:effects.h     ****     }
 3992              		.loc 16 86 9 is_stmt 1 view .LVU963
  86:effects.h     ****     }
 3993              		.loc 16 86 28 is_stmt 0 view .LVU964
 3994 001e D4ED017A 		vldr.32	s15, [r4, #4]
 3995              	.LVL215:
 3996              	.LBB775:
 3997              	.LBI775:
  56:/Users/dominicfrugoli/Desktop/ProgrammingCode/DaisyCode/DaisyExamples/DaisySP/Source/Filters/onepole.h ****     {
 3998              		.loc 12 56 17 is_stmt 1 view .LVU965
 3999              	.LBB776:
  59:/Users/dominicfrugoli/Desktop/ProgrammingCode/DaisyCode/DaisyExamples/DaisySP/Source/Filters/onepole.h **** 
 4000              		.loc 12 59 9 view .LVU966
  59:/Users/dominicfrugoli/Desktop/ProgrammingCode/DaisyCode/DaisyExamples/DaisySP/Source/Filters/onepole.h **** 
 4001              		.loc 12 59 30 is_stmt 0 view .LVU967
 4002 0022 9FED1F7A 		vldr.32	s14, .L264+12
 4003 0026 F4EEC77A 		vcmpe.f32	s15, s14
 4004 002a F1EE10FA 		vmrs	APSR_nzcv, FPSCR
 4005 002e 09D4     		bmi	.L263
 4006 0030 DFED1C7A 		vldr.32	s15, .L264+16
 4007              	.LVL216:
  59:/Users/dominicfrugoli/Desktop/ProgrammingCode/DaisyCode/DaisyExamples/DaisySP/Source/Filters/onepole.h **** 
 4008              		.loc 12 59 30 view .LVU968
 4009 0034 9FED1C0A 		vldr.32	s0, .L264+20
 4010              	.LVL217:
 4011              	.L252:
  61:/Users/dominicfrugoli/Desktop/ProgrammingCode/DaisyCode/DaisyExamples/DaisySP/Source/Filters/onepole.h ****         gi_ = 1.f / (1.f + g_);
 4012              		.loc 12 61 9 is_stmt 1 view .LVU969
  61:/Users/dominicfrugoli/Desktop/ProgrammingCode/DaisyCode/DaisyExamples/DaisySP/Source/Filters/onepole.h ****         gi_ = 1.f / (1.f + g_);
 4013              		.loc 12 61 13 is_stmt 0 view .LVU970
 4014 0038 1C4B     		ldr	r3, .L264+24
 4015 003a 83ED000A 		vstr.32	s0, [r3]
  62:/Users/dominicfrugoli/Desktop/ProgrammingCode/DaisyCode/DaisyExamples/DaisySP/Source/Filters/onepole.h ****     }
 4016              		.loc 12 62 9 is_stmt 1 view .LVU971
  62:/Users/dominicfrugoli/Desktop/ProgrammingCode/DaisyCode/DaisyExamples/DaisySP/Source/Filters/onepole.h ****     }
 4017              		.loc 12 62 13 is_stmt 0 view .LVU972
 4018 003e C3ED017A 		vstr.32	s15, [r3, #4]
 4019              	.LBE776:
 4020              	.LBE775:
 4021              		.loc 16 98 1 view .LVU973
 4022 0042 10BD     		pop	{r4, pc}
 4023              	.LVL218:
 4024              	.L263:
 4025              	.LBB778:
 4026              	.LBB777:
  61:/Users/dominicfrugoli/Desktop/ProgrammingCode/DaisyCode/DaisyExamples/DaisySP/Source/Filters/onepole.h ****         gi_ = 1.f / (1.f + g_);
 4027              		.loc 12 61 19 view .LVU974
ARM GAS  /var/folders/m5/x8wc2gdj7z5cpgcqdsb_gkj40000gn/T//cckXFIsJ.s 			page 110


 4028 0044 9FED1A0A 		vldr.32	s0, .L264+28
 4029 0048 27EE800A 		vmul.f32	s0, s15, s0
 4030 004c FFF7FEFF 		bl	tanf
 4031              	.LVL219:
  62:/Users/dominicfrugoli/Desktop/ProgrammingCode/DaisyCode/DaisyExamples/DaisySP/Source/Filters/onepole.h ****     }
 4032              		.loc 12 62 26 view .LVU975
 4033 0050 B7EE007A 		vmov.f32	s14, #1.0e+0
 4034 0054 70EE076A 		vadd.f32	s13, s0, s14
  62:/Users/dominicfrugoli/Desktop/ProgrammingCode/DaisyCode/DaisyExamples/DaisySP/Source/Filters/onepole.h ****     }
 4035              		.loc 12 62 19 view .LVU976
 4036 0058 C7EE267A 		vdiv.f32	s15, s14, s13
 4037 005c ECE7     		b	.L252
 4038              	.LVL220:
 4039              	.L262:
  62:/Users/dominicfrugoli/Desktop/ProgrammingCode/DaisyCode/DaisyExamples/DaisySP/Source/Filters/onepole.h ****     }
 4040              		.loc 12 62 19 view .LVU977
 4041              	.LBE777:
 4042              	.LBE778:
  95:effects.h     ****         lopass.SetRes(effectValues[2][1]);
 4043              		.loc 16 95 9 is_stmt 1 view .LVU978
  95:effects.h     ****         lopass.SetRes(effectValues[2][1]);
 4044              		.loc 16 95 23 is_stmt 0 view .LVU979
 4045 005e 0E4C     		ldr	r4, .L264+4
 4046 0060 1448     		ldr	r0, .L264+32
 4047 0062 94ED040A 		vldr.32	s0, [r4, #16]
 4048 0066 FFF7FEFF 		bl	_ZN7daisysp3Svf7SetFreqEf
 4049              	.LVL221:
  96:effects.h     ****     }
 4050              		.loc 16 96 9 is_stmt 1 view .LVU980
  96:effects.h     ****     }
 4051              		.loc 16 96 22 is_stmt 0 view .LVU981
 4052 006a 94ED050A 		vldr.32	s0, [r4, #20]
 4053 006e 1148     		ldr	r0, .L264+32
 4054              		.loc 16 98 1 view .LVU982
 4055 0070 BDE81040 		pop	{r4, lr}
 4056              		.cfi_remember_state
 4057              		.cfi_restore 14
 4058              		.cfi_restore 4
 4059              		.cfi_def_cfa_offset 0
  96:effects.h     ****     }
 4060              		.loc 16 96 22 view .LVU983
 4061 0074 FFF7FEBF 		b	_ZN7daisysp3Svf6SetResEf
 4062              	.LVL222:
 4063              	.L261:
 4064              		.cfi_restore_state
  90:effects.h     ****         chorus.SetLfoFreq(effectValues[1][1]);
 4065              		.loc 16 90 9 is_stmt 1 view .LVU984
  90:effects.h     ****         chorus.SetLfoFreq(effectValues[1][1]);
 4066              		.loc 16 90 27 is_stmt 0 view .LVU985
 4067 0078 074C     		ldr	r4, .L264+4
 4068 007a 0F48     		ldr	r0, .L264+36
 4069 007c 94ED020A 		vldr.32	s0, [r4, #8]
 4070 0080 FFF7FEFF 		bl	_ZN7daisysp6Chorus11SetLfoDepthEf
 4071              	.LVL223:
  91:effects.h     ****     }
 4072              		.loc 16 91 9 is_stmt 1 view .LVU986
  91:effects.h     ****     }
ARM GAS  /var/folders/m5/x8wc2gdj7z5cpgcqdsb_gkj40000gn/T//cckXFIsJ.s 			page 111


 4073              		.loc 16 91 26 is_stmt 0 view .LVU987
 4074 0084 94ED030A 		vldr.32	s0, [r4, #12]
 4075 0088 0B48     		ldr	r0, .L264+36
 4076              		.loc 16 98 1 view .LVU988
 4077 008a BDE81040 		pop	{r4, lr}
 4078              		.cfi_restore 14
 4079              		.cfi_restore 4
 4080              		.cfi_def_cfa_offset 0
  91:effects.h     ****     }
 4081              		.loc 16 91 26 view .LVU989
 4082 008e FFF7FEBF 		b	_ZN7daisysp6Chorus10SetLfoFreqEf
 4083              	.LVL224:
 4084              	.L265:
 4085 0092 00BF     		.align	2
 4086              	.L264:
 4087 0094 00000000 		.word	.LANCHOR37
 4088 0098 00000000 		.word	.LANCHOR34
 4089 009c 00000000 		.word	.LANCHOR32
 4090 00a0 C976FE3E 		.word	1056863945
 4091 00a4 61FA183C 		.word	1008269921
 4092 00a8 5F33D442 		.word	1121203039
 4093 00ac 00000000 		.word	.LANCHOR33
 4094 00b0 DB0F4940 		.word	1078530011
 4095 00b4 00000000 		.word	.LANCHOR35
 4096 00b8 00000000 		.word	chorus
 4097              		.cfi_endproc
 4098              	.LFE4708:
 4100              		.section	.text._Z15IncrementEffecti,"ax",%progbits
 4101              		.align	1
 4102              		.p2align 2,,3
 4103              		.global	_Z15IncrementEffecti
 4104              		.syntax unified
 4105              		.thumb
 4106              		.thumb_func
 4108              	_Z15IncrementEffecti:
 4109              	.LVL225:
 4110              	.LFB4709:
  99:effects.h     **** 
 100:effects.h     **** void IncrementEffect(int increment)
 101:effects.h     **** {
 4111              		.loc 16 101 1 is_stmt 1 view -0
 4112              		.cfi_startproc
 4113              		@ args = 0, pretend = 0, frame = 0
 4114              		@ frame_needed = 0, uses_anonymous_args = 0
 4115              		@ link register save eliminated.
 102:effects.h     ****     currentEffect += increment;
 4116              		.loc 16 102 5 view .LVU991
 103:effects.h     ****     if(currentEffect < 0)
 4117              		.loc 16 103 5 view .LVU992
 102:effects.h     ****     currentEffect += increment;
 4118              		.loc 16 102 19 is_stmt 0 view .LVU993
 4119 0000 064B     		ldr	r3, .L272
 4120 0002 1A68     		ldr	r2, [r3]
 4121              		.loc 16 103 5 view .LVU994
 4122 0004 8018     		adds	r0, r0, r2
 4123              	.LVL226:
 4124              		.loc 16 103 5 view .LVU995
ARM GAS  /var/folders/m5/x8wc2gdj7z5cpgcqdsb_gkj40000gn/T//cckXFIsJ.s 			page 112


 4125 0006 06D4     		bmi	.L270
 104:effects.h     ****     {
 105:effects.h     ****         currentEffect = 2;
 106:effects.h     ****     }
 107:effects.h     ****     else if(currentEffect > 2)
 4126              		.loc 16 107 10 is_stmt 1 view .LVU996
 4127 0008 0228     		cmp	r0, #2
 4128 000a 02DD     		ble	.L271
 108:effects.h     ****     {
 109:effects.h     ****         currentEffect = 0;
 4129              		.loc 16 109 9 view .LVU997
 4130              		.loc 16 109 23 is_stmt 0 view .LVU998
 4131 000c 0022     		movs	r2, #0
 4132 000e 1A60     		str	r2, [r3]
 110:effects.h     ****     }
 111:effects.h     **** }
 4133              		.loc 16 111 1 view .LVU999
 4134 0010 7047     		bx	lr
 4135              	.L271:
 102:effects.h     ****     if(currentEffect < 0)
 4136              		.loc 16 102 19 view .LVU1000
 4137 0012 1860     		str	r0, [r3]
 4138 0014 7047     		bx	lr
 4139              	.L270:
 105:effects.h     ****     }
 4140              		.loc 16 105 9 is_stmt 1 view .LVU1001
 105:effects.h     ****     }
 4141              		.loc 16 105 23 is_stmt 0 view .LVU1002
 4142 0016 0222     		movs	r2, #2
 4143 0018 1A60     		str	r2, [r3]
 4144 001a 7047     		bx	lr
 4145              	.L273:
 4146              		.align	2
 4147              	.L272:
 4148 001c 00000000 		.word	.LANCHOR37
 4149              		.cfi_endproc
 4150              	.LFE4709:
 4152              		.section	.text.startup.main,"ax",%progbits
 4153              		.align	1
 4154              		.p2align 2,,3
 4155              		.global	main
 4156              		.syntax unified
 4157              		.thumb
 4158              		.thumb_func
 4160              	main:
 4161              	.LFB4711:
 4162              		.file 17 "sardinia.cpp"
   1:sardinia.cpp  **** // ================================
   2:sardinia.cpp  **** // COMPANY: Feni Design
   3:sardinia.cpp  **** // AUTHOR: Dominic Frugoli
   4:sardinia.cpp  **** // CREATE DATE: 8/18/2024
   5:sardinia.cpp  **** // PROJECT: Fall 2024 Independent Project
   6:sardinia.cpp  **** // HEADER FILES NEEDED: "hardware.h"
   7:sardinia.cpp  **** // SPECIAL NOTES: Code is meant for Electrosmith Daisy microcontroller
   8:sardinia.cpp  **** // ================================
   9:sardinia.cpp  **** 
  10:sardinia.cpp  **** 
ARM GAS  /var/folders/m5/x8wc2gdj7z5cpgcqdsb_gkj40000gn/T//cckXFIsJ.s 			page 113


  11:sardinia.cpp  **** // |Includes and Namespaces|-----------------------------------------------------------------------
  12:sardinia.cpp  **** 
  13:sardinia.cpp  **** 
  14:sardinia.cpp  **** #include "daisy_seed.h"
  15:sardinia.cpp  **** #include "daisysp.h"
  16:sardinia.cpp  **** #include "hardware.h"
  17:sardinia.cpp  **** #include "sampleengine.h"
  18:sardinia.cpp  **** #include "display.h"
  19:sardinia.cpp  **** #include "effects.h"
  20:sardinia.cpp  **** 
  21:sardinia.cpp  **** using namespace daisy;
  22:sardinia.cpp  **** using namespace daisy::seed;
  23:sardinia.cpp  **** using namespace daisysp;
  24:sardinia.cpp  **** 
  25:sardinia.cpp  **** 
  26:sardinia.cpp  **** // |Hardware Instantiations|-----------------------------------------------------------------------
  27:sardinia.cpp  **** 
  28:sardinia.cpp  **** 
  29:sardinia.cpp  **** DaisySeed hw;
  30:sardinia.cpp  **** 
  31:sardinia.cpp  **** 
  32:sardinia.cpp  **** // |Audio Objects + Variables|---------------------------------------------------------------------
  33:sardinia.cpp  **** 
  34:sardinia.cpp  **** 
  35:sardinia.cpp  **** float outputMix;
  36:sardinia.cpp  **** float sampleSig;
  37:sardinia.cpp  **** float inputSig;
  38:sardinia.cpp  **** float outputAmp = 0.5f;
  39:sardinia.cpp  **** float inputAmp = 1.0f;
  40:sardinia.cpp  **** 
  41:sardinia.cpp  **** float testValFloat = 0.0f;
  42:sardinia.cpp  **** int testValInt = 0;
  43:sardinia.cpp  **** 
  44:sardinia.cpp  **** void ProcessControlsKR();
  45:sardinia.cpp  **** void ProcessControlsAR();
  46:sardinia.cpp  **** void RecordModeControls();
  47:sardinia.cpp  **** void PlayModeControls();
  48:sardinia.cpp  **** void UpdateKeys();
  49:sardinia.cpp  **** void UpdateControlButtons();
  50:sardinia.cpp  **** void RecordControlButtonStates();
  51:sardinia.cpp  **** void ModeSelect();
  52:sardinia.cpp  **** void PrintMenu();
  53:sardinia.cpp  **** 
  54:sardinia.cpp  **** 
  55:sardinia.cpp  **** // |Main Setup and Audio Callback|-----------------------------------------------------------------
  56:sardinia.cpp  **** 
  57:sardinia.cpp  **** 
  58:sardinia.cpp  **** void AudioCallback(AudioHandle::InputBuffer in, AudioHandle::OutputBuffer out, size_t size) 
  59:sardinia.cpp  **** {
  60:sardinia.cpp  **** 	ProcessControlsKR();
  61:sardinia.cpp  **** 
  62:sardinia.cpp  **** 	for (size_t i = 0; i < size; i++)
  63:sardinia.cpp  **** 	{
  64:sardinia.cpp  **** 		sampleSig = 0; // Reset signal values to 0 in case no sample is being played
  65:sardinia.cpp  **** 		outputMix = 0;
  66:sardinia.cpp  **** 
  67:sardinia.cpp  **** 		ProcessControlsAR();
ARM GAS  /var/folders/m5/x8wc2gdj7z5cpgcqdsb_gkj40000gn/T//cckXFIsJ.s 			page 114


  68:sardinia.cpp  **** 
  69:sardinia.cpp  **** 		inputSig = (in[0][i] + in[1][i]) * 0.5f; 
  70:sardinia.cpp  **** 		inputSig *= inputAmp;
  71:sardinia.cpp  **** 		
  72:sardinia.cpp  **** 		if(isRecording)
  73:sardinia.cpp  **** 		{
  74:sardinia.cpp  **** 			RecordSample((inputSig)); // Record the input and increment the sample length tracker
  75:sardinia.cpp  **** 			lengthTrack++;
  76:sardinia.cpp  **** 		}
  77:sardinia.cpp  **** 
  78:sardinia.cpp  **** 		if(isPlaying && AnyKeyIsPressed() == false) // If no keys are pressed, play the full sample
  79:sardinia.cpp  **** 		{
  80:sardinia.cpp  **** 			sampleSig = FullSampleGetSample();
  81:sardinia.cpp  **** 		}
  82:sardinia.cpp  **** 		else if(SpliceBufferIsPlaying)
  83:sardinia.cpp  **** 		{
  84:sardinia.cpp  **** 			sampleSig = SpliceBufferGetSample(currentSpliceBuffer, mode, noteKey);
  85:sardinia.cpp  **** 		}
  86:sardinia.cpp  **** 		else if(isPlaying)
  87:sardinia.cpp  **** 		{
  88:sardinia.cpp  **** 			sampleSig = GetSample();
  89:sardinia.cpp  **** 			AdvanceReadIndex();
  90:sardinia.cpp  **** 			if(readIndex > recordingLength) // recordingLength dynamically changes the size of sample based 
  91:sardinia.cpp  **** 			{
  92:sardinia.cpp  **** 				readIndex = 0;
  93:sardinia.cpp  **** 			}
  94:sardinia.cpp  **** 		}
  95:sardinia.cpp  **** 
  96:sardinia.cpp  **** 		
  97:sardinia.cpp  **** 		outputMix = inputSig + sampleSig; // Mix the sample playback with the input
  98:sardinia.cpp  **** 		outputMix = ProcessEffects(outputMix); // Process the mixed signal through the effects
  99:sardinia.cpp  **** 		outputMix *= outputAmp;
 100:sardinia.cpp  **** 
 101:sardinia.cpp  **** 		// Output the mixed signals
 102:sardinia.cpp  ****         out[0][i] = outputMix;
 103:sardinia.cpp  **** 		out[1][i] = outputMix;
 104:sardinia.cpp  **** 	}
 105:sardinia.cpp  **** }
 106:sardinia.cpp  **** 
 107:sardinia.cpp  **** int main(void)
 108:sardinia.cpp  **** {
 4163              		.loc 17 108 1 is_stmt 1 view -0
 4164              		.cfi_startproc
 4165              		@ args = 0, pretend = 0, frame = 8
 4166              		@ frame_needed = 0, uses_anonymous_args = 0
 109:sardinia.cpp  **** 	hw.Init();
 4167              		.loc 17 109 2 view .LVU1004
 108:sardinia.cpp  **** 	hw.Init();
 4168              		.loc 17 108 1 is_stmt 0 view .LVU1005
 4169 0000 10B5     		push	{r4, lr}
 4170              		.cfi_def_cfa_offset 8
 4171              		.cfi_offset 4, -8
 4172              		.cfi_offset 14, -4
 4173              		.loc 17 109 9 view .LVU1006
 4174 0002 0021     		movs	r1, #0
 108:sardinia.cpp  **** 	hw.Init();
 4175              		.loc 17 108 1 view .LVU1007
ARM GAS  /var/folders/m5/x8wc2gdj7z5cpgcqdsb_gkj40000gn/T//cckXFIsJ.s 			page 115


 4176 0004 82B0     		sub	sp, sp, #8
 4177              		.cfi_def_cfa_offset 16
 4178              		.loc 17 109 9 view .LVU1008
 4179 0006 1948     		ldr	r0, .L277
 4180 0008 FFF7FEFF 		bl	_ZN5daisy9DaisySeed4InitEb
 4181              	.LVL227:
 110:sardinia.cpp  **** 	hw.SetAudioBlockSize(4); // number of samples handled per callback
 4182              		.loc 17 110 2 is_stmt 1 view .LVU1009
 4183              		.loc 17 110 22 is_stmt 0 view .LVU1010
 4184 000c 0421     		movs	r1, #4
 4185 000e 1748     		ldr	r0, .L277
 4186 0010 FFF7FEFF 		bl	_ZN5daisy9DaisySeed17SetAudioBlockSizeEj
 4187              	.LVL228:
 111:sardinia.cpp  **** 	hw.SetAudioSampleRate(SaiHandle::Config::SampleRate::SAI_48KHZ);
 4188              		.loc 17 111 2 is_stmt 1 view .LVU1011
 4189              		.loc 17 111 23 is_stmt 0 view .LVU1012
 4190 0014 0321     		movs	r1, #3
 4191 0016 1548     		ldr	r0, .L277
 4192 0018 FFF7FEFF 		bl	_ZN5daisy9DaisySeed18SetAudioSampleRateENS_9SaiHandle6Config10SampleRateE
 4193              	.LVL229:
 112:sardinia.cpp  **** 	float sampleRate = hw.AudioSampleRate();
 4194              		.loc 17 112 2 is_stmt 1 view .LVU1013
 4195              		.loc 17 112 39 is_stmt 0 view .LVU1014
 4196 001c 1348     		ldr	r0, .L277
 4197 001e FFF7FEFF 		bl	_ZN5daisy9DaisySeed15AudioSampleRateEv
 4198              	.LVL230:
 4199 0022 8DED010A 		vstr.32	s0, [sp, #4]	@ int
 4200              	.LVL231:
 113:sardinia.cpp  **** 
 114:sardinia.cpp  **** 	InitLCD();
 4201              		.loc 17 114 2 is_stmt 1 view .LVU1015
 4202              		.loc 17 114 9 is_stmt 0 view .LVU1016
 4203 0026 FFF7FEFF 		bl	_Z7InitLCDv
 4204              	.LVL232:
 115:sardinia.cpp  **** 	InitControls();
 4205              		.loc 17 115 2 is_stmt 1 view .LVU1017
 4206 002a 114C     		ldr	r4, .L277+4
 4207              		.loc 17 115 14 is_stmt 0 view .LVU1018
 4208 002c FFF7FEFF 		bl	_Z12InitControlsv
 4209              	.LVL233:
 116:sardinia.cpp  **** 	hw.adc.Init(adcConfig, NUM_ADC_CHANNELS); //initializes adc system using the config and number of 
 4210              		.loc 17 116 2 is_stmt 1 view .LVU1019
 4211              		.loc 17 116 13 is_stmt 0 view .LVU1020
 4212 0030 1049     		ldr	r1, .L277+8
 4213 0032 0423     		movs	r3, #4
 4214 0034 0622     		movs	r2, #6
 4215 0036 1048     		ldr	r0, .L277+12
 4216 0038 FFF7FEFF 		bl	_ZN5daisy9AdcHandle4InitEPNS_16AdcChannelConfigEjNS0_12OverSamplingE
 4217              	.LVL234:
 117:sardinia.cpp  **** 	hw.adc.Start();
 4218              		.loc 17 117 2 is_stmt 1 view .LVU1021
 4219              		.loc 17 117 14 is_stmt 0 view .LVU1022
 4220 003c 0E48     		ldr	r0, .L277+12
 4221 003e FFF7FEFF 		bl	_ZN5daisy9AdcHandle5StartEv
 4222              	.LVL235:
 118:sardinia.cpp  **** 	
 119:sardinia.cpp  **** 	InitBuffer(); // Initialize buffer to all 0s
ARM GAS  /var/folders/m5/x8wc2gdj7z5cpgcqdsb_gkj40000gn/T//cckXFIsJ.s 			page 116


 4223              		.loc 17 119 2 is_stmt 1 view .LVU1023
 4224              		.loc 17 119 12 is_stmt 0 view .LVU1024
 4225 0042 FFF7FEFF 		bl	_Z10InitBufferv
 4226              	.LVL236:
 120:sardinia.cpp  **** 	InitEffects(sampleRate);
 4227              		.loc 17 120 2 is_stmt 1 view .LVU1025
 4228              		.loc 17 120 13 is_stmt 0 view .LVU1026
 4229 0046 9DED010A 		vldr.32	s0, [sp, #4]	@ int
 4230 004a FFF7FEFF 		bl	_Z11InitEffectsf
 4231              	.LVL237:
 121:sardinia.cpp  **** 
 122:sardinia.cpp  **** 	//hw.StartLog(true); // Use for serial testing. COMMENT OUT WHEN NOT USING!!
 123:sardinia.cpp  **** 
 124:sardinia.cpp  **** 	hw.StartAudio(AudioCallback);
 4232              		.loc 17 124 2 is_stmt 1 view .LVU1027
 4233              		.loc 17 124 15 is_stmt 0 view .LVU1028
 4234 004e 0B49     		ldr	r1, .L277+16
 4235 0050 0648     		ldr	r0, .L277
 4236 0052 FFF7FEFF 		bl	_ZN5daisy9DaisySeed10StartAudioEPFvPKPKfPPfjE
 4237              	.LVL238:
 4238              	.L275:
 125:sardinia.cpp  **** 
 126:sardinia.cpp  **** 	while(1)
 4239              		.loc 17 126 2 is_stmt 1 discriminator 1 view .LVU1029
 127:sardinia.cpp  **** 	{
 128:sardinia.cpp  **** 		PrintMenu(currentEffect, effectStates);
 4240              		.loc 17 128 3 discriminator 1 view .LVU1030
 4241              		.loc 17 128 12 is_stmt 0 discriminator 1 view .LVU1031
 4242 0056 D4ED007A 		vldr.32	s15, [r4]	@ int
 4243 005a 0948     		ldr	r0, .L277+20
 4244 005c B8EEE70A 		vcvt.f32.s32	s0, s15
 4245 0060 FFF7FEFF 		bl	_Z9PrintMenufPb
 4246              	.LVL239:
 129:sardinia.cpp  **** 		//hw.PrintLine("Print a float value: %f", recordingLength);
 130:sardinia.cpp  **** 		System::Delay(50);
 4247              		.loc 17 130 3 is_stmt 1 discriminator 1 view .LVU1032
 4248              		.loc 17 130 16 is_stmt 0 discriminator 1 view .LVU1033
 4249 0064 3220     		movs	r0, #50
 4250 0066 FFF7FEFF 		bl	_ZN5daisy6System5DelayEm
 4251              	.LVL240:
 126:sardinia.cpp  **** 	{
 4252              		.loc 17 126 2 is_stmt 1 discriminator 1 view .LVU1034
 4253 006a F4E7     		b	.L275
 4254              	.L278:
 4255              		.align	2
 4256              	.L277:
 4257 006c 00000000 		.word	.LANCHOR38
 4258 0070 00000000 		.word	.LANCHOR37
 4259 0074 00000000 		.word	.LANCHOR7
 4260 0078 18000000 		.word	.LANCHOR38+24
 4261 007c 00000000 		.word	_Z13AudioCallbackPKPKfPPfj
 4262 0080 00000000 		.word	.LANCHOR36
 4263              		.cfi_endproc
 4264              	.LFE4711:
 4266              		.section	.text._Z18RecordModeControlsv,"ax",%progbits
 4267              		.align	1
 4268              		.p2align 2,,3
ARM GAS  /var/folders/m5/x8wc2gdj7z5cpgcqdsb_gkj40000gn/T//cckXFIsJ.s 			page 117


 4269              		.global	_Z18RecordModeControlsv
 4270              		.syntax unified
 4271              		.thumb
 4272              		.thumb_func
 4274              	_Z18RecordModeControlsv:
 4275              	.LFB4714:
 131:sardinia.cpp  **** 	}
 132:sardinia.cpp  **** }
 133:sardinia.cpp  **** 
 134:sardinia.cpp  **** 
 135:sardinia.cpp  **** // |Offboard Control Functions|--------------------------------------------------------------------
 136:sardinia.cpp  **** 
 137:sardinia.cpp  **** 
 138:sardinia.cpp  **** void ProcessControlsKR() // For controls that only need to be processed every audio block
 139:sardinia.cpp  **** {
 140:sardinia.cpp  **** 	UpdateKeys();	
 141:sardinia.cpp  **** 
 142:sardinia.cpp  **** 	encoder.Debounce();
 143:sardinia.cpp  **** 
 144:sardinia.cpp  **** 	if(EncoderTurned())
 145:sardinia.cpp  **** 	{
 146:sardinia.cpp  **** 		IncrementEffect(encoder.Increment());
 147:sardinia.cpp  **** 	}
 148:sardinia.cpp  **** 	if(encoder.RisingEdge())
 149:sardinia.cpp  **** 	{
 150:sardinia.cpp  **** 		effectStates[currentEffect] = !effectStates[currentEffect];
 151:sardinia.cpp  **** 	}
 152:sardinia.cpp  **** 
 153:sardinia.cpp  **** 	if(currentEffect == 0)
 154:sardinia.cpp  **** 	{
 155:sardinia.cpp  **** 		effectValues[0][0] = fmap(hw.adc.GetMuxFloat(0, 2), 0, 1, Mapping::LINEAR); // Overdrive Gain
 156:sardinia.cpp  **** 		effectValues[0][1] = fmap(hw.adc.GetMuxFloat(0, 6), .01, .3, Mapping::EXP); // Overdrive Tone Fre
 157:sardinia.cpp  **** 	}
 158:sardinia.cpp  **** 	else if(currentEffect == 1)
 159:sardinia.cpp  **** 	{
 160:sardinia.cpp  **** 		effectValues[1][0] = fmap(hw.adc.GetMuxFloat(0, 2), 0, 1, Mapping::LINEAR); // Chorus LFO Depth
 161:sardinia.cpp  **** 		effectValues[1][1] = fmap(hw.adc.GetMuxFloat(0, 6), 0, 10, Mapping::EXP); // Chorus LFO Freq
 162:sardinia.cpp  **** 	}
 163:sardinia.cpp  **** 	else if(currentEffect == 2)
 164:sardinia.cpp  **** 	{
 165:sardinia.cpp  **** 		effectValues[2][0] = fmap(hw.adc.GetMuxFloat(0, 2), 0, 5000, Mapping::EXP); // LoPass Freq
 166:sardinia.cpp  **** 		effectValues[2][1] = fmap(hw.adc.GetMuxFloat(0, 6), 0, 1, Mapping::LINEAR); // LoPass Res
 167:sardinia.cpp  **** 	}
 168:sardinia.cpp  **** 	
 169:sardinia.cpp  **** 
 170:sardinia.cpp  **** 	outputAmp = fmap(hw.adc.GetMuxFloat(0, 3), 0, 2, Mapping::LINEAR); // top far right
 171:sardinia.cpp  **** 	inputAmp = fmap(hw.adc.GetMuxFloat(0, 7), 0, 2, Mapping::LINEAR); // bottom far right
 172:sardinia.cpp  **** 
 173:sardinia.cpp  **** 	readFactor = fmap(hw.adc.GetMuxFloat(0, 0), 0.5, 2, Mapping::EXP); // top far left
 174:sardinia.cpp  **** 	ProcessEffectParameters();
 175:sardinia.cpp  **** }
 176:sardinia.cpp  **** 
 177:sardinia.cpp  **** void ProcessControlsAR() // For controls that need to process every sample
 178:sardinia.cpp  **** {
 179:sardinia.cpp  **** 	// All control keys must be updated at same clock cycle 
 180:sardinia.cpp  **** 	// So all control key functions must be done at audio rate
 181:sardinia.cpp  **** 	UpdateControlButtons(); 
ARM GAS  /var/folders/m5/x8wc2gdj7z5cpgcqdsb_gkj40000gn/T//cckXFIsJ.s 			page 118


 182:sardinia.cpp  **** 	ModeSelect();
 183:sardinia.cpp  **** 
 184:sardinia.cpp  **** 	if(RisingEdge_ControlButtons(0)) // Starts the sample from the beginning when pressed
 185:sardinia.cpp  **** 	{
 186:sardinia.cpp  **** 		if(isPlaying == false)
 187:sardinia.cpp  **** 		{
 188:sardinia.cpp  **** 			fullSampleReadIndex = 0;
 189:sardinia.cpp  **** 			isPlaying = true;
 190:sardinia.cpp  **** 			playButtonOverrule = true;
 191:sardinia.cpp  **** 		}
 192:sardinia.cpp  **** 		else
 193:sardinia.cpp  **** 		{
 194:sardinia.cpp  **** 			isPlaying = false;
 195:sardinia.cpp  **** 			playButtonOverrule = false;
 196:sardinia.cpp  **** 		}
 197:sardinia.cpp  **** 	}
 198:sardinia.cpp  **** 	else if(fullSampleReadIndex== 0 && !controlButtonStates[0]) // Stops the sample when let go
 199:sardinia.cpp  **** 	{
 200:sardinia.cpp  **** 		isPlaying = false;
 201:sardinia.cpp  **** 		playButtonOverrule = false;
 202:sardinia.cpp  **** 	}
 203:sardinia.cpp  **** 	
 204:sardinia.cpp  **** 	if(mode == record)
 205:sardinia.cpp  **** 	{
 206:sardinia.cpp  **** 		RecordModeControls();
 207:sardinia.cpp  **** 	}
 208:sardinia.cpp  **** 	else if(mode == play)
 209:sardinia.cpp  **** 	{
 210:sardinia.cpp  **** 		PlayModeControls();
 211:sardinia.cpp  **** 	}
 212:sardinia.cpp  **** 
 213:sardinia.cpp  **** 	RecordControlButtonStates();
 214:sardinia.cpp  **** }
 215:sardinia.cpp  **** 
 216:sardinia.cpp  **** void RecordModeControls() // Controls that only run in record mode
 217:sardinia.cpp  **** {	
 4276              		.loc 17 217 1 view -0
 4277              		.cfi_startproc
 4278              		@ args = 0, pretend = 0, frame = 0
 4279              		@ frame_needed = 0, uses_anonymous_args = 0
 218:sardinia.cpp  **** 
 219:sardinia.cpp  **** 	// Recording
 220:sardinia.cpp  **** 	if(RisingEdge_ControlButtons(1)) // Starts recording from start on press and resets the length tra
 4280              		.loc 17 220 2 view .LVU1036
 4281              	.LVL241:
 4282              	.LBB779:
 4283              	.LBI779:
 123:hardware.h    **** bool RisingEdge_ControlButtons(int buttonNum)
 4284              		.loc 14 123 6 view .LVU1037
 4285              	.LBB780:
 125:hardware.h    **** 	if(controlButtonStates[buttonNum] == true && prevControlButtonStates[buttonNum] == false)
 4286              		.loc 14 125 2 view .LVU1038
 4287              	.LBE780:
 4288              	.LBE779:
 217:sardinia.cpp  **** 
 4289              		.loc 17 217 1 is_stmt 0 view .LVU1039
 4290 0000 38B5     		push	{r3, r4, r5, lr}
ARM GAS  /var/folders/m5/x8wc2gdj7z5cpgcqdsb_gkj40000gn/T//cckXFIsJ.s 			page 119


 4291              		.cfi_def_cfa_offset 16
 4292              		.cfi_offset 3, -16
 4293              		.cfi_offset 4, -12
 4294              		.cfi_offset 5, -8
 4295              		.cfi_offset 14, -4
 4296              	.LBB783:
 4297              	.LBB781:
 125:hardware.h    **** 	if(controlButtonStates[buttonNum] == true && prevControlButtonStates[buttonNum] == false)
 4298              		.loc 14 125 34 view .LVU1040
 4299 0002 454C     		ldr	r4, .L329
 125:hardware.h    **** 	if(controlButtonStates[buttonNum] == true && prevControlButtonStates[buttonNum] == false)
 4300              		.loc 14 125 80 view .LVU1041
 4301 0004 454D     		ldr	r5, .L329+4
 125:hardware.h    **** 	if(controlButtonStates[buttonNum] == true && prevControlButtonStates[buttonNum] == false)
 4302              		.loc 14 125 2 view .LVU1042
 4303 0006 6378     		ldrb	r3, [r4, #1]	@ zero_extendqisi2
 4304 0008 002B     		cmp	r3, #0
 4305 000a 6FD0     		beq	.L280
 125:hardware.h    **** 	if(controlButtonStates[buttonNum] == true && prevControlButtonStates[buttonNum] == false)
 4306              		.loc 14 125 44 view .LVU1043
 4307 000c 6B78     		ldrb	r3, [r5, #1]	@ zero_extendqisi2
 4308 000e 002B     		cmp	r3, #0
 4309 0010 62D0     		beq	.L322
 4310              	.LVL242:
 4311              	.L281:
 125:hardware.h    **** 	if(controlButtonStates[buttonNum] == true && prevControlButtonStates[buttonNum] == false)
 4312              		.loc 14 125 44 view .LVU1044
 4313              	.LBE781:
 4314              	.LBE783:
 221:sardinia.cpp  **** 	{
 222:sardinia.cpp  **** 		isRecording = true;
 223:sardinia.cpp  **** 		testValFloat = 1;
 224:sardinia.cpp  **** 		lengthTrack = 0;
 225:sardinia.cpp  **** 	}
 226:sardinia.cpp  **** 	else if(FallingEdge_ControlButtons(1)) // Stops recording when let go, resets write index, and ass
 227:sardinia.cpp  **** 	{
 228:sardinia.cpp  **** 		isRecording = false;
 229:sardinia.cpp  **** 		writeIndex = 0;
 230:sardinia.cpp  **** 		recordingLength = lengthTrack;
 231:sardinia.cpp  **** 		testValFloat = 0;
 232:sardinia.cpp  **** 		testValInt = recordingLength;
 233:sardinia.cpp  **** 		SetKeyIndexs();
 234:sardinia.cpp  **** 	}
 235:sardinia.cpp  **** 
 236:sardinia.cpp  **** 	// Play slices from keypads
 237:sardinia.cpp  **** 	if(playButtonOverrule == false)
 4315              		.loc 17 237 2 is_stmt 1 view .LVU1045
 4316              		.loc 17 237 24 is_stmt 0 view .LVU1046
 4317 0012 434B     		ldr	r3, .L329+8
 4318              		.loc 17 237 2 view .LVU1047
 4319 0014 1B78     		ldrb	r3, [r3]	@ zero_extendqisi2
 4320 0016 63B9     		cbnz	r3, .L282
 4321 0018 424B     		ldr	r3, .L329+12
 4322 001a 03F12001 		add	r1, r3, #32
 4323 001e 01E0     		b	.L285
 4324              	.LVL243:
 4325              	.L324:
ARM GAS  /var/folders/m5/x8wc2gdj7z5cpgcqdsb_gkj40000gn/T//cckXFIsJ.s 			page 120


 4326              	.LBB784:
 4327              	.LBB785:
 314:sampleengine.h ****     {
 4328              		.loc 13 314 22 view .LVU1048
 4329 0020 8B42     		cmp	r3, r1
 4330 0022 76D0     		beq	.L323
 4331              	.LVL244:
 4332              	.L285:
 316:sampleengine.h ****         {
 4333              		.loc 13 316 9 is_stmt 1 view .LVU1049
 314:sampleengine.h ****     {
 4334              		.loc 13 314 5 view .LVU1050
 316:sampleengine.h ****         {
 4335              		.loc 13 316 23 is_stmt 0 view .LVU1051
 4336 0024 13F8012B 		ldrb	r2, [r3], #1	@ zero_extendqisi2
 4337              	.LVL245:
 314:sampleengine.h ****     {
 4338              		.loc 13 314 22 is_stmt 1 view .LVU1052
 316:sampleengine.h ****         {
 4339              		.loc 13 316 9 is_stmt 0 view .LVU1053
 4340 0028 002A     		cmp	r2, #0
 4341 002a F9D0     		beq	.L324
 4342              	.LVL246:
 316:sampleengine.h ****         {
 4343              		.loc 13 316 9 view .LVU1054
 4344              	.LBE785:
 4345              	.LBE784:
 238:sardinia.cpp  **** 	{
 239:sardinia.cpp  **** 		if(AnyKeyIsPressed())
 240:sardinia.cpp  **** 		{
 241:sardinia.cpp  **** 			isPlaying = true;
 4346              		.loc 17 241 4 is_stmt 1 view .LVU1055
 4347              		.loc 17 241 14 is_stmt 0 view .LVU1056
 4348 002c 3E4B     		ldr	r3, .L329+16
 4349 002e 0122     		movs	r2, #1
 4350 0030 1A70     		strb	r2, [r3]
 4351              	.L282:
 242:sardinia.cpp  **** 		}
 243:sardinia.cpp  **** 		else
 244:sardinia.cpp  **** 		{
 245:sardinia.cpp  **** 			isPlaying = false;
 246:sardinia.cpp  **** 		}
 247:sardinia.cpp  **** 	}
 248:sardinia.cpp  **** 
 249:sardinia.cpp  **** 	// Store Splices into Buffers
 250:sardinia.cpp  **** 	if(RisingEdge_ControlButtons(4))
 4352              		.loc 17 250 2 is_stmt 1 view .LVU1057
 4353              	.LVL247:
 4354              	.LBB786:
 4355              	.LBI786:
 123:hardware.h    **** bool RisingEdge_ControlButtons(int buttonNum)
 4356              		.loc 14 123 6 view .LVU1058
 4357              	.LBB787:
 125:hardware.h    **** 	if(controlButtonStates[buttonNum] == true && prevControlButtonStates[buttonNum] == false)
 4358              		.loc 14 125 2 view .LVU1059
 4359 0032 2379     		ldrb	r3, [r4, #4]	@ zero_extendqisi2
 4360 0034 8BB1     		cbz	r3, .L300
ARM GAS  /var/folders/m5/x8wc2gdj7z5cpgcqdsb_gkj40000gn/T//cckXFIsJ.s 			page 121


 125:hardware.h    **** 	if(controlButtonStates[buttonNum] == true && prevControlButtonStates[buttonNum] == false)
 4361              		.loc 14 125 44 is_stmt 0 view .LVU1060
 4362 0036 2B79     		ldrb	r3, [r5, #4]	@ zero_extendqisi2
 4363 0038 7BB9     		cbnz	r3, .L300
 4364              	.LVL248:
 125:hardware.h    **** 	if(controlButtonStates[buttonNum] == true && prevControlButtonStates[buttonNum] == false)
 4365              		.loc 14 125 44 view .LVU1061
 4366              	.LBE787:
 4367              	.LBE786:
 251:sardinia.cpp  **** 	{
 252:sardinia.cpp  **** 		currentSpliceBuffer = 1;
 4368              		.loc 17 252 3 is_stmt 1 view .LVU1062
 4369              		.loc 17 252 23 is_stmt 0 view .LVU1063
 4370 003a 0121     		movs	r1, #1
 4371 003c 394B     		ldr	r3, .L329+12
 4372 003e 3B4A     		ldr	r2, .L329+20
 4373 0040 1160     		str	r1, [r2]
 253:sardinia.cpp  **** 		if(AnyKeyIsPressed())
 4374              		.loc 17 253 3 is_stmt 1 view .LVU1064
 4375              	.LBB788:
 4376              	.LBI788:
 312:sampleengine.h **** {
 4377              		.loc 13 312 6 view .LVU1065
 4378              	.LBE788:
 314:sampleengine.h ****     {
 4379              		.loc 13 314 5 view .LVU1066
 4380              	.LVL249:
 4381              	.LBB790:
 4382              	.LBB789:
 314:sampleengine.h ****     {
 4383              		.loc 13 314 22 view .LVU1067
 4384 0042 03F12001 		add	r1, r3, #32
 4385 0046 01E0     		b	.L288
 4386              	.LVL250:
 4387              	.L325:
 314:sampleengine.h ****     {
 4388              		.loc 13 314 22 is_stmt 0 view .LVU1068
 4389 0048 8B42     		cmp	r3, r1
 4390 004a 06D0     		beq	.L300
 4391              	.LVL251:
 4392              	.L288:
 316:sampleengine.h ****         {
 4393              		.loc 13 316 9 is_stmt 1 view .LVU1069
 314:sampleengine.h ****     {
 4394              		.loc 13 314 5 view .LVU1070
 316:sampleengine.h ****         {
 4395              		.loc 13 316 23 is_stmt 0 view .LVU1071
 4396 004c 13F8012B 		ldrb	r2, [r3], #1	@ zero_extendqisi2
 4397              	.LVL252:
 314:sampleengine.h ****     {
 4398              		.loc 13 314 22 is_stmt 1 view .LVU1072
 316:sampleengine.h ****         {
 4399              		.loc 13 316 9 is_stmt 0 view .LVU1073
 4400 0050 002A     		cmp	r2, #0
 4401 0052 F9D0     		beq	.L325
 4402              	.LVL253:
 316:sampleengine.h ****         {
ARM GAS  /var/folders/m5/x8wc2gdj7z5cpgcqdsb_gkj40000gn/T//cckXFIsJ.s 			page 122


 4403              		.loc 13 316 9 view .LVU1074
 4404              	.LBE789:
 4405              	.LBE790:
 254:sardinia.cpp  **** 		{
 255:sardinia.cpp  **** 			StoreSpliceBuffer(currentSpliceBuffer);
 4406              		.loc 17 255 4 is_stmt 1 view .LVU1075
 4407              		.loc 17 255 21 is_stmt 0 view .LVU1076
 4408 0054 0120     		movs	r0, #1
 4409 0056 FFF7FEFF 		bl	_Z17StoreSpliceBufferi
 4410              	.LVL254:
 4411              	.L300:
 256:sardinia.cpp  **** 		}
 257:sardinia.cpp  **** 	}
 258:sardinia.cpp  **** 	if(RisingEdge_ControlButtons(5))
 4412              		.loc 17 258 2 is_stmt 1 view .LVU1077
 4413              	.LBB791:
 4414              	.LBI791:
 123:hardware.h    **** bool RisingEdge_ControlButtons(int buttonNum)
 4415              		.loc 14 123 6 view .LVU1078
 4416              	.LBB792:
 125:hardware.h    **** 	if(controlButtonStates[buttonNum] == true && prevControlButtonStates[buttonNum] == false)
 4417              		.loc 14 125 2 view .LVU1079
 4418 005a 6379     		ldrb	r3, [r4, #5]	@ zero_extendqisi2
 4419 005c 8BB1     		cbz	r3, .L299
 125:hardware.h    **** 	if(controlButtonStates[buttonNum] == true && prevControlButtonStates[buttonNum] == false)
 4420              		.loc 14 125 44 is_stmt 0 view .LVU1080
 4421 005e 6B79     		ldrb	r3, [r5, #5]	@ zero_extendqisi2
 4422 0060 7BB9     		cbnz	r3, .L299
 4423              	.LVL255:
 125:hardware.h    **** 	if(controlButtonStates[buttonNum] == true && prevControlButtonStates[buttonNum] == false)
 4424              		.loc 14 125 44 view .LVU1081
 4425              	.LBE792:
 4426              	.LBE791:
 259:sardinia.cpp  **** 	{
 260:sardinia.cpp  **** 		currentSpliceBuffer = 2;
 4427              		.loc 17 260 3 is_stmt 1 view .LVU1082
 4428              		.loc 17 260 23 is_stmt 0 view .LVU1083
 4429 0062 0221     		movs	r1, #2
 4430 0064 2F4B     		ldr	r3, .L329+12
 4431 0066 314A     		ldr	r2, .L329+20
 4432 0068 1160     		str	r1, [r2]
 261:sardinia.cpp  **** 		if(AnyKeyIsPressed())
 4433              		.loc 17 261 3 is_stmt 1 view .LVU1084
 4434              	.LBB793:
 4435              	.LBI793:
 312:sampleengine.h **** {
 4436              		.loc 13 312 6 view .LVU1085
 4437              	.LBE793:
 314:sampleengine.h ****     {
 4438              		.loc 13 314 5 view .LVU1086
 4439              	.LVL256:
 4440              	.LBB795:
 4441              	.LBB794:
 314:sampleengine.h ****     {
 4442              		.loc 13 314 22 view .LVU1087
 4443 006a 03F12001 		add	r1, r3, #32
 4444 006e 01E0     		b	.L291
ARM GAS  /var/folders/m5/x8wc2gdj7z5cpgcqdsb_gkj40000gn/T//cckXFIsJ.s 			page 123


 4445              	.LVL257:
 4446              	.L326:
 314:sampleengine.h ****     {
 4447              		.loc 13 314 22 is_stmt 0 view .LVU1088
 4448 0070 9942     		cmp	r1, r3
 4449 0072 06D0     		beq	.L299
 4450              	.LVL258:
 4451              	.L291:
 316:sampleengine.h ****         {
 4452              		.loc 13 316 9 is_stmt 1 view .LVU1089
 314:sampleengine.h ****     {
 4453              		.loc 13 314 5 view .LVU1090
 316:sampleengine.h ****         {
 4454              		.loc 13 316 23 is_stmt 0 view .LVU1091
 4455 0074 13F8012B 		ldrb	r2, [r3], #1	@ zero_extendqisi2
 4456              	.LVL259:
 314:sampleengine.h ****     {
 4457              		.loc 13 314 22 is_stmt 1 view .LVU1092
 316:sampleengine.h ****         {
 4458              		.loc 13 316 9 is_stmt 0 view .LVU1093
 4459 0078 002A     		cmp	r2, #0
 4460 007a F9D0     		beq	.L326
 4461              	.LVL260:
 316:sampleengine.h ****         {
 4462              		.loc 13 316 9 view .LVU1094
 4463              	.LBE794:
 4464              	.LBE795:
 262:sardinia.cpp  **** 		{
 263:sardinia.cpp  **** 			StoreSpliceBuffer(currentSpliceBuffer);
 4465              		.loc 17 263 4 is_stmt 1 view .LVU1095
 4466              		.loc 17 263 21 is_stmt 0 view .LVU1096
 4467 007c 0220     		movs	r0, #2
 4468 007e FFF7FEFF 		bl	_Z17StoreSpliceBufferi
 4469              	.LVL261:
 4470              	.L299:
 264:sardinia.cpp  **** 		}
 265:sardinia.cpp  **** 	}
 266:sardinia.cpp  **** 	if(RisingEdge_ControlButtons(6))
 4471              		.loc 17 266 2 is_stmt 1 view .LVU1097
 4472              	.LBB796:
 4473              	.LBI796:
 123:hardware.h    **** bool RisingEdge_ControlButtons(int buttonNum)
 4474              		.loc 14 123 6 view .LVU1098
 4475              	.LBB797:
 125:hardware.h    **** 	if(controlButtonStates[buttonNum] == true && prevControlButtonStates[buttonNum] == false)
 4476              		.loc 14 125 2 view .LVU1099
 4477 0082 A379     		ldrb	r3, [r4, #6]	@ zero_extendqisi2
 4478 0084 8BB1     		cbz	r3, .L298
 125:hardware.h    **** 	if(controlButtonStates[buttonNum] == true && prevControlButtonStates[buttonNum] == false)
 4479              		.loc 14 125 44 is_stmt 0 view .LVU1100
 4480 0086 AB79     		ldrb	r3, [r5, #6]	@ zero_extendqisi2
 4481 0088 7BB9     		cbnz	r3, .L298
 4482              	.LVL262:
 125:hardware.h    **** 	if(controlButtonStates[buttonNum] == true && prevControlButtonStates[buttonNum] == false)
 4483              		.loc 14 125 44 view .LVU1101
 4484              	.LBE797:
 4485              	.LBE796:
ARM GAS  /var/folders/m5/x8wc2gdj7z5cpgcqdsb_gkj40000gn/T//cckXFIsJ.s 			page 124


 267:sardinia.cpp  **** 	{
 268:sardinia.cpp  **** 		currentSpliceBuffer = 3;
 4486              		.loc 17 268 3 is_stmt 1 view .LVU1102
 4487              		.loc 17 268 23 is_stmt 0 view .LVU1103
 4488 008a 0321     		movs	r1, #3
 4489 008c 254B     		ldr	r3, .L329+12
 4490 008e 274A     		ldr	r2, .L329+20
 4491 0090 1160     		str	r1, [r2]
 269:sardinia.cpp  **** 		if(AnyKeyIsPressed())
 4492              		.loc 17 269 3 is_stmt 1 view .LVU1104
 4493              	.LBB798:
 4494              	.LBI798:
 312:sampleengine.h **** {
 4495              		.loc 13 312 6 view .LVU1105
 4496              	.LBE798:
 314:sampleengine.h ****     {
 4497              		.loc 13 314 5 view .LVU1106
 4498              	.LVL263:
 4499              	.LBB800:
 4500              	.LBB799:
 314:sampleengine.h ****     {
 4501              		.loc 13 314 22 view .LVU1107
 4502 0092 03F12001 		add	r1, r3, #32
 4503 0096 01E0     		b	.L294
 4504              	.LVL264:
 4505              	.L327:
 314:sampleengine.h ****     {
 4506              		.loc 13 314 22 is_stmt 0 view .LVU1108
 4507 0098 8B42     		cmp	r3, r1
 4508 009a 06D0     		beq	.L298
 4509              	.LVL265:
 4510              	.L294:
 316:sampleengine.h ****         {
 4511              		.loc 13 316 9 is_stmt 1 view .LVU1109
 314:sampleengine.h ****     {
 4512              		.loc 13 314 5 view .LVU1110
 316:sampleengine.h ****         {
 4513              		.loc 13 316 23 is_stmt 0 view .LVU1111
 4514 009c 13F8012B 		ldrb	r2, [r3], #1	@ zero_extendqisi2
 4515              	.LVL266:
 314:sampleengine.h ****     {
 4516              		.loc 13 314 22 is_stmt 1 view .LVU1112
 316:sampleengine.h ****         {
 4517              		.loc 13 316 9 is_stmt 0 view .LVU1113
 4518 00a0 002A     		cmp	r2, #0
 4519 00a2 F9D0     		beq	.L327
 4520              	.LVL267:
 316:sampleengine.h ****         {
 4521              		.loc 13 316 9 view .LVU1114
 4522              	.LBE799:
 4523              	.LBE800:
 270:sardinia.cpp  **** 		{
 271:sardinia.cpp  **** 			StoreSpliceBuffer(currentSpliceBuffer);
 4524              		.loc 17 271 4 is_stmt 1 view .LVU1115
 4525              		.loc 17 271 21 is_stmt 0 view .LVU1116
 4526 00a4 0320     		movs	r0, #3
 4527 00a6 FFF7FEFF 		bl	_Z17StoreSpliceBufferi
ARM GAS  /var/folders/m5/x8wc2gdj7z5cpgcqdsb_gkj40000gn/T//cckXFIsJ.s 			page 125


 4528              	.LVL268:
 4529              	.L298:
 272:sardinia.cpp  **** 		}
 273:sardinia.cpp  **** 	}
 274:sardinia.cpp  **** 	if(RisingEdge_ControlButtons(7))
 4530              		.loc 17 274 2 is_stmt 1 view .LVU1117
 4531              	.LBB801:
 4532              	.LBI801:
 123:hardware.h    **** bool RisingEdge_ControlButtons(int buttonNum)
 4533              		.loc 14 123 6 view .LVU1118
 4534              	.LBB802:
 125:hardware.h    **** 	if(controlButtonStates[buttonNum] == true && prevControlButtonStates[buttonNum] == false)
 4535              		.loc 14 125 2 view .LVU1119
 4536 00aa E379     		ldrb	r3, [r4, #7]	@ zero_extendqisi2
 4537 00ac 9BB1     		cbz	r3, .L279
 125:hardware.h    **** 	if(controlButtonStates[buttonNum] == true && prevControlButtonStates[buttonNum] == false)
 4538              		.loc 14 125 44 is_stmt 0 view .LVU1120
 4539 00ae EB79     		ldrb	r3, [r5, #7]	@ zero_extendqisi2
 4540 00b0 8BB9     		cbnz	r3, .L279
 4541              	.LVL269:
 125:hardware.h    **** 	if(controlButtonStates[buttonNum] == true && prevControlButtonStates[buttonNum] == false)
 4542              		.loc 14 125 44 view .LVU1121
 4543              	.LBE802:
 4544              	.LBE801:
 275:sardinia.cpp  **** 	{
 276:sardinia.cpp  **** 		currentSpliceBuffer = 4;
 4545              		.loc 17 276 3 is_stmt 1 view .LVU1122
 4546 00b2 1C4B     		ldr	r3, .L329+12
 4547              		.loc 17 276 23 is_stmt 0 view .LVU1123
 4548 00b4 0420     		movs	r0, #4
 4549 00b6 1D4A     		ldr	r2, .L329+20
 4550 00b8 03F12001 		add	r1, r3, #32
 4551 00bc 1060     		str	r0, [r2]
 277:sardinia.cpp  **** 		if(AnyKeyIsPressed())
 4552              		.loc 17 277 3 is_stmt 1 view .LVU1124
 4553              	.LBB803:
 4554              	.LBI803:
 312:sampleengine.h **** {
 4555              		.loc 13 312 6 view .LVU1125
 4556              	.LBE803:
 314:sampleengine.h ****     {
 4557              		.loc 13 314 5 view .LVU1126
 4558              	.LVL270:
 4559              	.LBB805:
 4560              	.LBB804:
 314:sampleengine.h ****     {
 4561              		.loc 13 314 22 view .LVU1127
 4562 00be 01E0     		b	.L297
 4563              	.LVL271:
 4564              	.L328:
 314:sampleengine.h ****     {
 4565              		.loc 13 314 22 is_stmt 0 view .LVU1128
 4566 00c0 9942     		cmp	r1, r3
 4567 00c2 08D0     		beq	.L279
 4568              	.LVL272:
 4569              	.L297:
 316:sampleengine.h ****         {
ARM GAS  /var/folders/m5/x8wc2gdj7z5cpgcqdsb_gkj40000gn/T//cckXFIsJ.s 			page 126


 4570              		.loc 13 316 9 is_stmt 1 view .LVU1129
 314:sampleengine.h ****     {
 4571              		.loc 13 314 5 view .LVU1130
 316:sampleengine.h ****         {
 4572              		.loc 13 316 23 is_stmt 0 view .LVU1131
 4573 00c4 13F8012B 		ldrb	r2, [r3], #1	@ zero_extendqisi2
 4574              	.LVL273:
 314:sampleengine.h ****     {
 4575              		.loc 13 314 22 is_stmt 1 view .LVU1132
 316:sampleengine.h ****         {
 4576              		.loc 13 316 9 is_stmt 0 view .LVU1133
 4577 00c8 002A     		cmp	r2, #0
 4578 00ca F9D0     		beq	.L328
 4579              	.LVL274:
 316:sampleengine.h ****         {
 4580              		.loc 13 316 9 view .LVU1134
 4581              	.LBE804:
 4582              	.LBE805:
 278:sardinia.cpp  **** 		{
 279:sardinia.cpp  **** 			StoreSpliceBuffer(currentSpliceBuffer);
 4583              		.loc 17 279 4 is_stmt 1 view .LVU1135
 4584              		.loc 17 279 21 is_stmt 0 view .LVU1136
 4585 00cc 0420     		movs	r0, #4
 280:sardinia.cpp  **** 		}
 281:sardinia.cpp  **** 	}
 282:sardinia.cpp  **** }
 4586              		.loc 17 282 1 view .LVU1137
 4587 00ce BDE83840 		pop	{r3, r4, r5, lr}
 4588              		.cfi_remember_state
 4589              		.cfi_restore 14
 4590              		.cfi_restore 5
 4591              		.cfi_restore 4
 4592              		.cfi_restore 3
 4593              		.cfi_def_cfa_offset 0
 279:sardinia.cpp  **** 		}
 4594              		.loc 17 279 21 view .LVU1138
 4595 00d2 FFF7FEBF 		b	_Z17StoreSpliceBufferi
 4596              	.LVL275:
 4597              	.L279:
 4598              		.cfi_restore_state
 4599              		.loc 17 282 1 view .LVU1139
 4600 00d6 38BD     		pop	{r3, r4, r5, pc}
 4601              	.LVL276:
 4602              	.L322:
 222:sardinia.cpp  **** 		testValFloat = 1;
 4603              		.loc 17 222 3 is_stmt 1 view .LVU1140
 222:sardinia.cpp  **** 		testValFloat = 1;
 4604              		.loc 17 222 15 is_stmt 0 view .LVU1141
 4605 00d8 154A     		ldr	r2, .L329+24
 4606 00da 0121     		movs	r1, #1
 4607 00dc 1170     		strb	r1, [r2]
 223:sardinia.cpp  **** 		lengthTrack = 0;
 4608              		.loc 17 223 3 is_stmt 1 view .LVU1142
 223:sardinia.cpp  **** 		lengthTrack = 0;
 4609              		.loc 17 223 16 is_stmt 0 view .LVU1143
 4610 00de 4FF07E51 		mov	r1, #1065353216
 4611 00e2 144A     		ldr	r2, .L329+28
ARM GAS  /var/folders/m5/x8wc2gdj7z5cpgcqdsb_gkj40000gn/T//cckXFIsJ.s 			page 127


 4612 00e4 1160     		str	r1, [r2]	@ float
 224:sardinia.cpp  **** 	}
 4613              		.loc 17 224 3 is_stmt 1 view .LVU1144
 224:sardinia.cpp  **** 	}
 4614              		.loc 17 224 15 is_stmt 0 view .LVU1145
 4615 00e6 144A     		ldr	r2, .L329+32
 4616 00e8 1360     		str	r3, [r2]
 4617 00ea 92E7     		b	.L281
 4618              	.LVL277:
 4619              	.L280:
 4620              	.LBB806:
 4621              	.LBB782:
 131:hardware.h    **** 		return false;
 4622              		.loc 14 131 3 is_stmt 1 view .LVU1146
 131:hardware.h    **** 		return false;
 4623              		.loc 14 131 3 is_stmt 0 view .LVU1147
 4624              	.LBE782:
 4625              	.LBE806:
 226:sardinia.cpp  **** 	{
 4626              		.loc 17 226 7 is_stmt 1 view .LVU1148
 4627              	.LBB807:
 4628              	.LBI807:
 135:hardware.h    **** bool FallingEdge_ControlButtons(int buttonNum)
 4629              		.loc 14 135 6 view .LVU1149
 4630              	.LBB808:
 137:hardware.h    **** 	if(controlButtonStates[buttonNum] == false && prevControlButtonStates[buttonNum] == true)
 4631              		.loc 14 137 2 view .LVU1150
 137:hardware.h    **** 	if(controlButtonStates[buttonNum] == false && prevControlButtonStates[buttonNum] == true)
 4632              		.loc 14 137 45 is_stmt 0 view .LVU1151
 4633 00ec 6A78     		ldrb	r2, [r5, #1]	@ zero_extendqisi2
 4634 00ee 002A     		cmp	r2, #0
 4635 00f0 8FD0     		beq	.L281
 4636              	.LVL278:
 137:hardware.h    **** 	if(controlButtonStates[buttonNum] == false && prevControlButtonStates[buttonNum] == true)
 4637              		.loc 14 137 45 view .LVU1152
 4638              	.LBE808:
 4639              	.LBE807:
 228:sardinia.cpp  **** 		writeIndex = 0;
 4640              		.loc 17 228 3 is_stmt 1 view .LVU1153
 228:sardinia.cpp  **** 		writeIndex = 0;
 4641              		.loc 17 228 15 is_stmt 0 view .LVU1154
 4642 00f2 0F49     		ldr	r1, .L329+24
 230:sardinia.cpp  **** 		testValFloat = 0;
 4643              		.loc 17 230 19 view .LVU1155
 4644 00f4 104A     		ldr	r2, .L329+32
 228:sardinia.cpp  **** 		writeIndex = 0;
 4645              		.loc 17 228 15 view .LVU1156
 4646 00f6 0B70     		strb	r3, [r1]
 229:sardinia.cpp  **** 		recordingLength = lengthTrack;
 4647              		.loc 17 229 3 is_stmt 1 view .LVU1157
 229:sardinia.cpp  **** 		recordingLength = lengthTrack;
 4648              		.loc 17 229 14 is_stmt 0 view .LVU1158
 4649 00f8 1049     		ldr	r1, .L329+36
 230:sardinia.cpp  **** 		testValFloat = 0;
 4650              		.loc 17 230 19 view .LVU1159
 4651 00fa 1268     		ldr	r2, [r2]
 229:sardinia.cpp  **** 		recordingLength = lengthTrack;
ARM GAS  /var/folders/m5/x8wc2gdj7z5cpgcqdsb_gkj40000gn/T//cckXFIsJ.s 			page 128


 4652              		.loc 17 229 14 view .LVU1160
 4653 00fc 0B60     		str	r3, [r1]
 230:sardinia.cpp  **** 		testValFloat = 0;
 4654              		.loc 17 230 3 is_stmt 1 view .LVU1161
 230:sardinia.cpp  **** 		testValFloat = 0;
 4655              		.loc 17 230 19 is_stmt 0 view .LVU1162
 4656 00fe 1049     		ldr	r1, .L329+40
 231:sardinia.cpp  **** 		testValInt = recordingLength;
 4657              		.loc 17 231 16 view .LVU1163
 4658 0100 0C4B     		ldr	r3, .L329+28
 230:sardinia.cpp  **** 		testValFloat = 0;
 4659              		.loc 17 230 19 view .LVU1164
 4660 0102 0A60     		str	r2, [r1]
 231:sardinia.cpp  **** 		testValInt = recordingLength;
 4661              		.loc 17 231 3 is_stmt 1 view .LVU1165
 231:sardinia.cpp  **** 		testValInt = recordingLength;
 4662              		.loc 17 231 16 is_stmt 0 view .LVU1166
 4663 0104 0021     		movs	r1, #0
 4664 0106 1960     		str	r1, [r3]	@ float
 232:sardinia.cpp  **** 		SetKeyIndexs();
 4665              		.loc 17 232 3 is_stmt 1 view .LVU1167
 232:sardinia.cpp  **** 		SetKeyIndexs();
 4666              		.loc 17 232 14 is_stmt 0 view .LVU1168
 4667 0108 0E4B     		ldr	r3, .L329+44
 4668 010a 1A60     		str	r2, [r3]
 233:sardinia.cpp  **** 	}
 4669              		.loc 17 233 3 is_stmt 1 view .LVU1169
 233:sardinia.cpp  **** 	}
 4670              		.loc 17 233 15 is_stmt 0 view .LVU1170
 4671 010c FFF7FEFF 		bl	_Z12SetKeyIndexsv
 4672              	.LVL279:
 4673 0110 7FE7     		b	.L281
 4674              	.LVL280:
 4675              	.L323:
 245:sardinia.cpp  **** 		}
 4676              		.loc 17 245 4 is_stmt 1 view .LVU1171
 245:sardinia.cpp  **** 		}
 4677              		.loc 17 245 14 is_stmt 0 view .LVU1172
 4678 0112 054B     		ldr	r3, .L329+16
 4679 0114 1A70     		strb	r2, [r3]
 4680 0116 8CE7     		b	.L282
 4681              	.L330:
 4682              		.align	2
 4683              	.L329:
 4684 0118 00000000 		.word	.LANCHOR11
 4685 011c 00000000 		.word	.LANCHOR12
 4686 0120 00000000 		.word	.LANCHOR43
 4687 0124 00000000 		.word	.LANCHOR1
 4688 0128 00000000 		.word	.LANCHOR45
 4689 012c 00000000 		.word	.LANCHOR44
 4690 0130 00000000 		.word	.LANCHOR39
 4691 0134 00000000 		.word	.LANCHOR40
 4692 0138 00000000 		.word	.LANCHOR41
 4693 013c 00000000 		.word	.LANCHOR13
 4694 0140 00000000 		.word	.LANCHOR18
 4695 0144 00000000 		.word	.LANCHOR42
 4696              		.cfi_endproc
ARM GAS  /var/folders/m5/x8wc2gdj7z5cpgcqdsb_gkj40000gn/T//cckXFIsJ.s 			page 129


 4697              	.LFE4714:
 4699              		.section	.text._Z16PlayModeControlsv,"ax",%progbits
 4700              		.align	1
 4701              		.p2align 2,,3
 4702              		.global	_Z16PlayModeControlsv
 4703              		.syntax unified
 4704              		.thumb
 4705              		.thumb_func
 4707              	_Z16PlayModeControlsv:
 4708              	.LFB4715:
 283:sardinia.cpp  **** 
 284:sardinia.cpp  **** void PlayModeControls()
 285:sardinia.cpp  **** {
 4709              		.loc 17 285 1 is_stmt 1 view -0
 4710              		.cfi_startproc
 4711              		@ args = 0, pretend = 0, frame = 0
 4712              		@ frame_needed = 0, uses_anonymous_args = 0
 4713              		@ link register save eliminated.
 286:sardinia.cpp  **** 	// Play splices on keypads
 287:sardinia.cpp  **** 	if(playButtonOverrule == false)
 4714              		.loc 17 287 2 view .LVU1174
 4715              		.loc 17 287 24 is_stmt 0 view .LVU1175
 4716 0000 1C4B     		ldr	r3, .L358
 4717              		.loc 17 287 2 view .LVU1176
 4718 0002 1B78     		ldrb	r3, [r3]	@ zero_extendqisi2
 4719 0004 63B9     		cbnz	r3, .L332
 4720 0006 1C4B     		ldr	r3, .L358+4
 4721 0008 03F12001 		add	r1, r3, #32
 4722 000c 01E0     		b	.L335
 4723              	.LVL281:
 4724              	.L354:
 4725              	.LBB809:
 4726              	.LBB810:
 314:sampleengine.h ****     {
 4727              		.loc 13 314 22 view .LVU1177
 4728 000e 8B42     		cmp	r3, r1
 4729 0010 2CD0     		beq	.L353
 4730              	.LVL282:
 4731              	.L335:
 316:sampleengine.h ****         {
 4732              		.loc 13 316 9 is_stmt 1 view .LVU1178
 314:sampleengine.h ****     {
 4733              		.loc 13 314 5 view .LVU1179
 316:sampleengine.h ****         {
 4734              		.loc 13 316 23 is_stmt 0 view .LVU1180
 4735 0012 13F8012B 		ldrb	r2, [r3], #1	@ zero_extendqisi2
 4736              	.LVL283:
 314:sampleengine.h ****     {
 4737              		.loc 13 314 22 is_stmt 1 view .LVU1181
 316:sampleengine.h ****         {
 4738              		.loc 13 316 9 is_stmt 0 view .LVU1182
 4739 0016 002A     		cmp	r2, #0
 4740 0018 F9D0     		beq	.L354
 4741              	.LVL284:
 316:sampleengine.h ****         {
 4742              		.loc 13 316 9 view .LVU1183
 4743              	.LBE810:
ARM GAS  /var/folders/m5/x8wc2gdj7z5cpgcqdsb_gkj40000gn/T//cckXFIsJ.s 			page 130


 4744              	.LBE809:
 288:sardinia.cpp  **** 	{
 289:sardinia.cpp  **** 		if(AnyKeyIsPressed())
 290:sardinia.cpp  **** 		{
 291:sardinia.cpp  **** 			SpliceBufferIsPlaying = true;
 4745              		.loc 17 291 4 is_stmt 1 view .LVU1184
 4746              		.loc 17 291 26 is_stmt 0 view .LVU1185
 4747 001a 184B     		ldr	r3, .L358+8
 4748 001c 0122     		movs	r2, #1
 4749 001e 1A70     		strb	r2, [r3]
 4750              	.L332:
 292:sardinia.cpp  **** 		}
 293:sardinia.cpp  **** 		else
 294:sardinia.cpp  **** 		{
 295:sardinia.cpp  **** 			SpliceBufferIsPlaying = false;
 296:sardinia.cpp  **** 		}
 297:sardinia.cpp  **** 	}
 298:sardinia.cpp  **** 
 299:sardinia.cpp  **** 	// Switch current buffer to play
 300:sardinia.cpp  **** 	if(RisingEdge_ControlButtons(4))
 4751              		.loc 17 300 2 is_stmt 1 view .LVU1186
 4752              	.LVL285:
 4753              	.LBB811:
 4754              	.LBI811:
 123:hardware.h    **** bool RisingEdge_ControlButtons(int buttonNum)
 4755              		.loc 14 123 6 view .LVU1187
 4756              	.LBB812:
 125:hardware.h    **** 	if(controlButtonStates[buttonNum] == true && prevControlButtonStates[buttonNum] == false)
 4757              		.loc 14 125 2 view .LVU1188
 125:hardware.h    **** 	if(controlButtonStates[buttonNum] == true && prevControlButtonStates[buttonNum] == false)
 4758              		.loc 14 125 34 is_stmt 0 view .LVU1189
 4759 0020 174B     		ldr	r3, .L358+12
 125:hardware.h    **** 	if(controlButtonStates[buttonNum] == true && prevControlButtonStates[buttonNum] == false)
 4760              		.loc 14 125 2 view .LVU1190
 4761 0022 1A79     		ldrb	r2, [r3, #4]	@ zero_extendqisi2
 4762 0024 12B1     		cbz	r2, .L336
 125:hardware.h    **** 	if(controlButtonStates[buttonNum] == true && prevControlButtonStates[buttonNum] == false)
 4763              		.loc 14 125 80 view .LVU1191
 4764 0026 174A     		ldr	r2, .L358+16
 125:hardware.h    **** 	if(controlButtonStates[buttonNum] == true && prevControlButtonStates[buttonNum] == false)
 4765              		.loc 14 125 44 view .LVU1192
 4766 0028 1279     		ldrb	r2, [r2, #4]	@ zero_extendqisi2
 4767 002a DAB1     		cbz	r2, .L355
 4768              	.LVL286:
 4769              	.L336:
 125:hardware.h    **** 	if(controlButtonStates[buttonNum] == true && prevControlButtonStates[buttonNum] == false)
 4770              		.loc 14 125 44 view .LVU1193
 4771              	.LBE812:
 4772              	.LBE811:
 301:sardinia.cpp  **** 	{
 302:sardinia.cpp  **** 		currentSpliceBuffer = 1;
 303:sardinia.cpp  **** 	}
 304:sardinia.cpp  **** 	if(RisingEdge_ControlButtons(5))
 4773              		.loc 17 304 2 is_stmt 1 view .LVU1194
 4774              	.LBB813:
 4775              	.LBI813:
 123:hardware.h    **** bool RisingEdge_ControlButtons(int buttonNum)
ARM GAS  /var/folders/m5/x8wc2gdj7z5cpgcqdsb_gkj40000gn/T//cckXFIsJ.s 			page 131


 4776              		.loc 14 123 6 view .LVU1195
 4777              	.LBB814:
 125:hardware.h    **** 	if(controlButtonStates[buttonNum] == true && prevControlButtonStates[buttonNum] == false)
 4778              		.loc 14 125 2 view .LVU1196
 4779 002c 5A79     		ldrb	r2, [r3, #5]	@ zero_extendqisi2
 4780 002e 12B1     		cbz	r2, .L337
 125:hardware.h    **** 	if(controlButtonStates[buttonNum] == true && prevControlButtonStates[buttonNum] == false)
 4781              		.loc 14 125 80 is_stmt 0 view .LVU1197
 4782 0030 144A     		ldr	r2, .L358+16
 125:hardware.h    **** 	if(controlButtonStates[buttonNum] == true && prevControlButtonStates[buttonNum] == false)
 4783              		.loc 14 125 44 view .LVU1198
 4784 0032 5279     		ldrb	r2, [r2, #5]	@ zero_extendqisi2
 4785 0034 92B1     		cbz	r2, .L356
 4786              	.LVL287:
 4787              	.L337:
 125:hardware.h    **** 	if(controlButtonStates[buttonNum] == true && prevControlButtonStates[buttonNum] == false)
 4788              		.loc 14 125 44 view .LVU1199
 4789              	.LBE814:
 4790              	.LBE813:
 305:sardinia.cpp  **** 	{
 306:sardinia.cpp  **** 		currentSpliceBuffer = 2;
 307:sardinia.cpp  **** 	}
 308:sardinia.cpp  **** 	if(RisingEdge_ControlButtons(6))
 4791              		.loc 17 308 2 is_stmt 1 view .LVU1200
 4792              	.LBB815:
 4793              	.LBI815:
 123:hardware.h    **** bool RisingEdge_ControlButtons(int buttonNum)
 4794              		.loc 14 123 6 view .LVU1201
 4795              	.LBB816:
 125:hardware.h    **** 	if(controlButtonStates[buttonNum] == true && prevControlButtonStates[buttonNum] == false)
 4796              		.loc 14 125 2 view .LVU1202
 4797 0036 9A79     		ldrb	r2, [r3, #6]	@ zero_extendqisi2
 4798 0038 12B1     		cbz	r2, .L338
 125:hardware.h    **** 	if(controlButtonStates[buttonNum] == true && prevControlButtonStates[buttonNum] == false)
 4799              		.loc 14 125 80 is_stmt 0 view .LVU1203
 4800 003a 124A     		ldr	r2, .L358+16
 125:hardware.h    **** 	if(controlButtonStates[buttonNum] == true && prevControlButtonStates[buttonNum] == false)
 4801              		.loc 14 125 44 view .LVU1204
 4802 003c 9279     		ldrb	r2, [r2, #6]	@ zero_extendqisi2
 4803 003e 4AB1     		cbz	r2, .L357
 4804              	.LVL288:
 4805              	.L338:
 125:hardware.h    **** 	if(controlButtonStates[buttonNum] == true && prevControlButtonStates[buttonNum] == false)
 4806              		.loc 14 125 44 view .LVU1205
 4807              	.LBE816:
 4808              	.LBE815:
 309:sardinia.cpp  **** 	{
 310:sardinia.cpp  **** 		currentSpliceBuffer = 3;
 311:sardinia.cpp  **** 	}
 312:sardinia.cpp  **** 	if(RisingEdge_ControlButtons(7))
 4809              		.loc 17 312 2 is_stmt 1 view .LVU1206
 4810              	.LBB817:
 4811              	.LBI817:
 123:hardware.h    **** bool RisingEdge_ControlButtons(int buttonNum)
 4812              		.loc 14 123 6 view .LVU1207
 4813              	.LBB818:
 125:hardware.h    **** 	if(controlButtonStates[buttonNum] == true && prevControlButtonStates[buttonNum] == false)
ARM GAS  /var/folders/m5/x8wc2gdj7z5cpgcqdsb_gkj40000gn/T//cckXFIsJ.s 			page 132


 4814              		.loc 14 125 2 view .LVU1208
 4815 0040 DB79     		ldrb	r3, [r3, #7]	@ zero_extendqisi2
 4816 0042 33B1     		cbz	r3, .L331
 125:hardware.h    **** 	if(controlButtonStates[buttonNum] == true && prevControlButtonStates[buttonNum] == false)
 4817              		.loc 14 125 80 is_stmt 0 view .LVU1209
 4818 0044 0F4B     		ldr	r3, .L358+16
 125:hardware.h    **** 	if(controlButtonStates[buttonNum] == true && prevControlButtonStates[buttonNum] == false)
 4819              		.loc 14 125 44 view .LVU1210
 4820 0046 DB79     		ldrb	r3, [r3, #7]	@ zero_extendqisi2
 4821 0048 1BB9     		cbnz	r3, .L331
 4822              	.LVL289:
 125:hardware.h    **** 	if(controlButtonStates[buttonNum] == true && prevControlButtonStates[buttonNum] == false)
 4823              		.loc 14 125 44 view .LVU1211
 4824              	.LBE818:
 4825              	.LBE817:
 313:sardinia.cpp  **** 	{
 314:sardinia.cpp  **** 		currentSpliceBuffer = 4;
 4826              		.loc 17 314 3 is_stmt 1 view .LVU1212
 4827              		.loc 17 314 23 is_stmt 0 view .LVU1213
 4828 004a 0F4B     		ldr	r3, .L358+20
 4829 004c 0422     		movs	r2, #4
 4830 004e 1A60     		str	r2, [r3]
 315:sardinia.cpp  **** 	}
 316:sardinia.cpp  **** 
 317:sardinia.cpp  **** }
 4831              		.loc 17 317 1 view .LVU1214
 4832 0050 7047     		bx	lr
 4833              	.LVL290:
 4834              	.L331:
 4835              		.loc 17 317 1 view .LVU1215
 4836 0052 7047     		bx	lr
 4837              	.LVL291:
 4838              	.L357:
 310:sardinia.cpp  **** 	}
 4839              		.loc 17 310 3 is_stmt 1 view .LVU1216
 310:sardinia.cpp  **** 	}
 4840              		.loc 17 310 23 is_stmt 0 view .LVU1217
 4841 0054 0C4A     		ldr	r2, .L358+20
 4842 0056 0321     		movs	r1, #3
 4843 0058 1160     		str	r1, [r2]
 4844 005a F1E7     		b	.L338
 4845              	.LVL292:
 4846              	.L356:
 306:sardinia.cpp  **** 	}
 4847              		.loc 17 306 3 is_stmt 1 view .LVU1218
 306:sardinia.cpp  **** 	}
 4848              		.loc 17 306 23 is_stmt 0 view .LVU1219
 4849 005c 0A4A     		ldr	r2, .L358+20
 4850 005e 0221     		movs	r1, #2
 4851 0060 1160     		str	r1, [r2]
 4852 0062 E8E7     		b	.L337
 4853              	.LVL293:
 4854              	.L355:
 302:sardinia.cpp  **** 	}
 4855              		.loc 17 302 3 is_stmt 1 view .LVU1220
 302:sardinia.cpp  **** 	}
 4856              		.loc 17 302 23 is_stmt 0 view .LVU1221
ARM GAS  /var/folders/m5/x8wc2gdj7z5cpgcqdsb_gkj40000gn/T//cckXFIsJ.s 			page 133


 4857 0064 084A     		ldr	r2, .L358+20
 4858 0066 0121     		movs	r1, #1
 4859 0068 1160     		str	r1, [r2]
 4860 006a DFE7     		b	.L336
 4861              	.LVL294:
 4862              	.L353:
 295:sardinia.cpp  **** 		}
 4863              		.loc 17 295 4 is_stmt 1 view .LVU1222
 295:sardinia.cpp  **** 		}
 4864              		.loc 17 295 26 is_stmt 0 view .LVU1223
 4865 006c 034B     		ldr	r3, .L358+8
 4866 006e 1A70     		strb	r2, [r3]
 4867 0070 D6E7     		b	.L332
 4868              	.L359:
 4869 0072 00BF     		.align	2
 4870              	.L358:
 4871 0074 00000000 		.word	.LANCHOR43
 4872 0078 00000000 		.word	.LANCHOR1
 4873 007c 00000000 		.word	.LANCHOR46
 4874 0080 00000000 		.word	.LANCHOR11
 4875 0084 00000000 		.word	.LANCHOR12
 4876 0088 00000000 		.word	.LANCHOR44
 4877              		.cfi_endproc
 4878              	.LFE4715:
 4880              		.section	.text._Z17ProcessControlsARv,"ax",%progbits
 4881              		.align	1
 4882              		.p2align 2,,3
 4883              		.global	_Z17ProcessControlsARv
 4884              		.syntax unified
 4885              		.thumb
 4886              		.thumb_func
 4888              	_Z17ProcessControlsARv:
 4889              	.LFB4713:
 178:sardinia.cpp  **** 	// All control keys must be updated at same clock cycle 
 4890              		.loc 17 178 1 is_stmt 1 view -0
 4891              		.cfi_startproc
 4892              		@ args = 0, pretend = 0, frame = 0
 4893              		@ frame_needed = 0, uses_anonymous_args = 0
 181:sardinia.cpp  **** 	ModeSelect();
 4894              		.loc 17 181 2 view .LVU1225
 4895              	.LBB844:
 4896              	.LBI844:
 318:sardinia.cpp  **** 
 319:sardinia.cpp  **** void UpdateKeys()
 320:sardinia.cpp  **** {
 321:sardinia.cpp  **** 	for(int i = 0; i < 8; i++)
 322:sardinia.cpp  **** 	{
 323:sardinia.cpp  **** 		keyStates[i] = hw.adc.GetMuxFloat(1, i) < 0.5f;
 324:sardinia.cpp  **** 	}
 325:sardinia.cpp  **** 	for(int i = 8; i < 16; i++)
 326:sardinia.cpp  **** 	{
 327:sardinia.cpp  **** 		keyStates[i] = hw.adc.GetMuxFloat(2, i - 8) < 0.5f;
 328:sardinia.cpp  **** 	}
 329:sardinia.cpp  **** 	for(int i = 16; i < 24; i++)
 330:sardinia.cpp  **** 	{
 331:sardinia.cpp  **** 		keyStates[i] = hw.adc.GetMuxFloat(3, i - 16) < 0.5f;
 332:sardinia.cpp  **** 	}
ARM GAS  /var/folders/m5/x8wc2gdj7z5cpgcqdsb_gkj40000gn/T//cckXFIsJ.s 			page 134


 333:sardinia.cpp  **** 	for(int i = 24; i < 32; i++)
 334:sardinia.cpp  **** 	{
 335:sardinia.cpp  **** 		keyStates[i] = hw.adc.GetMuxFloat(4, i - 24) < 0.5f;
 336:sardinia.cpp  **** 	}
 337:sardinia.cpp  **** 	noteKey = FindFirstPressedKey();
 338:sardinia.cpp  **** }
 339:sardinia.cpp  **** 
 340:sardinia.cpp  **** void UpdateControlButtons()
 4897              		.loc 17 340 6 view .LVU1226
 4898              	.LBE844:
 341:sardinia.cpp  **** {
 342:sardinia.cpp  **** 	for(int i = 0; i < 8; i++)
 4899              		.loc 17 342 2 view .LVU1227
 4900              	.LVL295:
 4901              	.LBB847:
 4902              	.LBB845:
 4903              		.loc 17 342 19 view .LVU1228
 4904              	.LBE845:
 4905              	.LBE847:
 178:sardinia.cpp  **** 	// All control keys must be updated at same clock cycle 
 4906              		.loc 17 178 1 is_stmt 0 view .LVU1229
 4907 0000 38B5     		push	{r3, r4, r5, lr}
 4908              		.cfi_def_cfa_offset 16
 4909              		.cfi_offset 3, -16
 4910              		.cfi_offset 4, -12
 4911              		.cfi_offset 5, -8
 4912              		.cfi_offset 14, -4
 4913 0002 304D     		ldr	r5, .L386
 4914              	.LBB848:
 4915              	.LBB846:
 4916              		.loc 17 342 10 view .LVU1230
 4917 0004 0024     		movs	r4, #0
 4918              	.LVL296:
 4919              	.L361:
 343:sardinia.cpp  **** 	{
 344:sardinia.cpp  **** 		controlButtonStates[i] = hw.adc.GetMuxFloat(5, i) < 0.5f;
 4920              		.loc 17 344 3 is_stmt 1 view .LVU1231
 4921              		.loc 17 344 46 is_stmt 0 view .LVU1232
 4922 0006 E2B2     		uxtb	r2, r4
 4923 0008 0521     		movs	r1, #5
 4924 000a 2F48     		ldr	r0, .L386+4
 342:sardinia.cpp  **** 	{
 4925              		.loc 17 342 2 view .LVU1233
 4926 000c 0134     		adds	r4, r4, #1
 4927              	.LVL297:
 4928              		.loc 17 344 46 view .LVU1234
 4929 000e FFF7FEFF 		bl	_ZNK5daisy9AdcHandle11GetMuxFloatEhh
 4930              	.LVL298:
 4931              		.loc 17 344 53 view .LVU1235
 4932 0012 F6EE007A 		vmov.f32	s15, #5.0e-1
 4933 0016 B4EEE70A 		vcmpe.f32	s0, s15
 4934 001a F1EE10FA 		vmrs	APSR_nzcv, FPSCR
 4935 001e 4CBF     		ite	mi
 4936 0020 0123     		movmi	r3, #1
 4937 0022 0023     		movpl	r3, #0
 342:sardinia.cpp  **** 	{
 4938              		.loc 17 342 19 view .LVU1236
ARM GAS  /var/folders/m5/x8wc2gdj7z5cpgcqdsb_gkj40000gn/T//cckXFIsJ.s 			page 135


 4939 0024 082C     		cmp	r4, #8
 4940              		.loc 17 344 53 view .LVU1237
 4941 0026 05F8013F 		strb	r3, [r5, #1]!
 342:sardinia.cpp  **** 	{
 4942              		.loc 17 342 2 is_stmt 1 view .LVU1238
 4943              	.LVL299:
 342:sardinia.cpp  **** 	{
 4944              		.loc 17 342 19 view .LVU1239
 4945 002a ECD1     		bne	.L361
 4946              	.LVL300:
 342:sardinia.cpp  **** 	{
 4947              		.loc 17 342 19 is_stmt 0 view .LVU1240
 4948              	.LBE846:
 4949              	.LBE848:
 182:sardinia.cpp  **** 
 4950              		.loc 17 182 2 is_stmt 1 view .LVU1241
 4951              	.LBB849:
 4952              	.LBI849:
 345:sardinia.cpp  **** 	}
 346:sardinia.cpp  **** }
 347:sardinia.cpp  **** 
 348:sardinia.cpp  **** void RecordControlButtonStates()
 349:sardinia.cpp  **** {
 350:sardinia.cpp  **** 	for(int i = 0; i < 8; i++)
 351:sardinia.cpp  **** 	{
 352:sardinia.cpp  **** 		prevControlButtonStates[i] = controlButtonStates[i];
 353:sardinia.cpp  **** 	}
 354:sardinia.cpp  **** }
 355:sardinia.cpp  **** 
 356:sardinia.cpp  **** void ModeSelect()
 4953              		.loc 17 356 6 view .LVU1242
 4954              	.LBE849:
 357:sardinia.cpp  **** {
 358:sardinia.cpp  **** 	if(RisingEdge_ControlButtons(2)) // Adjusts the output amplitude based on the knob
 4955              		.loc 17 358 2 view .LVU1243
 4956              	.LBB865:
 4957              	.LBB850:
 4958              	.LBI850:
 123:hardware.h    **** bool RisingEdge_ControlButtons(int buttonNum)
 4959              		.loc 14 123 6 view .LVU1244
 4960              	.LBB851:
 125:hardware.h    **** 	if(controlButtonStates[buttonNum] == true && prevControlButtonStates[buttonNum] == false)
 4961              		.loc 14 125 2 view .LVU1245
 125:hardware.h    **** 	if(controlButtonStates[buttonNum] == true && prevControlButtonStates[buttonNum] == false)
 4962              		.loc 14 125 34 is_stmt 0 view .LVU1246
 4963 002c 274C     		ldr	r4, .L386+8
 125:hardware.h    **** 	if(controlButtonStates[buttonNum] == true && prevControlButtonStates[buttonNum] == false)
 4964              		.loc 14 125 2 view .LVU1247
 4965 002e A378     		ldrb	r3, [r4, #2]	@ zero_extendqisi2
 4966 0030 D3B1     		cbz	r3, .L362
 125:hardware.h    **** 	if(controlButtonStates[buttonNum] == true && prevControlButtonStates[buttonNum] == false)
 4967              		.loc 14 125 80 view .LVU1248
 4968 0032 274B     		ldr	r3, .L386+12
 125:hardware.h    **** 	if(controlButtonStates[buttonNum] == true && prevControlButtonStates[buttonNum] == false)
 4969              		.loc 14 125 44 view .LVU1249
 4970 0034 9A78     		ldrb	r2, [r3, #2]	@ zero_extendqisi2
 4971 0036 BAB9     		cbnz	r2, .L362
ARM GAS  /var/folders/m5/x8wc2gdj7z5cpgcqdsb_gkj40000gn/T//cckXFIsJ.s 			page 136


 4972              	.LVL301:
 4973              	.L380:
 125:hardware.h    **** 	if(controlButtonStates[buttonNum] == true && prevControlButtonStates[buttonNum] == false)
 4974              		.loc 14 125 44 view .LVU1250
 4975              	.LBE851:
 4976              	.LBE850:
 4977              	.LBE865:
 184:sardinia.cpp  **** 	{
 4978              		.loc 17 184 2 is_stmt 1 view .LVU1251
 4979              	.LBB866:
 4980              	.LBI866:
 123:hardware.h    **** bool RisingEdge_ControlButtons(int buttonNum)
 4981              		.loc 14 123 6 view .LVU1252
 4982              	.LBB867:
 125:hardware.h    **** 	if(controlButtonStates[buttonNum] == true && prevControlButtonStates[buttonNum] == false)
 4983              		.loc 14 125 2 view .LVU1253
 4984              	.LBE867:
 4985              	.LBE866:
 4986              	.LBB871:
 4987              	.LBB853:
 4988              	.LBB854:
 4989              	.LBB855:
 133:display.h     **** 	}
 4990              		.loc 15 133 8 is_stmt 0 view .LVU1254
 4991 0038 2649     		ldr	r1, .L386+16
 4992              		.loc 15 135 1 view .LVU1255
 4993 003a 1346     		mov	r3, r2
 133:display.h     **** 	}
 4994              		.loc 15 133 8 view .LVU1256
 4995 003c 0A70     		strb	r2, [r1]
 4996              	.LBE855:
 4997              	.LBE854:
 4998              	.LBE853:
 4999              	.LBE871:
 5000              	.LBB872:
 5001              	.LBB868:
 125:hardware.h    **** 	if(controlButtonStates[buttonNum] == true && prevControlButtonStates[buttonNum] == false)
 5002              		.loc 14 125 34 view .LVU1257
 5003 003e 2278     		ldrb	r2, [r4]	@ zero_extendqisi2
 125:hardware.h    **** 	if(controlButtonStates[buttonNum] == true && prevControlButtonStates[buttonNum] == false)
 5004              		.loc 14 125 2 view .LVU1258
 5005 0040 002A     		cmp	r2, #0
 5006 0042 2DD0     		beq	.L366
 5007              	.L385:
 125:hardware.h    **** 	if(controlButtonStates[buttonNum] == true && prevControlButtonStates[buttonNum] == false)
 5008              		.loc 14 125 80 view .LVU1259
 5009 0044 2249     		ldr	r1, .L386+12
 125:hardware.h    **** 	if(controlButtonStates[buttonNum] == true && prevControlButtonStates[buttonNum] == false)
 5010              		.loc 14 125 44 view .LVU1260
 5011 0046 0978     		ldrb	r1, [r1]	@ zero_extendqisi2
 5012 0048 A9B1     		cbz	r1, .L381
 5013              	.LVL302:
 5014              	.L367:
 125:hardware.h    **** 	if(controlButtonStates[buttonNum] == true && prevControlButtonStates[buttonNum] == false)
 5015              		.loc 14 125 44 view .LVU1261
 5016              	.LBE868:
 5017              	.LBE872:
ARM GAS  /var/folders/m5/x8wc2gdj7z5cpgcqdsb_gkj40000gn/T//cckXFIsJ.s 			page 137


 204:sardinia.cpp  **** 	{
 5018              		.loc 17 204 2 is_stmt 1 view .LVU1262
 5019 004a 03B3     		cbz	r3, .L382
 5020              	.L369:
 208:sardinia.cpp  **** 	{
 5021              		.loc 17 208 7 view .LVU1263
 5022 004c 012B     		cmp	r3, #1
 5023 004e 35D0     		beq	.L383
 5024              	.L370:
 5025 0050 214B     		ldr	r3, .L386+20
 5026 0052 2249     		ldr	r1, .L386+24
 5027 0054 03F10800 		add	r0, r3, #8
 5028 0058 01E0     		b	.L372
 5029              	.LVL303:
 5030              	.L384:
 5031              	.LBB873:
 5032              	.LBB874:
 352:sardinia.cpp  **** 	}
 5033              		.loc 17 352 53 is_stmt 0 view .LVU1264
 5034 005a 11F8012B 		ldrb	r2, [r1], #1	@ zero_extendqisi2
 5035              	.LVL304:
 5036              	.L372:
 352:sardinia.cpp  **** 	}
 5037              		.loc 17 352 3 is_stmt 1 view .LVU1265
 352:sardinia.cpp  **** 	}
 5038              		.loc 17 352 30 is_stmt 0 view .LVU1266
 5039 005e 03F8012F 		strb	r2, [r3, #1]!
 5040              	.LVL305:
 350:sardinia.cpp  **** 	{
 5041              		.loc 17 350 2 is_stmt 1 view .LVU1267
 350:sardinia.cpp  **** 	{
 5042              		.loc 17 350 19 view .LVU1268
 5043 0062 8342     		cmp	r3, r0
 5044 0064 F9D1     		bne	.L384
 5045              	.LBE874:
 5046              	.LBE873:
 214:sardinia.cpp  **** 
 5047              		.loc 17 214 1 is_stmt 0 view .LVU1269
 5048 0066 38BD     		pop	{r3, r4, r5, pc}
 5049              	.LVL306:
 5050              	.L362:
 5051              	.LBB877:
 5052              	.LBB860:
 5053              	.LBB852:
 131:hardware.h    **** 		return false;
 5054              		.loc 14 131 3 is_stmt 1 view .LVU1270
 131:hardware.h    **** 		return false;
 5055              		.loc 14 131 3 is_stmt 0 view .LVU1271
 5056              	.LBE852:
 5057              	.LBE860:
 5058              	.LBE877:
 359:sardinia.cpp  **** 	{
 360:sardinia.cpp  **** 		UpdateMode(0);
 361:sardinia.cpp  **** 	}
 362:sardinia.cpp  **** 	else if(RisingEdge_ControlButtons(3))
 5059              		.loc 17 362 7 is_stmt 1 view .LVU1272
 5060              	.LBB878:
ARM GAS  /var/folders/m5/x8wc2gdj7z5cpgcqdsb_gkj40000gn/T//cckXFIsJ.s 			page 138


 5061              	.LBB861:
 5062              	.LBI861:
 123:hardware.h    **** bool RisingEdge_ControlButtons(int buttonNum)
 5063              		.loc 14 123 6 view .LVU1273
 5064              	.LBB862:
 125:hardware.h    **** 	if(controlButtonStates[buttonNum] == true && prevControlButtonStates[buttonNum] == false)
 5065              		.loc 14 125 2 view .LVU1274
 5066 0068 E378     		ldrb	r3, [r4, #3]	@ zero_extendqisi2
 5067 006a A3B1     		cbz	r3, .L365
 5068              	.LBE862:
 5069              	.LBE861:
 5070              	.LBB863:
 5071              	.LBI853:
 356:sardinia.cpp  **** {
 5072              		.loc 17 356 6 view .LVU1275
 5073              	.LBB857:
 5074              	.LBB858:
 125:hardware.h    **** 	if(controlButtonStates[buttonNum] == true && prevControlButtonStates[buttonNum] == false)
 5075              		.loc 14 125 80 is_stmt 0 view .LVU1276
 5076 006c 184B     		ldr	r3, .L386+12
 125:hardware.h    **** 	if(controlButtonStates[buttonNum] == true && prevControlButtonStates[buttonNum] == false)
 5077              		.loc 14 125 44 view .LVU1277
 5078 006e DB78     		ldrb	r3, [r3, #3]	@ zero_extendqisi2
 5079 0070 8BB9     		cbnz	r3, .L365
 5080              	.LBE858:
 5081              	.LBE857:
 5082              	.LBE863:
 5083              	.LBE878:
 363:sardinia.cpp  **** 	{
 364:sardinia.cpp  **** 		UpdateMode(1);
 5084              		.loc 17 364 3 is_stmt 1 view .LVU1278
 5085              	.LVL307:
 5086              	.LBB879:
 5087              	.LBB864:
 5088              	.LBB859:
 5089              	.LBI854:
 125:display.h     **** {
 5090              		.loc 15 125 6 view .LVU1279
 5091              	.LBB856:
 127:display.h     **** 	{
 5092              		.loc 15 127 2 view .LVU1280
 131:display.h     **** 	{
 5093              		.loc 15 131 7 view .LVU1281
 133:display.h     **** 	}
 5094              		.loc 15 133 3 view .LVU1282
 133:display.h     **** 	}
 5095              		.loc 15 133 8 is_stmt 0 view .LVU1283
 5096 0072 0122     		movs	r2, #1
 5097 0074 E0E7     		b	.L380
 5098              	.LVL308:
 5099              	.L381:
 133:display.h     **** 	}
 5100              		.loc 15 133 8 view .LVU1284
 5101              	.LBE856:
 5102              	.LBE859:
 5103              	.LBE864:
 5104              	.LBE879:
ARM GAS  /var/folders/m5/x8wc2gdj7z5cpgcqdsb_gkj40000gn/T//cckXFIsJ.s 			page 139


 186:sardinia.cpp  **** 		{
 5105              		.loc 17 186 3 is_stmt 1 view .LVU1285
 186:sardinia.cpp  **** 		{
 5106              		.loc 17 186 16 is_stmt 0 view .LVU1286
 5107 0076 1A49     		ldr	r1, .L386+28
 186:sardinia.cpp  **** 		{
 5108              		.loc 17 186 3 view .LVU1287
 5109 0078 0878     		ldrb	r0, [r1]	@ zero_extendqisi2
 5110 007a D0B9     		cbnz	r0, .L368
 188:sardinia.cpp  **** 			isPlaying = true;
 5111              		.loc 17 188 4 is_stmt 1 view .LVU1288
 189:sardinia.cpp  **** 			playButtonOverrule = true;
 5112              		.loc 17 189 14 is_stmt 0 view .LVU1289
 5113 007c 0120     		movs	r0, #1
 188:sardinia.cpp  **** 			isPlaying = true;
 5114              		.loc 17 188 24 view .LVU1290
 5115 007e 194D     		ldr	r5, .L386+32
 189:sardinia.cpp  **** 			playButtonOverrule = true;
 5116              		.loc 17 189 14 view .LVU1291
 5117 0080 0870     		strb	r0, [r1]
 188:sardinia.cpp  **** 			isPlaying = true;
 5118              		.loc 17 188 24 view .LVU1292
 5119 0082 0021     		movs	r1, #0
 5120 0084 2960     		str	r1, [r5]	@ float
 189:sardinia.cpp  **** 			playButtonOverrule = true;
 5121              		.loc 17 189 4 is_stmt 1 view .LVU1293
 190:sardinia.cpp  **** 		}
 5122              		.loc 17 190 4 view .LVU1294
 190:sardinia.cpp  **** 		}
 5123              		.loc 17 190 23 is_stmt 0 view .LVU1295
 5124 0086 1849     		ldr	r1, .L386+36
 5125 0088 0870     		strb	r0, [r1]
 204:sardinia.cpp  **** 	{
 5126              		.loc 17 204 2 is_stmt 1 view .LVU1296
 5127 008a 002B     		cmp	r3, #0
 5128 008c DED1     		bne	.L369
 5129              	.L382:
 206:sardinia.cpp  **** 	}
 5130              		.loc 17 206 3 view .LVU1297
 206:sardinia.cpp  **** 	}
 5131              		.loc 17 206 21 is_stmt 0 view .LVU1298
 5132 008e FFF7FEFF 		bl	_Z18RecordModeControlsv
 5133              	.LVL309:
 5134              	.LBB880:
 5135              	.LBB875:
 352:sardinia.cpp  **** 	}
 5136              		.loc 17 352 53 view .LVU1299
 5137 0092 2278     		ldrb	r2, [r4]	@ zero_extendqisi2
 5138              	.LBE875:
 5139              	.LBE880:
 5140 0094 DCE7     		b	.L370
 5141              	.LVL310:
 5142              	.L365:
 204:sardinia.cpp  **** 	{
 5143              		.loc 17 204 10 view .LVU1300
 5144 0096 0F4B     		ldr	r3, .L386+16
 5145              	.LBB881:
ARM GAS  /var/folders/m5/x8wc2gdj7z5cpgcqdsb_gkj40000gn/T//cckXFIsJ.s 			page 140


 5146              	.LBB869:
 125:hardware.h    **** 	if(controlButtonStates[buttonNum] == true && prevControlButtonStates[buttonNum] == false)
 5147              		.loc 14 125 34 view .LVU1301
 5148 0098 2278     		ldrb	r2, [r4]	@ zero_extendqisi2
 5149              	.LBE869:
 5150              	.LBE881:
 204:sardinia.cpp  **** 	{
 5151              		.loc 17 204 10 view .LVU1302
 5152 009a 1B78     		ldrb	r3, [r3]	@ zero_extendqisi2
 5153              	.LVL311:
 184:sardinia.cpp  **** 	{
 5154              		.loc 17 184 2 is_stmt 1 view .LVU1303
 5155              	.LBB882:
 123:hardware.h    **** bool RisingEdge_ControlButtons(int buttonNum)
 5156              		.loc 14 123 6 view .LVU1304
 5157              	.LBB870:
 125:hardware.h    **** 	if(controlButtonStates[buttonNum] == true && prevControlButtonStates[buttonNum] == false)
 5158              		.loc 14 125 2 view .LVU1305
 5159 009c 002A     		cmp	r2, #0
 5160 009e D1D1     		bne	.L385
 5161              	.L366:
 131:hardware.h    **** 		return false;
 5162              		.loc 14 131 3 view .LVU1306
 5163              	.LVL312:
 131:hardware.h    **** 		return false;
 5164              		.loc 14 131 3 is_stmt 0 view .LVU1307
 5165              	.LBE870:
 5166              	.LBE882:
 198:sardinia.cpp  **** 	{
 5167              		.loc 17 198 7 is_stmt 1 view .LVU1308
 198:sardinia.cpp  **** 	{
 5168              		.loc 17 198 29 is_stmt 0 view .LVU1309
 5169 00a0 1049     		ldr	r1, .L386+32
 198:sardinia.cpp  **** 	{
 5170              		.loc 17 198 7 view .LVU1310
 5171 00a2 D1ED007A 		vldr.32	s15, [r1]
 5172 00a6 F5EE407A 		vcmp.f32	s15, #0
 5173 00aa F1EE10FA 		vmrs	APSR_nzcv, FPSCR
 5174 00ae CCD1     		bne	.L367
 5175 00b0 0B49     		ldr	r1, .L386+28
 5176              	.L368:
 194:sardinia.cpp  **** 			playButtonOverrule = false;
 5177              		.loc 17 194 4 is_stmt 1 view .LVU1311
 194:sardinia.cpp  **** 			playButtonOverrule = false;
 5178              		.loc 17 194 14 is_stmt 0 view .LVU1312
 5179 00b2 0020     		movs	r0, #0
 5180 00b4 0870     		strb	r0, [r1]
 195:sardinia.cpp  **** 		}
 5181              		.loc 17 195 4 is_stmt 1 view .LVU1313
 195:sardinia.cpp  **** 		}
 5182              		.loc 17 195 23 is_stmt 0 view .LVU1314
 5183 00b6 0C49     		ldr	r1, .L386+36
 5184 00b8 0870     		strb	r0, [r1]
 5185 00ba C6E7     		b	.L367
 5186              	.L383:
 210:sardinia.cpp  **** 	}
 5187              		.loc 17 210 3 is_stmt 1 view .LVU1315
ARM GAS  /var/folders/m5/x8wc2gdj7z5cpgcqdsb_gkj40000gn/T//cckXFIsJ.s 			page 141


 210:sardinia.cpp  **** 	}
 5188              		.loc 17 210 19 is_stmt 0 view .LVU1316
 5189 00bc FFF7FEFF 		bl	_Z16PlayModeControlsv
 5190              	.LVL313:
 5191              	.LBB883:
 5192              	.LBB876:
 352:sardinia.cpp  **** 	}
 5193              		.loc 17 352 53 view .LVU1317
 5194 00c0 2278     		ldrb	r2, [r4]	@ zero_extendqisi2
 5195              	.LBE876:
 5196              	.LBE883:
 5197 00c2 C5E7     		b	.L370
 5198              	.L387:
 5199              		.align	2
 5200              	.L386:
 5201 00c4 FFFFFFFF 		.word	.LANCHOR11-1
 5202 00c8 18000000 		.word	.LANCHOR38+24
 5203 00cc 00000000 		.word	.LANCHOR11
 5204 00d0 00000000 		.word	.LANCHOR12
 5205 00d4 00000000 		.word	.LANCHOR31
 5206 00d8 FFFFFFFF 		.word	.LANCHOR12-1
 5207 00dc 01000000 		.word	.LANCHOR11+1
 5208 00e0 00000000 		.word	.LANCHOR45
 5209 00e4 00000000 		.word	.LANCHOR17
 5210 00e8 00000000 		.word	.LANCHOR43
 5211              		.cfi_endproc
 5212              	.LFE4713:
 5214              		.section	.text._Z10UpdateKeysv,"ax",%progbits
 5215              		.align	1
 5216              		.p2align 2,,3
 5217              		.global	_Z10UpdateKeysv
 5218              		.syntax unified
 5219              		.thumb
 5220              		.thumb_func
 5222              	_Z10UpdateKeysv:
 5223              	.LFB4716:
 320:sardinia.cpp  **** 	for(int i = 0; i < 8; i++)
 5224              		.loc 17 320 1 is_stmt 1 view -0
 5225              		.cfi_startproc
 5226              		@ args = 0, pretend = 0, frame = 0
 5227              		@ frame_needed = 0, uses_anonymous_args = 0
 321:sardinia.cpp  **** 	{
 5228              		.loc 17 321 2 view .LVU1319
 5229              	.LVL314:
 5230              	.LBB884:
 321:sardinia.cpp  **** 	{
 5231              		.loc 17 321 19 view .LVU1320
 5232              	.LBE884:
 320:sardinia.cpp  **** 	for(int i = 0; i < 8; i++)
 5233              		.loc 17 320 1 is_stmt 0 view .LVU1321
 5234 0000 38B5     		push	{r3, r4, r5, lr}
 5235              		.cfi_def_cfa_offset 16
 5236              		.cfi_offset 3, -16
 5237              		.cfi_offset 4, -12
 5238              		.cfi_offset 5, -8
 5239              		.cfi_offset 14, -4
 5240 0002 334D     		ldr	r5, .L403
ARM GAS  /var/folders/m5/x8wc2gdj7z5cpgcqdsb_gkj40000gn/T//cckXFIsJ.s 			page 142


 5241              	.LBB885:
 321:sardinia.cpp  **** 	{
 5242              		.loc 17 321 10 view .LVU1322
 5243 0004 0024     		movs	r4, #0
 5244              	.LVL315:
 5245              	.L389:
 323:sardinia.cpp  **** 	}
 5246              		.loc 17 323 3 is_stmt 1 discriminator 2 view .LVU1323
 323:sardinia.cpp  **** 	}
 5247              		.loc 17 323 36 is_stmt 0 discriminator 2 view .LVU1324
 5248 0006 0121     		movs	r1, #1
 5249 0008 E2B2     		uxtb	r2, r4
 5250 000a 3248     		ldr	r0, .L403+4
 321:sardinia.cpp  **** 	{
 5251              		.loc 17 321 2 discriminator 2 view .LVU1325
 5252 000c 0C44     		add	r4, r4, r1
 5253              	.LVL316:
 323:sardinia.cpp  **** 	}
 5254              		.loc 17 323 36 discriminator 2 view .LVU1326
 5255 000e FFF7FEFF 		bl	_ZNK5daisy9AdcHandle11GetMuxFloatEhh
 5256              	.LVL317:
 323:sardinia.cpp  **** 	}
 5257              		.loc 17 323 43 discriminator 2 view .LVU1327
 5258 0012 F6EE007A 		vmov.f32	s15, #5.0e-1
 5259 0016 B4EEE70A 		vcmpe.f32	s0, s15
 5260 001a F1EE10FA 		vmrs	APSR_nzcv, FPSCR
 5261 001e 4CBF     		ite	mi
 5262 0020 0123     		movmi	r3, #1
 5263 0022 0023     		movpl	r3, #0
 321:sardinia.cpp  **** 	{
 5264              		.loc 17 321 19 discriminator 2 view .LVU1328
 5265 0024 082C     		cmp	r4, #8
 323:sardinia.cpp  **** 	}
 5266              		.loc 17 323 43 discriminator 2 view .LVU1329
 5267 0026 05F8013F 		strb	r3, [r5, #1]!
 321:sardinia.cpp  **** 	{
 5268              		.loc 17 321 2 is_stmt 1 discriminator 2 view .LVU1330
 5269              	.LVL318:
 321:sardinia.cpp  **** 	{
 5270              		.loc 17 321 19 discriminator 2 view .LVU1331
 5271 002a ECD1     		bne	.L389
 5272 002c 2A4D     		ldr	r5, .L403+8
 321:sardinia.cpp  **** 	{
 5273              		.loc 17 321 19 is_stmt 0 view .LVU1332
 5274 002e 0024     		movs	r4, #0
 5275              	.LVL319:
 5276              	.L390:
 321:sardinia.cpp  **** 	{
 5277              		.loc 17 321 19 view .LVU1333
 5278              	.LBE885:
 5279              	.LBB886:
 327:sardinia.cpp  **** 	}
 5280              		.loc 17 327 3 is_stmt 1 discriminator 2 view .LVU1334
 327:sardinia.cpp  **** 	}
 5281              		.loc 17 327 36 is_stmt 0 discriminator 2 view .LVU1335
 5282 0030 E2B2     		uxtb	r2, r4
 5283 0032 0221     		movs	r1, #2
ARM GAS  /var/folders/m5/x8wc2gdj7z5cpgcqdsb_gkj40000gn/T//cckXFIsJ.s 			page 143


 5284 0034 2748     		ldr	r0, .L403+4
 325:sardinia.cpp  **** 	{
 5285              		.loc 17 325 19 discriminator 2 view .LVU1336
 5286 0036 0134     		adds	r4, r4, #1
 5287              	.LVL320:
 327:sardinia.cpp  **** 	}
 5288              		.loc 17 327 36 discriminator 2 view .LVU1337
 5289 0038 FFF7FEFF 		bl	_ZNK5daisy9AdcHandle11GetMuxFloatEhh
 5290              	.LVL321:
 327:sardinia.cpp  **** 	}
 5291              		.loc 17 327 47 discriminator 2 view .LVU1338
 5292 003c F6EE007A 		vmov.f32	s15, #5.0e-1
 5293 0040 B4EEE70A 		vcmpe.f32	s0, s15
 5294 0044 F1EE10FA 		vmrs	APSR_nzcv, FPSCR
 5295 0048 4CBF     		ite	mi
 5296 004a 0123     		movmi	r3, #1
 5297 004c 0023     		movpl	r3, #0
 325:sardinia.cpp  **** 	{
 5298              		.loc 17 325 19 discriminator 2 view .LVU1339
 5299 004e 082C     		cmp	r4, #8
 327:sardinia.cpp  **** 	}
 5300              		.loc 17 327 47 discriminator 2 view .LVU1340
 5301 0050 05F8013B 		strb	r3, [r5], #1
 325:sardinia.cpp  **** 	{
 5302              		.loc 17 325 2 is_stmt 1 discriminator 2 view .LVU1341
 5303              	.LVL322:
 325:sardinia.cpp  **** 	{
 5304              		.loc 17 325 19 discriminator 2 view .LVU1342
 5305 0054 ECD1     		bne	.L390
 5306 0056 214D     		ldr	r5, .L403+12
 325:sardinia.cpp  **** 	{
 5307              		.loc 17 325 19 is_stmt 0 view .LVU1343
 5308 0058 0024     		movs	r4, #0
 5309              	.L391:
 5310              	.LVL323:
 325:sardinia.cpp  **** 	{
 5311              		.loc 17 325 19 view .LVU1344
 5312              	.LBE886:
 5313              	.LBB887:
 331:sardinia.cpp  **** 	}
 5314              		.loc 17 331 3 is_stmt 1 discriminator 2 view .LVU1345
 331:sardinia.cpp  **** 	}
 5315              		.loc 17 331 36 is_stmt 0 discriminator 2 view .LVU1346
 5316 005a E2B2     		uxtb	r2, r4
 5317 005c 0321     		movs	r1, #3
 5318 005e 1D48     		ldr	r0, .L403+4
 329:sardinia.cpp  **** 	{
 5319              		.loc 17 329 20 discriminator 2 view .LVU1347
 5320 0060 0134     		adds	r4, r4, #1
 5321              	.LVL324:
 331:sardinia.cpp  **** 	}
 5322              		.loc 17 331 36 discriminator 2 view .LVU1348
 5323 0062 FFF7FEFF 		bl	_ZNK5daisy9AdcHandle11GetMuxFloatEhh
 5324              	.LVL325:
 331:sardinia.cpp  **** 	}
 5325              		.loc 17 331 48 discriminator 2 view .LVU1349
 5326 0066 F6EE007A 		vmov.f32	s15, #5.0e-1
ARM GAS  /var/folders/m5/x8wc2gdj7z5cpgcqdsb_gkj40000gn/T//cckXFIsJ.s 			page 144


 5327 006a B4EEE70A 		vcmpe.f32	s0, s15
 5328 006e F1EE10FA 		vmrs	APSR_nzcv, FPSCR
 5329 0072 4CBF     		ite	mi
 5330 0074 0123     		movmi	r3, #1
 5331 0076 0023     		movpl	r3, #0
 329:sardinia.cpp  **** 	{
 5332              		.loc 17 329 20 discriminator 2 view .LVU1350
 5333 0078 082C     		cmp	r4, #8
 331:sardinia.cpp  **** 	}
 5334              		.loc 17 331 48 discriminator 2 view .LVU1351
 5335 007a 05F8013B 		strb	r3, [r5], #1
 329:sardinia.cpp  **** 	{
 5336              		.loc 17 329 2 is_stmt 1 discriminator 2 view .LVU1352
 5337              	.LVL326:
 329:sardinia.cpp  **** 	{
 5338              		.loc 17 329 20 discriminator 2 view .LVU1353
 5339 007e ECD1     		bne	.L391
 5340 0080 174D     		ldr	r5, .L403+16
 329:sardinia.cpp  **** 	{
 5341              		.loc 17 329 20 is_stmt 0 view .LVU1354
 5342 0082 0024     		movs	r4, #0
 5343              	.L392:
 5344              	.LVL327:
 329:sardinia.cpp  **** 	{
 5345              		.loc 17 329 20 view .LVU1355
 5346              	.LBE887:
 5347              	.LBB888:
 335:sardinia.cpp  **** 	}
 5348              		.loc 17 335 3 is_stmt 1 discriminator 2 view .LVU1356
 335:sardinia.cpp  **** 	}
 5349              		.loc 17 335 36 is_stmt 0 discriminator 2 view .LVU1357
 5350 0084 E2B2     		uxtb	r2, r4
 5351 0086 0421     		movs	r1, #4
 5352 0088 1248     		ldr	r0, .L403+4
 333:sardinia.cpp  **** 	{
 5353              		.loc 17 333 20 discriminator 2 view .LVU1358
 5354 008a 0134     		adds	r4, r4, #1
 5355              	.LVL328:
 335:sardinia.cpp  **** 	}
 5356              		.loc 17 335 36 discriminator 2 view .LVU1359
 5357 008c FFF7FEFF 		bl	_ZNK5daisy9AdcHandle11GetMuxFloatEhh
 5358              	.LVL329:
 335:sardinia.cpp  **** 	}
 5359              		.loc 17 335 48 discriminator 2 view .LVU1360
 5360 0090 F6EE007A 		vmov.f32	s15, #5.0e-1
 5361 0094 B4EEE70A 		vcmpe.f32	s0, s15
 5362 0098 F1EE10FA 		vmrs	APSR_nzcv, FPSCR
 5363 009c 4CBF     		ite	mi
 5364 009e 0123     		movmi	r3, #1
 5365 00a0 0023     		movpl	r3, #0
 333:sardinia.cpp  **** 	{
 5366              		.loc 17 333 20 discriminator 2 view .LVU1361
 5367 00a2 082C     		cmp	r4, #8
 335:sardinia.cpp  **** 	}
 5368              		.loc 17 335 48 discriminator 2 view .LVU1362
 5369 00a4 05F8013B 		strb	r3, [r5], #1
 333:sardinia.cpp  **** 	{
ARM GAS  /var/folders/m5/x8wc2gdj7z5cpgcqdsb_gkj40000gn/T//cckXFIsJ.s 			page 145


 5370              		.loc 17 333 2 is_stmt 1 discriminator 2 view .LVU1363
 5371              	.LVL330:
 333:sardinia.cpp  **** 	{
 5372              		.loc 17 333 20 discriminator 2 view .LVU1364
 5373 00a8 ECD1     		bne	.L392
 5374 00aa 0E4A     		ldr	r2, .L403+20
 5375              	.LBE888:
 5376              	.LBB889:
 5377              	.LBB890:
 5378              	.LBB891:
 344:sampleengine.h ****     {
 5379              		.loc 13 344 13 is_stmt 0 view .LVU1365
 5380 00ac 0023     		movs	r3, #0
 5381 00ae 02E0     		b	.L394
 5382              	.LVL331:
 5383              	.L402:
 344:sampleengine.h ****     {
 5384              		.loc 13 344 5 view .LVU1366
 5385 00b0 0133     		adds	r3, r3, #1
 5386              	.LVL332:
 344:sampleengine.h ****     {
 5387              		.loc 13 344 22 is_stmt 1 view .LVU1367
 5388 00b2 202B     		cmp	r3, #32
 5389 00b4 06D0     		beq	.L401
 5390              	.LVL333:
 5391              	.L394:
 346:sampleengine.h ****         {
 5392              		.loc 13 346 9 view .LVU1368
 344:sampleengine.h ****     {
 5393              		.loc 13 344 5 view .LVU1369
 346:sampleengine.h ****         {
 5394              		.loc 13 346 23 is_stmt 0 view .LVU1370
 5395 00b6 12F8011B 		ldrb	r1, [r2], #1	@ zero_extendqisi2
 346:sampleengine.h ****         {
 5396              		.loc 13 346 9 view .LVU1371
 5397 00ba 0029     		cmp	r1, #0
 5398 00bc F8D0     		beq	.L402
 5399              	.LVL334:
 346:sampleengine.h ****         {
 5400              		.loc 13 346 9 view .LVU1372
 5401              	.LBE891:
 5402              	.LBE890:
 5403              	.LBE889:
 337:sardinia.cpp  **** }
 5404              		.loc 17 337 10 view .LVU1373
 5405 00be 0A4A     		ldr	r2, .L403+24
 5406 00c0 1360     		str	r3, [r2]
 338:sardinia.cpp  **** 
 5407              		.loc 17 338 1 view .LVU1374
 5408 00c2 38BD     		pop	{r3, r4, r5, pc}
 5409              	.LVL335:
 5410              	.L401:
 5411              	.LBB893:
 5412              	.LBB892:
 351:sampleengine.h **** }
 5413              		.loc 13 351 13 view .LVU1375
 5414 00c4 4FF0FF33 		mov	r3, #-1
ARM GAS  /var/folders/m5/x8wc2gdj7z5cpgcqdsb_gkj40000gn/T//cckXFIsJ.s 			page 146


 5415              	.LVL336:
 351:sampleengine.h **** }
 5416              		.loc 13 351 13 view .LVU1376
 5417              	.LBE892:
 5418              	.LBE893:
 337:sardinia.cpp  **** }
 5419              		.loc 17 337 10 view .LVU1377
 5420 00c8 074A     		ldr	r2, .L403+24
 5421 00ca 1360     		str	r3, [r2]
 338:sardinia.cpp  **** 
 5422              		.loc 17 338 1 view .LVU1378
 5423 00cc 38BD     		pop	{r3, r4, r5, pc}
 5424              	.L404:
 5425 00ce 00BF     		.align	2
 5426              	.L403:
 5427 00d0 FFFFFFFF 		.word	.LANCHOR1-1
 5428 00d4 18000000 		.word	.LANCHOR38+24
 5429 00d8 08000000 		.word	.LANCHOR1+8
 5430 00dc 10000000 		.word	.LANCHOR1+16
 5431 00e0 18000000 		.word	.LANCHOR1+24
 5432 00e4 00000000 		.word	.LANCHOR1
 5433 00e8 00000000 		.word	.LANCHOR47
 5434              		.cfi_endproc
 5435              	.LFE4716:
 5437              		.section	.text._Z17ProcessControlsKRv,"ax",%progbits
 5438              		.align	1
 5439              		.p2align 2,,3
 5440              		.global	_Z17ProcessControlsKRv
 5441              		.syntax unified
 5442              		.thumb
 5443              		.thumb_func
 5445              	_Z17ProcessControlsKRv:
 5446              	.LFB4712:
 139:sardinia.cpp  **** 	UpdateKeys();	
 5447              		.loc 17 139 1 is_stmt 1 view -0
 5448              		.cfi_startproc
 5449              		@ args = 0, pretend = 0, frame = 0
 5450              		@ frame_needed = 0, uses_anonymous_args = 0
 140:sardinia.cpp  **** 
 5451              		.loc 17 140 2 view .LVU1380
 139:sardinia.cpp  **** 	UpdateKeys();	
 5452              		.loc 17 139 1 is_stmt 0 view .LVU1381
 5453 0000 10B5     		push	{r4, lr}
 5454              		.cfi_def_cfa_offset 8
 5455              		.cfi_offset 4, -8
 5456              		.cfi_offset 14, -4
 142:sardinia.cpp  **** 
 5457              		.loc 17 142 18 view .LVU1382
 5458 0002 804C     		ldr	r4, .L438
 139:sardinia.cpp  **** 	UpdateKeys();	
 5459              		.loc 17 139 1 view .LVU1383
 5460 0004 2DED028B 		vpush.64	{d8}
 5461              		.cfi_def_cfa_offset 16
 5462              		.cfi_offset 80, -16
 5463              		.cfi_offset 81, -12
 140:sardinia.cpp  **** 
 5464              		.loc 17 140 12 view .LVU1384
ARM GAS  /var/folders/m5/x8wc2gdj7z5cpgcqdsb_gkj40000gn/T//cckXFIsJ.s 			page 147


 5465 0008 FFF7FEFF 		bl	_Z10UpdateKeysv
 5466              	.LVL337:
 142:sardinia.cpp  **** 
 5467              		.loc 17 142 2 is_stmt 1 view .LVU1385
 142:sardinia.cpp  **** 
 5468              		.loc 17 142 18 is_stmt 0 view .LVU1386
 5469 000c 2046     		mov	r0, r4
 5470 000e FFF7FEFF 		bl	_ZN5daisy7Encoder8DebounceEv
 5471              	.LVL338:
 144:sardinia.cpp  **** 	{
 5472              		.loc 17 144 2 is_stmt 1 view .LVU1387
 5473              	.LBB966:
 5474              	.LBI966:
 147:hardware.h    **** bool EncoderTurned()
 5475              		.loc 14 147 6 view .LVU1388
 5476              	.LBB967:
 149:hardware.h    **** 	float encoderInc = encoder.Increment();
 5477              		.loc 14 149 2 view .LVU1389
 5478              	.LBB968:
 5479              	.LBI968:
 5480              		.loc 2 36 20 view .LVU1390
 5481              	.LBB969:
 5482              		.loc 2 36 40 view .LVU1391
 5483              		.loc 2 36 56 is_stmt 0 view .LVU1392
 5484 0012 2379     		ldrb	r3, [r4, #4]	@ zero_extendqisi2
 5485 0014 002B     		cmp	r3, #0
 5486 0016 47D0     		beq	.L406
 5487 0018 636A     		ldr	r3, [r4, #36]
 5488              	.LVL339:
 5489              		.loc 2 36 56 view .LVU1393
 5490              	.LBE969:
 5491              	.LBE968:
 150:hardware.h    **** 	if(encoderInc != 0)
 5492              		.loc 14 150 2 is_stmt 1 view .LVU1394
 149:hardware.h    **** 	float encoderInc = encoder.Increment();
 5493              		.loc 14 149 39 is_stmt 0 view .LVU1395
 5494 001a 07EE903A 		vmov	s15, r3	@ int
 5495 001e F8EEE77A 		vcvt.f32.s32	s15, s15
 5496              	.LVL340:
 150:hardware.h    **** 	if(encoderInc != 0)
 5497              		.loc 14 150 2 view .LVU1396
 5498 0022 F5EE407A 		vcmp.f32	s15, #0
 5499 0026 F1EE10FA 		vmrs	APSR_nzcv, FPSCR
 5500 002a 3DD0     		beq	.L406
 5501              	.LVL341:
 150:hardware.h    **** 	if(encoderInc != 0)
 5502              		.loc 14 150 2 view .LVU1397
 5503              	.LBE967:
 5504              	.LBE966:
 146:sardinia.cpp  **** 	}
 5505              		.loc 17 146 3 is_stmt 1 view .LVU1398
 5506              		.loc 2 36 40 view .LVU1399
 5507              	.LBB970:
 5508              	.LBI970:
 100:effects.h     **** {
 5509              		.loc 16 100 6 view .LVU1400
 5510              	.LBB971:
ARM GAS  /var/folders/m5/x8wc2gdj7z5cpgcqdsb_gkj40000gn/T//cckXFIsJ.s 			page 148


 102:effects.h     ****     if(currentEffect < 0)
 5511              		.loc 16 102 5 view .LVU1401
 103:effects.h     ****     {
 5512              		.loc 16 103 5 view .LVU1402
 102:effects.h     ****     if(currentEffect < 0)
 5513              		.loc 16 102 19 is_stmt 0 view .LVU1403
 5514 002c 7649     		ldr	r1, .L438+4
 5515 002e 0A68     		ldr	r2, [r1]
 103:effects.h     ****     {
 5516              		.loc 16 103 5 view .LVU1404
 5517 0030 9B18     		adds	r3, r3, r2
 5518              	.LVL342:
 103:effects.h     ****     {
 5519              		.loc 16 103 5 view .LVU1405
 5520 0032 00F18B80 		bmi	.L435
 107:effects.h     ****     {
 5521              		.loc 16 107 10 is_stmt 1 view .LVU1406
 5522 0036 022B     		cmp	r3, #2
 5523 0038 40F3B380 		ble	.L412
 109:effects.h     ****     }
 5524              		.loc 16 109 9 view .LVU1407
 109:effects.h     ****     }
 5525              		.loc 16 109 23 is_stmt 0 view .LVU1408
 5526 003c 0022     		movs	r2, #0
 5527              	.LBE971:
 5528              	.LBE970:
 5529              	.LBB976:
 5530              	.LBB977:
 5531              	.LBB978:
  43:/Users/dominicfrugoli/Desktop/ProgrammingCode/DaisyCode/DaisyExamples/libDaisy/src/hid/switch.h **** 
  44:/Users/dominicfrugoli/Desktop/ProgrammingCode/DaisyCode/DaisyExamples/libDaisy/src/hid/switch.h ****     /** 
  45:/Users/dominicfrugoli/Desktop/ProgrammingCode/DaisyCode/DaisyExamples/libDaisy/src/hid/switch.h ****     Initializes the switch object with a given port/pin combo.
  46:/Users/dominicfrugoli/Desktop/ProgrammingCode/DaisyCode/DaisyExamples/libDaisy/src/hid/switch.h ****     \param pin port/pin object to tell the switch which hardware pin to use.
  47:/Users/dominicfrugoli/Desktop/ProgrammingCode/DaisyCode/DaisyExamples/libDaisy/src/hid/switch.h ****     \param update_rate Does nothing. Backwards compatibility until next breaking update.
  48:/Users/dominicfrugoli/Desktop/ProgrammingCode/DaisyCode/DaisyExamples/libDaisy/src/hid/switch.h ****     \param t switch type -- Default: TYPE_MOMENTARY
  49:/Users/dominicfrugoli/Desktop/ProgrammingCode/DaisyCode/DaisyExamples/libDaisy/src/hid/switch.h ****     \param pol switch polarity -- Default: POLARITY_INVERTED
  50:/Users/dominicfrugoli/Desktop/ProgrammingCode/DaisyCode/DaisyExamples/libDaisy/src/hid/switch.h ****     \param pu switch pull up/down -- Default: PULL_UP
  51:/Users/dominicfrugoli/Desktop/ProgrammingCode/DaisyCode/DaisyExamples/libDaisy/src/hid/switch.h ****     */
  52:/Users/dominicfrugoli/Desktop/ProgrammingCode/DaisyCode/DaisyExamples/libDaisy/src/hid/switch.h ****     void
  53:/Users/dominicfrugoli/Desktop/ProgrammingCode/DaisyCode/DaisyExamples/libDaisy/src/hid/switch.h ****     Init(dsy_gpio_pin pin, float update_rate, Type t, Polarity pol, Pull pu);
  54:/Users/dominicfrugoli/Desktop/ProgrammingCode/DaisyCode/DaisyExamples/libDaisy/src/hid/switch.h **** 
  55:/Users/dominicfrugoli/Desktop/ProgrammingCode/DaisyCode/DaisyExamples/libDaisy/src/hid/switch.h ****     /**
  56:/Users/dominicfrugoli/Desktop/ProgrammingCode/DaisyCode/DaisyExamples/libDaisy/src/hid/switch.h ****        Simplified Init.
  57:/Users/dominicfrugoli/Desktop/ProgrammingCode/DaisyCode/DaisyExamples/libDaisy/src/hid/switch.h ****        \param pin port/pin object to tell the switch which hardware pin to use.
  58:/Users/dominicfrugoli/Desktop/ProgrammingCode/DaisyCode/DaisyExamples/libDaisy/src/hid/switch.h ****        \param update_rate Left for backwards compatibility until next breaking change.
  59:/Users/dominicfrugoli/Desktop/ProgrammingCode/DaisyCode/DaisyExamples/libDaisy/src/hid/switch.h ****     */
  60:/Users/dominicfrugoli/Desktop/ProgrammingCode/DaisyCode/DaisyExamples/libDaisy/src/hid/switch.h ****     void Init(dsy_gpio_pin pin, float update_rate = 0.f);
  61:/Users/dominicfrugoli/Desktop/ProgrammingCode/DaisyCode/DaisyExamples/libDaisy/src/hid/switch.h **** 
  62:/Users/dominicfrugoli/Desktop/ProgrammingCode/DaisyCode/DaisyExamples/libDaisy/src/hid/switch.h ****     /** 
  63:/Users/dominicfrugoli/Desktop/ProgrammingCode/DaisyCode/DaisyExamples/libDaisy/src/hid/switch.h ****     Called at update_rate to debounce and handle timing for the switch.
  64:/Users/dominicfrugoli/Desktop/ProgrammingCode/DaisyCode/DaisyExamples/libDaisy/src/hid/switch.h ****     In order for events not to be missed, its important that the Edge/Pressed checks
  65:/Users/dominicfrugoli/Desktop/ProgrammingCode/DaisyCode/DaisyExamples/libDaisy/src/hid/switch.h ****     be made at the same rate as the debounce function is being called.
  66:/Users/dominicfrugoli/Desktop/ProgrammingCode/DaisyCode/DaisyExamples/libDaisy/src/hid/switch.h ****     */
  67:/Users/dominicfrugoli/Desktop/ProgrammingCode/DaisyCode/DaisyExamples/libDaisy/src/hid/switch.h ****     void Debounce();
  68:/Users/dominicfrugoli/Desktop/ProgrammingCode/DaisyCode/DaisyExamples/libDaisy/src/hid/switch.h **** 
  69:/Users/dominicfrugoli/Desktop/ProgrammingCode/DaisyCode/DaisyExamples/libDaisy/src/hid/switch.h ****     /** \return true if a button was just pressed. */
  70:/Users/dominicfrugoli/Desktop/ProgrammingCode/DaisyCode/DaisyExamples/libDaisy/src/hid/switch.h ****     inline bool RisingEdge() const { return updated_ ? state_ == 0x7f : false; }
ARM GAS  /var/folders/m5/x8wc2gdj7z5cpgcqdsb_gkj40000gn/T//cckXFIsJ.s 			page 149


 5532              		.loc 1 70 54 view .LVU1409
 5533 003e 237B     		ldrb	r3, [r4, #12]	@ zero_extendqisi2
 5534              	.LBE978:
 5535              	.LBE977:
 5536              	.LBE976:
 5537              	.LBB987:
 5538              	.LBB972:
 109:effects.h     ****     }
 5539              		.loc 16 109 23 view .LVU1410
 5540 0040 0A60     		str	r2, [r1]
 5541              	.LVL343:
 109:effects.h     ****     }
 5542              		.loc 16 109 23 view .LVU1411
 5543              	.LBE972:
 5544              	.LBE987:
 148:sardinia.cpp  **** 	{
 5545              		.loc 17 148 2 is_stmt 1 view .LVU1412
 5546              	.LBB988:
 5547              	.LBI976:
  37:/Users/dominicfrugoli/Desktop/ProgrammingCode/DaisyCode/DaisyExamples/libDaisy/src/hid/encoder.h **** 
  38:/Users/dominicfrugoli/Desktop/ProgrammingCode/DaisyCode/DaisyExamples/libDaisy/src/hid/encoder.h ****     /** Returns true if the encoder was just pressed. */
  39:/Users/dominicfrugoli/Desktop/ProgrammingCode/DaisyCode/DaisyExamples/libDaisy/src/hid/encoder.h ****     inline bool RisingEdge() const { return sw_.RisingEdge(); }
 5548              		.loc 2 39 17 view .LVU1413
 5549              	.LBE988:
 5550              		.loc 2 39 38 view .LVU1414
 5551              	.LBB989:
 5552              	.LBB983:
 5553              	.LBI977:
 5554              		.loc 1 70 17 view .LVU1415
 5555              	.LBB979:
 5556              		.loc 1 70 38 view .LVU1416
 5557              		.loc 1 70 54 is_stmt 0 view .LVU1417
 5558 0042 3BB1     		cbz	r3, .L413
 5559              	.LVL344:
 5560              		.loc 1 70 54 view .LVU1418
 5561              	.LBE979:
 5562              	.LBE983:
 5563              	.LBE989:
 148:sardinia.cpp  **** 	{
 5564              		.loc 17 148 2 view .LVU1419
 5565 0044 A37C     		ldrb	r3, [r4, #18]	@ zero_extendqisi2
 5566 0046 7F2B     		cmp	r3, #127
 5567 0048 04D1     		bne	.L413
 150:sardinia.cpp  **** 	}
 5568              		.loc 17 150 3 is_stmt 1 view .LVU1420
 150:sardinia.cpp  **** 	}
 5569              		.loc 17 150 31 is_stmt 0 view .LVU1421
 5570 004a 704A     		ldr	r2, .L438+8
 150:sardinia.cpp  **** 	}
 5571              		.loc 17 150 33 view .LVU1422
 5572 004c 1378     		ldrb	r3, [r2]	@ zero_extendqisi2
 5573 004e 83F00103 		eor	r3, r3, #1
 150:sardinia.cpp  **** 	}
 5574              		.loc 17 150 31 view .LVU1423
 5575 0052 1370     		strb	r3, [r2]
 153:sardinia.cpp  **** 	{
 5576              		.loc 17 153 2 is_stmt 1 view .LVU1424
ARM GAS  /var/folders/m5/x8wc2gdj7z5cpgcqdsb_gkj40000gn/T//cckXFIsJ.s 			page 150


 5577              	.L413:
 155:sardinia.cpp  **** 		effectValues[0][1] = fmap(hw.adc.GetMuxFloat(0, 6), .01, .3, Mapping::EXP); // Overdrive Tone Fre
 5578              		.loc 17 155 3 view .LVU1425
 155:sardinia.cpp  **** 		effectValues[0][1] = fmap(hw.adc.GetMuxFloat(0, 6), .01, .3, Mapping::EXP); // Overdrive Tone Fre
 5579              		.loc 17 155 28 is_stmt 0 view .LVU1426
 5580 0054 0222     		movs	r2, #2
 5581 0056 0021     		movs	r1, #0
 5582 0058 6D48     		ldr	r0, .L438+12
 5583 005a FFF7FEFF 		bl	_ZNK5daisy9AdcHandle11GetMuxFloatEhh
 5584              	.LVL345:
 5585              	.LBB990:
 5586              	.LBI990:
 5587              		.file 18 "/Users/dominicfrugoli/Desktop/ProgrammingCode/DaisyCode/DaisyExamples/DaisySP/Source/Uti
   1:/Users/dominicfrugoli/Desktop/ProgrammingCode/DaisyCode/DaisyExamples/DaisySP/Source/Utility/dsp.h **** /*
   2:/Users/dominicfrugoli/Desktop/ProgrammingCode/DaisyCode/DaisyExamples/DaisySP/Source/Utility/dsp.h **** Copyright (c) 2020 Electrosmith, Corp, Emilie Gillet
   3:/Users/dominicfrugoli/Desktop/ProgrammingCode/DaisyCode/DaisyExamples/DaisySP/Source/Utility/dsp.h **** 
   4:/Users/dominicfrugoli/Desktop/ProgrammingCode/DaisyCode/DaisyExamples/DaisySP/Source/Utility/dsp.h **** Use of this source code is governed by an MIT-style
   5:/Users/dominicfrugoli/Desktop/ProgrammingCode/DaisyCode/DaisyExamples/DaisySP/Source/Utility/dsp.h **** license that can be found in the LICENSE file or at
   6:/Users/dominicfrugoli/Desktop/ProgrammingCode/DaisyCode/DaisyExamples/DaisySP/Source/Utility/dsp.h **** https://opensource.org/licenses/MIT.
   7:/Users/dominicfrugoli/Desktop/ProgrammingCode/DaisyCode/DaisyExamples/DaisySP/Source/Utility/dsp.h **** */
   8:/Users/dominicfrugoli/Desktop/ProgrammingCode/DaisyCode/DaisyExamples/DaisySP/Source/Utility/dsp.h **** 
   9:/Users/dominicfrugoli/Desktop/ProgrammingCode/DaisyCode/DaisyExamples/DaisySP/Source/Utility/dsp.h **** /** Helpful defines, functions, and other utilities for use in/with daisysp modules.
  10:/Users/dominicfrugoli/Desktop/ProgrammingCode/DaisyCode/DaisyExamples/DaisySP/Source/Utility/dsp.h **** */
  11:/Users/dominicfrugoli/Desktop/ProgrammingCode/DaisyCode/DaisyExamples/DaisySP/Source/Utility/dsp.h **** #pragma once
  12:/Users/dominicfrugoli/Desktop/ProgrammingCode/DaisyCode/DaisyExamples/DaisySP/Source/Utility/dsp.h **** #ifndef DSY_CORE_DSP
  13:/Users/dominicfrugoli/Desktop/ProgrammingCode/DaisyCode/DaisyExamples/DaisySP/Source/Utility/dsp.h **** #define DSY_CORE_DSP
  14:/Users/dominicfrugoli/Desktop/ProgrammingCode/DaisyCode/DaisyExamples/DaisySP/Source/Utility/dsp.h **** #include <cassert>
  15:/Users/dominicfrugoli/Desktop/ProgrammingCode/DaisyCode/DaisyExamples/DaisySP/Source/Utility/dsp.h **** #include <cstdint>
  16:/Users/dominicfrugoli/Desktop/ProgrammingCode/DaisyCode/DaisyExamples/DaisySP/Source/Utility/dsp.h **** #include <random>
  17:/Users/dominicfrugoli/Desktop/ProgrammingCode/DaisyCode/DaisyExamples/DaisySP/Source/Utility/dsp.h **** #include <cmath>
  18:/Users/dominicfrugoli/Desktop/ProgrammingCode/DaisyCode/DaisyExamples/DaisySP/Source/Utility/dsp.h **** 
  19:/Users/dominicfrugoli/Desktop/ProgrammingCode/DaisyCode/DaisyExamples/DaisySP/Source/Utility/dsp.h **** /** PIs
  20:/Users/dominicfrugoli/Desktop/ProgrammingCode/DaisyCode/DaisyExamples/DaisySP/Source/Utility/dsp.h **** */
  21:/Users/dominicfrugoli/Desktop/ProgrammingCode/DaisyCode/DaisyExamples/DaisySP/Source/Utility/dsp.h **** #define PI_F 3.1415927410125732421875f
  22:/Users/dominicfrugoli/Desktop/ProgrammingCode/DaisyCode/DaisyExamples/DaisySP/Source/Utility/dsp.h **** #define TWOPI_F (2.0f * PI_F)
  23:/Users/dominicfrugoli/Desktop/ProgrammingCode/DaisyCode/DaisyExamples/DaisySP/Source/Utility/dsp.h **** #define HALFPI_F (PI_F * 0.5f)
  24:/Users/dominicfrugoli/Desktop/ProgrammingCode/DaisyCode/DaisyExamples/DaisySP/Source/Utility/dsp.h **** #define DSY_MIN(in, mn) (in < mn ? in : mn)
  25:/Users/dominicfrugoli/Desktop/ProgrammingCode/DaisyCode/DaisyExamples/DaisySP/Source/Utility/dsp.h **** #define DSY_MAX(in, mx) (in > mx ? in : mx)
  26:/Users/dominicfrugoli/Desktop/ProgrammingCode/DaisyCode/DaisyExamples/DaisySP/Source/Utility/dsp.h **** #define DSY_CLAMP(in, mn, mx) (DSY_MIN(DSY_MAX(in, mn), mx))
  27:/Users/dominicfrugoli/Desktop/ProgrammingCode/DaisyCode/DaisyExamples/DaisySP/Source/Utility/dsp.h **** #define DSY_COUNTOF(_arr) (sizeof(_arr) / sizeof(_arr[0]))
  28:/Users/dominicfrugoli/Desktop/ProgrammingCode/DaisyCode/DaisyExamples/DaisySP/Source/Utility/dsp.h **** 
  29:/Users/dominicfrugoli/Desktop/ProgrammingCode/DaisyCode/DaisyExamples/DaisySP/Source/Utility/dsp.h **** namespace daisysp
  30:/Users/dominicfrugoli/Desktop/ProgrammingCode/DaisyCode/DaisyExamples/DaisySP/Source/Utility/dsp.h **** {
  31:/Users/dominicfrugoli/Desktop/ProgrammingCode/DaisyCode/DaisyExamples/DaisySP/Source/Utility/dsp.h **** //Avoids division for random floats. e.g. rand() * kRandFrac
  32:/Users/dominicfrugoli/Desktop/ProgrammingCode/DaisyCode/DaisyExamples/DaisySP/Source/Utility/dsp.h **** static constexpr float kRandFrac = 1.f / (float)RAND_MAX;
  33:/Users/dominicfrugoli/Desktop/ProgrammingCode/DaisyCode/DaisyExamples/DaisySP/Source/Utility/dsp.h **** 
  34:/Users/dominicfrugoli/Desktop/ProgrammingCode/DaisyCode/DaisyExamples/DaisySP/Source/Utility/dsp.h **** //Convert from semitones to other units. e.g. 2 ^ (kOneTwelfth * x)
  35:/Users/dominicfrugoli/Desktop/ProgrammingCode/DaisyCode/DaisyExamples/DaisySP/Source/Utility/dsp.h **** static constexpr float kOneTwelfth = 1.f / 12.f;
  36:/Users/dominicfrugoli/Desktop/ProgrammingCode/DaisyCode/DaisyExamples/DaisySP/Source/Utility/dsp.h **** 
  37:/Users/dominicfrugoli/Desktop/ProgrammingCode/DaisyCode/DaisyExamples/DaisySP/Source/Utility/dsp.h **** /** efficient floating point min/max
  38:/Users/dominicfrugoli/Desktop/ProgrammingCode/DaisyCode/DaisyExamples/DaisySP/Source/Utility/dsp.h **** c/o stephen mccaul
  39:/Users/dominicfrugoli/Desktop/ProgrammingCode/DaisyCode/DaisyExamples/DaisySP/Source/Utility/dsp.h **** */
  40:/Users/dominicfrugoli/Desktop/ProgrammingCode/DaisyCode/DaisyExamples/DaisySP/Source/Utility/dsp.h **** inline float fmax(float a, float b)
  41:/Users/dominicfrugoli/Desktop/ProgrammingCode/DaisyCode/DaisyExamples/DaisySP/Source/Utility/dsp.h **** {
  42:/Users/dominicfrugoli/Desktop/ProgrammingCode/DaisyCode/DaisyExamples/DaisySP/Source/Utility/dsp.h ****     float r;
  43:/Users/dominicfrugoli/Desktop/ProgrammingCode/DaisyCode/DaisyExamples/DaisySP/Source/Utility/dsp.h **** #ifdef __arm__
  44:/Users/dominicfrugoli/Desktop/ProgrammingCode/DaisyCode/DaisyExamples/DaisySP/Source/Utility/dsp.h ****     asm("vmaxnm.f32 %[d], %[n], %[m]" : [d] "=t"(r) : [n] "t"(a), [m] "t"(b) :);
ARM GAS  /var/folders/m5/x8wc2gdj7z5cpgcqdsb_gkj40000gn/T//cckXFIsJ.s 			page 151


  45:/Users/dominicfrugoli/Desktop/ProgrammingCode/DaisyCode/DaisyExamples/DaisySP/Source/Utility/dsp.h **** #else
  46:/Users/dominicfrugoli/Desktop/ProgrammingCode/DaisyCode/DaisyExamples/DaisySP/Source/Utility/dsp.h ****     r = (a > b) ? a : b;
  47:/Users/dominicfrugoli/Desktop/ProgrammingCode/DaisyCode/DaisyExamples/DaisySP/Source/Utility/dsp.h **** #endif // __arm__
  48:/Users/dominicfrugoli/Desktop/ProgrammingCode/DaisyCode/DaisyExamples/DaisySP/Source/Utility/dsp.h ****     return r;
  49:/Users/dominicfrugoli/Desktop/ProgrammingCode/DaisyCode/DaisyExamples/DaisySP/Source/Utility/dsp.h **** }
  50:/Users/dominicfrugoli/Desktop/ProgrammingCode/DaisyCode/DaisyExamples/DaisySP/Source/Utility/dsp.h **** 
  51:/Users/dominicfrugoli/Desktop/ProgrammingCode/DaisyCode/DaisyExamples/DaisySP/Source/Utility/dsp.h **** inline float fmin(float a, float b)
  52:/Users/dominicfrugoli/Desktop/ProgrammingCode/DaisyCode/DaisyExamples/DaisySP/Source/Utility/dsp.h **** {
  53:/Users/dominicfrugoli/Desktop/ProgrammingCode/DaisyCode/DaisyExamples/DaisySP/Source/Utility/dsp.h ****     float r;
  54:/Users/dominicfrugoli/Desktop/ProgrammingCode/DaisyCode/DaisyExamples/DaisySP/Source/Utility/dsp.h **** #ifdef __arm__
  55:/Users/dominicfrugoli/Desktop/ProgrammingCode/DaisyCode/DaisyExamples/DaisySP/Source/Utility/dsp.h ****     asm("vminnm.f32 %[d], %[n], %[m]" : [d] "=t"(r) : [n] "t"(a), [m] "t"(b) :);
  56:/Users/dominicfrugoli/Desktop/ProgrammingCode/DaisyCode/DaisyExamples/DaisySP/Source/Utility/dsp.h **** #else
  57:/Users/dominicfrugoli/Desktop/ProgrammingCode/DaisyCode/DaisyExamples/DaisySP/Source/Utility/dsp.h ****     r = (a < b) ? a : b;
  58:/Users/dominicfrugoli/Desktop/ProgrammingCode/DaisyCode/DaisyExamples/DaisySP/Source/Utility/dsp.h **** #endif // __arm__
  59:/Users/dominicfrugoli/Desktop/ProgrammingCode/DaisyCode/DaisyExamples/DaisySP/Source/Utility/dsp.h ****     return r;
  60:/Users/dominicfrugoli/Desktop/ProgrammingCode/DaisyCode/DaisyExamples/DaisySP/Source/Utility/dsp.h **** }
  61:/Users/dominicfrugoli/Desktop/ProgrammingCode/DaisyCode/DaisyExamples/DaisySP/Source/Utility/dsp.h **** 
  62:/Users/dominicfrugoli/Desktop/ProgrammingCode/DaisyCode/DaisyExamples/DaisySP/Source/Utility/dsp.h **** /** quick fp clamp
  63:/Users/dominicfrugoli/Desktop/ProgrammingCode/DaisyCode/DaisyExamples/DaisySP/Source/Utility/dsp.h **** */
  64:/Users/dominicfrugoli/Desktop/ProgrammingCode/DaisyCode/DaisyExamples/DaisySP/Source/Utility/dsp.h **** inline float fclamp(float in, float min, float max)
  65:/Users/dominicfrugoli/Desktop/ProgrammingCode/DaisyCode/DaisyExamples/DaisySP/Source/Utility/dsp.h **** {
  66:/Users/dominicfrugoli/Desktop/ProgrammingCode/DaisyCode/DaisyExamples/DaisySP/Source/Utility/dsp.h ****     return fmin(fmax(in, min), max);
  67:/Users/dominicfrugoli/Desktop/ProgrammingCode/DaisyCode/DaisyExamples/DaisySP/Source/Utility/dsp.h **** }
  68:/Users/dominicfrugoli/Desktop/ProgrammingCode/DaisyCode/DaisyExamples/DaisySP/Source/Utility/dsp.h **** 
  69:/Users/dominicfrugoli/Desktop/ProgrammingCode/DaisyCode/DaisyExamples/DaisySP/Source/Utility/dsp.h **** /** From Musicdsp.org "Fast power and root estimates for 32bit floats)
  70:/Users/dominicfrugoli/Desktop/ProgrammingCode/DaisyCode/DaisyExamples/DaisySP/Source/Utility/dsp.h **** Original code by Stefan Stenzel
  71:/Users/dominicfrugoli/Desktop/ProgrammingCode/DaisyCode/DaisyExamples/DaisySP/Source/Utility/dsp.h **** These are approximations
  72:/Users/dominicfrugoli/Desktop/ProgrammingCode/DaisyCode/DaisyExamples/DaisySP/Source/Utility/dsp.h **** */
  73:/Users/dominicfrugoli/Desktop/ProgrammingCode/DaisyCode/DaisyExamples/DaisySP/Source/Utility/dsp.h **** inline float fastpower(float f, int n)
  74:/Users/dominicfrugoli/Desktop/ProgrammingCode/DaisyCode/DaisyExamples/DaisySP/Source/Utility/dsp.h **** {
  75:/Users/dominicfrugoli/Desktop/ProgrammingCode/DaisyCode/DaisyExamples/DaisySP/Source/Utility/dsp.h ****     long *lp, l;
  76:/Users/dominicfrugoli/Desktop/ProgrammingCode/DaisyCode/DaisyExamples/DaisySP/Source/Utility/dsp.h ****     lp = (long *)(&f);
  77:/Users/dominicfrugoli/Desktop/ProgrammingCode/DaisyCode/DaisyExamples/DaisySP/Source/Utility/dsp.h ****     l  = *lp;
  78:/Users/dominicfrugoli/Desktop/ProgrammingCode/DaisyCode/DaisyExamples/DaisySP/Source/Utility/dsp.h ****     l -= 0x3F800000;
  79:/Users/dominicfrugoli/Desktop/ProgrammingCode/DaisyCode/DaisyExamples/DaisySP/Source/Utility/dsp.h ****     l <<= (n - 1);
  80:/Users/dominicfrugoli/Desktop/ProgrammingCode/DaisyCode/DaisyExamples/DaisySP/Source/Utility/dsp.h ****     l += 0x3F800000;
  81:/Users/dominicfrugoli/Desktop/ProgrammingCode/DaisyCode/DaisyExamples/DaisySP/Source/Utility/dsp.h ****     *lp = l;
  82:/Users/dominicfrugoli/Desktop/ProgrammingCode/DaisyCode/DaisyExamples/DaisySP/Source/Utility/dsp.h ****     return f;
  83:/Users/dominicfrugoli/Desktop/ProgrammingCode/DaisyCode/DaisyExamples/DaisySP/Source/Utility/dsp.h **** }
  84:/Users/dominicfrugoli/Desktop/ProgrammingCode/DaisyCode/DaisyExamples/DaisySP/Source/Utility/dsp.h **** 
  85:/Users/dominicfrugoli/Desktop/ProgrammingCode/DaisyCode/DaisyExamples/DaisySP/Source/Utility/dsp.h **** inline float fastroot(float f, int n)
  86:/Users/dominicfrugoli/Desktop/ProgrammingCode/DaisyCode/DaisyExamples/DaisySP/Source/Utility/dsp.h **** {
  87:/Users/dominicfrugoli/Desktop/ProgrammingCode/DaisyCode/DaisyExamples/DaisySP/Source/Utility/dsp.h ****     long *lp, l;
  88:/Users/dominicfrugoli/Desktop/ProgrammingCode/DaisyCode/DaisyExamples/DaisySP/Source/Utility/dsp.h ****     lp = (long *)(&f);
  89:/Users/dominicfrugoli/Desktop/ProgrammingCode/DaisyCode/DaisyExamples/DaisySP/Source/Utility/dsp.h ****     l  = *lp;
  90:/Users/dominicfrugoli/Desktop/ProgrammingCode/DaisyCode/DaisyExamples/DaisySP/Source/Utility/dsp.h ****     l -= 0x3F800000;
  91:/Users/dominicfrugoli/Desktop/ProgrammingCode/DaisyCode/DaisyExamples/DaisySP/Source/Utility/dsp.h ****     l >>= (n - 1);
  92:/Users/dominicfrugoli/Desktop/ProgrammingCode/DaisyCode/DaisyExamples/DaisySP/Source/Utility/dsp.h ****     l += 0x3F800000;
  93:/Users/dominicfrugoli/Desktop/ProgrammingCode/DaisyCode/DaisyExamples/DaisySP/Source/Utility/dsp.h ****     *lp = l;
  94:/Users/dominicfrugoli/Desktop/ProgrammingCode/DaisyCode/DaisyExamples/DaisySP/Source/Utility/dsp.h ****     return f;
  95:/Users/dominicfrugoli/Desktop/ProgrammingCode/DaisyCode/DaisyExamples/DaisySP/Source/Utility/dsp.h **** }
  96:/Users/dominicfrugoli/Desktop/ProgrammingCode/DaisyCode/DaisyExamples/DaisySP/Source/Utility/dsp.h **** 
  97:/Users/dominicfrugoli/Desktop/ProgrammingCode/DaisyCode/DaisyExamples/DaisySP/Source/Utility/dsp.h **** /** Significantly more efficient than fmodf(x, 1.0f) for calculating
  98:/Users/dominicfrugoli/Desktop/ProgrammingCode/DaisyCode/DaisyExamples/DaisySP/Source/Utility/dsp.h ****  *  the decimal part of a floating point value.
  99:/Users/dominicfrugoli/Desktop/ProgrammingCode/DaisyCode/DaisyExamples/DaisySP/Source/Utility/dsp.h ****  */
 100:/Users/dominicfrugoli/Desktop/ProgrammingCode/DaisyCode/DaisyExamples/DaisySP/Source/Utility/dsp.h **** inline float fastmod1f(float x)
 101:/Users/dominicfrugoli/Desktop/ProgrammingCode/DaisyCode/DaisyExamples/DaisySP/Source/Utility/dsp.h **** {
ARM GAS  /var/folders/m5/x8wc2gdj7z5cpgcqdsb_gkj40000gn/T//cckXFIsJ.s 			page 152


 102:/Users/dominicfrugoli/Desktop/ProgrammingCode/DaisyCode/DaisyExamples/DaisySP/Source/Utility/dsp.h ****     return x - static_cast<int>(x);
 103:/Users/dominicfrugoli/Desktop/ProgrammingCode/DaisyCode/DaisyExamples/DaisySP/Source/Utility/dsp.h **** }
 104:/Users/dominicfrugoli/Desktop/ProgrammingCode/DaisyCode/DaisyExamples/DaisySP/Source/Utility/dsp.h **** 
 105:/Users/dominicfrugoli/Desktop/ProgrammingCode/DaisyCode/DaisyExamples/DaisySP/Source/Utility/dsp.h **** /** From http://openaudio.blogspot.com/2017/02/faster-log10-and-pow.html
 106:/Users/dominicfrugoli/Desktop/ProgrammingCode/DaisyCode/DaisyExamples/DaisySP/Source/Utility/dsp.h **** No approximation, pow10f(x) gives a 90% speed increase over powf(10.f, x)
 107:/Users/dominicfrugoli/Desktop/ProgrammingCode/DaisyCode/DaisyExamples/DaisySP/Source/Utility/dsp.h **** */
 108:/Users/dominicfrugoli/Desktop/ProgrammingCode/DaisyCode/DaisyExamples/DaisySP/Source/Utility/dsp.h **** inline float pow10f(float f)
 109:/Users/dominicfrugoli/Desktop/ProgrammingCode/DaisyCode/DaisyExamples/DaisySP/Source/Utility/dsp.h **** {
 110:/Users/dominicfrugoli/Desktop/ProgrammingCode/DaisyCode/DaisyExamples/DaisySP/Source/Utility/dsp.h ****     return expf(2.302585092994046f * f);
 111:/Users/dominicfrugoli/Desktop/ProgrammingCode/DaisyCode/DaisyExamples/DaisySP/Source/Utility/dsp.h **** }
 112:/Users/dominicfrugoli/Desktop/ProgrammingCode/DaisyCode/DaisyExamples/DaisySP/Source/Utility/dsp.h **** 
 113:/Users/dominicfrugoli/Desktop/ProgrammingCode/DaisyCode/DaisyExamples/DaisySP/Source/Utility/dsp.h **** /* Original code for fastlog2f by Dr. Paul Beckmann from the ARM community forum, adapted from the 
 114:/Users/dominicfrugoli/Desktop/ProgrammingCode/DaisyCode/DaisyExamples/DaisySP/Source/Utility/dsp.h **** About 25% performance increase over std::log10f
 115:/Users/dominicfrugoli/Desktop/ProgrammingCode/DaisyCode/DaisyExamples/DaisySP/Source/Utility/dsp.h **** */
 116:/Users/dominicfrugoli/Desktop/ProgrammingCode/DaisyCode/DaisyExamples/DaisySP/Source/Utility/dsp.h **** inline float fastlog2f(float f)
 117:/Users/dominicfrugoli/Desktop/ProgrammingCode/DaisyCode/DaisyExamples/DaisySP/Source/Utility/dsp.h **** {
 118:/Users/dominicfrugoli/Desktop/ProgrammingCode/DaisyCode/DaisyExamples/DaisySP/Source/Utility/dsp.h ****     float frac;
 119:/Users/dominicfrugoli/Desktop/ProgrammingCode/DaisyCode/DaisyExamples/DaisySP/Source/Utility/dsp.h ****     int   exp;
 120:/Users/dominicfrugoli/Desktop/ProgrammingCode/DaisyCode/DaisyExamples/DaisySP/Source/Utility/dsp.h ****     frac = frexpf(fabsf(f), &exp);
 121:/Users/dominicfrugoli/Desktop/ProgrammingCode/DaisyCode/DaisyExamples/DaisySP/Source/Utility/dsp.h ****     f    = 1.23149591368684f;
 122:/Users/dominicfrugoli/Desktop/ProgrammingCode/DaisyCode/DaisyExamples/DaisySP/Source/Utility/dsp.h ****     f *= frac;
 123:/Users/dominicfrugoli/Desktop/ProgrammingCode/DaisyCode/DaisyExamples/DaisySP/Source/Utility/dsp.h ****     f += -4.11852516267426f;
 124:/Users/dominicfrugoli/Desktop/ProgrammingCode/DaisyCode/DaisyExamples/DaisySP/Source/Utility/dsp.h ****     f *= frac;
 125:/Users/dominicfrugoli/Desktop/ProgrammingCode/DaisyCode/DaisyExamples/DaisySP/Source/Utility/dsp.h ****     f += 6.02197014179219f;
 126:/Users/dominicfrugoli/Desktop/ProgrammingCode/DaisyCode/DaisyExamples/DaisySP/Source/Utility/dsp.h ****     f *= frac;
 127:/Users/dominicfrugoli/Desktop/ProgrammingCode/DaisyCode/DaisyExamples/DaisySP/Source/Utility/dsp.h ****     f += -3.13396450166353f;
 128:/Users/dominicfrugoli/Desktop/ProgrammingCode/DaisyCode/DaisyExamples/DaisySP/Source/Utility/dsp.h ****     f += exp;
 129:/Users/dominicfrugoli/Desktop/ProgrammingCode/DaisyCode/DaisyExamples/DaisySP/Source/Utility/dsp.h ****     return (f);
 130:/Users/dominicfrugoli/Desktop/ProgrammingCode/DaisyCode/DaisyExamples/DaisySP/Source/Utility/dsp.h **** }
 131:/Users/dominicfrugoli/Desktop/ProgrammingCode/DaisyCode/DaisyExamples/DaisySP/Source/Utility/dsp.h **** 
 132:/Users/dominicfrugoli/Desktop/ProgrammingCode/DaisyCode/DaisyExamples/DaisySP/Source/Utility/dsp.h **** inline float fastlog10f(float f)
 133:/Users/dominicfrugoli/Desktop/ProgrammingCode/DaisyCode/DaisyExamples/DaisySP/Source/Utility/dsp.h **** {
 134:/Users/dominicfrugoli/Desktop/ProgrammingCode/DaisyCode/DaisyExamples/DaisySP/Source/Utility/dsp.h ****     return fastlog2f(f) * 0.3010299956639812f;
 135:/Users/dominicfrugoli/Desktop/ProgrammingCode/DaisyCode/DaisyExamples/DaisySP/Source/Utility/dsp.h **** }
 136:/Users/dominicfrugoli/Desktop/ProgrammingCode/DaisyCode/DaisyExamples/DaisySP/Source/Utility/dsp.h **** 
 137:/Users/dominicfrugoli/Desktop/ProgrammingCode/DaisyCode/DaisyExamples/DaisySP/Source/Utility/dsp.h **** /** Midi to frequency helper
 138:/Users/dominicfrugoli/Desktop/ProgrammingCode/DaisyCode/DaisyExamples/DaisySP/Source/Utility/dsp.h **** */
 139:/Users/dominicfrugoli/Desktop/ProgrammingCode/DaisyCode/DaisyExamples/DaisySP/Source/Utility/dsp.h **** inline float mtof(float m)
 140:/Users/dominicfrugoli/Desktop/ProgrammingCode/DaisyCode/DaisyExamples/DaisySP/Source/Utility/dsp.h **** {
 141:/Users/dominicfrugoli/Desktop/ProgrammingCode/DaisyCode/DaisyExamples/DaisySP/Source/Utility/dsp.h ****     return powf(2, (m - 69.0f) / 12.0f) * 440.0f;
 142:/Users/dominicfrugoli/Desktop/ProgrammingCode/DaisyCode/DaisyExamples/DaisySP/Source/Utility/dsp.h **** }
 143:/Users/dominicfrugoli/Desktop/ProgrammingCode/DaisyCode/DaisyExamples/DaisySP/Source/Utility/dsp.h **** 
 144:/Users/dominicfrugoli/Desktop/ProgrammingCode/DaisyCode/DaisyExamples/DaisySP/Source/Utility/dsp.h **** 
 145:/Users/dominicfrugoli/Desktop/ProgrammingCode/DaisyCode/DaisyExamples/DaisySP/Source/Utility/dsp.h **** /** one pole lpf
 146:/Users/dominicfrugoli/Desktop/ProgrammingCode/DaisyCode/DaisyExamples/DaisySP/Source/Utility/dsp.h **** out is passed by reference, and must be retained between
 147:/Users/dominicfrugoli/Desktop/ProgrammingCode/DaisyCode/DaisyExamples/DaisySP/Source/Utility/dsp.h **** calls to properly filter the signal
 148:/Users/dominicfrugoli/Desktop/ProgrammingCode/DaisyCode/DaisyExamples/DaisySP/Source/Utility/dsp.h **** coeff can be calculated:
 149:/Users/dominicfrugoli/Desktop/ProgrammingCode/DaisyCode/DaisyExamples/DaisySP/Source/Utility/dsp.h **** coeff = 1.0 / (time * sample_rate) ; where time is in seconds
 150:/Users/dominicfrugoli/Desktop/ProgrammingCode/DaisyCode/DaisyExamples/DaisySP/Source/Utility/dsp.h **** */
 151:/Users/dominicfrugoli/Desktop/ProgrammingCode/DaisyCode/DaisyExamples/DaisySP/Source/Utility/dsp.h **** inline void fonepole(float &out, float in, float coeff)
 152:/Users/dominicfrugoli/Desktop/ProgrammingCode/DaisyCode/DaisyExamples/DaisySP/Source/Utility/dsp.h **** {
 153:/Users/dominicfrugoli/Desktop/ProgrammingCode/DaisyCode/DaisyExamples/DaisySP/Source/Utility/dsp.h ****     out += coeff * (in - out);
 154:/Users/dominicfrugoli/Desktop/ProgrammingCode/DaisyCode/DaisyExamples/DaisySP/Source/Utility/dsp.h **** }
 155:/Users/dominicfrugoli/Desktop/ProgrammingCode/DaisyCode/DaisyExamples/DaisySP/Source/Utility/dsp.h **** 
 156:/Users/dominicfrugoli/Desktop/ProgrammingCode/DaisyCode/DaisyExamples/DaisySP/Source/Utility/dsp.h **** /** Curves to use with the fmap function */
 157:/Users/dominicfrugoli/Desktop/ProgrammingCode/DaisyCode/DaisyExamples/DaisySP/Source/Utility/dsp.h **** enum class Mapping
 158:/Users/dominicfrugoli/Desktop/ProgrammingCode/DaisyCode/DaisyExamples/DaisySP/Source/Utility/dsp.h **** {
ARM GAS  /var/folders/m5/x8wc2gdj7z5cpgcqdsb_gkj40000gn/T//cckXFIsJ.s 			page 153


 159:/Users/dominicfrugoli/Desktop/ProgrammingCode/DaisyCode/DaisyExamples/DaisySP/Source/Utility/dsp.h ****     LINEAR,
 160:/Users/dominicfrugoli/Desktop/ProgrammingCode/DaisyCode/DaisyExamples/DaisySP/Source/Utility/dsp.h ****     EXP,
 161:/Users/dominicfrugoli/Desktop/ProgrammingCode/DaisyCode/DaisyExamples/DaisySP/Source/Utility/dsp.h ****     LOG,
 162:/Users/dominicfrugoli/Desktop/ProgrammingCode/DaisyCode/DaisyExamples/DaisySP/Source/Utility/dsp.h **** };
 163:/Users/dominicfrugoli/Desktop/ProgrammingCode/DaisyCode/DaisyExamples/DaisySP/Source/Utility/dsp.h **** 
 164:/Users/dominicfrugoli/Desktop/ProgrammingCode/DaisyCode/DaisyExamples/DaisySP/Source/Utility/dsp.h **** /** Maps a float between a specified range, using a specified curve.
 165:/Users/dominicfrugoli/Desktop/ProgrammingCode/DaisyCode/DaisyExamples/DaisySP/Source/Utility/dsp.h ****  *
 166:/Users/dominicfrugoli/Desktop/ProgrammingCode/DaisyCode/DaisyExamples/DaisySP/Source/Utility/dsp.h ****  *  \param in a value between 0 to 1 that will be mapped to the new range.
 167:/Users/dominicfrugoli/Desktop/ProgrammingCode/DaisyCode/DaisyExamples/DaisySP/Source/Utility/dsp.h ****  *  \param min the new minimum value
 168:/Users/dominicfrugoli/Desktop/ProgrammingCode/DaisyCode/DaisyExamples/DaisySP/Source/Utility/dsp.h ****  *  \param max the new maxmimum value
 169:/Users/dominicfrugoli/Desktop/ProgrammingCode/DaisyCode/DaisyExamples/DaisySP/Source/Utility/dsp.h ****  *  \param curve a Mapping Value to adjust the response curve of the transformation
 170:/Users/dominicfrugoli/Desktop/ProgrammingCode/DaisyCode/DaisyExamples/DaisySP/Source/Utility/dsp.h ****  *               defaults to Linear. @see Mapping
 171:/Users/dominicfrugoli/Desktop/ProgrammingCode/DaisyCode/DaisyExamples/DaisySP/Source/Utility/dsp.h ****  *
 172:/Users/dominicfrugoli/Desktop/ProgrammingCode/DaisyCode/DaisyExamples/DaisySP/Source/Utility/dsp.h ****  *  When using the log curve min and max, must be greater than zero.
 173:/Users/dominicfrugoli/Desktop/ProgrammingCode/DaisyCode/DaisyExamples/DaisySP/Source/Utility/dsp.h ****  *
 174:/Users/dominicfrugoli/Desktop/ProgrammingCode/DaisyCode/DaisyExamples/DaisySP/Source/Utility/dsp.h ****  *  \retval returns the transformed float within the new range.
 175:/Users/dominicfrugoli/Desktop/ProgrammingCode/DaisyCode/DaisyExamples/DaisySP/Source/Utility/dsp.h **** */
 176:/Users/dominicfrugoli/Desktop/ProgrammingCode/DaisyCode/DaisyExamples/DaisySP/Source/Utility/dsp.h **** inline float
 177:/Users/dominicfrugoli/Desktop/ProgrammingCode/DaisyCode/DaisyExamples/DaisySP/Source/Utility/dsp.h **** fmap(float in, float min, float max, Mapping curve = Mapping::LINEAR)
 5588              		.loc 18 177 1 is_stmt 1 view .LVU1427
 5589              	.LBE990:
 178:/Users/dominicfrugoli/Desktop/ProgrammingCode/DaisyCode/DaisyExamples/DaisySP/Source/Utility/dsp.h **** {
 179:/Users/dominicfrugoli/Desktop/ProgrammingCode/DaisyCode/DaisyExamples/DaisySP/Source/Utility/dsp.h ****     switch(curve)
 5590              		.loc 18 179 5 view .LVU1428
 5591              	.LBB1008:
 5592              	.LBB991:
 180:/Users/dominicfrugoli/Desktop/ProgrammingCode/DaisyCode/DaisyExamples/DaisySP/Source/Utility/dsp.h ****     {
 181:/Users/dominicfrugoli/Desktop/ProgrammingCode/DaisyCode/DaisyExamples/DaisySP/Source/Utility/dsp.h ****         case Mapping::EXP:
 182:/Users/dominicfrugoli/Desktop/ProgrammingCode/DaisyCode/DaisyExamples/DaisySP/Source/Utility/dsp.h ****             return fclamp(min + (in * in) * (max - min), min, max);
 183:/Users/dominicfrugoli/Desktop/ProgrammingCode/DaisyCode/DaisyExamples/DaisySP/Source/Utility/dsp.h ****         case Mapping::LOG:
 184:/Users/dominicfrugoli/Desktop/ProgrammingCode/DaisyCode/DaisyExamples/DaisySP/Source/Utility/dsp.h ****         {
 185:/Users/dominicfrugoli/Desktop/ProgrammingCode/DaisyCode/DaisyExamples/DaisySP/Source/Utility/dsp.h ****             const float a = 1.f / log10f(max / min);
 186:/Users/dominicfrugoli/Desktop/ProgrammingCode/DaisyCode/DaisyExamples/DaisySP/Source/Utility/dsp.h ****             return fclamp(min * powf(10, in / a), min, max);
 187:/Users/dominicfrugoli/Desktop/ProgrammingCode/DaisyCode/DaisyExamples/DaisySP/Source/Utility/dsp.h ****         }
 188:/Users/dominicfrugoli/Desktop/ProgrammingCode/DaisyCode/DaisyExamples/DaisySP/Source/Utility/dsp.h ****         case Mapping::LINEAR:
 5593              		.loc 18 188 9 view .LVU1429
 189:/Users/dominicfrugoli/Desktop/ProgrammingCode/DaisyCode/DaisyExamples/DaisySP/Source/Utility/dsp.h ****         default: return fclamp(min + in * (max - min), min, max);
 5594              		.loc 18 189 9 view .LVU1430
 5595              		.loc 18 189 18 view .LVU1431
 5596              	.LBB992:
 5597              	.LBI992:
  64:/Users/dominicfrugoli/Desktop/ProgrammingCode/DaisyCode/DaisyExamples/DaisySP/Source/Utility/dsp.h **** {
 5598              		.loc 18 64 14 view .LVU1432
 5599              	.LBE992:
 5600              	.LBE991:
 5601              	.LBE1008:
  66:/Users/dominicfrugoli/Desktop/ProgrammingCode/DaisyCode/DaisyExamples/DaisySP/Source/Utility/dsp.h **** }
 5602              		.loc 18 66 5 view .LVU1433
 5603              	.LBB1009:
 5604              	.LBB1004:
 5605              	.LBB1001:
 5606              	.LBB993:
 5607              	.LBI993:
  40:/Users/dominicfrugoli/Desktop/ProgrammingCode/DaisyCode/DaisyExamples/DaisySP/Source/Utility/dsp.h **** {
 5608              		.loc 18 40 14 view .LVU1434
 5609              	.LBB994:
  42:/Users/dominicfrugoli/Desktop/ProgrammingCode/DaisyCode/DaisyExamples/DaisySP/Source/Utility/dsp.h **** #ifdef __arm__
ARM GAS  /var/folders/m5/x8wc2gdj7z5cpgcqdsb_gkj40000gn/T//cckXFIsJ.s 			page 154


 5610              		.loc 18 42 5 view .LVU1435
  44:/Users/dominicfrugoli/Desktop/ProgrammingCode/DaisyCode/DaisyExamples/DaisySP/Source/Utility/dsp.h **** #else
 5611              		.loc 18 44 5 view .LVU1436
 5612              	.LBE994:
 5613              	.LBE993:
 5614              	.LBE1001:
 5615              	.LBE1004:
 5616              	.LBE1009:
 155:sardinia.cpp  **** 		effectValues[0][1] = fmap(hw.adc.GetMuxFloat(0, 6), .01, .3, Mapping::EXP); // Overdrive Tone Fre
 5617              		.loc 17 155 22 is_stmt 0 view .LVU1437
 5618 005e 6D4C     		ldr	r4, .L438+16
 5619              	.LBB1010:
 5620              	.LBB1005:
 5621              		.loc 18 189 31 view .LVU1438
 5622 0060 DFED6D7A 		vldr.32	s15, .L438+20
 5623              	.LBB1002:
 5624              	.LBB996:
 5625              	.LBB997:
  55:/Users/dominicfrugoli/Desktop/ProgrammingCode/DaisyCode/DaisyExamples/DaisySP/Source/Utility/dsp.h **** #else
 5626              		.loc 18 55 5 view .LVU1439
 5627 0064 B7EE007A 		vmov.f32	s14, #1.0e+0
 5628              	.LBE997:
 5629              	.LBE996:
 5630              	.LBE1002:
 5631              	.LBE1005:
 5632              	.LBE1010:
 156:sardinia.cpp  **** 	}
 5633              		.loc 17 156 28 view .LVU1440
 5634 0068 0622     		movs	r2, #6
 5635 006a 0021     		movs	r1, #0
 5636              	.LBB1011:
 5637              	.LBB1006:
 5638              		.loc 18 189 31 view .LVU1441
 5639 006c 30EE270A 		vadd.f32	s0, s0, s15
 5640              	.LVL346:
 5641              		.loc 18 189 31 view .LVU1442
 5642              	.LBE1006:
 5643              	.LBE1011:
 156:sardinia.cpp  **** 	}
 5644              		.loc 17 156 28 view .LVU1443
 5645 0070 6748     		ldr	r0, .L438+12
 5646              	.LBB1012:
 5647              	.LBB1007:
 5648              	.LBB1003:
 5649              	.LBB999:
 5650              	.LBB995:
  44:/Users/dominicfrugoli/Desktop/ProgrammingCode/DaisyCode/DaisyExamples/DaisySP/Source/Utility/dsp.h **** #else
 5651              		.loc 18 44 5 view .LVU1444
 5652              		.syntax unified
 5653              	@ 44 "/Users/dominicfrugoli/Desktop/ProgrammingCode/DaisyCode/DaisyExamples/DaisySP/Source/Utility/
 5654 0072 80FE270A 		vmaxnm.f32 s0, s0, s15
 5655              	@ 0 "" 2
 5656              	.LVL347:
  48:/Users/dominicfrugoli/Desktop/ProgrammingCode/DaisyCode/DaisyExamples/DaisySP/Source/Utility/dsp.h **** }
 5657              		.loc 18 48 5 is_stmt 1 view .LVU1445
  48:/Users/dominicfrugoli/Desktop/ProgrammingCode/DaisyCode/DaisyExamples/DaisySP/Source/Utility/dsp.h **** }
 5658              		.loc 18 48 5 is_stmt 0 view .LVU1446
ARM GAS  /var/folders/m5/x8wc2gdj7z5cpgcqdsb_gkj40000gn/T//cckXFIsJ.s 			page 155


 5659              		.thumb
 5660              		.syntax unified
 5661              	.LBE995:
 5662              	.LBE999:
 5663              	.LBB1000:
 5664              	.LBI996:
  51:/Users/dominicfrugoli/Desktop/ProgrammingCode/DaisyCode/DaisyExamples/DaisySP/Source/Utility/dsp.h **** {
 5665              		.loc 18 51 14 is_stmt 1 view .LVU1447
 5666              	.LBB998:
  53:/Users/dominicfrugoli/Desktop/ProgrammingCode/DaisyCode/DaisyExamples/DaisySP/Source/Utility/dsp.h **** #ifdef __arm__
 5667              		.loc 18 53 5 view .LVU1448
  55:/Users/dominicfrugoli/Desktop/ProgrammingCode/DaisyCode/DaisyExamples/DaisySP/Source/Utility/dsp.h **** #else
 5668              		.loc 18 55 5 view .LVU1449
 5669              		.syntax unified
 5670              	@ 55 "/Users/dominicfrugoli/Desktop/ProgrammingCode/DaisyCode/DaisyExamples/DaisySP/Source/Utility/
 5671 0076 80FE470A 		vminnm.f32 s0, s0, s14
 5672              	@ 0 "" 2
 5673              	.LVL348:
  59:/Users/dominicfrugoli/Desktop/ProgrammingCode/DaisyCode/DaisyExamples/DaisySP/Source/Utility/dsp.h **** }
 5674              		.loc 18 59 5 view .LVU1450
  59:/Users/dominicfrugoli/Desktop/ProgrammingCode/DaisyCode/DaisyExamples/DaisySP/Source/Utility/dsp.h **** }
 5675              		.loc 18 59 5 is_stmt 0 view .LVU1451
 5676              		.thumb
 5677              		.syntax unified
 5678              	.LBE998:
 5679              	.LBE1000:
 5680              	.LBE1003:
 5681              	.LBE1007:
 5682              	.LBE1012:
 155:sardinia.cpp  **** 		effectValues[0][1] = fmap(hw.adc.GetMuxFloat(0, 6), .01, .3, Mapping::EXP); // Overdrive Tone Fre
 5683              		.loc 17 155 22 view .LVU1452
 5684 007a 84ED000A 		vstr.32	s0, [r4]
 156:sardinia.cpp  **** 	}
 5685              		.loc 17 156 3 is_stmt 1 view .LVU1453
 156:sardinia.cpp  **** 	}
 5686              		.loc 17 156 28 is_stmt 0 view .LVU1454
 5687 007e FFF7FEFF 		bl	_ZNK5daisy9AdcHandle11GetMuxFloatEhh
 5688              	.LVL349:
 5689              	.LBB1013:
 5690              	.LBI1013:
 177:/Users/dominicfrugoli/Desktop/ProgrammingCode/DaisyCode/DaisyExamples/DaisySP/Source/Utility/dsp.h **** {
 5691              		.loc 18 177 1 is_stmt 1 view .LVU1455
 5692              	.LBE1013:
 179:/Users/dominicfrugoli/Desktop/ProgrammingCode/DaisyCode/DaisyExamples/DaisySP/Source/Utility/dsp.h ****     {
 5693              		.loc 18 179 5 view .LVU1456
 5694              	.LBB1025:
 5695              	.LBB1014:
 181:/Users/dominicfrugoli/Desktop/ProgrammingCode/DaisyCode/DaisyExamples/DaisySP/Source/Utility/dsp.h ****             return fclamp(min + (in * in) * (max - min), min, max);
 5696              		.loc 18 181 9 view .LVU1457
 182:/Users/dominicfrugoli/Desktop/ProgrammingCode/DaisyCode/DaisyExamples/DaisySP/Source/Utility/dsp.h ****         case Mapping::LOG:
 5697              		.loc 18 182 13 view .LVU1458
 182:/Users/dominicfrugoli/Desktop/ProgrammingCode/DaisyCode/DaisyExamples/DaisySP/Source/Utility/dsp.h ****         case Mapping::LOG:
 5698              		.loc 18 182 26 is_stmt 0 view .LVU1459
 5699 0082 9FED667A 		vldr.32	s14, .L438+24
 182:/Users/dominicfrugoli/Desktop/ProgrammingCode/DaisyCode/DaisyExamples/DaisySP/Source/Utility/dsp.h ****         case Mapping::LOG:
 5700              		.loc 18 182 37 view .LVU1460
 5701 0086 20EE000A 		vmul.f32	s0, s0, s0
ARM GAS  /var/folders/m5/x8wc2gdj7z5cpgcqdsb_gkj40000gn/T//cckXFIsJ.s 			page 156


 5702              	.LVL350:
 182:/Users/dominicfrugoli/Desktop/ProgrammingCode/DaisyCode/DaisyExamples/DaisySP/Source/Utility/dsp.h ****         case Mapping::LOG:
 5703              		.loc 18 182 26 view .LVU1461
 5704 008a 9FED656A 		vldr.32	s12, .L438+28
 5705 008e F0EE477A 		vmov.f32	s15, s14
 5706              	.LBB1015:
 5707              	.LBB1016:
 5708              	.LBB1017:
  55:/Users/dominicfrugoli/Desktop/ProgrammingCode/DaisyCode/DaisyExamples/DaisySP/Source/Utility/dsp.h **** #else
 5709              		.loc 18 55 5 view .LVU1462
 5710 0092 DFED646A 		vldr.32	s13, .L438+32
 5711              	.LBE1017:
 5712              	.LBE1016:
 5713              	.LBE1015:
 182:/Users/dominicfrugoli/Desktop/ProgrammingCode/DaisyCode/DaisyExamples/DaisySP/Source/Utility/dsp.h ****         case Mapping::LOG:
 5714              		.loc 18 182 26 view .LVU1463
 5715 0096 E0EE067A 		vfma.f32	s15, s0, s12
 5716              	.LVL351:
 5717              	.LBB1022:
 5718              	.LBI1015:
  64:/Users/dominicfrugoli/Desktop/ProgrammingCode/DaisyCode/DaisyExamples/DaisySP/Source/Utility/dsp.h **** {
 5719              		.loc 18 64 14 is_stmt 1 view .LVU1464
 5720              	.LBE1022:
 5721              	.LBE1014:
 5722              	.LBE1025:
  66:/Users/dominicfrugoli/Desktop/ProgrammingCode/DaisyCode/DaisyExamples/DaisySP/Source/Utility/dsp.h **** }
 5723              		.loc 18 66 5 view .LVU1465
 5724              	.LBB1026:
 5725              	.LBB1024:
 5726              	.LBB1023:
 5727              	.LBB1019:
 5728              	.LBI1019:
  40:/Users/dominicfrugoli/Desktop/ProgrammingCode/DaisyCode/DaisyExamples/DaisySP/Source/Utility/dsp.h **** {
 5729              		.loc 18 40 14 view .LVU1466
 5730              	.LBB1020:
  42:/Users/dominicfrugoli/Desktop/ProgrammingCode/DaisyCode/DaisyExamples/DaisySP/Source/Utility/dsp.h **** #ifdef __arm__
 5731              		.loc 18 42 5 view .LVU1467
  44:/Users/dominicfrugoli/Desktop/ProgrammingCode/DaisyCode/DaisyExamples/DaisySP/Source/Utility/dsp.h **** #else
 5732              		.loc 18 44 5 view .LVU1468
 5733              		.syntax unified
 5734              	@ 44 "/Users/dominicfrugoli/Desktop/ProgrammingCode/DaisyCode/DaisyExamples/DaisySP/Source/Utility/
 5735 009a C7FE877A 		vmaxnm.f32 s15, s15, s14
 5736              	@ 0 "" 2
 5737              	.LVL352:
  48:/Users/dominicfrugoli/Desktop/ProgrammingCode/DaisyCode/DaisyExamples/DaisySP/Source/Utility/dsp.h **** }
 5738              		.loc 18 48 5 view .LVU1469
  48:/Users/dominicfrugoli/Desktop/ProgrammingCode/DaisyCode/DaisyExamples/DaisySP/Source/Utility/dsp.h **** }
 5739              		.loc 18 48 5 is_stmt 0 view .LVU1470
 5740              		.thumb
 5741              		.syntax unified
 5742              	.LBE1020:
 5743              	.LBE1019:
 5744              	.LBB1021:
 5745              	.LBI1016:
  51:/Users/dominicfrugoli/Desktop/ProgrammingCode/DaisyCode/DaisyExamples/DaisySP/Source/Utility/dsp.h **** {
 5746              		.loc 18 51 14 is_stmt 1 view .LVU1471
 5747              	.LBB1018:
ARM GAS  /var/folders/m5/x8wc2gdj7z5cpgcqdsb_gkj40000gn/T//cckXFIsJ.s 			page 157


  53:/Users/dominicfrugoli/Desktop/ProgrammingCode/DaisyCode/DaisyExamples/DaisySP/Source/Utility/dsp.h **** #ifdef __arm__
 5748              		.loc 18 53 5 view .LVU1472
  55:/Users/dominicfrugoli/Desktop/ProgrammingCode/DaisyCode/DaisyExamples/DaisySP/Source/Utility/dsp.h **** #else
 5749              		.loc 18 55 5 view .LVU1473
 5750              		.syntax unified
 5751              	@ 55 "/Users/dominicfrugoli/Desktop/ProgrammingCode/DaisyCode/DaisyExamples/DaisySP/Source/Utility/
 5752 009e C7FEE67A 		vminnm.f32 s15, s15, s13
 5753              	@ 0 "" 2
 5754              	.LVL353:
  59:/Users/dominicfrugoli/Desktop/ProgrammingCode/DaisyCode/DaisyExamples/DaisySP/Source/Utility/dsp.h **** }
 5755              		.loc 18 59 5 view .LVU1474
  59:/Users/dominicfrugoli/Desktop/ProgrammingCode/DaisyCode/DaisyExamples/DaisySP/Source/Utility/dsp.h **** }
 5756              		.loc 18 59 5 is_stmt 0 view .LVU1475
 5757              		.thumb
 5758              		.syntax unified
 5759              	.LBE1018:
 5760              	.LBE1021:
 5761              	.LBE1023:
 5762              	.LBE1024:
 5763              	.LBE1026:
 156:sardinia.cpp  **** 	}
 5764              		.loc 17 156 22 view .LVU1476
 5765 00a2 C4ED017A 		vstr.32	s15, [r4, #4]
 5766 00a6 11E0     		b	.L411
 5767              	.L406:
 150:sardinia.cpp  **** 	}
 5768              		.loc 17 150 60 view .LVU1477
 5769 00a8 574B     		ldr	r3, .L438+4
 5770 00aa 1B68     		ldr	r3, [r3]
 5771              	.L408:
 148:sardinia.cpp  **** 	{
 5772              		.loc 17 148 2 is_stmt 1 view .LVU1478
 5773              	.LVL354:
 5774              	.LBB1027:
 5775              		.loc 2 39 17 view .LVU1479
 5776              	.LBE1027:
 5777              		.loc 2 39 38 view .LVU1480
 5778              	.LBB1028:
 5779              	.LBB984:
 5780              		.loc 1 70 17 view .LVU1481
 5781              	.LBB980:
 5782              		.loc 1 70 38 view .LVU1482
 5783              		.loc 1 70 54 is_stmt 0 view .LVU1483
 5784 00ac 227B     		ldrb	r2, [r4, #12]	@ zero_extendqisi2
 5785 00ae 3AB1     		cbz	r2, .L414
 5786              	.LVL355:
 5787              		.loc 1 70 54 view .LVU1484
 5788              	.LBE980:
 5789              	.LBE984:
 5790              	.LBE1028:
 148:sardinia.cpp  **** 	{
 5791              		.loc 17 148 2 view .LVU1485
 5792 00b0 A27C     		ldrb	r2, [r4, #18]	@ zero_extendqisi2
 5793 00b2 7F2A     		cmp	r2, #127
 5794 00b4 04D1     		bne	.L414
 150:sardinia.cpp  **** 	}
 5795              		.loc 17 150 3 is_stmt 1 view .LVU1486
ARM GAS  /var/folders/m5/x8wc2gdj7z5cpgcqdsb_gkj40000gn/T//cckXFIsJ.s 			page 158


 150:sardinia.cpp  **** 	}
 5796              		.loc 17 150 31 is_stmt 0 view .LVU1487
 5797 00b6 5549     		ldr	r1, .L438+8
 150:sardinia.cpp  **** 	}
 5798              		.loc 17 150 33 view .LVU1488
 5799 00b8 CA5C     		ldrb	r2, [r1, r3]	@ zero_extendqisi2
 5800 00ba 82F00102 		eor	r2, r2, #1
 150:sardinia.cpp  **** 	}
 5801              		.loc 17 150 31 view .LVU1489
 5802 00be CA54     		strb	r2, [r1, r3]
 5803              	.L414:
 153:sardinia.cpp  **** 	{
 5804              		.loc 17 153 2 is_stmt 1 view .LVU1490
 5805 00c0 002B     		cmp	r3, #0
 5806 00c2 C7D0     		beq	.L413
 158:sardinia.cpp  **** 	{
 5807              		.loc 17 158 7 view .LVU1491
 5808 00c4 012B     		cmp	r3, #1
 5809 00c6 6ED0     		beq	.L436
 163:sardinia.cpp  **** 	{
 5810              		.loc 17 163 7 view .LVU1492
 5811 00c8 022B     		cmp	r3, #2
 5812 00ca 44D0     		beq	.L410
 5813              	.L411:
 170:sardinia.cpp  **** 	inputAmp = fmap(hw.adc.GetMuxFloat(0, 7), 0, 2, Mapping::LINEAR); // bottom far right
 5814              		.loc 17 170 2 view .LVU1493
 5815              	.LBB1029:
 5816              	.LBB1030:
 5817              		.loc 18 189 31 is_stmt 0 view .LVU1494
 5818 00cc DFED528A 		vldr.32	s17, .L438+20
 5819              	.LBE1030:
 5820              	.LBE1029:
 170:sardinia.cpp  **** 	inputAmp = fmap(hw.adc.GetMuxFloat(0, 7), 0, 2, Mapping::LINEAR); // bottom far right
 5821              		.loc 17 170 18 view .LVU1495
 5822 00d0 0322     		movs	r2, #3
 5823 00d2 0021     		movs	r1, #0
 5824 00d4 4E48     		ldr	r0, .L438+12
 5825 00d6 FFF7FEFF 		bl	_ZNK5daisy9AdcHandle11GetMuxFloatEhh
 5826              	.LVL356:
 5827              	.LBB1040:
 5828              	.LBI1029:
 177:/Users/dominicfrugoli/Desktop/ProgrammingCode/DaisyCode/DaisyExamples/DaisySP/Source/Utility/dsp.h **** {
 5829              		.loc 18 177 1 is_stmt 1 view .LVU1496
 5830              	.LBE1040:
 179:/Users/dominicfrugoli/Desktop/ProgrammingCode/DaisyCode/DaisyExamples/DaisySP/Source/Utility/dsp.h ****     {
 5831              		.loc 18 179 5 view .LVU1497
 5832              	.LBB1041:
 5833              	.LBB1037:
 188:/Users/dominicfrugoli/Desktop/ProgrammingCode/DaisyCode/DaisyExamples/DaisySP/Source/Utility/dsp.h ****         default: return fclamp(min + in * (max - min), min, max);
 5834              		.loc 18 188 9 view .LVU1498
 5835              		.loc 18 189 9 view .LVU1499
 5836              		.loc 18 189 18 view .LVU1500
 5837              		.loc 18 189 31 is_stmt 0 view .LVU1501
 5838 00da B0EE008A 		vmov.f32	s16, #2.0e+0
 5839 00de B0EE687A 		vmov.f32	s14, s17
 5840              	.LBE1037:
 5841              	.LBE1041:
ARM GAS  /var/folders/m5/x8wc2gdj7z5cpgcqdsb_gkj40000gn/T//cckXFIsJ.s 			page 159


 170:sardinia.cpp  **** 	inputAmp = fmap(hw.adc.GetMuxFloat(0, 7), 0, 2, Mapping::LINEAR); // bottom far right
 5842              		.loc 17 170 12 view .LVU1502
 5843 00e2 514B     		ldr	r3, .L438+36
 171:sardinia.cpp  **** 
 5844              		.loc 17 171 17 view .LVU1503
 5845 00e4 0722     		movs	r2, #7
 5846 00e6 0021     		movs	r1, #0
 5847 00e8 4948     		ldr	r0, .L438+12
 5848              	.LBB1042:
 5849              	.LBB1038:
 5850              		.loc 18 189 31 view .LVU1504
 5851 00ea A0EE087A 		vfma.f32	s14, s0, s16
 5852              	.LVL357:
 5853              	.LBB1031:
 5854              	.LBI1031:
  64:/Users/dominicfrugoli/Desktop/ProgrammingCode/DaisyCode/DaisyExamples/DaisySP/Source/Utility/dsp.h **** {
 5855              		.loc 18 64 14 is_stmt 1 view .LVU1505
 5856              	.LBE1031:
 5857              	.LBE1038:
 5858              	.LBE1042:
  66:/Users/dominicfrugoli/Desktop/ProgrammingCode/DaisyCode/DaisyExamples/DaisySP/Source/Utility/dsp.h **** }
 5859              		.loc 18 66 5 view .LVU1506
 5860              	.LBB1043:
 5861              	.LBB1039:
 5862              	.LBB1036:
 5863              	.LBB1032:
 5864              	.LBI1032:
  40:/Users/dominicfrugoli/Desktop/ProgrammingCode/DaisyCode/DaisyExamples/DaisySP/Source/Utility/dsp.h **** {
 5865              		.loc 18 40 14 view .LVU1507
 5866              	.LBB1033:
  42:/Users/dominicfrugoli/Desktop/ProgrammingCode/DaisyCode/DaisyExamples/DaisySP/Source/Utility/dsp.h **** #ifdef __arm__
 5867              		.loc 18 42 5 view .LVU1508
  44:/Users/dominicfrugoli/Desktop/ProgrammingCode/DaisyCode/DaisyExamples/DaisySP/Source/Utility/dsp.h **** #else
 5868              		.loc 18 44 5 view .LVU1509
 5869              		.syntax unified
 5870              	@ 44 "/Users/dominicfrugoli/Desktop/ProgrammingCode/DaisyCode/DaisyExamples/DaisySP/Source/Utility/
 5871 00ee 87FE287A 		vmaxnm.f32 s14, s14, s17
 5872              	@ 0 "" 2
 5873              	.LVL358:
  48:/Users/dominicfrugoli/Desktop/ProgrammingCode/DaisyCode/DaisyExamples/DaisySP/Source/Utility/dsp.h **** }
 5874              		.loc 18 48 5 view .LVU1510
  48:/Users/dominicfrugoli/Desktop/ProgrammingCode/DaisyCode/DaisyExamples/DaisySP/Source/Utility/dsp.h **** }
 5875              		.loc 18 48 5 is_stmt 0 view .LVU1511
 5876              		.thumb
 5877              		.syntax unified
 5878              	.LBE1033:
 5879              	.LBE1032:
 5880              	.LBB1034:
 5881              	.LBI1034:
  51:/Users/dominicfrugoli/Desktop/ProgrammingCode/DaisyCode/DaisyExamples/DaisySP/Source/Utility/dsp.h **** {
 5882              		.loc 18 51 14 is_stmt 1 view .LVU1512
 5883              	.LBB1035:
  53:/Users/dominicfrugoli/Desktop/ProgrammingCode/DaisyCode/DaisyExamples/DaisySP/Source/Utility/dsp.h **** #ifdef __arm__
 5884              		.loc 18 53 5 view .LVU1513
  55:/Users/dominicfrugoli/Desktop/ProgrammingCode/DaisyCode/DaisyExamples/DaisySP/Source/Utility/dsp.h **** #else
 5885              		.loc 18 55 5 view .LVU1514
 5886              		.syntax unified
ARM GAS  /var/folders/m5/x8wc2gdj7z5cpgcqdsb_gkj40000gn/T//cckXFIsJ.s 			page 160


 5887              	@ 55 "/Users/dominicfrugoli/Desktop/ProgrammingCode/DaisyCode/DaisyExamples/DaisySP/Source/Utility/
 5888 00f2 87FE487A 		vminnm.f32 s14, s14, s16
 5889              	@ 0 "" 2
 5890              	.LVL359:
  59:/Users/dominicfrugoli/Desktop/ProgrammingCode/DaisyCode/DaisyExamples/DaisySP/Source/Utility/dsp.h **** }
 5891              		.loc 18 59 5 view .LVU1515
  59:/Users/dominicfrugoli/Desktop/ProgrammingCode/DaisyCode/DaisyExamples/DaisySP/Source/Utility/dsp.h **** }
 5892              		.loc 18 59 5 is_stmt 0 view .LVU1516
 5893              		.thumb
 5894              		.syntax unified
 5895              	.LBE1035:
 5896              	.LBE1034:
 5897              	.LBE1036:
 5898              	.LBE1039:
 5899              	.LBE1043:
 170:sardinia.cpp  **** 	inputAmp = fmap(hw.adc.GetMuxFloat(0, 7), 0, 2, Mapping::LINEAR); // bottom far right
 5900              		.loc 17 170 12 view .LVU1517
 5901 00f6 83ED007A 		vstr.32	s14, [r3]
 171:sardinia.cpp  **** 
 5902              		.loc 17 171 2 is_stmt 1 view .LVU1518
 171:sardinia.cpp  **** 
 5903              		.loc 17 171 17 is_stmt 0 view .LVU1519
 5904 00fa FFF7FEFF 		bl	_ZNK5daisy9AdcHandle11GetMuxFloatEhh
 5905              	.LVL360:
 5906              	.LBB1044:
 5907              	.LBI1044:
 177:/Users/dominicfrugoli/Desktop/ProgrammingCode/DaisyCode/DaisyExamples/DaisySP/Source/Utility/dsp.h **** {
 5908              		.loc 18 177 1 is_stmt 1 view .LVU1520
 5909              	.LBE1044:
 179:/Users/dominicfrugoli/Desktop/ProgrammingCode/DaisyCode/DaisyExamples/DaisySP/Source/Utility/dsp.h ****     {
 5910              		.loc 18 179 5 view .LVU1521
 5911              	.LBB1054:
 5912              	.LBB1045:
 188:/Users/dominicfrugoli/Desktop/ProgrammingCode/DaisyCode/DaisyExamples/DaisySP/Source/Utility/dsp.h ****         default: return fclamp(min + in * (max - min), min, max);
 5913              		.loc 18 188 9 view .LVU1522
 5914              		.loc 18 189 9 view .LVU1523
 5915              		.loc 18 189 18 view .LVU1524
 5916              		.loc 18 189 31 is_stmt 0 view .LVU1525
 5917 00fe F0EE687A 		vmov.f32	s15, s17
 5918              	.LBE1045:
 5919              	.LBE1054:
 173:sardinia.cpp  **** 	ProcessEffectParameters();
 5920              		.loc 17 173 19 view .LVU1526
 5921 0102 0022     		movs	r2, #0
 171:sardinia.cpp  **** 
 5922              		.loc 17 171 11 view .LVU1527
 5923 0104 494B     		ldr	r3, .L438+40
 173:sardinia.cpp  **** 	ProcessEffectParameters();
 5924              		.loc 17 173 19 view .LVU1528
 5925 0106 4248     		ldr	r0, .L438+12
 5926 0108 1146     		mov	r1, r2
 5927              	.LBB1055:
 5928              	.LBB1052:
 5929              		.loc 18 189 31 view .LVU1529
 5930 010a E0EE087A 		vfma.f32	s15, s0, s16
 5931              	.LVL361:
 5932              	.LBB1046:
ARM GAS  /var/folders/m5/x8wc2gdj7z5cpgcqdsb_gkj40000gn/T//cckXFIsJ.s 			page 161


 5933              	.LBI1046:
  64:/Users/dominicfrugoli/Desktop/ProgrammingCode/DaisyCode/DaisyExamples/DaisySP/Source/Utility/dsp.h **** {
 5934              		.loc 18 64 14 is_stmt 1 view .LVU1530
 5935              	.LBE1046:
 5936              	.LBE1052:
 5937              	.LBE1055:
  66:/Users/dominicfrugoli/Desktop/ProgrammingCode/DaisyCode/DaisyExamples/DaisySP/Source/Utility/dsp.h **** }
 5938              		.loc 18 66 5 view .LVU1531
 5939              	.LBB1056:
 5940              	.LBB1053:
 5941              	.LBB1051:
 5942              	.LBB1047:
 5943              	.LBI1047:
  40:/Users/dominicfrugoli/Desktop/ProgrammingCode/DaisyCode/DaisyExamples/DaisySP/Source/Utility/dsp.h **** {
 5944              		.loc 18 40 14 view .LVU1532
 5945              	.LBB1048:
  42:/Users/dominicfrugoli/Desktop/ProgrammingCode/DaisyCode/DaisyExamples/DaisySP/Source/Utility/dsp.h **** #ifdef __arm__
 5946              		.loc 18 42 5 view .LVU1533
  44:/Users/dominicfrugoli/Desktop/ProgrammingCode/DaisyCode/DaisyExamples/DaisySP/Source/Utility/dsp.h **** #else
 5947              		.loc 18 44 5 view .LVU1534
 5948              		.syntax unified
 5949              	@ 44 "/Users/dominicfrugoli/Desktop/ProgrammingCode/DaisyCode/DaisyExamples/DaisySP/Source/Utility/
 5950 010e C7FEA87A 		vmaxnm.f32 s15, s15, s17
 5951              	@ 0 "" 2
 5952              	.LVL362:
  48:/Users/dominicfrugoli/Desktop/ProgrammingCode/DaisyCode/DaisyExamples/DaisySP/Source/Utility/dsp.h **** }
 5953              		.loc 18 48 5 view .LVU1535
  48:/Users/dominicfrugoli/Desktop/ProgrammingCode/DaisyCode/DaisyExamples/DaisySP/Source/Utility/dsp.h **** }
 5954              		.loc 18 48 5 is_stmt 0 view .LVU1536
 5955              		.thumb
 5956              		.syntax unified
 5957              	.LBE1048:
 5958              	.LBE1047:
 5959              	.LBB1049:
 5960              	.LBI1049:
  51:/Users/dominicfrugoli/Desktop/ProgrammingCode/DaisyCode/DaisyExamples/DaisySP/Source/Utility/dsp.h **** {
 5961              		.loc 18 51 14 is_stmt 1 view .LVU1537
 5962              	.LBB1050:
  53:/Users/dominicfrugoli/Desktop/ProgrammingCode/DaisyCode/DaisyExamples/DaisySP/Source/Utility/dsp.h **** #ifdef __arm__
 5963              		.loc 18 53 5 view .LVU1538
  55:/Users/dominicfrugoli/Desktop/ProgrammingCode/DaisyCode/DaisyExamples/DaisySP/Source/Utility/dsp.h **** #else
 5964              		.loc 18 55 5 view .LVU1539
 5965              		.syntax unified
 5966              	@ 55 "/Users/dominicfrugoli/Desktop/ProgrammingCode/DaisyCode/DaisyExamples/DaisySP/Source/Utility/
 5967 0112 C7FEC87A 		vminnm.f32 s15, s15, s16
 5968              	@ 0 "" 2
 5969              	.LVL363:
  59:/Users/dominicfrugoli/Desktop/ProgrammingCode/DaisyCode/DaisyExamples/DaisySP/Source/Utility/dsp.h **** }
 5970              		.loc 18 59 5 view .LVU1540
  59:/Users/dominicfrugoli/Desktop/ProgrammingCode/DaisyCode/DaisyExamples/DaisySP/Source/Utility/dsp.h **** }
 5971              		.loc 18 59 5 is_stmt 0 view .LVU1541
 5972              		.thumb
 5973              		.syntax unified
 5974              	.LBE1050:
 5975              	.LBE1049:
 5976              	.LBE1051:
 5977              	.LBE1053:
ARM GAS  /var/folders/m5/x8wc2gdj7z5cpgcqdsb_gkj40000gn/T//cckXFIsJ.s 			page 162


 5978              	.LBE1056:
 171:sardinia.cpp  **** 
 5979              		.loc 17 171 11 view .LVU1542
 5980 0116 C3ED007A 		vstr.32	s15, [r3]
 173:sardinia.cpp  **** 	ProcessEffectParameters();
 5981              		.loc 17 173 2 is_stmt 1 view .LVU1543
 173:sardinia.cpp  **** 	ProcessEffectParameters();
 5982              		.loc 17 173 19 is_stmt 0 view .LVU1544
 5983 011a FFF7FEFF 		bl	_ZNK5daisy9AdcHandle11GetMuxFloatEhh
 5984              	.LVL364:
 5985              	.LBB1057:
 5986              	.LBI1057:
 177:/Users/dominicfrugoli/Desktop/ProgrammingCode/DaisyCode/DaisyExamples/DaisySP/Source/Utility/dsp.h **** {
 5987              		.loc 18 177 1 is_stmt 1 view .LVU1545
 5988              	.LBE1057:
 179:/Users/dominicfrugoli/Desktop/ProgrammingCode/DaisyCode/DaisyExamples/DaisySP/Source/Utility/dsp.h ****     {
 5989              		.loc 18 179 5 view .LVU1546
 5990              	.LBB1067:
 5991              	.LBB1058:
 181:/Users/dominicfrugoli/Desktop/ProgrammingCode/DaisyCode/DaisyExamples/DaisySP/Source/Utility/dsp.h ****             return fclamp(min + (in * in) * (max - min), min, max);
 5992              		.loc 18 181 9 view .LVU1547
 182:/Users/dominicfrugoli/Desktop/ProgrammingCode/DaisyCode/DaisyExamples/DaisySP/Source/Utility/dsp.h ****         case Mapping::LOG:
 5993              		.loc 18 182 13 view .LVU1548
 182:/Users/dominicfrugoli/Desktop/ProgrammingCode/DaisyCode/DaisyExamples/DaisySP/Source/Utility/dsp.h ****         case Mapping::LOG:
 5994              		.loc 18 182 26 is_stmt 0 view .LVU1549
 5995 011e B6EE007A 		vmov.f32	s14, #5.0e-1
 5996              	.LBE1058:
 5997              	.LBE1067:
 173:sardinia.cpp  **** 	ProcessEffectParameters();
 5998              		.loc 17 173 13 view .LVU1550
 5999 0122 434B     		ldr	r3, .L438+44
 6000              	.LBB1068:
 6001              	.LBB1065:
 182:/Users/dominicfrugoli/Desktop/ProgrammingCode/DaisyCode/DaisyExamples/DaisySP/Source/Utility/dsp.h ****         case Mapping::LOG:
 6002              		.loc 18 182 26 view .LVU1551
 6003 0124 F7EE086A 		vmov.f32	s13, #1.5e+0
 182:/Users/dominicfrugoli/Desktop/ProgrammingCode/DaisyCode/DaisyExamples/DaisySP/Source/Utility/dsp.h ****         case Mapping::LOG:
 6004              		.loc 18 182 37 view .LVU1552
 6005 0128 20EE000A 		vmul.f32	s0, s0, s0
 6006              	.LVL365:
 182:/Users/dominicfrugoli/Desktop/ProgrammingCode/DaisyCode/DaisyExamples/DaisySP/Source/Utility/dsp.h ****         case Mapping::LOG:
 6007              		.loc 18 182 26 view .LVU1553
 6008 012c F0EE477A 		vmov.f32	s15, s14
 6009 0130 E0EE267A 		vfma.f32	s15, s0, s13
 6010              	.LVL366:
 6011              	.LBB1059:
 6012              	.LBI1059:
  64:/Users/dominicfrugoli/Desktop/ProgrammingCode/DaisyCode/DaisyExamples/DaisySP/Source/Utility/dsp.h **** {
 6013              		.loc 18 64 14 is_stmt 1 view .LVU1554
 6014              	.LBE1059:
 6015              	.LBE1065:
 6016              	.LBE1068:
  66:/Users/dominicfrugoli/Desktop/ProgrammingCode/DaisyCode/DaisyExamples/DaisySP/Source/Utility/dsp.h **** }
 6017              		.loc 18 66 5 view .LVU1555
 6018              	.LBB1069:
 6019              	.LBB1066:
 6020              	.LBB1064:
ARM GAS  /var/folders/m5/x8wc2gdj7z5cpgcqdsb_gkj40000gn/T//cckXFIsJ.s 			page 163


 6021              	.LBB1060:
 6022              	.LBI1060:
  40:/Users/dominicfrugoli/Desktop/ProgrammingCode/DaisyCode/DaisyExamples/DaisySP/Source/Utility/dsp.h **** {
 6023              		.loc 18 40 14 view .LVU1556
 6024              	.LBB1061:
  42:/Users/dominicfrugoli/Desktop/ProgrammingCode/DaisyCode/DaisyExamples/DaisySP/Source/Utility/dsp.h **** #ifdef __arm__
 6025              		.loc 18 42 5 view .LVU1557
  44:/Users/dominicfrugoli/Desktop/ProgrammingCode/DaisyCode/DaisyExamples/DaisySP/Source/Utility/dsp.h **** #else
 6026              		.loc 18 44 5 view .LVU1558
 6027              		.syntax unified
 6028              	@ 44 "/Users/dominicfrugoli/Desktop/ProgrammingCode/DaisyCode/DaisyExamples/DaisySP/Source/Utility/
 6029 0134 C7FE877A 		vmaxnm.f32 s15, s15, s14
 6030              	@ 0 "" 2
 6031              	.LVL367:
  48:/Users/dominicfrugoli/Desktop/ProgrammingCode/DaisyCode/DaisyExamples/DaisySP/Source/Utility/dsp.h **** }
 6032              		.loc 18 48 5 view .LVU1559
  48:/Users/dominicfrugoli/Desktop/ProgrammingCode/DaisyCode/DaisyExamples/DaisySP/Source/Utility/dsp.h **** }
 6033              		.loc 18 48 5 is_stmt 0 view .LVU1560
 6034              		.thumb
 6035              		.syntax unified
 6036              	.LBE1061:
 6037              	.LBE1060:
 6038              	.LBB1062:
 6039              	.LBI1062:
  51:/Users/dominicfrugoli/Desktop/ProgrammingCode/DaisyCode/DaisyExamples/DaisySP/Source/Utility/dsp.h **** {
 6040              		.loc 18 51 14 is_stmt 1 view .LVU1561
 6041              	.LBB1063:
  53:/Users/dominicfrugoli/Desktop/ProgrammingCode/DaisyCode/DaisyExamples/DaisySP/Source/Utility/dsp.h **** #ifdef __arm__
 6042              		.loc 18 53 5 view .LVU1562
  55:/Users/dominicfrugoli/Desktop/ProgrammingCode/DaisyCode/DaisyExamples/DaisySP/Source/Utility/dsp.h **** #else
 6043              		.loc 18 55 5 view .LVU1563
 6044              		.syntax unified
 6045              	@ 55 "/Users/dominicfrugoli/Desktop/ProgrammingCode/DaisyCode/DaisyExamples/DaisySP/Source/Utility/
 6046 0138 C7FEC87A 		vminnm.f32 s15, s15, s16
 6047              	@ 0 "" 2
 6048              	.LVL368:
  59:/Users/dominicfrugoli/Desktop/ProgrammingCode/DaisyCode/DaisyExamples/DaisySP/Source/Utility/dsp.h **** }
 6049              		.loc 18 59 5 view .LVU1564
  59:/Users/dominicfrugoli/Desktop/ProgrammingCode/DaisyCode/DaisyExamples/DaisySP/Source/Utility/dsp.h **** }
 6050              		.loc 18 59 5 is_stmt 0 view .LVU1565
 6051              		.thumb
 6052              		.syntax unified
 6053              	.LBE1063:
 6054              	.LBE1062:
 6055              	.LBE1064:
 6056              	.LBE1066:
 6057              	.LBE1069:
 175:sardinia.cpp  **** 
 6058              		.loc 17 175 1 view .LVU1566
 6059 013c BDEC028B 		vldm	sp!, {d8}
 6060              		.cfi_remember_state
 6061              		.cfi_restore 80
 6062              		.cfi_restore 81
 6063              		.cfi_def_cfa_offset 8
 6064 0140 BDE81040 		pop	{r4, lr}
 6065              		.cfi_restore 14
 6066              		.cfi_restore 4
ARM GAS  /var/folders/m5/x8wc2gdj7z5cpgcqdsb_gkj40000gn/T//cckXFIsJ.s 			page 164


 6067              		.cfi_def_cfa_offset 0
 173:sardinia.cpp  **** 	ProcessEffectParameters();
 6068              		.loc 17 173 13 view .LVU1567
 6069 0144 C3ED007A 		vstr.32	s15, [r3]
 174:sardinia.cpp  **** }
 6070              		.loc 17 174 2 is_stmt 1 view .LVU1568
 174:sardinia.cpp  **** }
 6071              		.loc 17 174 25 is_stmt 0 view .LVU1569
 6072 0148 FFF7FEBF 		b	_Z23ProcessEffectParametersv
 6073              	.LVL369:
 6074              	.L435:
 6075              		.cfi_restore_state
 6076              	.LBB1070:
 6077              	.LBB973:
 105:effects.h     ****     }
 6078              		.loc 16 105 9 is_stmt 1 view .LVU1570
 105:effects.h     ****     }
 6079              		.loc 16 105 23 is_stmt 0 view .LVU1571
 6080 014c 0222     		movs	r2, #2
 6081              	.LBE973:
 6082              	.LBE1070:
 6083              	.LBB1071:
 6084              	.LBB985:
 6085              	.LBB981:
 6086              		.loc 1 70 54 view .LVU1572
 6087 014e 237B     		ldrb	r3, [r4, #12]	@ zero_extendqisi2
 6088              	.LBE981:
 6089              	.LBE985:
 6090              	.LBE1071:
 6091              	.LBB1072:
 6092              	.LBB974:
 105:effects.h     ****     }
 6093              		.loc 16 105 23 view .LVU1573
 6094 0150 0A60     		str	r2, [r1]
 6095              	.LVL370:
 105:effects.h     ****     }
 6096              		.loc 16 105 23 view .LVU1574
 6097              	.LBE974:
 6098              	.LBE1072:
 148:sardinia.cpp  **** 	{
 6099              		.loc 17 148 2 is_stmt 1 view .LVU1575
 6100              	.LBB1073:
 6101              		.loc 2 39 17 view .LVU1576
 6102              	.LBE1073:
 6103              		.loc 2 39 38 view .LVU1577
 6104              	.LBB1074:
 6105              	.LBB986:
 6106              		.loc 1 70 17 view .LVU1578
 6107              	.LBB982:
 6108              		.loc 1 70 38 view .LVU1579
 6109              		.loc 1 70 54 is_stmt 0 view .LVU1580
 6110 0152 002B     		cmp	r3, #0
 6111 0154 4DD1     		bne	.L437
 6112              	.LVL371:
 6113              	.L410:
 6114              		.loc 1 70 54 view .LVU1581
 6115              	.LBE982:
ARM GAS  /var/folders/m5/x8wc2gdj7z5cpgcqdsb_gkj40000gn/T//cckXFIsJ.s 			page 165


 6116              	.LBE986:
 6117              	.LBE1074:
 165:sardinia.cpp  **** 		effectValues[2][1] = fmap(hw.adc.GetMuxFloat(0, 6), 0, 1, Mapping::LINEAR); // LoPass Res
 6118              		.loc 17 165 3 is_stmt 1 view .LVU1582
 6119              	.LBB1075:
 6120              	.LBB1076:
 182:/Users/dominicfrugoli/Desktop/ProgrammingCode/DaisyCode/DaisyExamples/DaisySP/Source/Utility/dsp.h ****         case Mapping::LOG:
 6121              		.loc 18 182 26 is_stmt 0 view .LVU1583
 6122 0156 9FED308A 		vldr.32	s16, .L438+20
 6123              	.LBE1076:
 6124              	.LBE1075:
 165:sardinia.cpp  **** 		effectValues[2][1] = fmap(hw.adc.GetMuxFloat(0, 6), 0, 1, Mapping::LINEAR); // LoPass Res
 6125              		.loc 17 165 28 view .LVU1584
 6126 015a 0222     		movs	r2, #2
 6127 015c 0021     		movs	r1, #0
 6128 015e 2C48     		ldr	r0, .L438+12
 6129 0160 FFF7FEFF 		bl	_ZNK5daisy9AdcHandle11GetMuxFloatEhh
 6130              	.LVL372:
 6131              	.LBB1086:
 6132              	.LBI1075:
 177:/Users/dominicfrugoli/Desktop/ProgrammingCode/DaisyCode/DaisyExamples/DaisySP/Source/Utility/dsp.h **** {
 6133              		.loc 18 177 1 is_stmt 1 view .LVU1585
 6134              	.LBE1086:
 179:/Users/dominicfrugoli/Desktop/ProgrammingCode/DaisyCode/DaisyExamples/DaisySP/Source/Utility/dsp.h ****     {
 6135              		.loc 18 179 5 view .LVU1586
 6136              	.LBB1087:
 6137              	.LBB1083:
 181:/Users/dominicfrugoli/Desktop/ProgrammingCode/DaisyCode/DaisyExamples/DaisySP/Source/Utility/dsp.h ****             return fclamp(min + (in * in) * (max - min), min, max);
 6138              		.loc 18 181 9 view .LVU1587
 182:/Users/dominicfrugoli/Desktop/ProgrammingCode/DaisyCode/DaisyExamples/DaisySP/Source/Utility/dsp.h ****         case Mapping::LOG:
 6139              		.loc 18 182 13 view .LVU1588
 182:/Users/dominicfrugoli/Desktop/ProgrammingCode/DaisyCode/DaisyExamples/DaisySP/Source/Utility/dsp.h ****         case Mapping::LOG:
 6140              		.loc 18 182 26 is_stmt 0 view .LVU1589
 6141 0164 B0EE487A 		vmov.f32	s14, s16
 182:/Users/dominicfrugoli/Desktop/ProgrammingCode/DaisyCode/DaisyExamples/DaisySP/Source/Utility/dsp.h ****         case Mapping::LOG:
 6142              		.loc 18 182 37 view .LVU1590
 6143 0168 20EE000A 		vmul.f32	s0, s0, s0
 6144              	.LVL373:
 182:/Users/dominicfrugoli/Desktop/ProgrammingCode/DaisyCode/DaisyExamples/DaisySP/Source/Utility/dsp.h ****         case Mapping::LOG:
 6145              		.loc 18 182 26 view .LVU1591
 6146 016c DFED317A 		vldr.32	s15, .L438+48
 6147              	.LBE1083:
 6148              	.LBE1087:
 165:sardinia.cpp  **** 		effectValues[2][1] = fmap(hw.adc.GetMuxFloat(0, 6), 0, 1, Mapping::LINEAR); // LoPass Res
 6149              		.loc 17 165 22 view .LVU1592
 6150 0170 284C     		ldr	r4, .L438+16
 166:sardinia.cpp  **** 	}
 6151              		.loc 17 166 28 view .LVU1593
 6152 0172 0622     		movs	r2, #6
 6153 0174 0021     		movs	r1, #0
 6154 0176 2648     		ldr	r0, .L438+12
 6155              	.LBB1088:
 6156              	.LBB1084:
 182:/Users/dominicfrugoli/Desktop/ProgrammingCode/DaisyCode/DaisyExamples/DaisySP/Source/Utility/dsp.h ****         case Mapping::LOG:
 6157              		.loc 18 182 26 view .LVU1594
 6158 0178 A0EE277A 		vfma.f32	s14, s0, s15
 6159              	.LVL374:
ARM GAS  /var/folders/m5/x8wc2gdj7z5cpgcqdsb_gkj40000gn/T//cckXFIsJ.s 			page 166


 6160              	.LBB1077:
 6161              	.LBI1077:
  64:/Users/dominicfrugoli/Desktop/ProgrammingCode/DaisyCode/DaisyExamples/DaisySP/Source/Utility/dsp.h **** {
 6162              		.loc 18 64 14 is_stmt 1 view .LVU1595
 6163              	.LBE1077:
 6164              	.LBE1084:
 6165              	.LBE1088:
  66:/Users/dominicfrugoli/Desktop/ProgrammingCode/DaisyCode/DaisyExamples/DaisySP/Source/Utility/dsp.h **** }
 6166              		.loc 18 66 5 view .LVU1596
 6167              	.LBB1089:
 6168              	.LBB1085:
 6169              	.LBB1082:
 6170              	.LBB1078:
 6171              	.LBI1078:
  40:/Users/dominicfrugoli/Desktop/ProgrammingCode/DaisyCode/DaisyExamples/DaisySP/Source/Utility/dsp.h **** {
 6172              		.loc 18 40 14 view .LVU1597
 6173              	.LBB1079:
  42:/Users/dominicfrugoli/Desktop/ProgrammingCode/DaisyCode/DaisyExamples/DaisySP/Source/Utility/dsp.h **** #ifdef __arm__
 6174              		.loc 18 42 5 view .LVU1598
  44:/Users/dominicfrugoli/Desktop/ProgrammingCode/DaisyCode/DaisyExamples/DaisySP/Source/Utility/dsp.h **** #else
 6175              		.loc 18 44 5 view .LVU1599
 6176              		.syntax unified
 6177              	@ 44 "/Users/dominicfrugoli/Desktop/ProgrammingCode/DaisyCode/DaisyExamples/DaisySP/Source/Utility/
 6178 017c 87FE087A 		vmaxnm.f32 s14, s14, s16
 6179              	@ 0 "" 2
 6180              	.LVL375:
  48:/Users/dominicfrugoli/Desktop/ProgrammingCode/DaisyCode/DaisyExamples/DaisySP/Source/Utility/dsp.h **** }
 6181              		.loc 18 48 5 view .LVU1600
  48:/Users/dominicfrugoli/Desktop/ProgrammingCode/DaisyCode/DaisyExamples/DaisySP/Source/Utility/dsp.h **** }
 6182              		.loc 18 48 5 is_stmt 0 view .LVU1601
 6183              		.thumb
 6184              		.syntax unified
 6185              	.LBE1079:
 6186              	.LBE1078:
 6187              	.LBB1080:
 6188              	.LBI1080:
  51:/Users/dominicfrugoli/Desktop/ProgrammingCode/DaisyCode/DaisyExamples/DaisySP/Source/Utility/dsp.h **** {
 6189              		.loc 18 51 14 is_stmt 1 view .LVU1602
 6190              	.LBB1081:
  53:/Users/dominicfrugoli/Desktop/ProgrammingCode/DaisyCode/DaisyExamples/DaisySP/Source/Utility/dsp.h **** #ifdef __arm__
 6191              		.loc 18 53 5 view .LVU1603
  55:/Users/dominicfrugoli/Desktop/ProgrammingCode/DaisyCode/DaisyExamples/DaisySP/Source/Utility/dsp.h **** #else
 6192              		.loc 18 55 5 view .LVU1604
 6193              		.syntax unified
 6194              	@ 55 "/Users/dominicfrugoli/Desktop/ProgrammingCode/DaisyCode/DaisyExamples/DaisySP/Source/Utility/
 6195 0180 87FE677A 		vminnm.f32 s14, s14, s15
 6196              	@ 0 "" 2
 6197              	.LVL376:
  59:/Users/dominicfrugoli/Desktop/ProgrammingCode/DaisyCode/DaisyExamples/DaisySP/Source/Utility/dsp.h **** }
 6198              		.loc 18 59 5 view .LVU1605
  59:/Users/dominicfrugoli/Desktop/ProgrammingCode/DaisyCode/DaisyExamples/DaisySP/Source/Utility/dsp.h **** }
 6199              		.loc 18 59 5 is_stmt 0 view .LVU1606
 6200              		.thumb
 6201              		.syntax unified
 6202              	.LBE1081:
 6203              	.LBE1080:
 6204              	.LBE1082:
ARM GAS  /var/folders/m5/x8wc2gdj7z5cpgcqdsb_gkj40000gn/T//cckXFIsJ.s 			page 167


 6205              	.LBE1085:
 6206              	.LBE1089:
 165:sardinia.cpp  **** 		effectValues[2][1] = fmap(hw.adc.GetMuxFloat(0, 6), 0, 1, Mapping::LINEAR); // LoPass Res
 6207              		.loc 17 165 22 view .LVU1607
 6208 0184 84ED047A 		vstr.32	s14, [r4, #16]
 166:sardinia.cpp  **** 	}
 6209              		.loc 17 166 3 is_stmt 1 view .LVU1608
 166:sardinia.cpp  **** 	}
 6210              		.loc 17 166 28 is_stmt 0 view .LVU1609
 6211 0188 FFF7FEFF 		bl	_ZNK5daisy9AdcHandle11GetMuxFloatEhh
 6212              	.LVL377:
 6213              	.LBB1090:
 6214              	.LBI1090:
 177:/Users/dominicfrugoli/Desktop/ProgrammingCode/DaisyCode/DaisyExamples/DaisySP/Source/Utility/dsp.h **** {
 6215              		.loc 18 177 1 is_stmt 1 view .LVU1610
 6216              	.LBE1090:
 179:/Users/dominicfrugoli/Desktop/ProgrammingCode/DaisyCode/DaisyExamples/DaisySP/Source/Utility/dsp.h ****     {
 6217              		.loc 18 179 5 view .LVU1611
 6218              	.LBB1104:
 6219              	.LBB1091:
 188:/Users/dominicfrugoli/Desktop/ProgrammingCode/DaisyCode/DaisyExamples/DaisySP/Source/Utility/dsp.h ****         default: return fclamp(min + in * (max - min), min, max);
 6220              		.loc 18 188 9 view .LVU1612
 6221              		.loc 18 189 9 view .LVU1613
 6222              		.loc 18 189 18 view .LVU1614
 6223              	.LBB1092:
 6224              	.LBI1092:
  64:/Users/dominicfrugoli/Desktop/ProgrammingCode/DaisyCode/DaisyExamples/DaisySP/Source/Utility/dsp.h **** {
 6225              		.loc 18 64 14 view .LVU1615
 6226              	.LBE1092:
 6227              	.LBE1091:
 6228              	.LBE1104:
  66:/Users/dominicfrugoli/Desktop/ProgrammingCode/DaisyCode/DaisyExamples/DaisySP/Source/Utility/dsp.h **** }
 6229              		.loc 18 66 5 view .LVU1616
 6230              	.LBB1105:
 6231              	.LBB1103:
 6232              	.LBB1101:
 6233              	.LBB1093:
 6234              	.LBI1093:
  40:/Users/dominicfrugoli/Desktop/ProgrammingCode/DaisyCode/DaisyExamples/DaisySP/Source/Utility/dsp.h **** {
 6235              		.loc 18 40 14 view .LVU1617
 6236              	.LBB1094:
  42:/Users/dominicfrugoli/Desktop/ProgrammingCode/DaisyCode/DaisyExamples/DaisySP/Source/Utility/dsp.h **** #ifdef __arm__
 6237              		.loc 18 42 5 view .LVU1618
  44:/Users/dominicfrugoli/Desktop/ProgrammingCode/DaisyCode/DaisyExamples/DaisySP/Source/Utility/dsp.h **** #else
 6238              		.loc 18 44 5 view .LVU1619
 6239              	.LBE1094:
 6240              	.LBE1093:
 6241              	.LBB1096:
 6242              	.LBB1097:
  55:/Users/dominicfrugoli/Desktop/ProgrammingCode/DaisyCode/DaisyExamples/DaisySP/Source/Utility/dsp.h **** #else
 6243              		.loc 18 55 5 is_stmt 0 view .LVU1620
 6244 018c B7EE007A 		vmov.f32	s14, #1.0e+0
 6245              	.LBE1097:
 6246              	.LBE1096:
 6247              	.LBE1101:
 6248              		.loc 18 189 31 view .LVU1621
 6249 0190 30EE080A 		vadd.f32	s0, s0, s16
ARM GAS  /var/folders/m5/x8wc2gdj7z5cpgcqdsb_gkj40000gn/T//cckXFIsJ.s 			page 168


 6250              	.LVL378:
 6251              	.LBB1102:
 6252              	.LBB1099:
 6253              	.LBB1095:
  44:/Users/dominicfrugoli/Desktop/ProgrammingCode/DaisyCode/DaisyExamples/DaisySP/Source/Utility/dsp.h **** #else
 6254              		.loc 18 44 5 view .LVU1622
 6255              		.syntax unified
 6256              	@ 44 "/Users/dominicfrugoli/Desktop/ProgrammingCode/DaisyCode/DaisyExamples/DaisySP/Source/Utility/
 6257 0194 C0FE087A 		vmaxnm.f32 s15, s0, s16
 6258              	@ 0 "" 2
 6259              	.LVL379:
  48:/Users/dominicfrugoli/Desktop/ProgrammingCode/DaisyCode/DaisyExamples/DaisySP/Source/Utility/dsp.h **** }
 6260              		.loc 18 48 5 is_stmt 1 view .LVU1623
  48:/Users/dominicfrugoli/Desktop/ProgrammingCode/DaisyCode/DaisyExamples/DaisySP/Source/Utility/dsp.h **** }
 6261              		.loc 18 48 5 is_stmt 0 view .LVU1624
 6262              		.thumb
 6263              		.syntax unified
 6264              	.LBE1095:
 6265              	.LBE1099:
 6266              	.LBB1100:
 6267              	.LBI1096:
  51:/Users/dominicfrugoli/Desktop/ProgrammingCode/DaisyCode/DaisyExamples/DaisySP/Source/Utility/dsp.h **** {
 6268              		.loc 18 51 14 is_stmt 1 view .LVU1625
 6269              	.LBB1098:
  53:/Users/dominicfrugoli/Desktop/ProgrammingCode/DaisyCode/DaisyExamples/DaisySP/Source/Utility/dsp.h **** #ifdef __arm__
 6270              		.loc 18 53 5 view .LVU1626
  55:/Users/dominicfrugoli/Desktop/ProgrammingCode/DaisyCode/DaisyExamples/DaisySP/Source/Utility/dsp.h **** #else
 6271              		.loc 18 55 5 view .LVU1627
 6272              		.syntax unified
 6273              	@ 55 "/Users/dominicfrugoli/Desktop/ProgrammingCode/DaisyCode/DaisyExamples/DaisySP/Source/Utility/
 6274 0198 C7FEC77A 		vminnm.f32 s15, s15, s14
 6275              	@ 0 "" 2
 6276              	.LVL380:
  59:/Users/dominicfrugoli/Desktop/ProgrammingCode/DaisyCode/DaisyExamples/DaisySP/Source/Utility/dsp.h **** }
 6277              		.loc 18 59 5 view .LVU1628
  59:/Users/dominicfrugoli/Desktop/ProgrammingCode/DaisyCode/DaisyExamples/DaisySP/Source/Utility/dsp.h **** }
 6278              		.loc 18 59 5 is_stmt 0 view .LVU1629
 6279              		.thumb
 6280              		.syntax unified
 6281              	.LBE1098:
 6282              	.LBE1100:
 6283              	.LBE1102:
 6284              	.LBE1103:
 6285              	.LBE1105:
 166:sardinia.cpp  **** 	}
 6286              		.loc 17 166 22 view .LVU1630
 6287 019c C4ED057A 		vstr.32	s15, [r4, #20]
 6288 01a0 94E7     		b	.L411
 6289              	.LVL381:
 6290              	.L412:
 6291              	.LBB1106:
 6292              	.LBB975:
 102:effects.h     ****     if(currentEffect < 0)
 6293              		.loc 16 102 19 view .LVU1631
 6294 01a2 0B60     		str	r3, [r1]
 6295 01a4 82E7     		b	.L408
 6296              	.LVL382:
ARM GAS  /var/folders/m5/x8wc2gdj7z5cpgcqdsb_gkj40000gn/T//cckXFIsJ.s 			page 169


 6297              	.L436:
 102:effects.h     ****     if(currentEffect < 0)
 6298              		.loc 16 102 19 view .LVU1632
 6299              	.LBE975:
 6300              	.LBE1106:
 160:sardinia.cpp  **** 		effectValues[1][1] = fmap(hw.adc.GetMuxFloat(0, 6), 0, 10, Mapping::EXP); // Chorus LFO Freq
 6301              		.loc 17 160 3 is_stmt 1 view .LVU1633
 6302              	.LBB1107:
 6303              	.LBB1108:
 6304              		.loc 18 189 31 is_stmt 0 view .LVU1634
 6305 01a6 9FED1C8A 		vldr.32	s16, .L438+20
 6306              	.LBE1108:
 6307              	.LBE1107:
 160:sardinia.cpp  **** 		effectValues[1][1] = fmap(hw.adc.GetMuxFloat(0, 6), 0, 10, Mapping::EXP); // Chorus LFO Freq
 6308              		.loc 17 160 28 view .LVU1635
 6309 01aa 0222     		movs	r2, #2
 160:sardinia.cpp  **** 		effectValues[1][1] = fmap(hw.adc.GetMuxFloat(0, 6), 0, 10, Mapping::EXP); // Chorus LFO Freq
 6310              		.loc 17 160 22 view .LVU1636
 6311 01ac 194C     		ldr	r4, .L438+16
 160:sardinia.cpp  **** 		effectValues[1][1] = fmap(hw.adc.GetMuxFloat(0, 6), 0, 10, Mapping::EXP); // Chorus LFO Freq
 6312              		.loc 17 160 28 view .LVU1637
 6313 01ae 0021     		movs	r1, #0
 6314 01b0 1748     		ldr	r0, .L438+12
 6315 01b2 FFF7FEFF 		bl	_ZNK5daisy9AdcHandle11GetMuxFloatEhh
 6316              	.LVL383:
 6317              	.LBB1127:
 6318              	.LBI1107:
 177:/Users/dominicfrugoli/Desktop/ProgrammingCode/DaisyCode/DaisyExamples/DaisySP/Source/Utility/dsp.h **** {
 6319              		.loc 18 177 1 is_stmt 1 view .LVU1638
 6320              	.LBE1127:
 179:/Users/dominicfrugoli/Desktop/ProgrammingCode/DaisyCode/DaisyExamples/DaisySP/Source/Utility/dsp.h ****     {
 6321              		.loc 18 179 5 view .LVU1639
 6322              	.LBB1128:
 6323              	.LBB1123:
 188:/Users/dominicfrugoli/Desktop/ProgrammingCode/DaisyCode/DaisyExamples/DaisySP/Source/Utility/dsp.h ****         default: return fclamp(min + in * (max - min), min, max);
 6324              		.loc 18 188 9 view .LVU1640
 6325              		.loc 18 189 9 view .LVU1641
 6326              		.loc 18 189 18 view .LVU1642
 6327              	.LBB1109:
 6328              	.LBI1109:
  64:/Users/dominicfrugoli/Desktop/ProgrammingCode/DaisyCode/DaisyExamples/DaisySP/Source/Utility/dsp.h **** {
 6329              		.loc 18 64 14 view .LVU1643
 6330              	.LBE1109:
 6331              	.LBE1123:
 6332              	.LBE1128:
  66:/Users/dominicfrugoli/Desktop/ProgrammingCode/DaisyCode/DaisyExamples/DaisySP/Source/Utility/dsp.h **** }
 6333              		.loc 18 66 5 view .LVU1644
 6334              	.LBB1129:
 6335              	.LBB1124:
 6336              	.LBB1120:
 6337              	.LBB1110:
 6338              	.LBI1110:
  40:/Users/dominicfrugoli/Desktop/ProgrammingCode/DaisyCode/DaisyExamples/DaisySP/Source/Utility/dsp.h **** {
 6339              		.loc 18 40 14 view .LVU1645
 6340              	.LBB1111:
  42:/Users/dominicfrugoli/Desktop/ProgrammingCode/DaisyCode/DaisyExamples/DaisySP/Source/Utility/dsp.h **** #ifdef __arm__
 6341              		.loc 18 42 5 view .LVU1646
ARM GAS  /var/folders/m5/x8wc2gdj7z5cpgcqdsb_gkj40000gn/T//cckXFIsJ.s 			page 170


  44:/Users/dominicfrugoli/Desktop/ProgrammingCode/DaisyCode/DaisyExamples/DaisySP/Source/Utility/dsp.h **** #else
 6342              		.loc 18 44 5 view .LVU1647
 6343              	.LBE1111:
 6344              	.LBE1110:
 6345              	.LBB1113:
 6346              	.LBB1114:
  55:/Users/dominicfrugoli/Desktop/ProgrammingCode/DaisyCode/DaisyExamples/DaisySP/Source/Utility/dsp.h **** #else
 6347              		.loc 18 55 5 is_stmt 0 view .LVU1648
 6348 01b6 B7EE007A 		vmov.f32	s14, #1.0e+0
 6349              	.LBE1114:
 6350              	.LBE1113:
 6351              	.LBE1120:
 6352              		.loc 18 189 31 view .LVU1649
 6353 01ba 30EE080A 		vadd.f32	s0, s0, s16
 6354              	.LVL384:
 6355              		.loc 18 189 31 view .LVU1650
 6356              	.LBE1124:
 6357              	.LBE1129:
 161:sardinia.cpp  **** 	}
 6358              		.loc 17 161 28 view .LVU1651
 6359 01be 0622     		movs	r2, #6
 6360              	.LBB1130:
 6361              	.LBB1125:
 6362              	.LBB1121:
 6363              	.LBB1117:
 6364              	.LBB1112:
  44:/Users/dominicfrugoli/Desktop/ProgrammingCode/DaisyCode/DaisyExamples/DaisySP/Source/Utility/dsp.h **** #else
 6365              		.loc 18 44 5 view .LVU1652
 6366              		.syntax unified
 6367              	@ 44 "/Users/dominicfrugoli/Desktop/ProgrammingCode/DaisyCode/DaisyExamples/DaisySP/Source/Utility/
 6368 01c0 C0FE087A 		vmaxnm.f32 s15, s0, s16
 6369              	@ 0 "" 2
 6370              	.LVL385:
  48:/Users/dominicfrugoli/Desktop/ProgrammingCode/DaisyCode/DaisyExamples/DaisySP/Source/Utility/dsp.h **** }
 6371              		.loc 18 48 5 is_stmt 1 view .LVU1653
  48:/Users/dominicfrugoli/Desktop/ProgrammingCode/DaisyCode/DaisyExamples/DaisySP/Source/Utility/dsp.h **** }
 6372              		.loc 18 48 5 is_stmt 0 view .LVU1654
 6373              		.thumb
 6374              		.syntax unified
 6375              	.LBE1112:
 6376              	.LBE1117:
 6377              	.LBB1118:
 6378              	.LBI1113:
  51:/Users/dominicfrugoli/Desktop/ProgrammingCode/DaisyCode/DaisyExamples/DaisySP/Source/Utility/dsp.h **** {
 6379              		.loc 18 51 14 is_stmt 1 view .LVU1655
 6380              	.LBB1115:
  53:/Users/dominicfrugoli/Desktop/ProgrammingCode/DaisyCode/DaisyExamples/DaisySP/Source/Utility/dsp.h **** #ifdef __arm__
 6381              		.loc 18 53 5 view .LVU1656
  55:/Users/dominicfrugoli/Desktop/ProgrammingCode/DaisyCode/DaisyExamples/DaisySP/Source/Utility/dsp.h **** #else
 6382              		.loc 18 55 5 view .LVU1657
 6383              	.LBE1115:
 6384              	.LBE1118:
 6385              	.LBE1121:
 6386              	.LBE1125:
 6387              	.LBE1130:
 161:sardinia.cpp  **** 	}
 6388              		.loc 17 161 28 is_stmt 0 view .LVU1658
ARM GAS  /var/folders/m5/x8wc2gdj7z5cpgcqdsb_gkj40000gn/T//cckXFIsJ.s 			page 171


 6389 01c4 0021     		movs	r1, #0
 6390 01c6 1248     		ldr	r0, .L438+12
 6391              	.LBB1131:
 6392              	.LBB1126:
 6393              	.LBB1122:
 6394              	.LBB1119:
 6395              	.LBB1116:
  55:/Users/dominicfrugoli/Desktop/ProgrammingCode/DaisyCode/DaisyExamples/DaisySP/Source/Utility/dsp.h **** #else
 6396              		.loc 18 55 5 view .LVU1659
 6397              		.syntax unified
 6398              	@ 55 "/Users/dominicfrugoli/Desktop/ProgrammingCode/DaisyCode/DaisyExamples/DaisySP/Source/Utility/
 6399 01c8 C7FEC77A 		vminnm.f32 s15, s15, s14
 6400              	@ 0 "" 2
 6401              	.LVL386:
  59:/Users/dominicfrugoli/Desktop/ProgrammingCode/DaisyCode/DaisyExamples/DaisySP/Source/Utility/dsp.h **** }
 6402              		.loc 18 59 5 is_stmt 1 view .LVU1660
  59:/Users/dominicfrugoli/Desktop/ProgrammingCode/DaisyCode/DaisyExamples/DaisySP/Source/Utility/dsp.h **** }
 6403              		.loc 18 59 5 is_stmt 0 view .LVU1661
 6404              		.thumb
 6405              		.syntax unified
 6406              	.LBE1116:
 6407              	.LBE1119:
 6408              	.LBE1122:
 6409              	.LBE1126:
 6410              	.LBE1131:
 160:sardinia.cpp  **** 		effectValues[1][1] = fmap(hw.adc.GetMuxFloat(0, 6), 0, 10, Mapping::EXP); // Chorus LFO Freq
 6411              		.loc 17 160 22 view .LVU1662
 6412 01cc C4ED027A 		vstr.32	s15, [r4, #8]
 161:sardinia.cpp  **** 	}
 6413              		.loc 17 161 3 is_stmt 1 view .LVU1663
 161:sardinia.cpp  **** 	}
 6414              		.loc 17 161 28 is_stmt 0 view .LVU1664
 6415 01d0 FFF7FEFF 		bl	_ZNK5daisy9AdcHandle11GetMuxFloatEhh
 6416              	.LVL387:
 6417              	.LBB1132:
 6418              	.LBI1132:
 177:/Users/dominicfrugoli/Desktop/ProgrammingCode/DaisyCode/DaisyExamples/DaisySP/Source/Utility/dsp.h **** {
 6419              		.loc 18 177 1 is_stmt 1 view .LVU1665
 6420              	.LBE1132:
 179:/Users/dominicfrugoli/Desktop/ProgrammingCode/DaisyCode/DaisyExamples/DaisySP/Source/Utility/dsp.h ****     {
 6421              		.loc 18 179 5 view .LVU1666
 6422              	.LBB1141:
 6423              	.LBB1133:
 181:/Users/dominicfrugoli/Desktop/ProgrammingCode/DaisyCode/DaisyExamples/DaisySP/Source/Utility/dsp.h ****             return fclamp(min + (in * in) * (max - min), min, max);
 6424              		.loc 18 181 9 view .LVU1667
 182:/Users/dominicfrugoli/Desktop/ProgrammingCode/DaisyCode/DaisyExamples/DaisySP/Source/Utility/dsp.h ****         case Mapping::LOG:
 6425              		.loc 18 182 13 view .LVU1668
 182:/Users/dominicfrugoli/Desktop/ProgrammingCode/DaisyCode/DaisyExamples/DaisySP/Source/Utility/dsp.h ****         case Mapping::LOG:
 6426              		.loc 18 182 26 is_stmt 0 view .LVU1669
 6427 01d4 B2EE047A 		vmov.f32	s14, #1.0e+1
 182:/Users/dominicfrugoli/Desktop/ProgrammingCode/DaisyCode/DaisyExamples/DaisySP/Source/Utility/dsp.h ****         case Mapping::LOG:
 6428              		.loc 18 182 37 view .LVU1670
 6429 01d8 20EE000A 		vmul.f32	s0, s0, s0
 6430              	.LVL388:
 182:/Users/dominicfrugoli/Desktop/ProgrammingCode/DaisyCode/DaisyExamples/DaisySP/Source/Utility/dsp.h ****         case Mapping::LOG:
 6431              		.loc 18 182 26 view .LVU1671
 6432 01dc F0EE487A 		vmov.f32	s15, s16
ARM GAS  /var/folders/m5/x8wc2gdj7z5cpgcqdsb_gkj40000gn/T//cckXFIsJ.s 			page 172


 6433 01e0 E0EE077A 		vfma.f32	s15, s0, s14
 6434              	.LVL389:
 6435              	.LBB1134:
 6436              	.LBI1134:
  64:/Users/dominicfrugoli/Desktop/ProgrammingCode/DaisyCode/DaisyExamples/DaisySP/Source/Utility/dsp.h **** {
 6437              		.loc 18 64 14 is_stmt 1 view .LVU1672
 6438              	.LBE1134:
 6439              	.LBE1133:
 6440              	.LBE1141:
  66:/Users/dominicfrugoli/Desktop/ProgrammingCode/DaisyCode/DaisyExamples/DaisySP/Source/Utility/dsp.h **** }
 6441              		.loc 18 66 5 view .LVU1673
 6442              	.LBB1142:
 6443              	.LBB1140:
 6444              	.LBB1139:
 6445              	.LBB1135:
 6446              	.LBI1135:
  40:/Users/dominicfrugoli/Desktop/ProgrammingCode/DaisyCode/DaisyExamples/DaisySP/Source/Utility/dsp.h **** {
 6447              		.loc 18 40 14 view .LVU1674
 6448              	.LBB1136:
  42:/Users/dominicfrugoli/Desktop/ProgrammingCode/DaisyCode/DaisyExamples/DaisySP/Source/Utility/dsp.h **** #ifdef __arm__
 6449              		.loc 18 42 5 view .LVU1675
  44:/Users/dominicfrugoli/Desktop/ProgrammingCode/DaisyCode/DaisyExamples/DaisySP/Source/Utility/dsp.h **** #else
 6450              		.loc 18 44 5 view .LVU1676
 6451              		.syntax unified
 6452              	@ 44 "/Users/dominicfrugoli/Desktop/ProgrammingCode/DaisyCode/DaisyExamples/DaisySP/Source/Utility/
 6453 01e4 C7FE887A 		vmaxnm.f32 s15, s15, s16
 6454              	@ 0 "" 2
 6455              	.LVL390:
  48:/Users/dominicfrugoli/Desktop/ProgrammingCode/DaisyCode/DaisyExamples/DaisySP/Source/Utility/dsp.h **** }
 6456              		.loc 18 48 5 view .LVU1677
  48:/Users/dominicfrugoli/Desktop/ProgrammingCode/DaisyCode/DaisyExamples/DaisySP/Source/Utility/dsp.h **** }
 6457              		.loc 18 48 5 is_stmt 0 view .LVU1678
 6458              		.thumb
 6459              		.syntax unified
 6460              	.LBE1136:
 6461              	.LBE1135:
 6462              	.LBB1137:
 6463              	.LBI1137:
  51:/Users/dominicfrugoli/Desktop/ProgrammingCode/DaisyCode/DaisyExamples/DaisySP/Source/Utility/dsp.h **** {
 6464              		.loc 18 51 14 is_stmt 1 view .LVU1679
 6465              	.LBB1138:
  53:/Users/dominicfrugoli/Desktop/ProgrammingCode/DaisyCode/DaisyExamples/DaisySP/Source/Utility/dsp.h **** #ifdef __arm__
 6466              		.loc 18 53 5 view .LVU1680
  55:/Users/dominicfrugoli/Desktop/ProgrammingCode/DaisyCode/DaisyExamples/DaisySP/Source/Utility/dsp.h **** #else
 6467              		.loc 18 55 5 view .LVU1681
 6468              		.syntax unified
 6469              	@ 55 "/Users/dominicfrugoli/Desktop/ProgrammingCode/DaisyCode/DaisyExamples/DaisySP/Source/Utility/
 6470 01e8 C7FEC77A 		vminnm.f32 s15, s15, s14
 6471              	@ 0 "" 2
 6472              	.LVL391:
  59:/Users/dominicfrugoli/Desktop/ProgrammingCode/DaisyCode/DaisyExamples/DaisySP/Source/Utility/dsp.h **** }
 6473              		.loc 18 59 5 view .LVU1682
  59:/Users/dominicfrugoli/Desktop/ProgrammingCode/DaisyCode/DaisyExamples/DaisySP/Source/Utility/dsp.h **** }
 6474              		.loc 18 59 5 is_stmt 0 view .LVU1683
 6475              		.thumb
 6476              		.syntax unified
 6477              	.LBE1138:
ARM GAS  /var/folders/m5/x8wc2gdj7z5cpgcqdsb_gkj40000gn/T//cckXFIsJ.s 			page 173


 6478              	.LBE1137:
 6479              	.LBE1139:
 6480              	.LBE1140:
 6481              	.LBE1142:
 161:sardinia.cpp  **** 	}
 6482              		.loc 17 161 22 view .LVU1684
 6483 01ec C4ED037A 		vstr.32	s15, [r4, #12]
 6484 01f0 6CE7     		b	.L411
 6485              	.LVL392:
 6486              	.L437:
 148:sardinia.cpp  **** 	{
 6487              		.loc 17 148 2 view .LVU1685
 6488 01f2 A37C     		ldrb	r3, [r4, #18]	@ zero_extendqisi2
 6489 01f4 7F2B     		cmp	r3, #127
 6490 01f6 AED1     		bne	.L410
 150:sardinia.cpp  **** 	}
 6491              		.loc 17 150 3 is_stmt 1 view .LVU1686
 150:sardinia.cpp  **** 	}
 6492              		.loc 17 150 31 is_stmt 0 view .LVU1687
 6493 01f8 044A     		ldr	r2, .L438+8
 150:sardinia.cpp  **** 	}
 6494              		.loc 17 150 33 view .LVU1688
 6495 01fa 9378     		ldrb	r3, [r2, #2]	@ zero_extendqisi2
 6496 01fc 83F00103 		eor	r3, r3, #1
 150:sardinia.cpp  **** 	}
 6497              		.loc 17 150 31 view .LVU1689
 6498 0200 9370     		strb	r3, [r2, #2]
 153:sardinia.cpp  **** 	{
 6499              		.loc 17 153 2 is_stmt 1 view .LVU1690
 158:sardinia.cpp  **** 	{
 6500              		.loc 17 158 7 view .LVU1691
 6501 0202 A8E7     		b	.L410
 6502              	.L439:
 6503              		.align	2
 6504              	.L438:
 6505 0204 00000000 		.word	.LANCHOR10
 6506 0208 00000000 		.word	.LANCHOR37
 6507 020c 00000000 		.word	.LANCHOR36
 6508 0210 18000000 		.word	.LANCHOR38+24
 6509 0214 00000000 		.word	.LANCHOR34
 6510 0218 00000000 		.word	0
 6511 021c 0AD7233C 		.word	1008981770
 6512 0220 E27A943E 		.word	1049918178
 6513 0224 9A99993E 		.word	1050253722
 6514 0228 00000000 		.word	.LANCHOR48
 6515 022c 00000000 		.word	.LANCHOR49
 6516 0230 00000000 		.word	.LANCHOR14
 6517 0234 00409C45 		.word	1167867904
 6518              		.cfi_endproc
 6519              	.LFE4712:
 6521              		.section	.text._Z13AudioCallbackPKPKfPPfj,"ax",%progbits
 6522              		.align	1
 6523              		.p2align 2,,3
 6524              		.global	_Z13AudioCallbackPKPKfPPfj
 6525              		.syntax unified
 6526              		.thumb
 6527              		.thumb_func
ARM GAS  /var/folders/m5/x8wc2gdj7z5cpgcqdsb_gkj40000gn/T//cckXFIsJ.s 			page 174


 6529              	_Z13AudioCallbackPKPKfPPfj:
 6530              	.LVL393:
 6531              	.LFB4710:
  59:sardinia.cpp  **** 	ProcessControlsKR();
 6532              		.loc 17 59 1 view -0
 6533              		.cfi_startproc
 6534              		@ args = 0, pretend = 0, frame = 8
 6535              		@ frame_needed = 0, uses_anonymous_args = 0
  60:sardinia.cpp  **** 
 6536              		.loc 17 60 2 view .LVU1693
  59:sardinia.cpp  **** 	ProcessControlsKR();
 6537              		.loc 17 59 1 is_stmt 0 view .LVU1694
 6538 0000 2DE9F04F 		push	{r4, r5, r6, r7, r8, r9, r10, fp, lr}
 6539              		.cfi_def_cfa_offset 36
 6540              		.cfi_offset 4, -36
 6541              		.cfi_offset 5, -32
 6542              		.cfi_offset 6, -28
 6543              		.cfi_offset 7, -24
 6544              		.cfi_offset 8, -20
 6545              		.cfi_offset 9, -16
 6546              		.cfi_offset 10, -12
 6547              		.cfi_offset 11, -8
 6548              		.cfi_offset 14, -4
 6549 0004 1446     		mov	r4, r2
 6550 0006 83B0     		sub	sp, sp, #12
 6551              		.cfi_def_cfa_offset 48
  59:sardinia.cpp  **** 	ProcessControlsKR();
 6552              		.loc 17 59 1 view .LVU1695
 6553 0008 0646     		mov	r6, r0
 6554 000a 0F46     		mov	r7, r1
 6555 000c 0192     		str	r2, [sp, #4]
  60:sardinia.cpp  **** 
 6556              		.loc 17 60 19 view .LVU1696
 6557 000e FFF7FEFF 		bl	_Z17ProcessControlsKRv
 6558              	.LVL394:
  62:sardinia.cpp  **** 	{
 6559              		.loc 17 62 2 is_stmt 1 view .LVU1697
 6560              	.LBB1153:
  62:sardinia.cpp  **** 	{
 6561              		.loc 17 62 23 view .LVU1698
 6562 0012 002C     		cmp	r4, #0
 6563 0014 00F0BD80 		beq	.L440
  62:sardinia.cpp  **** 	{
 6564              		.loc 17 62 14 is_stmt 0 view .LVU1699
 6565 0018 4FF00009 		mov	r9, #0
 6566 001c DFF8D081 		ldr	r8, .L466+72
 6567 0020 614C     		ldr	r4, .L466
 6568              	.LVL395:
  62:sardinia.cpp  **** 	{
 6569              		.loc 17 62 14 view .LVU1700
 6570 0022 DFF8D0B1 		ldr	fp, .L466+76
 6571 0026 DFF8D0A1 		ldr	r10, .L466+80
 6572 002a 1BE0     		b	.L441
 6573              	.LVL396:
 6574              	.L463:
  97:sardinia.cpp  **** 		outputMix = ProcessEffects(outputMix); // Process the mixed signal through the effects
 6575              		.loc 17 97 24 view .LVU1701
ARM GAS  /var/folders/m5/x8wc2gdj7z5cpgcqdsb_gkj40000gn/T//cckXFIsJ.s 			page 175


 6576 002c 98ED000A 		vldr.32	s0, [r8]
 6577              	.L447:
  97:sardinia.cpp  **** 		outputMix = ProcessEffects(outputMix); // Process the mixed signal through the effects
 6578              		.loc 17 97 3 is_stmt 1 discriminator 2 view .LVU1702
  97:sardinia.cpp  **** 		outputMix = ProcessEffects(outputMix); // Process the mixed signal through the effects
 6579              		.loc 17 97 24 is_stmt 0 discriminator 2 view .LVU1703
 6580 0030 37EE800A 		vadd.f32	s0, s15, s0
  62:sardinia.cpp  **** 	{
 6581              		.loc 17 62 2 discriminator 2 view .LVU1704
 6582 0034 09F10109 		add	r9, r9, #1
 6583              	.LVL397:
  97:sardinia.cpp  **** 		outputMix = ProcessEffects(outputMix); // Process the mixed signal through the effects
 6584              		.loc 17 97 13 discriminator 2 view .LVU1705
 6585 0038 84ED000A 		vstr.32	s0, [r4]
  98:sardinia.cpp  **** 		outputMix *= outputAmp;
 6586              		.loc 17 98 3 is_stmt 1 discriminator 2 view .LVU1706
  98:sardinia.cpp  **** 		outputMix *= outputAmp;
 6587              		.loc 17 98 29 is_stmt 0 discriminator 2 view .LVU1707
 6588 003c FFF7FEFF 		bl	_Z14ProcessEffectsf
 6589              	.LVL398:
  99:sardinia.cpp  **** 
 6590              		.loc 17 99 3 is_stmt 1 discriminator 2 view .LVU1708
  99:sardinia.cpp  **** 
 6591              		.loc 17 99 13 is_stmt 0 discriminator 2 view .LVU1709
 6592 0040 DAED007A 		vldr.32	s15, [r10]
 102:sardinia.cpp  **** 		out[1][i] = outputMix;
 6593              		.loc 17 102 19 discriminator 2 view .LVU1710
 6594 0044 3A68     		ldr	r2, [r7]
  99:sardinia.cpp  **** 
 6595              		.loc 17 99 13 discriminator 2 view .LVU1711
 6596 0046 20EE270A 		vmul.f32	s0, s0, s15
  62:sardinia.cpp  **** 	{
 6597              		.loc 17 62 23 discriminator 2 view .LVU1712
 6598 004a 019B     		ldr	r3, [sp, #4]
 102:sardinia.cpp  **** 		out[1][i] = outputMix;
 6599              		.loc 17 102 19 discriminator 2 view .LVU1713
 6600 004c 2A44     		add	r2, r2, r5
  62:sardinia.cpp  **** 	{
 6601              		.loc 17 62 23 discriminator 2 view .LVU1714
 6602 004e 4B45     		cmp	r3, r9
  99:sardinia.cpp  **** 
 6603              		.loc 17 99 13 discriminator 2 view .LVU1715
 6604 0050 84ED000A 		vstr.32	s0, [r4]
 102:sardinia.cpp  **** 		out[1][i] = outputMix;
 6605              		.loc 17 102 9 is_stmt 1 discriminator 2 view .LVU1716
 102:sardinia.cpp  **** 		out[1][i] = outputMix;
 6606              		.loc 17 102 19 is_stmt 0 discriminator 2 view .LVU1717
 6607 0054 82ED000A 		vstr.32	s0, [r2]
 103:sardinia.cpp  **** 	}
 6608              		.loc 17 103 3 is_stmt 1 discriminator 2 view .LVU1718
 103:sardinia.cpp  **** 	}
 6609              		.loc 17 103 13 is_stmt 0 discriminator 2 view .LVU1719
 6610 0058 7A68     		ldr	r2, [r7, #4]
 6611 005a 2A44     		add	r2, r2, r5
 6612 005c 82ED000A 		vstr.32	s0, [r2]
  62:sardinia.cpp  **** 	{
 6613              		.loc 17 62 2 is_stmt 1 discriminator 2 view .LVU1720
ARM GAS  /var/folders/m5/x8wc2gdj7z5cpgcqdsb_gkj40000gn/T//cckXFIsJ.s 			page 176


 6614              	.LVL399:
  62:sardinia.cpp  **** 	{
 6615              		.loc 17 62 23 discriminator 2 view .LVU1721
 6616 0060 00F09780 		beq	.L440
 6617              	.LVL400:
 6618              	.L441:
  64:sardinia.cpp  **** 		outputMix = 0;
 6619              		.loc 17 64 3 view .LVU1722
  64:sardinia.cpp  **** 		outputMix = 0;
 6620              		.loc 17 64 13 is_stmt 0 view .LVU1723
 6621 0064 0022     		movs	r2, #0
 6622 0066 4FEA8905 		lsl	r5, r9, #2
 6623 006a C8F80020 		str	r2, [r8]	@ float
  65:sardinia.cpp  **** 
 6624              		.loc 17 65 3 is_stmt 1 view .LVU1724
  65:sardinia.cpp  **** 
 6625              		.loc 17 65 13 is_stmt 0 view .LVU1725
 6626 006e 2260     		str	r2, [r4]	@ float
  67:sardinia.cpp  **** 
 6627              		.loc 17 67 3 is_stmt 1 view .LVU1726
  67:sardinia.cpp  **** 
 6628              		.loc 17 67 20 is_stmt 0 view .LVU1727
 6629 0070 FFF7FEFF 		bl	_Z17ProcessControlsARv
 6630              	.LVL401:
  69:sardinia.cpp  **** 		inputSig *= inputAmp;
 6631              		.loc 17 69 3 is_stmt 1 view .LVU1728
  70:sardinia.cpp  **** 		
 6632              		.loc 17 70 3 view .LVU1729
  69:sardinia.cpp  **** 		inputSig *= inputAmp;
 6633              		.loc 17 69 22 is_stmt 0 view .LVU1730
 6634 0074 3268     		ldr	r2, [r6]
  69:sardinia.cpp  **** 		inputSig *= inputAmp;
 6635              		.loc 17 69 36 view .LVU1731
 6636 0076 B6EE007A 		vmov.f32	s14, #5.0e-1
  70:sardinia.cpp  **** 		
 6637              		.loc 17 70 12 view .LVU1732
 6638 007a 9BED000A 		vldr.32	s0, [fp]
  69:sardinia.cpp  **** 		inputSig *= inputAmp;
 6639              		.loc 17 69 22 view .LVU1733
 6640 007e 02EB8902 		add	r2, r2, r9, lsl #2
  72:sardinia.cpp  **** 		{
 6641              		.loc 17 72 3 view .LVU1734
 6642 0082 4A4B     		ldr	r3, .L466+4
  69:sardinia.cpp  **** 		inputSig *= inputAmp;
 6643              		.loc 17 69 24 view .LVU1735
 6644 0084 D2ED007A 		vldr.32	s15, [r2]
  69:sardinia.cpp  **** 		inputSig *= inputAmp;
 6645              		.loc 17 69 33 view .LVU1736
 6646 0088 7268     		ldr	r2, [r6, #4]
  72:sardinia.cpp  **** 		{
 6647              		.loc 17 72 3 view .LVU1737
 6648 008a 1978     		ldrb	r1, [r3]	@ zero_extendqisi2
  69:sardinia.cpp  **** 		inputSig *= inputAmp;
 6649              		.loc 17 69 33 view .LVU1738
 6650 008c 02EB8902 		add	r2, r2, r9, lsl #2
  70:sardinia.cpp  **** 		
 6651              		.loc 17 70 12 view .LVU1739
ARM GAS  /var/folders/m5/x8wc2gdj7z5cpgcqdsb_gkj40000gn/T//cckXFIsJ.s 			page 177


 6652 0090 474B     		ldr	r3, .L466+8
  69:sardinia.cpp  **** 		inputSig *= inputAmp;
 6653              		.loc 17 69 24 view .LVU1740
 6654 0092 D2ED006A 		vldr.32	s13, [r2]
 6655 0096 77EEA67A 		vadd.f32	s15, s15, s13
  69:sardinia.cpp  **** 		inputSig *= inputAmp;
 6656              		.loc 17 69 36 view .LVU1741
 6657 009a 67EE877A 		vmul.f32	s15, s15, s14
  70:sardinia.cpp  **** 		
 6658              		.loc 17 70 12 view .LVU1742
 6659 009e 67EE807A 		vmul.f32	s15, s15, s0
 6660 00a2 C3ED007A 		vstr.32	s15, [r3]
  72:sardinia.cpp  **** 		{
 6661              		.loc 17 72 3 is_stmt 1 view .LVU1743
 6662 00a6 61B1     		cbz	r1, .L442
  74:sardinia.cpp  **** 			lengthTrack++;
 6663              		.loc 17 74 4 view .LVU1744
 6664              	.LVL402:
 6665              	.LBB1154:
 6666              	.LBI1154:
  94:sampleengine.h **** {
 6667              		.loc 13 94 6 view .LVU1745
 6668              	.LBB1155:
  96:sampleengine.h ****     writeIndex++;
 6669              		.loc 13 96 5 view .LVU1746
  96:sampleengine.h ****     writeIndex++;
 6670              		.loc 13 96 31 is_stmt 0 view .LVU1747
 6671 00a8 424B     		ldr	r3, .L466+12
  96:sampleengine.h ****     writeIndex++;
 6672              		.loc 13 96 33 view .LVU1748
 6673 00aa 4348     		ldr	r0, .L466+16
  96:sampleengine.h ****     writeIndex++;
 6674              		.loc 13 96 31 view .LVU1749
 6675 00ac 1A68     		ldr	r2, [r3]
 6676              	.LBE1155:
 6677              	.LBE1154:
  75:sardinia.cpp  **** 		}
 6678              		.loc 17 75 15 view .LVU1750
 6679 00ae 4349     		ldr	r1, .L466+20
 6680              	.LBB1158:
 6681              	.LBB1156:
  96:sampleengine.h ****     writeIndex++;
 6682              		.loc 13 96 33 view .LVU1751
 6683 00b0 00EB8200 		add	r0, r0, r2, lsl #2
  97:sampleengine.h **** }
 6684              		.loc 13 97 15 view .LVU1752
 6685 00b4 0132     		adds	r2, r2, #1
 6686 00b6 1A60     		str	r2, [r3]
 6687              	.LBE1156:
 6688              	.LBE1158:
  75:sardinia.cpp  **** 		}
 6689              		.loc 17 75 15 view .LVU1753
 6690 00b8 0A68     		ldr	r2, [r1]
 6691              	.LBB1159:
 6692              	.LBB1157:
  96:sampleengine.h ****     writeIndex++;
 6693              		.loc 13 96 33 view .LVU1754
ARM GAS  /var/folders/m5/x8wc2gdj7z5cpgcqdsb_gkj40000gn/T//cckXFIsJ.s 			page 178


 6694 00ba C0ED007A 		vstr.32	s15, [r0]
  97:sampleengine.h **** }
 6695              		.loc 13 97 5 is_stmt 1 view .LVU1755
 6696              	.LVL403:
  97:sampleengine.h **** }
 6697              		.loc 13 97 5 is_stmt 0 view .LVU1756
 6698              	.LBE1157:
 6699              	.LBE1159:
  75:sardinia.cpp  **** 		}
 6700              		.loc 17 75 4 is_stmt 1 view .LVU1757
  75:sardinia.cpp  **** 		}
 6701              		.loc 17 75 15 is_stmt 0 view .LVU1758
 6702 00be 0132     		adds	r2, r2, #1
 6703 00c0 0A60     		str	r2, [r1]
 6704              	.L442:
  78:sardinia.cpp  **** 		{
 6705              		.loc 17 78 3 is_stmt 1 view .LVU1759
  78:sardinia.cpp  **** 		{
 6706              		.loc 17 78 16 is_stmt 0 view .LVU1760
 6707 00c2 3F4B     		ldr	r3, .L466+24
 6708 00c4 1A78     		ldrb	r2, [r3]	@ zero_extendqisi2
 6709 00c6 8AB9     		cbnz	r2, .L462
  82:sardinia.cpp  **** 		{
 6710              		.loc 17 82 8 is_stmt 1 view .LVU1761
 6711 00c8 3E4A     		ldr	r2, .L466+28
 6712 00ca 1278     		ldrb	r2, [r2]	@ zero_extendqisi2
 6713 00cc 002A     		cmp	r2, #0
 6714 00ce ADD0     		beq	.L463
 6715              	.L452:
  84:sardinia.cpp  **** 		}
 6716              		.loc 17 84 4 view .LVU1762
  84:sardinia.cpp  **** 		}
 6717              		.loc 17 84 37 is_stmt 0 view .LVU1763
 6718 00d0 3D4A     		ldr	r2, .L466+32
 6719 00d2 3E49     		ldr	r1, .L466+36
 6720 00d4 3E48     		ldr	r0, .L466+40
 6721 00d6 1268     		ldr	r2, [r2]
 6722 00d8 0978     		ldrb	r1, [r1]	@ zero_extendqisi2
 6723 00da 0068     		ldr	r0, [r0]
 6724 00dc FFF7FEFF 		bl	_Z21SpliceBufferGetSampleiii
 6725              	.LVL404:
  97:sardinia.cpp  **** 		outputMix = ProcessEffects(outputMix); // Process the mixed signal through the effects
 6726              		.loc 17 97 24 view .LVU1764
 6727 00e0 334B     		ldr	r3, .L466+8
  84:sardinia.cpp  **** 		}
 6728              		.loc 17 84 14 view .LVU1765
 6729 00e2 88ED000A 		vstr.32	s0, [r8]
  97:sardinia.cpp  **** 		outputMix = ProcessEffects(outputMix); // Process the mixed signal through the effects
 6730              		.loc 17 97 24 view .LVU1766
 6731 00e6 D3ED007A 		vldr.32	s15, [r3]
 6732 00ea A1E7     		b	.L447
 6733              	.L462:
 6734 00ec 394A     		ldr	r2, .L466+44
 6735 00ee 02F12000 		add	r0, r2, #32
 6736 00f2 01E0     		b	.L446
 6737              	.LVL405:
 6738              	.L465:
ARM GAS  /var/folders/m5/x8wc2gdj7z5cpgcqdsb_gkj40000gn/T//cckXFIsJ.s 			page 179


 6739              	.LBB1160:
 6740              	.LBB1161:
 314:sampleengine.h ****     {
 6741              		.loc 13 314 22 view .LVU1767
 6742 00f4 9042     		cmp	r0, r2
 6743 00f6 4FD0     		beq	.L464
 6744              	.LVL406:
 6745              	.L446:
 316:sampleengine.h ****         {
 6746              		.loc 13 316 9 is_stmt 1 view .LVU1768
 314:sampleengine.h ****     {
 6747              		.loc 13 314 5 view .LVU1769
 316:sampleengine.h ****         {
 6748              		.loc 13 316 23 is_stmt 0 view .LVU1770
 6749 00f8 12F8013B 		ldrb	r3, [r2], #1	@ zero_extendqisi2
 6750              	.LVL407:
 314:sampleengine.h ****     {
 6751              		.loc 13 314 22 is_stmt 1 view .LVU1771
 316:sampleengine.h ****         {
 6752              		.loc 13 316 9 is_stmt 0 view .LVU1772
 6753 00fc 002B     		cmp	r3, #0
 6754 00fe F9D0     		beq	.L465
 6755              	.LVL408:
 316:sampleengine.h ****         {
 6756              		.loc 13 316 9 view .LVU1773
 6757              	.LBE1161:
 6758              	.LBE1160:
  82:sardinia.cpp  **** 		{
 6759              		.loc 17 82 8 is_stmt 1 view .LVU1774
 6760 0100 304A     		ldr	r2, .L466+28
 6761 0102 1278     		ldrb	r2, [r2]	@ zero_extendqisi2
 6762 0104 002A     		cmp	r2, #0
 6763 0106 E3D1     		bne	.L452
  88:sardinia.cpp  **** 			AdvanceReadIndex();
 6764              		.loc 17 88 4 view .LVU1775
 6765              	.LBB1162:
 6766              	.LBI1162:
 118:sampleengine.h **** {
 6767              		.loc 13 118 7 view .LVU1776
 6768              	.LBB1163:
 120:sampleengine.h **** 
 6769              		.loc 13 120 5 view .LVU1777
 122:sampleengine.h **** 	readIndexFraction = readIndex - readIndexInt;
 6770              		.loc 13 122 5 view .LVU1778
 122:sampleengine.h **** 	readIndexFraction = readIndex - readIndexInt;
 6771              		.loc 13 122 20 is_stmt 0 view .LVU1779
 6772 0108 3348     		ldr	r0, .L466+48
 6773              	.LBE1163:
 6774              	.LBE1162:
 6775              	.LBB1172:
 6776              	.LBB1173:
 107:sampleengine.h **** 
 6777              		.loc 13 107 15 view .LVU1780
 6778 010a 344A     		ldr	r2, .L466+52
 6779              	.LBE1173:
 6780              	.LBE1172:
 6781              	.LBB1182:
ARM GAS  /var/folders/m5/x8wc2gdj7z5cpgcqdsb_gkj40000gn/T//cckXFIsJ.s 			page 180


 6782              	.LBB1164:
 122:sampleengine.h **** 	readIndexFraction = readIndex - readIndexInt;
 6783              		.loc 13 122 20 view .LVU1781
 6784 010c D0ED007A 		vldr.32	s15, [r0]
 6785              	.LBE1164:
 6786              	.LBE1182:
 6787              	.LBB1183:
 6788              	.LBB1174:
 107:sampleengine.h **** 
 6789              		.loc 13 107 15 view .LVU1782
 6790 0110 92ED007A 		vldr.32	s14, [r2]
 6791              	.LBE1174:
 6792              	.LBE1183:
 6793              	.LBB1184:
 6794              	.LBB1165:
 122:sampleengine.h **** 	readIndexFraction = readIndex - readIndexInt;
 6795              		.loc 13 122 20 view .LVU1783
 6796 0114 FDEEE76A 		vcvt.s32.f32	s13, s15
 125:sampleengine.h **** 	b = recordingBuffer[readIndexInt + 1]; // next sample
 6797              		.loc 13 125 4 view .LVU1784
 6798 0118 2749     		ldr	r1, .L466+16
 6799              	.LBE1165:
 6800              	.LBE1184:
 6801              	.LBB1185:
 6802              	.LBB1175:
 107:sampleengine.h **** 
 6803              		.loc 13 107 15 view .LVU1785
 6804 011a 37EE877A 		vadd.f32	s14, s15, s14
 6805              	.LBE1175:
 6806              	.LBE1185:
 6807              	.LBB1186:
 6808              	.LBB1166:
 122:sampleengine.h **** 	readIndexFraction = readIndex - readIndexInt;
 6809              		.loc 13 122 20 view .LVU1786
 6810 011e 16EE902A 		vmov	r2, s13	@ int
 123:sampleengine.h **** 
 6811              		.loc 13 123 32 view .LVU1787
 6812 0122 F8EE666A 		vcvt.f32.u32	s13, s13
 6813              	.LBE1166:
 6814              	.LBE1186:
 6815              	.LBB1187:
 6816              	.LBB1176:
 107:sampleengine.h **** 
 6817              		.loc 13 107 15 view .LVU1788
 6818 0126 80ED007A 		vstr.32	s14, [r0]
 6819              	.LBE1176:
 6820              	.LBE1187:
 6821              	.LBB1188:
 6822              	.LBB1167:
 125:sampleengine.h **** 	b = recordingBuffer[readIndexInt + 1]; // next sample
 6823              		.loc 13 125 4 view .LVU1789
 6824 012a 01EB820C 		add	ip, r1, r2, lsl #2
 6825              	.LBE1167:
 6826              	.LBE1188:
 6827              	.LBB1189:
 6828              	.LBB1177:
 109:sampleengine.h ****     {
ARM GAS  /var/folders/m5/x8wc2gdj7z5cpgcqdsb_gkj40000gn/T//cckXFIsJ.s 			page 181


 6829              		.loc 13 109 18 view .LVU1790
 6830 012e 2C49     		ldr	r1, .L466+56
 6831              	.LBE1177:
 6832              	.LBE1189:
 6833              	.LBB1190:
 6834              	.LBB1168:
 123:sampleengine.h **** 
 6835              		.loc 13 123 32 view .LVU1791
 6836 0130 77EEE67A 		vsub.f32	s15, s15, s13
 127:sampleengine.h **** 
 6837              		.loc 13 127 15 view .LVU1792
 6838 0134 9CED016A 		vldr.32	s12, [ip, #4]
 125:sampleengine.h **** 	b = recordingBuffer[readIndexInt + 1]; // next sample
 6839              		.loc 13 125 4 view .LVU1793
 6840 0138 DCED006A 		vldr.32	s13, [ip]
 127:sampleengine.h **** 
 6841              		.loc 13 127 15 view .LVU1794
 6842 013c 36EE666A 		vsub.f32	s12, s12, s13
 127:sampleengine.h **** 
 6843              		.loc 13 127 6 view .LVU1795
 6844 0140 E7EE866A 		vfma.f32	s13, s15, s12
 6845              	.LBE1168:
 6846              	.LBE1190:
  88:sardinia.cpp  **** 			AdvanceReadIndex();
 6847              		.loc 17 88 14 view .LVU1796
 6848 0144 C8ED006A 		vstr.32	s13, [r8]
 6849              	.LBB1191:
 6850              	.LBB1178:
 109:sampleengine.h ****     {
 6851              		.loc 13 109 18 view .LVU1797
 6852 0148 D1ED006A 		vldr.32	s13, [r1]	@ int
 6853              	.LBE1178:
 6854              	.LBE1191:
 6855              	.LBB1192:
 6856              	.LBB1169:
 122:sampleengine.h **** 	readIndexFraction = readIndex - readIndexInt;
 6857              		.loc 13 122 18 view .LVU1798
 6858 014c 2549     		ldr	r1, .L466+60
 6859              	.LBE1169:
 6860              	.LBE1192:
 6861              	.LBB1193:
 6862              	.LBB1179:
 109:sampleengine.h ****     {
 6863              		.loc 13 109 18 view .LVU1799
 6864 014e F8EE666A 		vcvt.f32.u32	s13, s13
 6865              	.LBE1179:
 6866              	.LBE1193:
 6867              	.LBB1194:
 6868              	.LBB1170:
 122:sampleengine.h **** 	readIndexFraction = readIndex - readIndexInt;
 6869              		.loc 13 122 18 view .LVU1800
 6870 0152 0A60     		str	r2, [r1]
 123:sampleengine.h **** 
 6871              		.loc 13 123 2 is_stmt 1 view .LVU1801
 123:sampleengine.h **** 
 6872              		.loc 13 123 20 is_stmt 0 view .LVU1802
 6873 0154 244A     		ldr	r2, .L466+64
ARM GAS  /var/folders/m5/x8wc2gdj7z5cpgcqdsb_gkj40000gn/T//cckXFIsJ.s 			page 182


 6874              	.LBE1170:
 6875              	.LBE1194:
 6876              	.LBB1195:
 6877              	.LBB1180:
 109:sampleengine.h ****     {
 6878              		.loc 13 109 5 view .LVU1803
 6879 0156 B4EEE67A 		vcmpe.f32	s14, s13
 6880              	.LBE1180:
 6881              	.LBE1195:
 6882              	.LBB1196:
 6883              	.LBB1171:
 123:sampleengine.h **** 
 6884              		.loc 13 123 20 view .LVU1804
 6885 015a C2ED007A 		vstr.32	s15, [r2]
 125:sampleengine.h **** 	b = recordingBuffer[readIndexInt + 1]; // next sample
 6886              		.loc 13 125 2 is_stmt 1 view .LVU1805
 6887              	.LVL409:
 126:sampleengine.h **** 	out = a + (b - a) * readIndexFraction; // Linear Interpolation
 6888              		.loc 13 126 2 view .LVU1806
 127:sampleengine.h **** 
 6889              		.loc 13 127 2 view .LVU1807
 129:sampleengine.h **** }
 6890              		.loc 13 129 5 view .LVU1808
 129:sampleengine.h **** }
 6891              		.loc 13 129 5 is_stmt 0 view .LVU1809
 6892              	.LBE1171:
 6893              	.LBE1196:
  89:sardinia.cpp  **** 			if(readIndex > recordingLength) // recordingLength dynamically changes the size of sample based 
 6894              		.loc 17 89 4 is_stmt 1 view .LVU1810
 6895              	.LBB1197:
 6896              	.LBI1172:
 105:sampleengine.h **** {
 6897              		.loc 13 105 6 view .LVU1811
 6898              	.LBB1181:
 107:sampleengine.h **** 
 6899              		.loc 13 107 5 view .LVU1812
 109:sampleengine.h ****     {
 6900              		.loc 13 109 5 view .LVU1813
 6901 015e F1EE10FA 		vmrs	APSR_nzcv, FPSCR
 6902 0162 04DB     		blt	.L448
 6903 0164 FFF7FEFF 		bl	_Z16AdvanceReadIndexv.part.0
 6904              	.LVL410:
 6905              	.LBE1181:
 6906              	.LBE1197:
  90:sardinia.cpp  **** 			{
 6907              		.loc 17 90 17 is_stmt 0 view .LVU1814
 6908 0168 1B48     		ldr	r0, .L466+48
 6909 016a 90ED007A 		vldr.32	s14, [r0]
 6910              	.L448:
  90:sardinia.cpp  **** 			{
 6911              		.loc 17 90 4 is_stmt 1 view .LVU1815
  90:sardinia.cpp  **** 			{
 6912              		.loc 17 90 17 is_stmt 0 view .LVU1816
 6913 016e 1F4A     		ldr	r2, .L466+68
  97:sardinia.cpp  **** 		outputMix = ProcessEffects(outputMix); // Process the mixed signal through the effects
 6914              		.loc 17 97 24 view .LVU1817
 6915 0170 0F4B     		ldr	r3, .L466+8
ARM GAS  /var/folders/m5/x8wc2gdj7z5cpgcqdsb_gkj40000gn/T//cckXFIsJ.s 			page 183


  90:sardinia.cpp  **** 			{
 6916              		.loc 17 90 17 view .LVU1818
 6917 0172 D2ED007A 		vldr.32	s15, [r2]	@ int
  97:sardinia.cpp  **** 		outputMix = ProcessEffects(outputMix); // Process the mixed signal through the effects
 6918              		.loc 17 97 24 view .LVU1819
 6919 0176 98ED000A 		vldr.32	s0, [r8]
  92:sardinia.cpp  **** 			}
 6920              		.loc 17 92 5 is_stmt 1 view .LVU1820
  90:sardinia.cpp  **** 			{
 6921              		.loc 17 90 17 is_stmt 0 view .LVU1821
 6922 017a F8EE677A 		vcvt.f32.u32	s15, s15
  90:sardinia.cpp  **** 			{
 6923              		.loc 17 90 4 view .LVU1822
 6924 017e F4EEC77A 		vcmpe.f32	s15, s14
  97:sardinia.cpp  **** 		outputMix = ProcessEffects(outputMix); // Process the mixed signal through the effects
 6925              		.loc 17 97 24 view .LVU1823
 6926 0182 D3ED007A 		vldr.32	s15, [r3]
  90:sardinia.cpp  **** 			{
 6927              		.loc 17 90 4 view .LVU1824
 6928 0186 F1EE10FA 		vmrs	APSR_nzcv, FPSCR
  92:sardinia.cpp  **** 			}
 6929              		.loc 17 92 15 view .LVU1825
 6930 018a 44BF     		itt	mi
 6931 018c 0022     		movmi	r2, #0
 6932 018e 0260     		strmi	r2, [r0]	@ float
 6933 0190 4EE7     		b	.L447
 6934              	.LVL411:
 6935              	.L440:
  92:sardinia.cpp  **** 			}
 6936              		.loc 17 92 15 view .LVU1826
 6937              	.LBE1153:
 105:sardinia.cpp  **** 
 6938              		.loc 17 105 1 view .LVU1827
 6939 0192 03B0     		add	sp, sp, #12
 6940              		.cfi_remember_state
 6941              		.cfi_def_cfa_offset 36
 6942              		@ sp needed
 6943 0194 BDE8F08F 		pop	{r4, r5, r6, r7, r8, r9, r10, fp, pc}
 6944              	.LVL412:
 6945              	.L464:
 6946              		.cfi_restore_state
 6947              	.LBB1198:
  80:sardinia.cpp  **** 		}
 6948              		.loc 17 80 4 is_stmt 1 view .LVU1828
  80:sardinia.cpp  **** 		}
 6949              		.loc 17 80 35 is_stmt 0 view .LVU1829
 6950 0198 FFF7FEFF 		bl	_Z19FullSampleGetSamplev
 6951              	.LVL413:
  97:sardinia.cpp  **** 		outputMix = ProcessEffects(outputMix); // Process the mixed signal through the effects
 6952              		.loc 17 97 24 view .LVU1830
 6953 019c 044B     		ldr	r3, .L466+8
  80:sardinia.cpp  **** 		}
 6954              		.loc 17 80 14 view .LVU1831
 6955 019e 88ED000A 		vstr.32	s0, [r8]
  97:sardinia.cpp  **** 		outputMix = ProcessEffects(outputMix); // Process the mixed signal through the effects
 6956              		.loc 17 97 24 view .LVU1832
 6957 01a2 D3ED007A 		vldr.32	s15, [r3]
ARM GAS  /var/folders/m5/x8wc2gdj7z5cpgcqdsb_gkj40000gn/T//cckXFIsJ.s 			page 184


 6958 01a6 43E7     		b	.L447
 6959              	.L467:
 6960              		.align	2
 6961              	.L466:
 6962 01a8 00000000 		.word	.LANCHOR51
 6963 01ac 00000000 		.word	.LANCHOR39
 6964 01b0 00000000 		.word	.LANCHOR52
 6965 01b4 00000000 		.word	.LANCHOR13
 6966 01b8 00000000 		.word	recordingBuffer
 6967 01bc 00000000 		.word	.LANCHOR41
 6968 01c0 00000000 		.word	.LANCHOR45
 6969 01c4 00000000 		.word	.LANCHOR46
 6970 01c8 00000000 		.word	.LANCHOR47
 6971 01cc 00000000 		.word	.LANCHOR31
 6972 01d0 00000000 		.word	.LANCHOR44
 6973 01d4 00000000 		.word	.LANCHOR1
 6974 01d8 00000000 		.word	.LANCHOR6
 6975 01dc 00000000 		.word	.LANCHOR14
 6976 01e0 00000000 		.word	.LANCHOR4
 6977 01e4 00000000 		.word	.LANCHOR15
 6978 01e8 00000000 		.word	.LANCHOR16
 6979 01ec 00000000 		.word	.LANCHOR18
 6980 01f0 00000000 		.word	.LANCHOR50
 6981 01f4 00000000 		.word	.LANCHOR49
 6982 01f8 00000000 		.word	.LANCHOR48
 6983              	.LBE1198:
 6984              		.cfi_endproc
 6985              	.LFE4710:
 6987              		.section	.text._Z20UpdateControlButtonsv,"ax",%progbits
 6988              		.align	1
 6989              		.p2align 2,,3
 6990              		.global	_Z20UpdateControlButtonsv
 6991              		.syntax unified
 6992              		.thumb
 6993              		.thumb_func
 6995              	_Z20UpdateControlButtonsv:
 6996              	.LFB4717:
 341:sardinia.cpp  **** 	for(int i = 0; i < 8; i++)
 6997              		.loc 17 341 1 is_stmt 1 view -0
 6998              		.cfi_startproc
 6999              		@ args = 0, pretend = 0, frame = 0
 7000              		@ frame_needed = 0, uses_anonymous_args = 0
 342:sardinia.cpp  **** 	{
 7001              		.loc 17 342 2 view .LVU1834
 7002              	.LVL414:
 7003              	.LBB1199:
 342:sardinia.cpp  **** 	{
 7004              		.loc 17 342 19 view .LVU1835
 7005              	.LBE1199:
 341:sardinia.cpp  **** 	for(int i = 0; i < 8; i++)
 7006              		.loc 17 341 1 is_stmt 0 view .LVU1836
 7007 0000 38B5     		push	{r3, r4, r5, lr}
 7008              		.cfi_def_cfa_offset 16
 7009              		.cfi_offset 3, -16
 7010              		.cfi_offset 4, -12
 7011              		.cfi_offset 5, -8
 7012              		.cfi_offset 14, -4
ARM GAS  /var/folders/m5/x8wc2gdj7z5cpgcqdsb_gkj40000gn/T//cckXFIsJ.s 			page 185


 7013 0002 0B4D     		ldr	r5, .L472
 7014              	.LBB1200:
 342:sardinia.cpp  **** 	{
 7015              		.loc 17 342 10 view .LVU1837
 7016 0004 0024     		movs	r4, #0
 7017              	.LVL415:
 7018              	.L469:
 344:sardinia.cpp  **** 	}
 7019              		.loc 17 344 3 is_stmt 1 discriminator 2 view .LVU1838
 344:sardinia.cpp  **** 	}
 7020              		.loc 17 344 46 is_stmt 0 discriminator 2 view .LVU1839
 7021 0006 E2B2     		uxtb	r2, r4
 7022 0008 0521     		movs	r1, #5
 7023 000a 0A48     		ldr	r0, .L472+4
 342:sardinia.cpp  **** 	{
 7024              		.loc 17 342 2 discriminator 2 view .LVU1840
 7025 000c 0134     		adds	r4, r4, #1
 7026              	.LVL416:
 344:sardinia.cpp  **** 	}
 7027              		.loc 17 344 46 discriminator 2 view .LVU1841
 7028 000e FFF7FEFF 		bl	_ZNK5daisy9AdcHandle11GetMuxFloatEhh
 7029              	.LVL417:
 344:sardinia.cpp  **** 	}
 7030              		.loc 17 344 53 discriminator 2 view .LVU1842
 7031 0012 F6EE007A 		vmov.f32	s15, #5.0e-1
 7032 0016 B4EEE70A 		vcmpe.f32	s0, s15
 7033 001a F1EE10FA 		vmrs	APSR_nzcv, FPSCR
 7034 001e 4CBF     		ite	mi
 7035 0020 0123     		movmi	r3, #1
 7036 0022 0023     		movpl	r3, #0
 342:sardinia.cpp  **** 	{
 7037              		.loc 17 342 19 discriminator 2 view .LVU1843
 7038 0024 082C     		cmp	r4, #8
 344:sardinia.cpp  **** 	}
 7039              		.loc 17 344 53 discriminator 2 view .LVU1844
 7040 0026 05F8013F 		strb	r3, [r5, #1]!
 342:sardinia.cpp  **** 	{
 7041              		.loc 17 342 2 is_stmt 1 discriminator 2 view .LVU1845
 7042              	.LVL418:
 342:sardinia.cpp  **** 	{
 7043              		.loc 17 342 19 discriminator 2 view .LVU1846
 7044 002a ECD1     		bne	.L469
 7045              	.LBE1200:
 346:sardinia.cpp  **** 
 7046              		.loc 17 346 1 is_stmt 0 view .LVU1847
 7047 002c 38BD     		pop	{r3, r4, r5, pc}
 7048              	.LVL419:
 7049              	.L473:
 346:sardinia.cpp  **** 
 7050              		.loc 17 346 1 view .LVU1848
 7051 002e 00BF     		.align	2
 7052              	.L472:
 7053 0030 FFFFFFFF 		.word	.LANCHOR11-1
 7054 0034 18000000 		.word	.LANCHOR38+24
 7055              		.cfi_endproc
 7056              	.LFE4717:
 7058              		.section	.text._Z25RecordControlButtonStatesv,"ax",%progbits
ARM GAS  /var/folders/m5/x8wc2gdj7z5cpgcqdsb_gkj40000gn/T//cckXFIsJ.s 			page 186


 7059              		.align	1
 7060              		.p2align 2,,3
 7061              		.global	_Z25RecordControlButtonStatesv
 7062              		.syntax unified
 7063              		.thumb
 7064              		.thumb_func
 7066              	_Z25RecordControlButtonStatesv:
 7067              	.LFB4718:
 349:sardinia.cpp  **** 	for(int i = 0; i < 8; i++)
 7068              		.loc 17 349 1 is_stmt 1 view -0
 7069              		.cfi_startproc
 7070              		@ args = 0, pretend = 0, frame = 0
 7071              		@ frame_needed = 0, uses_anonymous_args = 0
 7072              		@ link register save eliminated.
 350:sardinia.cpp  **** 	{
 7073              		.loc 17 350 2 view .LVU1850
 7074              	.LVL420:
 7075              	.LBB1201:
 350:sardinia.cpp  **** 	{
 7076              		.loc 17 350 19 view .LVU1851
 352:sardinia.cpp  **** 	}
 7077              		.loc 17 352 30 is_stmt 0 view .LVU1852
 7078 0000 034A     		ldr	r2, .L475
 7079 0002 044B     		ldr	r3, .L475+4
 7080 0004 92E80300 		ldm	r2, {r0, r1}
 7081 0008 83E80300 		stm	r3, {r0, r1}
 7082              	.LVL421:
 352:sardinia.cpp  **** 	}
 7083              		.loc 17 352 30 view .LVU1853
 7084              	.LBE1201:
 354:sardinia.cpp  **** 
 7085              		.loc 17 354 1 view .LVU1854
 7086 000c 7047     		bx	lr
 7087              	.L476:
 7088 000e 00BF     		.align	2
 7089              	.L475:
 7090 0010 00000000 		.word	.LANCHOR11
 7091 0014 00000000 		.word	.LANCHOR12
 7092              		.cfi_endproc
 7093              	.LFE4718:
 7095              		.section	.text._Z10ModeSelectv,"ax",%progbits
 7096              		.align	1
 7097              		.p2align 2,,3
 7098              		.global	_Z10ModeSelectv
 7099              		.syntax unified
 7100              		.thumb
 7101              		.thumb_func
 7103              	_Z10ModeSelectv:
 7104              	.LFB4719:
 357:sardinia.cpp  **** 	if(RisingEdge_ControlButtons(2)) // Adjusts the output amplitude based on the knob
 7105              		.loc 17 357 1 is_stmt 1 view -0
 7106              		.cfi_startproc
 7107              		@ args = 0, pretend = 0, frame = 0
 7108              		@ frame_needed = 0, uses_anonymous_args = 0
 7109              		@ link register save eliminated.
 358:sardinia.cpp  **** 	{
 7110              		.loc 17 358 2 view .LVU1856
ARM GAS  /var/folders/m5/x8wc2gdj7z5cpgcqdsb_gkj40000gn/T//cckXFIsJ.s 			page 187


 7111              	.LVL422:
 7112              	.LBB1218:
 7113              	.LBI1218:
 123:hardware.h    **** bool RisingEdge_ControlButtons(int buttonNum)
 7114              		.loc 14 123 6 view .LVU1857
 7115              	.LBB1219:
 125:hardware.h    **** 	if(controlButtonStates[buttonNum] == true && prevControlButtonStates[buttonNum] == false)
 7116              		.loc 14 125 2 view .LVU1858
 125:hardware.h    **** 	if(controlButtonStates[buttonNum] == true && prevControlButtonStates[buttonNum] == false)
 7117              		.loc 14 125 34 is_stmt 0 view .LVU1859
 7118 0000 084B     		ldr	r3, .L486
 125:hardware.h    **** 	if(controlButtonStates[buttonNum] == true && prevControlButtonStates[buttonNum] == false)
 7119              		.loc 14 125 2 view .LVU1860
 7120 0002 9A78     		ldrb	r2, [r3, #2]	@ zero_extendqisi2
 7121 0004 2AB1     		cbz	r2, .L478
 125:hardware.h    **** 	if(controlButtonStates[buttonNum] == true && prevControlButtonStates[buttonNum] == false)
 7122              		.loc 14 125 80 view .LVU1861
 7123 0006 084A     		ldr	r2, .L486+4
 125:hardware.h    **** 	if(controlButtonStates[buttonNum] == true && prevControlButtonStates[buttonNum] == false)
 7124              		.loc 14 125 44 view .LVU1862
 7125 0008 9278     		ldrb	r2, [r2, #2]	@ zero_extendqisi2
 7126 000a 12B9     		cbnz	r2, .L478
 7127              	.LVL423:
 125:hardware.h    **** 	if(controlButtonStates[buttonNum] == true && prevControlButtonStates[buttonNum] == false)
 7128              		.loc 14 125 44 view .LVU1863
 7129              	.LBE1219:
 7130              	.LBE1218:
 360:sardinia.cpp  **** 	}
 7131              		.loc 17 360 3 is_stmt 1 view .LVU1864
 7132              	.LBB1221:
 7133              	.LBI1221:
 125:display.h     **** {
 7134              		.loc 15 125 6 view .LVU1865
 7135              	.LBB1222:
 127:display.h     **** 	{
 7136              		.loc 15 127 2 view .LVU1866
 129:display.h     **** 	}
 7137              		.loc 15 129 3 view .LVU1867
 129:display.h     **** 	}
 7138              		.loc 15 129 8 is_stmt 0 view .LVU1868
 7139 000c 074B     		ldr	r3, .L486+8
 7140 000e 1A70     		strb	r2, [r3]
 7141              		.loc 15 135 1 view .LVU1869
 7142 0010 7047     		bx	lr
 7143              	.LVL424:
 7144              	.L478:
 7145              		.loc 15 135 1 view .LVU1870
 7146              	.LBE1222:
 7147              	.LBE1221:
 7148              	.LBB1223:
 7149              	.LBB1220:
 131:hardware.h    **** 		return false;
 7150              		.loc 14 131 3 is_stmt 1 view .LVU1871
 131:hardware.h    **** 		return false;
 7151              		.loc 14 131 3 is_stmt 0 view .LVU1872
 7152              	.LBE1220:
 7153              	.LBE1223:
ARM GAS  /var/folders/m5/x8wc2gdj7z5cpgcqdsb_gkj40000gn/T//cckXFIsJ.s 			page 188


 362:sardinia.cpp  **** 	{
 7154              		.loc 17 362 7 is_stmt 1 view .LVU1873
 7155              	.LBB1224:
 7156              	.LBI1224:
 123:hardware.h    **** bool RisingEdge_ControlButtons(int buttonNum)
 7157              		.loc 14 123 6 view .LVU1874
 7158              	.LBB1225:
 125:hardware.h    **** 	if(controlButtonStates[buttonNum] == true && prevControlButtonStates[buttonNum] == false)
 7159              		.loc 14 125 2 view .LVU1875
 7160 0012 DB78     		ldrb	r3, [r3, #3]	@ zero_extendqisi2
 7161 0014 2BB1     		cbz	r3, .L477
 7162              	.LBE1225:
 7163              	.LBE1224:
 7164              	.LBB1226:
 7165              	.LBI1226:
 356:sardinia.cpp  **** {
 7166              		.loc 17 356 6 view .LVU1876
 7167              	.LBB1227:
 7168              	.LBB1228:
 125:hardware.h    **** 	if(controlButtonStates[buttonNum] == true && prevControlButtonStates[buttonNum] == false)
 7169              		.loc 14 125 80 is_stmt 0 view .LVU1877
 7170 0016 044B     		ldr	r3, .L486+4
 125:hardware.h    **** 	if(controlButtonStates[buttonNum] == true && prevControlButtonStates[buttonNum] == false)
 7171              		.loc 14 125 44 view .LVU1878
 7172 0018 DB78     		ldrb	r3, [r3, #3]	@ zero_extendqisi2
 7173 001a 13B9     		cbnz	r3, .L477
 7174              	.LBE1228:
 7175              	.LBE1227:
 7176              	.LBE1226:
 7177              		.loc 17 364 3 is_stmt 1 view .LVU1879
 7178              	.LVL425:
 7179              	.LBB1231:
 7180              	.LBB1229:
 7181              	.LBI1229:
 125:display.h     **** {
 7182              		.loc 15 125 6 view .LVU1880
 7183              	.LBB1230:
 127:display.h     **** 	{
 7184              		.loc 15 127 2 view .LVU1881
 131:display.h     **** 	{
 7185              		.loc 15 131 7 view .LVU1882
 133:display.h     **** 	}
 7186              		.loc 15 133 3 view .LVU1883
 133:display.h     **** 	}
 7187              		.loc 15 133 8 is_stmt 0 view .LVU1884
 7188 001c 034B     		ldr	r3, .L486+8
 7189 001e 0122     		movs	r2, #1
 7190 0020 1A70     		strb	r2, [r3]
 7191              	.LVL426:
 7192              	.L477:
 133:display.h     **** 	}
 7193              		.loc 15 133 8 view .LVU1885
 7194              	.LBE1230:
 7195              	.LBE1229:
 7196              	.LBE1231:
 365:sardinia.cpp  **** 	}
 366:sardinia.cpp  **** }
ARM GAS  /var/folders/m5/x8wc2gdj7z5cpgcqdsb_gkj40000gn/T//cckXFIsJ.s 			page 189


 7197              		.loc 17 366 1 view .LVU1886
 7198 0022 7047     		bx	lr
 7199              	.L487:
 7200              		.align	2
 7201              	.L486:
 7202 0024 00000000 		.word	.LANCHOR11
 7203 0028 00000000 		.word	.LANCHOR12
 7204 002c 00000000 		.word	.LANCHOR31
 7205              		.cfi_endproc
 7206              	.LFE4719:
 7208              		.section	.text.startup._GLOBAL__sub_I_adcConfig,"ax",%progbits
 7209              		.align	1
 7210              		.p2align 2,,3
 7211              		.syntax unified
 7212              		.thumb
 7213              		.thumb_func
 7215              	_GLOBAL__sub_I_adcConfig:
 7216              	.LFB5282:
 7217              		.loc 17 366 1 is_stmt 1 view -0
 7218              		.cfi_startproc
 7219              		@ args = 0, pretend = 0, frame = 0
 7220              		@ frame_needed = 0, uses_anonymous_args = 0
 7221              	.LBB1273:
 7222              	.LBI1273:
 7223              		.loc 17 366 1 view .LVU1888
 7224              	.LVL427:
 7225              	.LBB1274:
 7226              	.LBB1275:
 7227              	.LBI1275:
  20:/Users/dominicfrugoli/Desktop/ProgrammingCode/DaisyCode/DaisyExamples/libDaisy/src/hid/encoder.h ****     ~Encoder() {}
 7228              		.loc 2 20 5 view .LVU1889
 7229              	.LBB1276:
 7230              	.LBB1277:
 7231              	.LBI1277:
  41:/Users/dominicfrugoli/Desktop/ProgrammingCode/DaisyCode/DaisyExamples/libDaisy/src/hid/switch.h ****     ~Switch() {}
 7232              		.loc 1 41 5 view .LVU1890
  41:/Users/dominicfrugoli/Desktop/ProgrammingCode/DaisyCode/DaisyExamples/libDaisy/src/hid/switch.h ****     ~Switch() {}
 7233              		.loc 1 41 5 is_stmt 0 view .LVU1891
 7234              	.LBE1277:
 7235              	.LBE1276:
 7236              	.LBE1275:
 7237              	.LBE1274:
 7238              	.LBE1273:
 7239              		.loc 17 366 1 view .LVU1892
 7240 0000 38B5     		push	{r3, r4, r5, lr}
 7241              		.cfi_def_cfa_offset 16
 7242              		.cfi_offset 3, -16
 7243              		.cfi_offset 4, -12
 7244              		.cfi_offset 5, -8
 7245              		.cfi_offset 14, -4
 7246              	.LBB1310:
 7247              	.LBB1307:
  60:hardware.h    **** Encoder encoder;
 7248              		.loc 14 60 9 view .LVU1893
 7249 0002 1B4C     		ldr	r4, .L490
  61:hardware.h    **** Switch playButton;
 7250              		.loc 14 61 8 view .LVU1894
ARM GAS  /var/folders/m5/x8wc2gdj7z5cpgcqdsb_gkj40000gn/T//cckXFIsJ.s 			page 190


 7251 0004 1B4D     		ldr	r5, .L490+4
  60:hardware.h    **** Encoder encoder;
 7252              		.loc 14 60 9 view .LVU1895
 7253 0006 2246     		mov	r2, r4
 7254 0008 1B49     		ldr	r1, .L490+8
 7255 000a 1C48     		ldr	r0, .L490+12
 7256 000c FFF7FEFF 		bl	__aeabi_atexit
 7257              	.LVL428:
 7258              	.LBB1278:
 7259              	.LBI1278:
  41:/Users/dominicfrugoli/Desktop/ProgrammingCode/DaisyCode/DaisyExamples/libDaisy/src/hid/switch.h ****     ~Switch() {}
 7260              		.loc 1 41 5 is_stmt 1 view .LVU1896
  41:/Users/dominicfrugoli/Desktop/ProgrammingCode/DaisyCode/DaisyExamples/libDaisy/src/hid/switch.h ****     ~Switch() {}
 7261              		.loc 1 41 5 is_stmt 0 view .LVU1897
 7262              	.LBE1278:
  61:hardware.h    **** Switch playButton;
 7263              		.loc 14 61 8 view .LVU1898
 7264 0010 2246     		mov	r2, r4
 7265 0012 2946     		mov	r1, r5
 7266 0014 1A48     		ldr	r0, .L490+16
 7267 0016 FFF7FEFF 		bl	__aeabi_atexit
 7268              	.LVL429:
 7269              	.LBB1279:
 7270              	.LBI1279:
  41:/Users/dominicfrugoli/Desktop/ProgrammingCode/DaisyCode/DaisyExamples/libDaisy/src/hid/switch.h ****     ~Switch() {}
 7271              		.loc 1 41 5 is_stmt 1 view .LVU1899
  41:/Users/dominicfrugoli/Desktop/ProgrammingCode/DaisyCode/DaisyExamples/libDaisy/src/hid/switch.h ****     ~Switch() {}
 7272              		.loc 1 41 5 is_stmt 0 view .LVU1900
 7273              	.LBE1279:
  62:hardware.h    **** Switch recButton;
 7274              		.loc 14 62 8 view .LVU1901
 7275 001a 2246     		mov	r2, r4
 7276 001c 2946     		mov	r1, r5
 7277 001e 1948     		ldr	r0, .L490+20
 7278 0020 FFF7FEFF 		bl	__aeabi_atexit
 7279              	.LVL430:
 7280              	.LBB1280:
 7281              	.LBI1280:
  22:/Users/dominicfrugoli/Desktop/ProgrammingCode/DaisyCode/DaisyExamples/libDaisy/src/dev/lcd_hd44780.h ****     ~LcdHD44780() {}
 7282              		.loc 3 22 5 is_stmt 1 view .LVU1902
  22:/Users/dominicfrugoli/Desktop/ProgrammingCode/DaisyCode/DaisyExamples/libDaisy/src/dev/lcd_hd44780.h ****     ~LcdHD44780() {}
 7283              		.loc 3 22 5 is_stmt 0 view .LVU1903
 7284              	.LBE1280:
  42:display.h     **** enum Mode mode = record;
 7285              		.loc 15 42 12 view .LVU1904
 7286 0024 2246     		mov	r2, r4
 7287 0026 1849     		ldr	r1, .L490+24
 7288 0028 1848     		ldr	r0, .L490+28
 7289 002a FFF7FEFF 		bl	__aeabi_atexit
 7290              	.LVL431:
 7291              	.LBB1281:
 7292              	.LBI1281:
  96:/Users/dominicfrugoli/Desktop/ProgrammingCode/DaisyCode/DaisyExamples/DaisySP/Source/Effects/chorus.h ****     ~Chorus() {}
 7293              		.loc 10 96 5 is_stmt 1 view .LVU1905
 7294              	.LBE1281:
 7295              	.LBE1307:
 7296              	.LBE1310:
ARM GAS  /var/folders/m5/x8wc2gdj7z5cpgcqdsb_gkj40000gn/T//cckXFIsJ.s 			page 191


  96:/Users/dominicfrugoli/Desktop/ProgrammingCode/DaisyCode/DaisyExamples/DaisySP/Source/Effects/chorus.h ****     ~Chorus() {}
 7297              		.loc 10 96 14 view .LVU1906
 7298              	.LBB1311:
 7299              	.LBB1308:
  19:effects.h     **** Overdrive overdrive;
 7300              		.loc 16 19 8 is_stmt 0 view .LVU1907
 7301 002e 2246     		mov	r2, r4
 7302 0030 1749     		ldr	r1, .L490+32
 7303 0032 1848     		ldr	r0, .L490+36
 7304 0034 FFF7FEFF 		bl	__aeabi_atexit
 7305              	.LVL432:
 7306              	.LBB1282:
 7307              	.LBI1282:
  31:/Users/dominicfrugoli/Desktop/ProgrammingCode/DaisyCode/DaisyExamples/DaisySP/Source/Effects/overdrive.h ****     ~Overdrive() {}
 7308              		.loc 11 31 5 is_stmt 1 view .LVU1908
  31:/Users/dominicfrugoli/Desktop/ProgrammingCode/DaisyCode/DaisyExamples/DaisySP/Source/Effects/overdrive.h ****     ~Overdrive() {}
 7309              		.loc 11 31 5 is_stmt 0 view .LVU1909
 7310              	.LBE1282:
  20:effects.h     **** OnePole odTone;
 7311              		.loc 16 20 11 view .LVU1910
 7312 0038 2246     		mov	r2, r4
 7313 003a 1749     		ldr	r1, .L490+40
 7314 003c 1748     		ldr	r0, .L490+44
 7315 003e FFF7FEFF 		bl	__aeabi_atexit
 7316              	.LVL433:
 7317              	.LBB1283:
 7318              	.LBI1283:
  29:/Users/dominicfrugoli/Desktop/ProgrammingCode/DaisyCode/DaisyExamples/DaisySP/Source/Filters/onepole.h ****     ~OnePole() {}
 7319              		.loc 12 29 5 is_stmt 1 view .LVU1911
  29:/Users/dominicfrugoli/Desktop/ProgrammingCode/DaisyCode/DaisyExamples/DaisySP/Source/Filters/onepole.h ****     ~OnePole() {}
 7320              		.loc 12 29 5 is_stmt 0 view .LVU1912
 7321              	.LBE1283:
  21:effects.h     **** Svf lopass;
 7322              		.loc 16 21 9 view .LVU1913
 7323 0042 2246     		mov	r2, r4
 7324 0044 1649     		ldr	r1, .L490+48
 7325 0046 1748     		ldr	r0, .L490+52
 7326 0048 FFF7FEFF 		bl	__aeabi_atexit
 7327              	.LVL434:
 7328              	.LBB1284:
 7329              	.LBI1284:
  29:/Users/dominicfrugoli/Desktop/ProgrammingCode/DaisyCode/DaisyExamples/DaisySP/Source/Filters/svf.h ****     ~Svf() {}
 7330              		.loc 9 29 5 is_stmt 1 view .LVU1914
  29:/Users/dominicfrugoli/Desktop/ProgrammingCode/DaisyCode/DaisyExamples/DaisySP/Source/Filters/svf.h ****     ~Svf() {}
 7331              		.loc 9 29 5 is_stmt 0 view .LVU1915
 7332              	.LBE1284:
  22:effects.h     **** 
 7333              		.loc 16 22 5 view .LVU1916
 7334 004c 2246     		mov	r2, r4
 7335 004e 1649     		ldr	r1, .L490+56
 7336 0050 1648     		ldr	r0, .L490+60
 7337 0052 FFF7FEFF 		bl	__aeabi_atexit
 7338              	.LVL435:
 7339              	.LBB1285:
 7340              	.LBI1285:
  21:/Users/dominicfrugoli/Desktop/ProgrammingCode/DaisyCode/DaisyExamples/libDaisy/src/daisy_seed.h ****     ~DaisySeed() {}
 7341              		.loc 4 21 5 is_stmt 1 view .LVU1917
ARM GAS  /var/folders/m5/x8wc2gdj7z5cpgcqdsb_gkj40000gn/T//cckXFIsJ.s 			page 192


 7342              	.LBB1286:
 7343              	.LBB1287:
 7344              	.LBI1287:
 7345              		.file 19 "/Users/dominicfrugoli/Desktop/ProgrammingCode/DaisyCode/DaisyExamples/libDaisy/src/per/q
   1:/Users/dominicfrugoli/Desktop/ProgrammingCode/DaisyCode/DaisyExamples/libDaisy/src/per/qspi.h **** #ifndef DSY_QSPI
   2:/Users/dominicfrugoli/Desktop/ProgrammingCode/DaisyCode/DaisyExamples/libDaisy/src/per/qspi.h **** #define DSY_QSPI /**< Macro */
   3:/Users/dominicfrugoli/Desktop/ProgrammingCode/DaisyCode/DaisyExamples/libDaisy/src/per/qspi.h **** 
   4:/Users/dominicfrugoli/Desktop/ProgrammingCode/DaisyCode/DaisyExamples/libDaisy/src/per/qspi.h **** #ifndef UNIT_TEST // for unit tests, a dummy implementation
   5:/Users/dominicfrugoli/Desktop/ProgrammingCode/DaisyCode/DaisyExamples/libDaisy/src/per/qspi.h **** 
   6:/Users/dominicfrugoli/Desktop/ProgrammingCode/DaisyCode/DaisyExamples/libDaisy/src/per/qspi.h **** #include <cstdint>
   7:/Users/dominicfrugoli/Desktop/ProgrammingCode/DaisyCode/DaisyExamples/libDaisy/src/per/qspi.h **** #include "daisy_core.h" // Added for dsy_gpio_pin typedef
   8:/Users/dominicfrugoli/Desktop/ProgrammingCode/DaisyCode/DaisyExamples/libDaisy/src/per/qspi.h **** 
   9:/Users/dominicfrugoli/Desktop/ProgrammingCode/DaisyCode/DaisyExamples/libDaisy/src/per/qspi.h **** #define DSY_QSPI_TEXT       \
  10:/Users/dominicfrugoli/Desktop/ProgrammingCode/DaisyCode/DaisyExamples/libDaisy/src/per/qspi.h ****     __attribute__((section( \
  11:/Users/dominicfrugoli/Desktop/ProgrammingCode/DaisyCode/DaisyExamples/libDaisy/src/per/qspi.h ****         ".qspiflash_text"))) /**< used for reading memory in memory_mapped mode. */
  12:/Users/dominicfrugoli/Desktop/ProgrammingCode/DaisyCode/DaisyExamples/libDaisy/src/per/qspi.h **** #define DSY_QSPI_DATA       \
  13:/Users/dominicfrugoli/Desktop/ProgrammingCode/DaisyCode/DaisyExamples/libDaisy/src/per/qspi.h ****     __attribute__((section( \
  14:/Users/dominicfrugoli/Desktop/ProgrammingCode/DaisyCode/DaisyExamples/libDaisy/src/per/qspi.h ****         ".qspiflash_data"))) /**< used for reading memory in memory_mapped mode. */
  15:/Users/dominicfrugoli/Desktop/ProgrammingCode/DaisyCode/DaisyExamples/libDaisy/src/per/qspi.h **** #define DSY_QSPI_BSS        \
  16:/Users/dominicfrugoli/Desktop/ProgrammingCode/DaisyCode/DaisyExamples/libDaisy/src/per/qspi.h ****     __attribute__((section( \
  17:/Users/dominicfrugoli/Desktop/ProgrammingCode/DaisyCode/DaisyExamples/libDaisy/src/per/qspi.h ****         ".qspiflash_bss"))) /**< used for reading memory in memory_mapped mode. */
  18:/Users/dominicfrugoli/Desktop/ProgrammingCode/DaisyCode/DaisyExamples/libDaisy/src/per/qspi.h **** 
  19:/Users/dominicfrugoli/Desktop/ProgrammingCode/DaisyCode/DaisyExamples/libDaisy/src/per/qspi.h **** namespace daisy
  20:/Users/dominicfrugoli/Desktop/ProgrammingCode/DaisyCode/DaisyExamples/libDaisy/src/per/qspi.h **** {
  21:/Users/dominicfrugoli/Desktop/ProgrammingCode/DaisyCode/DaisyExamples/libDaisy/src/per/qspi.h **** /** @addtogroup serial
  22:/Users/dominicfrugoli/Desktop/ProgrammingCode/DaisyCode/DaisyExamples/libDaisy/src/per/qspi.h **** @{
  23:/Users/dominicfrugoli/Desktop/ProgrammingCode/DaisyCode/DaisyExamples/libDaisy/src/per/qspi.h **** */
  24:/Users/dominicfrugoli/Desktop/ProgrammingCode/DaisyCode/DaisyExamples/libDaisy/src/per/qspi.h **** 
  25:/Users/dominicfrugoli/Desktop/ProgrammingCode/DaisyCode/DaisyExamples/libDaisy/src/per/qspi.h **** /** 
  26:/Users/dominicfrugoli/Desktop/ProgrammingCode/DaisyCode/DaisyExamples/libDaisy/src/per/qspi.h ****  Driver for QSPI peripheral to interface with external flash memory. \n 
  27:/Users/dominicfrugoli/Desktop/ProgrammingCode/DaisyCode/DaisyExamples/libDaisy/src/per/qspi.h ****     Currently supported QSPI Devices: \n 
  28:/Users/dominicfrugoli/Desktop/ProgrammingCode/DaisyCode/DaisyExamples/libDaisy/src/per/qspi.h ****     * IS25LP080D
  29:/Users/dominicfrugoli/Desktop/ProgrammingCode/DaisyCode/DaisyExamples/libDaisy/src/per/qspi.h **** */
  30:/Users/dominicfrugoli/Desktop/ProgrammingCode/DaisyCode/DaisyExamples/libDaisy/src/per/qspi.h **** class QSPIHandle
  31:/Users/dominicfrugoli/Desktop/ProgrammingCode/DaisyCode/DaisyExamples/libDaisy/src/per/qspi.h **** {
  32:/Users/dominicfrugoli/Desktop/ProgrammingCode/DaisyCode/DaisyExamples/libDaisy/src/per/qspi.h ****   public:
  33:/Users/dominicfrugoli/Desktop/ProgrammingCode/DaisyCode/DaisyExamples/libDaisy/src/per/qspi.h ****     enum Result
  34:/Users/dominicfrugoli/Desktop/ProgrammingCode/DaisyCode/DaisyExamples/libDaisy/src/per/qspi.h ****     {
  35:/Users/dominicfrugoli/Desktop/ProgrammingCode/DaisyCode/DaisyExamples/libDaisy/src/per/qspi.h ****         OK = 0,
  36:/Users/dominicfrugoli/Desktop/ProgrammingCode/DaisyCode/DaisyExamples/libDaisy/src/per/qspi.h ****         ERR
  37:/Users/dominicfrugoli/Desktop/ProgrammingCode/DaisyCode/DaisyExamples/libDaisy/src/per/qspi.h ****     };
  38:/Users/dominicfrugoli/Desktop/ProgrammingCode/DaisyCode/DaisyExamples/libDaisy/src/per/qspi.h **** 
  39:/Users/dominicfrugoli/Desktop/ProgrammingCode/DaisyCode/DaisyExamples/libDaisy/src/per/qspi.h ****     /** Indicates the current status of the module. 
  40:/Users/dominicfrugoli/Desktop/ProgrammingCode/DaisyCode/DaisyExamples/libDaisy/src/per/qspi.h ****          *  Warnings are indicated by a leading W.
  41:/Users/dominicfrugoli/Desktop/ProgrammingCode/DaisyCode/DaisyExamples/libDaisy/src/per/qspi.h ****          *  Errors are indicated by a leading E and cause an immediate exit.
  42:/Users/dominicfrugoli/Desktop/ProgrammingCode/DaisyCode/DaisyExamples/libDaisy/src/per/qspi.h ****          * 
  43:/Users/dominicfrugoli/Desktop/ProgrammingCode/DaisyCode/DaisyExamples/libDaisy/src/per/qspi.h ****          *  \param GOOD - No errors have been reported.
  44:/Users/dominicfrugoli/Desktop/ProgrammingCode/DaisyCode/DaisyExamples/libDaisy/src/per/qspi.h ****          *  \param E_HAL_ERROR - HAL code did not return HAL_OK.
  45:/Users/dominicfrugoli/Desktop/ProgrammingCode/DaisyCode/DaisyExamples/libDaisy/src/per/qspi.h ****          *  \param E_SWITCHING_MODES - An error was encountered while switching QSPI peripheral mod
  46:/Users/dominicfrugoli/Desktop/ProgrammingCode/DaisyCode/DaisyExamples/libDaisy/src/per/qspi.h ****          *  \param E_INVALID_MODE - QSPI should not be written to while the program is executing fr
  47:/Users/dominicfrugoli/Desktop/ProgrammingCode/DaisyCode/DaisyExamples/libDaisy/src/per/qspi.h ****          */
  48:/Users/dominicfrugoli/Desktop/ProgrammingCode/DaisyCode/DaisyExamples/libDaisy/src/per/qspi.h ****     enum Status
  49:/Users/dominicfrugoli/Desktop/ProgrammingCode/DaisyCode/DaisyExamples/libDaisy/src/per/qspi.h ****     {
  50:/Users/dominicfrugoli/Desktop/ProgrammingCode/DaisyCode/DaisyExamples/libDaisy/src/per/qspi.h ****         GOOD = 0,
  51:/Users/dominicfrugoli/Desktop/ProgrammingCode/DaisyCode/DaisyExamples/libDaisy/src/per/qspi.h ****         E_HAL_ERROR,
  52:/Users/dominicfrugoli/Desktop/ProgrammingCode/DaisyCode/DaisyExamples/libDaisy/src/per/qspi.h ****         E_SWITCHING_MODES,
  53:/Users/dominicfrugoli/Desktop/ProgrammingCode/DaisyCode/DaisyExamples/libDaisy/src/per/qspi.h ****         E_INVALID_MODE,
ARM GAS  /var/folders/m5/x8wc2gdj7z5cpgcqdsb_gkj40000gn/T//cckXFIsJ.s 			page 193


  54:/Users/dominicfrugoli/Desktop/ProgrammingCode/DaisyCode/DaisyExamples/libDaisy/src/per/qspi.h ****     };
  55:/Users/dominicfrugoli/Desktop/ProgrammingCode/DaisyCode/DaisyExamples/libDaisy/src/per/qspi.h **** 
  56:/Users/dominicfrugoli/Desktop/ProgrammingCode/DaisyCode/DaisyExamples/libDaisy/src/per/qspi.h ****     /** Configuration structure for interfacing with QSPI Driver */
  57:/Users/dominicfrugoli/Desktop/ProgrammingCode/DaisyCode/DaisyExamples/libDaisy/src/per/qspi.h ****     struct Config
  58:/Users/dominicfrugoli/Desktop/ProgrammingCode/DaisyCode/DaisyExamples/libDaisy/src/per/qspi.h ****     {
  59:/Users/dominicfrugoli/Desktop/ProgrammingCode/DaisyCode/DaisyExamples/libDaisy/src/per/qspi.h ****         /** Flash Devices supported. (Both of these are more-or-less the same, just different sizes
  60:/Users/dominicfrugoli/Desktop/ProgrammingCode/DaisyCode/DaisyExamples/libDaisy/src/per/qspi.h ****         enum Device
  61:/Users/dominicfrugoli/Desktop/ProgrammingCode/DaisyCode/DaisyExamples/libDaisy/src/per/qspi.h ****         {
  62:/Users/dominicfrugoli/Desktop/ProgrammingCode/DaisyCode/DaisyExamples/libDaisy/src/per/qspi.h ****             IS25LP080D,  /**< & */
  63:/Users/dominicfrugoli/Desktop/ProgrammingCode/DaisyCode/DaisyExamples/libDaisy/src/per/qspi.h ****             IS25LP064A,  /**< & */
  64:/Users/dominicfrugoli/Desktop/ProgrammingCode/DaisyCode/DaisyExamples/libDaisy/src/per/qspi.h ****             DEVICE_LAST, /**< & */
  65:/Users/dominicfrugoli/Desktop/ProgrammingCode/DaisyCode/DaisyExamples/libDaisy/src/per/qspi.h ****         };
  66:/Users/dominicfrugoli/Desktop/ProgrammingCode/DaisyCode/DaisyExamples/libDaisy/src/per/qspi.h **** 
  67:/Users/dominicfrugoli/Desktop/ProgrammingCode/DaisyCode/DaisyExamples/libDaisy/src/per/qspi.h ****         /** 
  68:/Users/dominicfrugoli/Desktop/ProgrammingCode/DaisyCode/DaisyExamples/libDaisy/src/per/qspi.h ****         Modes of operation.
  69:/Users/dominicfrugoli/Desktop/ProgrammingCode/DaisyCode/DaisyExamples/libDaisy/src/per/qspi.h ****         Memory Mapped mode: QSPI configured so that the QSPI can be
  70:/Users/dominicfrugoli/Desktop/ProgrammingCode/DaisyCode/DaisyExamples/libDaisy/src/per/qspi.h ****         read from starting address 0x90000000. Writing is not
  71:/Users/dominicfrugoli/Desktop/ProgrammingCode/DaisyCode/DaisyExamples/libDaisy/src/per/qspi.h ****         possible in this mode. \n 
  72:/Users/dominicfrugoli/Desktop/ProgrammingCode/DaisyCode/DaisyExamples/libDaisy/src/per/qspi.h ****         Indirect Polling mode: Device driver enabled. 
  73:/Users/dominicfrugoli/Desktop/ProgrammingCode/DaisyCode/DaisyExamples/libDaisy/src/per/qspi.h ****         */
  74:/Users/dominicfrugoli/Desktop/ProgrammingCode/DaisyCode/DaisyExamples/libDaisy/src/per/qspi.h ****         enum Mode
  75:/Users/dominicfrugoli/Desktop/ProgrammingCode/DaisyCode/DaisyExamples/libDaisy/src/per/qspi.h ****         {
  76:/Users/dominicfrugoli/Desktop/ProgrammingCode/DaisyCode/DaisyExamples/libDaisy/src/per/qspi.h ****             MEMORY_MAPPED,    /**< & */
  77:/Users/dominicfrugoli/Desktop/ProgrammingCode/DaisyCode/DaisyExamples/libDaisy/src/per/qspi.h ****             INDIRECT_POLLING, /**< & */
  78:/Users/dominicfrugoli/Desktop/ProgrammingCode/DaisyCode/DaisyExamples/libDaisy/src/per/qspi.h ****             MODE_LAST,
  79:/Users/dominicfrugoli/Desktop/ProgrammingCode/DaisyCode/DaisyExamples/libDaisy/src/per/qspi.h ****         };
  80:/Users/dominicfrugoli/Desktop/ProgrammingCode/DaisyCode/DaisyExamples/libDaisy/src/per/qspi.h **** 
  81:/Users/dominicfrugoli/Desktop/ProgrammingCode/DaisyCode/DaisyExamples/libDaisy/src/per/qspi.h ****         //SCK,  CE# (active low)
  82:/Users/dominicfrugoli/Desktop/ProgrammingCode/DaisyCode/DaisyExamples/libDaisy/src/per/qspi.h ****         struct
  83:/Users/dominicfrugoli/Desktop/ProgrammingCode/DaisyCode/DaisyExamples/libDaisy/src/per/qspi.h ****         {
  84:/Users/dominicfrugoli/Desktop/ProgrammingCode/DaisyCode/DaisyExamples/libDaisy/src/per/qspi.h ****             dsy_gpio_pin io0; /**< & */
  85:/Users/dominicfrugoli/Desktop/ProgrammingCode/DaisyCode/DaisyExamples/libDaisy/src/per/qspi.h ****             dsy_gpio_pin io1; /**< & */
  86:/Users/dominicfrugoli/Desktop/ProgrammingCode/DaisyCode/DaisyExamples/libDaisy/src/per/qspi.h ****             dsy_gpio_pin io2; /**< & */
  87:/Users/dominicfrugoli/Desktop/ProgrammingCode/DaisyCode/DaisyExamples/libDaisy/src/per/qspi.h ****             dsy_gpio_pin io3; /**< & */
  88:/Users/dominicfrugoli/Desktop/ProgrammingCode/DaisyCode/DaisyExamples/libDaisy/src/per/qspi.h ****             dsy_gpio_pin clk; /**< & */
  89:/Users/dominicfrugoli/Desktop/ProgrammingCode/DaisyCode/DaisyExamples/libDaisy/src/per/qspi.h ****             dsy_gpio_pin ncs; /**< & */
  90:/Users/dominicfrugoli/Desktop/ProgrammingCode/DaisyCode/DaisyExamples/libDaisy/src/per/qspi.h ****         } pin_config;
  91:/Users/dominicfrugoli/Desktop/ProgrammingCode/DaisyCode/DaisyExamples/libDaisy/src/per/qspi.h **** 
  92:/Users/dominicfrugoli/Desktop/ProgrammingCode/DaisyCode/DaisyExamples/libDaisy/src/per/qspi.h ****         Device device;
  93:/Users/dominicfrugoli/Desktop/ProgrammingCode/DaisyCode/DaisyExamples/libDaisy/src/per/qspi.h ****         Mode   mode;
  94:/Users/dominicfrugoli/Desktop/ProgrammingCode/DaisyCode/DaisyExamples/libDaisy/src/per/qspi.h ****     };
  95:/Users/dominicfrugoli/Desktop/ProgrammingCode/DaisyCode/DaisyExamples/libDaisy/src/per/qspi.h **** 
  96:/Users/dominicfrugoli/Desktop/ProgrammingCode/DaisyCode/DaisyExamples/libDaisy/src/per/qspi.h ****     /** 
  97:/Users/dominicfrugoli/Desktop/ProgrammingCode/DaisyCode/DaisyExamples/libDaisy/src/per/qspi.h ****         Initializes QSPI peripheral, and Resets, and prepares memory for access.
  98:/Users/dominicfrugoli/Desktop/ProgrammingCode/DaisyCode/DaisyExamples/libDaisy/src/per/qspi.h ****         \param config should be populated with the mode, device and pin_config before calling this 
  99:/Users/dominicfrugoli/Desktop/ProgrammingCode/DaisyCode/DaisyExamples/libDaisy/src/per/qspi.h ****         \return Result::OK or Result::ERR
 100:/Users/dominicfrugoli/Desktop/ProgrammingCode/DaisyCode/DaisyExamples/libDaisy/src/per/qspi.h ****         */
 101:/Users/dominicfrugoli/Desktop/ProgrammingCode/DaisyCode/DaisyExamples/libDaisy/src/per/qspi.h ****     Result Init(const Config& config);
 102:/Users/dominicfrugoli/Desktop/ProgrammingCode/DaisyCode/DaisyExamples/libDaisy/src/per/qspi.h **** 
 103:/Users/dominicfrugoli/Desktop/ProgrammingCode/DaisyCode/DaisyExamples/libDaisy/src/per/qspi.h ****     /** Returns the current config. */
 104:/Users/dominicfrugoli/Desktop/ProgrammingCode/DaisyCode/DaisyExamples/libDaisy/src/per/qspi.h ****     const Config& GetConfig() const;
 105:/Users/dominicfrugoli/Desktop/ProgrammingCode/DaisyCode/DaisyExamples/libDaisy/src/per/qspi.h **** 
 106:/Users/dominicfrugoli/Desktop/ProgrammingCode/DaisyCode/DaisyExamples/libDaisy/src/per/qspi.h ****     // Couldn't this just be called before anything else in init? That
 107:/Users/dominicfrugoli/Desktop/ProgrammingCode/DaisyCode/DaisyExamples/libDaisy/src/per/qspi.h ****     // would make manually calling it unnecessary.
 108:/Users/dominicfrugoli/Desktop/ProgrammingCode/DaisyCode/DaisyExamples/libDaisy/src/per/qspi.h ****     /** 
 109:/Users/dominicfrugoli/Desktop/ProgrammingCode/DaisyCode/DaisyExamples/libDaisy/src/per/qspi.h ****         Deinitializes the peripheral
 110:/Users/dominicfrugoli/Desktop/ProgrammingCode/DaisyCode/DaisyExamples/libDaisy/src/per/qspi.h ****         This should be called before reinitializing QSPI in a different mode.
ARM GAS  /var/folders/m5/x8wc2gdj7z5cpgcqdsb_gkj40000gn/T//cckXFIsJ.s 			page 194


 111:/Users/dominicfrugoli/Desktop/ProgrammingCode/DaisyCode/DaisyExamples/libDaisy/src/per/qspi.h ****         \return Result::OK or Result::ERR
 112:/Users/dominicfrugoli/Desktop/ProgrammingCode/DaisyCode/DaisyExamples/libDaisy/src/per/qspi.h ****         */
 113:/Users/dominicfrugoli/Desktop/ProgrammingCode/DaisyCode/DaisyExamples/libDaisy/src/per/qspi.h ****     Result DeInit();
 114:/Users/dominicfrugoli/Desktop/ProgrammingCode/DaisyCode/DaisyExamples/libDaisy/src/per/qspi.h **** 
 115:/Users/dominicfrugoli/Desktop/ProgrammingCode/DaisyCode/DaisyExamples/libDaisy/src/per/qspi.h ****     /** 
 116:/Users/dominicfrugoli/Desktop/ProgrammingCode/DaisyCode/DaisyExamples/libDaisy/src/per/qspi.h ****         Writes a single page to to the specified address on the QSPI chip.
 117:/Users/dominicfrugoli/Desktop/ProgrammingCode/DaisyCode/DaisyExamples/libDaisy/src/per/qspi.h ****         For IS25LP*, page size is 256 bytes.
 118:/Users/dominicfrugoli/Desktop/ProgrammingCode/DaisyCode/DaisyExamples/libDaisy/src/per/qspi.h ****         \param address Address to write to
 119:/Users/dominicfrugoli/Desktop/ProgrammingCode/DaisyCode/DaisyExamples/libDaisy/src/per/qspi.h ****         \param size Buffer size
 120:/Users/dominicfrugoli/Desktop/ProgrammingCode/DaisyCode/DaisyExamples/libDaisy/src/per/qspi.h ****         \param buffer Buffer to write
 121:/Users/dominicfrugoli/Desktop/ProgrammingCode/DaisyCode/DaisyExamples/libDaisy/src/per/qspi.h ****         \return Result::OK or Result::ERR
 122:/Users/dominicfrugoli/Desktop/ProgrammingCode/DaisyCode/DaisyExamples/libDaisy/src/per/qspi.h ****         */
 123:/Users/dominicfrugoli/Desktop/ProgrammingCode/DaisyCode/DaisyExamples/libDaisy/src/per/qspi.h ****     Result WritePage(uint32_t address, uint32_t size, uint8_t* buffer);
 124:/Users/dominicfrugoli/Desktop/ProgrammingCode/DaisyCode/DaisyExamples/libDaisy/src/per/qspi.h **** 
 125:/Users/dominicfrugoli/Desktop/ProgrammingCode/DaisyCode/DaisyExamples/libDaisy/src/per/qspi.h ****     /** 
 126:/Users/dominicfrugoli/Desktop/ProgrammingCode/DaisyCode/DaisyExamples/libDaisy/src/per/qspi.h ****         Writes data in buffer to to the QSPI. Starting at address to address+size 
 127:/Users/dominicfrugoli/Desktop/ProgrammingCode/DaisyCode/DaisyExamples/libDaisy/src/per/qspi.h ****         \param address Address to write to
 128:/Users/dominicfrugoli/Desktop/ProgrammingCode/DaisyCode/DaisyExamples/libDaisy/src/per/qspi.h ****         \param size Buffer size
 129:/Users/dominicfrugoli/Desktop/ProgrammingCode/DaisyCode/DaisyExamples/libDaisy/src/per/qspi.h ****         \param buffer Buffer to write
 130:/Users/dominicfrugoli/Desktop/ProgrammingCode/DaisyCode/DaisyExamples/libDaisy/src/per/qspi.h ****         \return Result::OK or Result::ERR
 131:/Users/dominicfrugoli/Desktop/ProgrammingCode/DaisyCode/DaisyExamples/libDaisy/src/per/qspi.h ****         */
 132:/Users/dominicfrugoli/Desktop/ProgrammingCode/DaisyCode/DaisyExamples/libDaisy/src/per/qspi.h ****     Result Write(uint32_t address, uint32_t size, uint8_t* buffer);
 133:/Users/dominicfrugoli/Desktop/ProgrammingCode/DaisyCode/DaisyExamples/libDaisy/src/per/qspi.h **** 
 134:/Users/dominicfrugoli/Desktop/ProgrammingCode/DaisyCode/DaisyExamples/libDaisy/src/per/qspi.h ****     /** 
 135:/Users/dominicfrugoli/Desktop/ProgrammingCode/DaisyCode/DaisyExamples/libDaisy/src/per/qspi.h ****         Erases the area specified on the chip.
 136:/Users/dominicfrugoli/Desktop/ProgrammingCode/DaisyCode/DaisyExamples/libDaisy/src/per/qspi.h ****         Erasures will happen by 4K, 32K or 64K increments.
 137:/Users/dominicfrugoli/Desktop/ProgrammingCode/DaisyCode/DaisyExamples/libDaisy/src/per/qspi.h ****         Smallest erase possible is 4kB at a time. (on IS25LP*)
 138:/Users/dominicfrugoli/Desktop/ProgrammingCode/DaisyCode/DaisyExamples/libDaisy/src/per/qspi.h ****         \param start_addr Address to begin erasing from
 139:/Users/dominicfrugoli/Desktop/ProgrammingCode/DaisyCode/DaisyExamples/libDaisy/src/per/qspi.h ****         \param end_addr  Address to stop erasing at
 140:/Users/dominicfrugoli/Desktop/ProgrammingCode/DaisyCode/DaisyExamples/libDaisy/src/per/qspi.h ****         \return Result::OK or Result::ERR
 141:/Users/dominicfrugoli/Desktop/ProgrammingCode/DaisyCode/DaisyExamples/libDaisy/src/per/qspi.h ****         */
 142:/Users/dominicfrugoli/Desktop/ProgrammingCode/DaisyCode/DaisyExamples/libDaisy/src/per/qspi.h ****     Result Erase(uint32_t start_addr, uint32_t end_addr);
 143:/Users/dominicfrugoli/Desktop/ProgrammingCode/DaisyCode/DaisyExamples/libDaisy/src/per/qspi.h **** 
 144:/Users/dominicfrugoli/Desktop/ProgrammingCode/DaisyCode/DaisyExamples/libDaisy/src/per/qspi.h ****     /**  
 145:/Users/dominicfrugoli/Desktop/ProgrammingCode/DaisyCode/DaisyExamples/libDaisy/src/per/qspi.h ****          Erases a single sector of the chip.  
 146:/Users/dominicfrugoli/Desktop/ProgrammingCode/DaisyCode/DaisyExamples/libDaisy/src/per/qspi.h ****         TODO: Document the size of this function. 
 147:/Users/dominicfrugoli/Desktop/ProgrammingCode/DaisyCode/DaisyExamples/libDaisy/src/per/qspi.h ****         \param address Address of sector to erase
 148:/Users/dominicfrugoli/Desktop/ProgrammingCode/DaisyCode/DaisyExamples/libDaisy/src/per/qspi.h ****         \return Result::OK or Result::ERR
 149:/Users/dominicfrugoli/Desktop/ProgrammingCode/DaisyCode/DaisyExamples/libDaisy/src/per/qspi.h ****         */
 150:/Users/dominicfrugoli/Desktop/ProgrammingCode/DaisyCode/DaisyExamples/libDaisy/src/per/qspi.h ****     Result EraseSector(uint32_t address);
 151:/Users/dominicfrugoli/Desktop/ProgrammingCode/DaisyCode/DaisyExamples/libDaisy/src/per/qspi.h **** 
 152:/Users/dominicfrugoli/Desktop/ProgrammingCode/DaisyCode/DaisyExamples/libDaisy/src/per/qspi.h ****     /** Returns the current class status. Useful for debugging.
 153:/Users/dominicfrugoli/Desktop/ProgrammingCode/DaisyCode/DaisyExamples/libDaisy/src/per/qspi.h ****      *  \returns Status
 154:/Users/dominicfrugoli/Desktop/ProgrammingCode/DaisyCode/DaisyExamples/libDaisy/src/per/qspi.h ****      */
 155:/Users/dominicfrugoli/Desktop/ProgrammingCode/DaisyCode/DaisyExamples/libDaisy/src/per/qspi.h ****     Status GetStatus();
 156:/Users/dominicfrugoli/Desktop/ProgrammingCode/DaisyCode/DaisyExamples/libDaisy/src/per/qspi.h **** 
 157:/Users/dominicfrugoli/Desktop/ProgrammingCode/DaisyCode/DaisyExamples/libDaisy/src/per/qspi.h ****     /** Returns a pointer to the actual memory used 
 158:/Users/dominicfrugoli/Desktop/ProgrammingCode/DaisyCode/DaisyExamples/libDaisy/src/per/qspi.h ****      *  The memory at this address is read-only
 159:/Users/dominicfrugoli/Desktop/ProgrammingCode/DaisyCode/DaisyExamples/libDaisy/src/per/qspi.h ****      *  to write to it use the Write function.
 160:/Users/dominicfrugoli/Desktop/ProgrammingCode/DaisyCode/DaisyExamples/libDaisy/src/per/qspi.h ****      * 
 161:/Users/dominicfrugoli/Desktop/ProgrammingCode/DaisyCode/DaisyExamples/libDaisy/src/per/qspi.h ****      *  \param offset returns the pointer starting this 
 162:/Users/dominicfrugoli/Desktop/ProgrammingCode/DaisyCode/DaisyExamples/libDaisy/src/per/qspi.h ****      *                many bytes into the memory
 163:/Users/dominicfrugoli/Desktop/ProgrammingCode/DaisyCode/DaisyExamples/libDaisy/src/per/qspi.h ****     */
 164:/Users/dominicfrugoli/Desktop/ProgrammingCode/DaisyCode/DaisyExamples/libDaisy/src/per/qspi.h ****     void* GetData(uint32_t offset = 0);
 165:/Users/dominicfrugoli/Desktop/ProgrammingCode/DaisyCode/DaisyExamples/libDaisy/src/per/qspi.h **** 
 166:/Users/dominicfrugoli/Desktop/ProgrammingCode/DaisyCode/DaisyExamples/libDaisy/src/per/qspi.h ****     QSPIHandle() : pimpl_(nullptr) {}
 7346              		.loc 19 166 5 view .LVU1918
ARM GAS  /var/folders/m5/x8wc2gdj7z5cpgcqdsb_gkj40000gn/T//cckXFIsJ.s 			page 195


 7347              	.LBB1288:
 7348              	.LBB1289:
 7349              		.loc 19 166 34 is_stmt 0 view .LVU1919
 7350 0056 0023     		movs	r3, #0
 7351 0058 1548     		ldr	r0, .L490+64
 7352              	.LBE1289:
 7353              	.LBE1288:
 7354              	.LBE1287:
 7355              	.LBE1286:
 7356              	.LBE1285:
  29:sardinia.cpp  **** 
 7357              		.loc 17 29 11 view .LVU1920
 7358 005a 2246     		mov	r2, r4
 7359 005c 1549     		ldr	r1, .L490+68
 7360              	.LBB1306:
 7361              	.LBB1305:
 7362              	.LBB1292:
 7363              	.LBB1291:
 7364              	.LBB1290:
 7365              		.loc 19 166 34 view .LVU1921
 7366 005e 0360     		str	r3, [r0]
 7367              	.LVL436:
 7368              		.loc 19 166 34 view .LVU1922
 7369              	.LBE1290:
 7370              	.LBE1291:
 7371              	.LBE1292:
 7372              	.LBB1293:
 7373              	.LBI1293:
  95:/Users/dominicfrugoli/Desktop/ProgrammingCode/DaisyCode/DaisyExamples/libDaisy/src/hid/audio.h ****     ~AudioHandle() {}
 7374              		.loc 8 95 5 is_stmt 1 view .LVU1923
 7375              	.LBB1294:
 7376              	.LBB1295:
  95:/Users/dominicfrugoli/Desktop/ProgrammingCode/DaisyCode/DaisyExamples/libDaisy/src/hid/audio.h ****     ~AudioHandle() {}
 7377              		.loc 8 95 35 is_stmt 0 view .LVU1924
 7378 0060 4361     		str	r3, [r0, #20]
 7379              	.LVL437:
  95:/Users/dominicfrugoli/Desktop/ProgrammingCode/DaisyCode/DaisyExamples/libDaisy/src/hid/audio.h ****     ~AudioHandle() {}
 7380              		.loc 8 95 35 view .LVU1925
 7381              	.LBE1295:
 7382              	.LBE1294:
 7383              	.LBE1293:
 7384              	.LBB1296:
 7385              	.LBI1296:
 109:/Users/dominicfrugoli/Desktop/ProgrammingCode/DaisyCode/DaisyExamples/libDaisy/src/per/adc.h ****     ~AdcHandle() {}
 7386              		.loc 7 109 5 is_stmt 1 view .LVU1926
 109:/Users/dominicfrugoli/Desktop/ProgrammingCode/DaisyCode/DaisyExamples/libDaisy/src/per/adc.h ****     ~AdcHandle() {}
 7387              		.loc 7 109 5 is_stmt 0 view .LVU1927
 7388              	.LBE1296:
 7389              	.LBB1297:
 7390              	.LBI1297:
 7391              		.file 20 "/Users/dominicfrugoli/Desktop/ProgrammingCode/DaisyCode/DaisyExamples/libDaisy/src/per/d
   1:/Users/dominicfrugoli/Desktop/ProgrammingCode/DaisyCode/DaisyExamples/libDaisy/src/per/dac.h **** #pragma once
   2:/Users/dominicfrugoli/Desktop/ProgrammingCode/DaisyCode/DaisyExamples/libDaisy/src/per/dac.h **** #ifndef DSY_DAC_H
   3:/Users/dominicfrugoli/Desktop/ProgrammingCode/DaisyCode/DaisyExamples/libDaisy/src/per/dac.h **** #define DSY_DAC_H
   4:/Users/dominicfrugoli/Desktop/ProgrammingCode/DaisyCode/DaisyExamples/libDaisy/src/per/dac.h **** 
   5:/Users/dominicfrugoli/Desktop/ProgrammingCode/DaisyCode/DaisyExamples/libDaisy/src/per/dac.h **** #include "daisy_core.h"
   6:/Users/dominicfrugoli/Desktop/ProgrammingCode/DaisyCode/DaisyExamples/libDaisy/src/per/dac.h **** 
ARM GAS  /var/folders/m5/x8wc2gdj7z5cpgcqdsb_gkj40000gn/T//cckXFIsJ.s 			page 196


   7:/Users/dominicfrugoli/Desktop/ProgrammingCode/DaisyCode/DaisyExamples/libDaisy/src/per/dac.h **** namespace daisy
   8:/Users/dominicfrugoli/Desktop/ProgrammingCode/DaisyCode/DaisyExamples/libDaisy/src/per/dac.h **** {
   9:/Users/dominicfrugoli/Desktop/ProgrammingCode/DaisyCode/DaisyExamples/libDaisy/src/per/dac.h **** /** @brief DAC handle for Built-in DAC Peripheral 
  10:/Users/dominicfrugoli/Desktop/ProgrammingCode/DaisyCode/DaisyExamples/libDaisy/src/per/dac.h ****  *  @ingroup per_analog
  11:/Users/dominicfrugoli/Desktop/ProgrammingCode/DaisyCode/DaisyExamples/libDaisy/src/per/dac.h ****  ** 
  12:/Users/dominicfrugoli/Desktop/ProgrammingCode/DaisyCode/DaisyExamples/libDaisy/src/per/dac.h ****  ** For now only Normal Mode is supported,
  13:/Users/dominicfrugoli/Desktop/ProgrammingCode/DaisyCode/DaisyExamples/libDaisy/src/per/dac.h ****  ** Sample and hold mode provides reduced power consumption, but requires a bit more setup.
  14:/Users/dominicfrugoli/Desktop/ProgrammingCode/DaisyCode/DaisyExamples/libDaisy/src/per/dac.h ****  **
  15:/Users/dominicfrugoli/Desktop/ProgrammingCode/DaisyCode/DaisyExamples/libDaisy/src/per/dac.h ****  ** For now connecting the DAC through other internal peripherals is also not supported.
  16:/Users/dominicfrugoli/Desktop/ProgrammingCode/DaisyCode/DaisyExamples/libDaisy/src/per/dac.h ****  **
  17:/Users/dominicfrugoli/Desktop/ProgrammingCode/DaisyCode/DaisyExamples/libDaisy/src/per/dac.h ****  ** Since the DAC channels have dedicated pins we don't need to pass in a pin config like with
  18:/Users/dominicfrugoli/Desktop/ProgrammingCode/DaisyCode/DaisyExamples/libDaisy/src/per/dac.h ****  ** other modules. However, it is still important to not try to use the DAC pins for anything else.
  19:/Users/dominicfrugoli/Desktop/ProgrammingCode/DaisyCode/DaisyExamples/libDaisy/src/per/dac.h ****  ** DAC Channel 1 is on PA4, and DAC Channel 2 is on PA5
  20:/Users/dominicfrugoli/Desktop/ProgrammingCode/DaisyCode/DaisyExamples/libDaisy/src/per/dac.h ****  ***/
  21:/Users/dominicfrugoli/Desktop/ProgrammingCode/DaisyCode/DaisyExamples/libDaisy/src/per/dac.h **** class DacHandle
  22:/Users/dominicfrugoli/Desktop/ProgrammingCode/DaisyCode/DaisyExamples/libDaisy/src/per/dac.h **** {
  23:/Users/dominicfrugoli/Desktop/ProgrammingCode/DaisyCode/DaisyExamples/libDaisy/src/per/dac.h ****   public:
  24:/Users/dominicfrugoli/Desktop/ProgrammingCode/DaisyCode/DaisyExamples/libDaisy/src/per/dac.h ****     /** Return Values for the DacHandle class */
  25:/Users/dominicfrugoli/Desktop/ProgrammingCode/DaisyCode/DaisyExamples/libDaisy/src/per/dac.h ****     enum class Result
  26:/Users/dominicfrugoli/Desktop/ProgrammingCode/DaisyCode/DaisyExamples/libDaisy/src/per/dac.h ****     {
  27:/Users/dominicfrugoli/Desktop/ProgrammingCode/DaisyCode/DaisyExamples/libDaisy/src/per/dac.h ****         OK,
  28:/Users/dominicfrugoli/Desktop/ProgrammingCode/DaisyCode/DaisyExamples/libDaisy/src/per/dac.h ****         ERR,
  29:/Users/dominicfrugoli/Desktop/ProgrammingCode/DaisyCode/DaisyExamples/libDaisy/src/per/dac.h ****     };
  30:/Users/dominicfrugoli/Desktop/ProgrammingCode/DaisyCode/DaisyExamples/libDaisy/src/per/dac.h **** 
  31:/Users/dominicfrugoli/Desktop/ProgrammingCode/DaisyCode/DaisyExamples/libDaisy/src/per/dac.h ****     /** Selects which channel(s) will be configured for use. */
  32:/Users/dominicfrugoli/Desktop/ProgrammingCode/DaisyCode/DaisyExamples/libDaisy/src/per/dac.h ****     enum class Channel
  33:/Users/dominicfrugoli/Desktop/ProgrammingCode/DaisyCode/DaisyExamples/libDaisy/src/per/dac.h ****     {
  34:/Users/dominicfrugoli/Desktop/ProgrammingCode/DaisyCode/DaisyExamples/libDaisy/src/per/dac.h ****         ONE,
  35:/Users/dominicfrugoli/Desktop/ProgrammingCode/DaisyCode/DaisyExamples/libDaisy/src/per/dac.h ****         TWO,
  36:/Users/dominicfrugoli/Desktop/ProgrammingCode/DaisyCode/DaisyExamples/libDaisy/src/per/dac.h ****         BOTH,
  37:/Users/dominicfrugoli/Desktop/ProgrammingCode/DaisyCode/DaisyExamples/libDaisy/src/per/dac.h ****     };
  38:/Users/dominicfrugoli/Desktop/ProgrammingCode/DaisyCode/DaisyExamples/libDaisy/src/per/dac.h **** 
  39:/Users/dominicfrugoli/Desktop/ProgrammingCode/DaisyCode/DaisyExamples/libDaisy/src/per/dac.h ****     /** Sets the Mode for the DAC channels.
  40:/Users/dominicfrugoli/Desktop/ProgrammingCode/DaisyCode/DaisyExamples/libDaisy/src/per/dac.h ****      **
  41:/Users/dominicfrugoli/Desktop/ProgrammingCode/DaisyCode/DaisyExamples/libDaisy/src/per/dac.h ****      ** Polling mode uses the blocking mode to transmit a single value at a time.
  42:/Users/dominicfrugoli/Desktop/ProgrammingCode/DaisyCode/DaisyExamples/libDaisy/src/per/dac.h ****      **
  43:/Users/dominicfrugoli/Desktop/ProgrammingCode/DaisyCode/DaisyExamples/libDaisy/src/per/dac.h ****      ** DMA mode uses a buffer, and periodically transmits it triggering a 
  44:/Users/dominicfrugoli/Desktop/ProgrammingCode/DaisyCode/DaisyExamples/libDaisy/src/per/dac.h ****      ** callback to fill the buffer when it is ready for more samples.
  45:/Users/dominicfrugoli/Desktop/ProgrammingCode/DaisyCode/DaisyExamples/libDaisy/src/per/dac.h ****      ***/
  46:/Users/dominicfrugoli/Desktop/ProgrammingCode/DaisyCode/DaisyExamples/libDaisy/src/per/dac.h ****     enum class Mode
  47:/Users/dominicfrugoli/Desktop/ProgrammingCode/DaisyCode/DaisyExamples/libDaisy/src/per/dac.h ****     {
  48:/Users/dominicfrugoli/Desktop/ProgrammingCode/DaisyCode/DaisyExamples/libDaisy/src/per/dac.h ****         POLLING,
  49:/Users/dominicfrugoli/Desktop/ProgrammingCode/DaisyCode/DaisyExamples/libDaisy/src/per/dac.h ****         DMA,
  50:/Users/dominicfrugoli/Desktop/ProgrammingCode/DaisyCode/DaisyExamples/libDaisy/src/per/dac.h ****     };
  51:/Users/dominicfrugoli/Desktop/ProgrammingCode/DaisyCode/DaisyExamples/libDaisy/src/per/dac.h **** 
  52:/Users/dominicfrugoli/Desktop/ProgrammingCode/DaisyCode/DaisyExamples/libDaisy/src/per/dac.h ****     /** Sets the number of bits per sample transmitted out of the DAC.
  53:/Users/dominicfrugoli/Desktop/ProgrammingCode/DaisyCode/DaisyExamples/libDaisy/src/per/dac.h ****      ** The output range will be: 0V - VDDA
  54:/Users/dominicfrugoli/Desktop/ProgrammingCode/DaisyCode/DaisyExamples/libDaisy/src/per/dac.h ****      ** The resolution will be roughly: bitdepth / (VDDA - 0V) 
  55:/Users/dominicfrugoli/Desktop/ProgrammingCode/DaisyCode/DaisyExamples/libDaisy/src/per/dac.h ****      ***/
  56:/Users/dominicfrugoli/Desktop/ProgrammingCode/DaisyCode/DaisyExamples/libDaisy/src/per/dac.h ****     enum class BitDepth
  57:/Users/dominicfrugoli/Desktop/ProgrammingCode/DaisyCode/DaisyExamples/libDaisy/src/per/dac.h ****     {
  58:/Users/dominicfrugoli/Desktop/ProgrammingCode/DaisyCode/DaisyExamples/libDaisy/src/per/dac.h ****         BITS_8,
  59:/Users/dominicfrugoli/Desktop/ProgrammingCode/DaisyCode/DaisyExamples/libDaisy/src/per/dac.h ****         BITS_12
  60:/Users/dominicfrugoli/Desktop/ProgrammingCode/DaisyCode/DaisyExamples/libDaisy/src/per/dac.h ****     };
  61:/Users/dominicfrugoli/Desktop/ProgrammingCode/DaisyCode/DaisyExamples/libDaisy/src/per/dac.h **** 
  62:/Users/dominicfrugoli/Desktop/ProgrammingCode/DaisyCode/DaisyExamples/libDaisy/src/per/dac.h ****     /** Sets whether the DAC output is buffered for higher drive ability. */
  63:/Users/dominicfrugoli/Desktop/ProgrammingCode/DaisyCode/DaisyExamples/libDaisy/src/per/dac.h ****     enum class BufferState
ARM GAS  /var/folders/m5/x8wc2gdj7z5cpgcqdsb_gkj40000gn/T//cckXFIsJ.s 			page 197


  64:/Users/dominicfrugoli/Desktop/ProgrammingCode/DaisyCode/DaisyExamples/libDaisy/src/per/dac.h ****     {
  65:/Users/dominicfrugoli/Desktop/ProgrammingCode/DaisyCode/DaisyExamples/libDaisy/src/per/dac.h ****         ENABLED,
  66:/Users/dominicfrugoli/Desktop/ProgrammingCode/DaisyCode/DaisyExamples/libDaisy/src/per/dac.h ****         DISABLED,
  67:/Users/dominicfrugoli/Desktop/ProgrammingCode/DaisyCode/DaisyExamples/libDaisy/src/per/dac.h ****     };
  68:/Users/dominicfrugoli/Desktop/ProgrammingCode/DaisyCode/DaisyExamples/libDaisy/src/per/dac.h **** 
  69:/Users/dominicfrugoli/Desktop/ProgrammingCode/DaisyCode/DaisyExamples/libDaisy/src/per/dac.h ****     /** Configuration structure for initializing the DAC structure. */
  70:/Users/dominicfrugoli/Desktop/ProgrammingCode/DaisyCode/DaisyExamples/libDaisy/src/per/dac.h ****     struct Config
  71:/Users/dominicfrugoli/Desktop/ProgrammingCode/DaisyCode/DaisyExamples/libDaisy/src/per/dac.h ****     {
  72:/Users/dominicfrugoli/Desktop/ProgrammingCode/DaisyCode/DaisyExamples/libDaisy/src/per/dac.h ****         /** Target Samplerate in Hz used to configure the internal 
  73:/Users/dominicfrugoli/Desktop/ProgrammingCode/DaisyCode/DaisyExamples/libDaisy/src/per/dac.h ****          ** timebase for DMA mode. Does nothing in POLLING mode.
  74:/Users/dominicfrugoli/Desktop/ProgrammingCode/DaisyCode/DaisyExamples/libDaisy/src/per/dac.h ****          ** If the value is 0 at Init time this will default to 48000Hz 
  75:/Users/dominicfrugoli/Desktop/ProgrammingCode/DaisyCode/DaisyExamples/libDaisy/src/per/dac.h ****          ** otherwise the driver will attempt meet the target.*/
  76:/Users/dominicfrugoli/Desktop/ProgrammingCode/DaisyCode/DaisyExamples/libDaisy/src/per/dac.h ****         uint32_t target_samplerate;
  77:/Users/dominicfrugoli/Desktop/ProgrammingCode/DaisyCode/DaisyExamples/libDaisy/src/per/dac.h **** 
  78:/Users/dominicfrugoli/Desktop/ProgrammingCode/DaisyCode/DaisyExamples/libDaisy/src/per/dac.h ****         Channel     chn;
  79:/Users/dominicfrugoli/Desktop/ProgrammingCode/DaisyCode/DaisyExamples/libDaisy/src/per/dac.h ****         Mode        mode;
  80:/Users/dominicfrugoli/Desktop/ProgrammingCode/DaisyCode/DaisyExamples/libDaisy/src/per/dac.h ****         BitDepth    bitdepth;
  81:/Users/dominicfrugoli/Desktop/ProgrammingCode/DaisyCode/DaisyExamples/libDaisy/src/per/dac.h ****         BufferState buff_state;
  82:/Users/dominicfrugoli/Desktop/ProgrammingCode/DaisyCode/DaisyExamples/libDaisy/src/per/dac.h ****     };
  83:/Users/dominicfrugoli/Desktop/ProgrammingCode/DaisyCode/DaisyExamples/libDaisy/src/per/dac.h **** 
  84:/Users/dominicfrugoli/Desktop/ProgrammingCode/DaisyCode/DaisyExamples/libDaisy/src/per/dac.h ****     DacHandle() : pimpl_(nullptr) {}
 7392              		.loc 20 84 5 is_stmt 1 view .LVU1928
 7393              	.LBB1298:
 7394              	.LBB1299:
 7395              		.loc 20 84 33 is_stmt 0 view .LVU1929
 7396 0062 0362     		str	r3, [r0, #32]
 7397              	.LVL438:
 7398              		.loc 20 84 33 view .LVU1930
 7399              	.LBE1299:
 7400              	.LBE1298:
 7401              	.LBE1297:
 7402              	.LBB1300:
 7403              	.LBI1300:
  40:/Users/dominicfrugoli/Desktop/ProgrammingCode/DaisyCode/DaisyExamples/libDaisy/src/hid/usb.h **** 
 7404              		.loc 6 40 5 is_stmt 1 view .LVU1931
  40:/Users/dominicfrugoli/Desktop/ProgrammingCode/DaisyCode/DaisyExamples/libDaisy/src/hid/usb.h **** 
 7405              		.loc 6 40 5 is_stmt 0 view .LVU1932
 7406              	.LBE1300:
 7407              	.LBB1301:
 7408              	.LBI1301:
  96:/Users/dominicfrugoli/Desktop/ProgrammingCode/DaisyCode/DaisyExamples/libDaisy/src/sys/system.h ****     ~System() {}
 7409              		.loc 5 96 5 is_stmt 1 view .LVU1933
  96:/Users/dominicfrugoli/Desktop/ProgrammingCode/DaisyCode/DaisyExamples/libDaisy/src/sys/system.h ****     ~System() {}
 7410              		.loc 5 96 5 is_stmt 0 view .LVU1934
 7411              	.LBE1301:
 7412              	.LBB1302:
 7413              	.LBI1302:
 7414              		.file 21 "/Users/dominicfrugoli/Desktop/ProgrammingCode/DaisyCode/DaisyExamples/libDaisy/src/per/s
   1:/Users/dominicfrugoli/Desktop/ProgrammingCode/DaisyCode/DaisyExamples/libDaisy/src/per/sai.h **** #pragma once
   2:/Users/dominicfrugoli/Desktop/ProgrammingCode/DaisyCode/DaisyExamples/libDaisy/src/per/sai.h **** #ifndef DSY_SAI_H
   3:/Users/dominicfrugoli/Desktop/ProgrammingCode/DaisyCode/DaisyExamples/libDaisy/src/per/sai.h **** #define DSY_SAI_H
   4:/Users/dominicfrugoli/Desktop/ProgrammingCode/DaisyCode/DaisyExamples/libDaisy/src/per/sai.h **** 
   5:/Users/dominicfrugoli/Desktop/ProgrammingCode/DaisyCode/DaisyExamples/libDaisy/src/per/sai.h **** #include "daisy_core.h"
   6:/Users/dominicfrugoli/Desktop/ProgrammingCode/DaisyCode/DaisyExamples/libDaisy/src/per/sai.h **** 
   7:/Users/dominicfrugoli/Desktop/ProgrammingCode/DaisyCode/DaisyExamples/libDaisy/src/per/sai.h **** namespace daisy
   8:/Users/dominicfrugoli/Desktop/ProgrammingCode/DaisyCode/DaisyExamples/libDaisy/src/per/sai.h **** {
   9:/Users/dominicfrugoli/Desktop/ProgrammingCode/DaisyCode/DaisyExamples/libDaisy/src/per/sai.h **** /** 
ARM GAS  /var/folders/m5/x8wc2gdj7z5cpgcqdsb_gkj40000gn/T//cckXFIsJ.s 			page 198


  10:/Users/dominicfrugoli/Desktop/ProgrammingCode/DaisyCode/DaisyExamples/libDaisy/src/per/sai.h ****  * Support for I2S Audio Protocol with different bit-depth, samplerate options
  11:/Users/dominicfrugoli/Desktop/ProgrammingCode/DaisyCode/DaisyExamples/libDaisy/src/per/sai.h ****  * Allows for master or slave, as well as freedom of selecting direction, 
  12:/Users/dominicfrugoli/Desktop/ProgrammingCode/DaisyCode/DaisyExamples/libDaisy/src/per/sai.h ****  * and other behavior for each peripheral, and block.
  13:/Users/dominicfrugoli/Desktop/ProgrammingCode/DaisyCode/DaisyExamples/libDaisy/src/per/sai.h ****  * 
  14:/Users/dominicfrugoli/Desktop/ProgrammingCode/DaisyCode/DaisyExamples/libDaisy/src/per/sai.h ****  * DMA Transfer commands must use buffers located within non-cached memory or use cache maintenance
  15:/Users/dominicfrugoli/Desktop/ProgrammingCode/DaisyCode/DaisyExamples/libDaisy/src/per/sai.h ****  * To declare an unitialized global element in the DMA memory section:
  16:/Users/dominicfrugoli/Desktop/ProgrammingCode/DaisyCode/DaisyExamples/libDaisy/src/per/sai.h ****  *    int32_t DSY_DMA_BUFFER_SECTOR my_buffer[96];
  17:/Users/dominicfrugoli/Desktop/ProgrammingCode/DaisyCode/DaisyExamples/libDaisy/src/per/sai.h ****  *
  18:/Users/dominicfrugoli/Desktop/ProgrammingCode/DaisyCode/DaisyExamples/libDaisy/src/per/sai.h ****  * Callback functions will be called once per half of the buffer. In the above example, 
  19:/Users/dominicfrugoli/Desktop/ProgrammingCode/DaisyCode/DaisyExamples/libDaisy/src/per/sai.h ****  * the callback function would be called once for every 48 samples.
  20:/Users/dominicfrugoli/Desktop/ProgrammingCode/DaisyCode/DaisyExamples/libDaisy/src/per/sai.h ****  * 
  21:/Users/dominicfrugoli/Desktop/ProgrammingCode/DaisyCode/DaisyExamples/libDaisy/src/per/sai.h ****  * Use SAI Handle like this:
  22:/Users/dominicfrugoli/Desktop/ProgrammingCode/DaisyCode/DaisyExamples/libDaisy/src/per/sai.h ****  * 
  23:/Users/dominicfrugoli/Desktop/ProgrammingCode/DaisyCode/DaisyExamples/libDaisy/src/per/sai.h ****  *  SaiHandle::Config sai_config;
  24:/Users/dominicfrugoli/Desktop/ProgrammingCode/DaisyCode/DaisyExamples/libDaisy/src/per/sai.h ****  *  sai_config.periph          = SaiHandle::Config::Peripheral::SAI_1;
  25:/Users/dominicfrugoli/Desktop/ProgrammingCode/DaisyCode/DaisyExamples/libDaisy/src/per/sai.h ****  *  sai_config.sr              = SaiHandle::Config::SampleRate::SAI_48KHZ;
  26:/Users/dominicfrugoli/Desktop/ProgrammingCode/DaisyCode/DaisyExamples/libDaisy/src/per/sai.h ****  *  sai_config.bit_depth       = SaiHandle::Config::BitDepth::SAI_24BIT;
  27:/Users/dominicfrugoli/Desktop/ProgrammingCode/DaisyCode/DaisyExamples/libDaisy/src/per/sai.h ****  *  sai_config.a_sync          = SaiHandle::Config::Sync::MASTER;
  28:/Users/dominicfrugoli/Desktop/ProgrammingCode/DaisyCode/DaisyExamples/libDaisy/src/per/sai.h ****  *  sai_config.b_sync          = SaiHandle::Config::Sync::SLAVE;
  29:/Users/dominicfrugoli/Desktop/ProgrammingCode/DaisyCode/DaisyExamples/libDaisy/src/per/sai.h ****  *  sai_config.a_dir           = SaiHandle::Config::Direction::RECEIVE;
  30:/Users/dominicfrugoli/Desktop/ProgrammingCode/DaisyCode/DaisyExamples/libDaisy/src/per/sai.h ****  *  sai_config.b_dir           = SaiHandle::Config::Direction::TRANSMIT;
  31:/Users/dominicfrugoli/Desktop/ProgrammingCode/DaisyCode/DaisyExamples/libDaisy/src/per/sai.h ****  *  sai_config.pin_config.fs   = {DSY_GPIOE, 4};
  32:/Users/dominicfrugoli/Desktop/ProgrammingCode/DaisyCode/DaisyExamples/libDaisy/src/per/sai.h ****  *  sai_config.pin_config.mclk = {DSY_GPIOE, 2};
  33:/Users/dominicfrugoli/Desktop/ProgrammingCode/DaisyCode/DaisyExamples/libDaisy/src/per/sai.h ****  *  sai_config.pin_config.sck  = {DSY_GPIOE, 5};
  34:/Users/dominicfrugoli/Desktop/ProgrammingCode/DaisyCode/DaisyExamples/libDaisy/src/per/sai.h ****  *  sai_config.pin_config.sa   = {DSY_GPIOE, 6};
  35:/Users/dominicfrugoli/Desktop/ProgrammingCode/DaisyCode/DaisyExamples/libDaisy/src/per/sai.h ****  *  sai_config.pin_config.sb   = {DSY_GPIOE, 3};
  36:/Users/dominicfrugoli/Desktop/ProgrammingCode/DaisyCode/DaisyExamples/libDaisy/src/per/sai.h ****  *  // Then Initialize
  37:/Users/dominicfrugoli/Desktop/ProgrammingCode/DaisyCode/DaisyExamples/libDaisy/src/per/sai.h ****  *  SaiHandle sai;
  38:/Users/dominicfrugoli/Desktop/ProgrammingCode/DaisyCode/DaisyExamples/libDaisy/src/per/sai.h ****  *  sai.Init(sai_config);
  39:/Users/dominicfrugoli/Desktop/ProgrammingCode/DaisyCode/DaisyExamples/libDaisy/src/per/sai.h ****  *  // Now you can use it:
  40:/Users/dominicfrugoli/Desktop/ProgrammingCode/DaisyCode/DaisyExamples/libDaisy/src/per/sai.h ****  *  sai.StartDma(. . .);
  41:/Users/dominicfrugoli/Desktop/ProgrammingCode/DaisyCode/DaisyExamples/libDaisy/src/per/sai.h ****  */
  42:/Users/dominicfrugoli/Desktop/ProgrammingCode/DaisyCode/DaisyExamples/libDaisy/src/per/sai.h **** class SaiHandle
  43:/Users/dominicfrugoli/Desktop/ProgrammingCode/DaisyCode/DaisyExamples/libDaisy/src/per/sai.h **** {
  44:/Users/dominicfrugoli/Desktop/ProgrammingCode/DaisyCode/DaisyExamples/libDaisy/src/per/sai.h ****   public:
  45:/Users/dominicfrugoli/Desktop/ProgrammingCode/DaisyCode/DaisyExamples/libDaisy/src/per/sai.h ****     /** Contains settings for initialising an SAI Interface */
  46:/Users/dominicfrugoli/Desktop/ProgrammingCode/DaisyCode/DaisyExamples/libDaisy/src/per/sai.h ****     struct Config
  47:/Users/dominicfrugoli/Desktop/ProgrammingCode/DaisyCode/DaisyExamples/libDaisy/src/per/sai.h ****     {
  48:/Users/dominicfrugoli/Desktop/ProgrammingCode/DaisyCode/DaisyExamples/libDaisy/src/per/sai.h ****         /** Specifies the internal peripheral to use (mapped to different hardware pins) */
  49:/Users/dominicfrugoli/Desktop/ProgrammingCode/DaisyCode/DaisyExamples/libDaisy/src/per/sai.h ****         enum class Peripheral
  50:/Users/dominicfrugoli/Desktop/ProgrammingCode/DaisyCode/DaisyExamples/libDaisy/src/per/sai.h ****         {
  51:/Users/dominicfrugoli/Desktop/ProgrammingCode/DaisyCode/DaisyExamples/libDaisy/src/per/sai.h ****             SAI_1,
  52:/Users/dominicfrugoli/Desktop/ProgrammingCode/DaisyCode/DaisyExamples/libDaisy/src/per/sai.h ****             SAI_2,
  53:/Users/dominicfrugoli/Desktop/ProgrammingCode/DaisyCode/DaisyExamples/libDaisy/src/per/sai.h ****         };
  54:/Users/dominicfrugoli/Desktop/ProgrammingCode/DaisyCode/DaisyExamples/libDaisy/src/per/sai.h **** 
  55:/Users/dominicfrugoli/Desktop/ProgrammingCode/DaisyCode/DaisyExamples/libDaisy/src/per/sai.h ****         /** Rate at which samples will be streaming to/from the device. */
  56:/Users/dominicfrugoli/Desktop/ProgrammingCode/DaisyCode/DaisyExamples/libDaisy/src/per/sai.h ****         enum class SampleRate
  57:/Users/dominicfrugoli/Desktop/ProgrammingCode/DaisyCode/DaisyExamples/libDaisy/src/per/sai.h ****         {
  58:/Users/dominicfrugoli/Desktop/ProgrammingCode/DaisyCode/DaisyExamples/libDaisy/src/per/sai.h ****             SAI_8KHZ,
  59:/Users/dominicfrugoli/Desktop/ProgrammingCode/DaisyCode/DaisyExamples/libDaisy/src/per/sai.h ****             SAI_16KHZ,
  60:/Users/dominicfrugoli/Desktop/ProgrammingCode/DaisyCode/DaisyExamples/libDaisy/src/per/sai.h ****             SAI_32KHZ,
  61:/Users/dominicfrugoli/Desktop/ProgrammingCode/DaisyCode/DaisyExamples/libDaisy/src/per/sai.h ****             SAI_48KHZ,
  62:/Users/dominicfrugoli/Desktop/ProgrammingCode/DaisyCode/DaisyExamples/libDaisy/src/per/sai.h ****             SAI_96KHZ,
  63:/Users/dominicfrugoli/Desktop/ProgrammingCode/DaisyCode/DaisyExamples/libDaisy/src/per/sai.h ****         };
  64:/Users/dominicfrugoli/Desktop/ProgrammingCode/DaisyCode/DaisyExamples/libDaisy/src/per/sai.h **** 
  65:/Users/dominicfrugoli/Desktop/ProgrammingCode/DaisyCode/DaisyExamples/libDaisy/src/per/sai.h ****         /** Bit Depth that the hardware expects to be transferred to/from the device. */
  66:/Users/dominicfrugoli/Desktop/ProgrammingCode/DaisyCode/DaisyExamples/libDaisy/src/per/sai.h ****         enum class BitDepth
ARM GAS  /var/folders/m5/x8wc2gdj7z5cpgcqdsb_gkj40000gn/T//cckXFIsJ.s 			page 199


  67:/Users/dominicfrugoli/Desktop/ProgrammingCode/DaisyCode/DaisyExamples/libDaisy/src/per/sai.h ****         {
  68:/Users/dominicfrugoli/Desktop/ProgrammingCode/DaisyCode/DaisyExamples/libDaisy/src/per/sai.h ****             SAI_16BIT,
  69:/Users/dominicfrugoli/Desktop/ProgrammingCode/DaisyCode/DaisyExamples/libDaisy/src/per/sai.h ****             SAI_24BIT,
  70:/Users/dominicfrugoli/Desktop/ProgrammingCode/DaisyCode/DaisyExamples/libDaisy/src/per/sai.h ****             SAI_32BIT,
  71:/Users/dominicfrugoli/Desktop/ProgrammingCode/DaisyCode/DaisyExamples/libDaisy/src/per/sai.h ****         };
  72:/Users/dominicfrugoli/Desktop/ProgrammingCode/DaisyCode/DaisyExamples/libDaisy/src/per/sai.h **** 
  73:/Users/dominicfrugoli/Desktop/ProgrammingCode/DaisyCode/DaisyExamples/libDaisy/src/per/sai.h ****         /** Specifies whether a particular block is the master or the slave 
  74:/Users/dominicfrugoli/Desktop/ProgrammingCode/DaisyCode/DaisyExamples/libDaisy/src/per/sai.h ****          ** If both are set to slave, no MCLK signal will be used, and it is
  75:/Users/dominicfrugoli/Desktop/ProgrammingCode/DaisyCode/DaisyExamples/libDaisy/src/per/sai.h ****          ** expected that the codec will have its own xtal.
  76:/Users/dominicfrugoli/Desktop/ProgrammingCode/DaisyCode/DaisyExamples/libDaisy/src/per/sai.h ****          */
  77:/Users/dominicfrugoli/Desktop/ProgrammingCode/DaisyCode/DaisyExamples/libDaisy/src/per/sai.h ****         enum class Sync
  78:/Users/dominicfrugoli/Desktop/ProgrammingCode/DaisyCode/DaisyExamples/libDaisy/src/per/sai.h ****         {
  79:/Users/dominicfrugoli/Desktop/ProgrammingCode/DaisyCode/DaisyExamples/libDaisy/src/per/sai.h ****             MASTER,
  80:/Users/dominicfrugoli/Desktop/ProgrammingCode/DaisyCode/DaisyExamples/libDaisy/src/per/sai.h ****             SLAVE,
  81:/Users/dominicfrugoli/Desktop/ProgrammingCode/DaisyCode/DaisyExamples/libDaisy/src/per/sai.h ****         };
  82:/Users/dominicfrugoli/Desktop/ProgrammingCode/DaisyCode/DaisyExamples/libDaisy/src/per/sai.h **** 
  83:/Users/dominicfrugoli/Desktop/ProgrammingCode/DaisyCode/DaisyExamples/libDaisy/src/per/sai.h ****         /** Specifies the direction for each peripheral block. */
  84:/Users/dominicfrugoli/Desktop/ProgrammingCode/DaisyCode/DaisyExamples/libDaisy/src/per/sai.h ****         enum class Direction
  85:/Users/dominicfrugoli/Desktop/ProgrammingCode/DaisyCode/DaisyExamples/libDaisy/src/per/sai.h ****         {
  86:/Users/dominicfrugoli/Desktop/ProgrammingCode/DaisyCode/DaisyExamples/libDaisy/src/per/sai.h ****             TRANSMIT,
  87:/Users/dominicfrugoli/Desktop/ProgrammingCode/DaisyCode/DaisyExamples/libDaisy/src/per/sai.h ****             RECEIVE,
  88:/Users/dominicfrugoli/Desktop/ProgrammingCode/DaisyCode/DaisyExamples/libDaisy/src/per/sai.h ****         };
  89:/Users/dominicfrugoli/Desktop/ProgrammingCode/DaisyCode/DaisyExamples/libDaisy/src/per/sai.h **** 
  90:/Users/dominicfrugoli/Desktop/ProgrammingCode/DaisyCode/DaisyExamples/libDaisy/src/per/sai.h ****         Peripheral periph;
  91:/Users/dominicfrugoli/Desktop/ProgrammingCode/DaisyCode/DaisyExamples/libDaisy/src/per/sai.h ****         struct
  92:/Users/dominicfrugoli/Desktop/ProgrammingCode/DaisyCode/DaisyExamples/libDaisy/src/per/sai.h ****         {
  93:/Users/dominicfrugoli/Desktop/ProgrammingCode/DaisyCode/DaisyExamples/libDaisy/src/per/sai.h ****             dsy_gpio_pin mclk, fs, sck, sa, sb;
  94:/Users/dominicfrugoli/Desktop/ProgrammingCode/DaisyCode/DaisyExamples/libDaisy/src/per/sai.h ****         } pin_config;
  95:/Users/dominicfrugoli/Desktop/ProgrammingCode/DaisyCode/DaisyExamples/libDaisy/src/per/sai.h ****         SampleRate sr;
  96:/Users/dominicfrugoli/Desktop/ProgrammingCode/DaisyCode/DaisyExamples/libDaisy/src/per/sai.h ****         BitDepth   bit_depth;
  97:/Users/dominicfrugoli/Desktop/ProgrammingCode/DaisyCode/DaisyExamples/libDaisy/src/per/sai.h ****         Sync       a_sync, b_sync;
  98:/Users/dominicfrugoli/Desktop/ProgrammingCode/DaisyCode/DaisyExamples/libDaisy/src/per/sai.h ****         Direction  a_dir, b_dir;
  99:/Users/dominicfrugoli/Desktop/ProgrammingCode/DaisyCode/DaisyExamples/libDaisy/src/per/sai.h ****     };
 100:/Users/dominicfrugoli/Desktop/ProgrammingCode/DaisyCode/DaisyExamples/libDaisy/src/per/sai.h **** 
 101:/Users/dominicfrugoli/Desktop/ProgrammingCode/DaisyCode/DaisyExamples/libDaisy/src/per/sai.h ****     /** Return values for SAI functions */
 102:/Users/dominicfrugoli/Desktop/ProgrammingCode/DaisyCode/DaisyExamples/libDaisy/src/per/sai.h ****     enum class Result
 103:/Users/dominicfrugoli/Desktop/ProgrammingCode/DaisyCode/DaisyExamples/libDaisy/src/per/sai.h ****     {
 104:/Users/dominicfrugoli/Desktop/ProgrammingCode/DaisyCode/DaisyExamples/libDaisy/src/per/sai.h ****         OK,
 105:/Users/dominicfrugoli/Desktop/ProgrammingCode/DaisyCode/DaisyExamples/libDaisy/src/per/sai.h ****         ERR,
 106:/Users/dominicfrugoli/Desktop/ProgrammingCode/DaisyCode/DaisyExamples/libDaisy/src/per/sai.h ****     };
 107:/Users/dominicfrugoli/Desktop/ProgrammingCode/DaisyCode/DaisyExamples/libDaisy/src/per/sai.h **** 
 108:/Users/dominicfrugoli/Desktop/ProgrammingCode/DaisyCode/DaisyExamples/libDaisy/src/per/sai.h ****     SaiHandle() : pimpl_(nullptr) {}
 7415              		.loc 21 108 5 is_stmt 1 view .LVU1935
 7416              	.LBB1303:
 7417              	.LBB1304:
 7418              		.loc 21 108 33 is_stmt 0 view .LVU1936
 7419 0064 C363     		str	r3, [r0, #60]
 7420              	.LVL439:
 7421              		.loc 21 108 33 view .LVU1937
 7422              	.LBE1304:
 7423              	.LBE1303:
 7424              	.LBE1302:
 7425              	.LBE1305:
 7426              	.LBE1306:
 7427              	.LBE1308:
 7428              	.LBE1311:
 7429              		.loc 17 366 1 view .LVU1938
ARM GAS  /var/folders/m5/x8wc2gdj7z5cpgcqdsb_gkj40000gn/T//cckXFIsJ.s 			page 200


 7430 0066 BDE83840 		pop	{r3, r4, r5, lr}
 7431              		.cfi_restore 14
 7432              		.cfi_restore 5
 7433              		.cfi_restore 4
 7434              		.cfi_restore 3
 7435              		.cfi_def_cfa_offset 0
 7436              	.LBB1312:
 7437              	.LBB1309:
  29:sardinia.cpp  **** 
 7438              		.loc 17 29 11 view .LVU1939
 7439 006a FFF7FEBF 		b	__aeabi_atexit
 7440              	.LVL440:
 7441              	.L491:
 7442 006e 00BF     		.align	2
 7443              	.L490:
 7444 0070 00000000 		.word	__dso_handle
 7445 0074 00000000 		.word	_ZN5daisy6SwitchD1Ev
 7446 0078 00000000 		.word	_ZN5daisy7EncoderD1Ev
 7447 007c 00000000 		.word	.LANCHOR10
 7448 0080 00000000 		.word	.LANCHOR8
 7449 0084 00000000 		.word	.LANCHOR9
 7450 0088 00000000 		.word	_ZN5daisy10LcdHD44780D1Ev
 7451 008c 00000000 		.word	.LANCHOR30
 7452 0090 00000000 		.word	_ZN7daisysp6ChorusD1Ev
 7453 0094 00000000 		.word	chorus
 7454 0098 00000000 		.word	_ZN7daisysp9OverdriveD1Ev
 7455 009c 00000000 		.word	.LANCHOR32
 7456 00a0 00000000 		.word	_ZN7daisysp7OnePoleD1Ev
 7457 00a4 00000000 		.word	.LANCHOR33
 7458 00a8 00000000 		.word	_ZN7daisysp3SvfD1Ev
 7459 00ac 00000000 		.word	.LANCHOR35
 7460 00b0 00000000 		.word	.LANCHOR38
 7461 00b4 00000000 		.word	_ZN5daisy9DaisySeedD1Ev
 7462              	.LBE1309:
 7463              	.LBE1312:
 7464              		.cfi_endproc
 7465              	.LFE5282:
 7467              		.section	.init_array,"aw",%init_array
 7468              		.align	2
 7469 0000 00000000 		.word	_GLOBAL__sub_I_adcConfig(target1)
 7470              		.global	testValInt
 7471              		.global	testValFloat
 7472              		.global	inputAmp
 7473              		.global	outputAmp
 7474              		.global	inputSig
 7475              		.global	sampleSig
 7476              		.global	outputMix
 7477              		.global	hw
 7478              		.global	effectValues
 7479              		.global	effectStates
 7480              		.global	currentEffect
 7481              		.global	lopass
 7482              		.global	odTone
 7483              		.global	overdrive
 7484              		.global	chorus
 7485              		.global	mode
 7486              		.global	lcd
ARM GAS  /var/folders/m5/x8wc2gdj7z5cpgcqdsb_gkj40000gn/T//cckXFIsJ.s 			page 201


 7487              		.global	spliceBufferFourLength
 7488              		.global	spliceBufferThreeLength
 7489              		.global	spliceBufferTwoLength
 7490              		.global	spliceBufferOneLength
 7491              		.global	spliceBufferReadIndexFraction
 7492              		.global	spliceBufferReadIndexInt
 7493              		.global	spliceBufferReadIndex
 7494              		.global	SpliceBufferIsPlaying
 7495              		.global	currentSpliceBuffer
 7496              		.global	baseFreq
 7497              		.global	isPlaying
 7498              		.global	isRecording
 7499              		.global	noteKey
 7500              		.global	currentKey
 7501              		.global	stopPoint
 7502              		.global	startPoint
 7503              		.global	keyStates
 7504              		.global	keyStopIndex
 7505              		.global	keyStartIndex
 7506              		.global	fullSampleReadIndexFraction
 7507              		.global	fullSampleReadIndexInt
 7508              		.global	fullSampleReadIndex
 7509              		.global	lengthTrack
 7510              		.global	recordingLength
 7511              		.global	writeIndex
 7512              		.global	readPitch
 7513              		.global	readFactor
 7514              		.global	readIndexFraction
 7515              		.global	readIndexInt
 7516              		.global	readIndex
 7517              		.global	spliceBufferFour
 7518              		.global	spliceBufferThree
 7519              		.global	spliceBufferTwo
 7520              		.global	spliceBufferOne
 7521              		.global	recordingBuffer
 7522              		.global	playButtonOverrule
 7523              		.global	prevControlButtonStates
 7524              		.global	controlButtonStates
 7525              		.global	encoderTurnVal
 7526              		.global	recButton
 7527              		.global	playButton
 7528              		.global	encoder
 7529              		.global	adcConfig
 7530              		.section	.rodata
 7531              		.align	2
 7532              		.set	.LANCHOR29,. + 0
 7533              	.LC10:
 7534 0000 06       		.byte	6
 7535 0001 09       		.byte	9
 7536 0002 0000     		.space	2
 7537              	.LC11:
 7538 0004 03       		.byte	3
 7539 0005 0B       		.byte	11
 7540              		.section	.bss.SpliceBufferIsPlaying,"aw",%nobits
 7541              		.set	.LANCHOR46,. + 0
 7544              	SpliceBufferIsPlaying:
 7545 0000 00       		.space	1
ARM GAS  /var/folders/m5/x8wc2gdj7z5cpgcqdsb_gkj40000gn/T//cckXFIsJ.s 			page 202


 7546              		.section	.bss.adcConfig,"aw",%nobits
 7547              		.align	2
 7548              		.set	.LANCHOR7,. + 0
 7551              	adcConfig:
 7552 0000 00000000 		.space	108
 7552      00000000 
 7552      00000000 
 7552      00000000 
 7552      00000000 
 7553              		.section	.bss.chorus,"aw",%nobits
 7554              		.align	2
 7557              	chorus:
 7558 0000 00000000 		.space	19292
 7558      00000000 
 7558      00000000 
 7558      00000000 
 7558      00000000 
 7559              		.section	.bss.controlButtonStates,"aw",%nobits
 7560              		.align	2
 7561              		.set	.LANCHOR11,. + 0
 7564              	controlButtonStates:
 7565 0000 00000000 		.space	8
 7565      00000000 
 7566              		.section	.bss.currentEffect,"aw",%nobits
 7567              		.align	2
 7568              		.set	.LANCHOR37,. + 0
 7571              	currentEffect:
 7572 0000 00000000 		.space	4
 7573              		.section	.bss.currentKey,"aw",%nobits
 7574              		.align	2
 7575              		.set	.LANCHOR0,. + 0
 7578              	currentKey:
 7579 0000 00000000 		.space	4
 7580              		.section	.bss.effectStates,"aw",%nobits
 7581              		.align	2
 7582              		.set	.LANCHOR36,. + 0
 7585              	effectStates:
 7586 0000 000000   		.space	3
 7587              		.section	.bss.encoder,"aw",%nobits
 7588              		.align	2
 7589              		.set	.LANCHOR10,. + 0
 7592              	encoder:
 7593 0000 00000000 		.space	40
 7593      00000000 
 7593      00000000 
 7593      00000000 
 7593      00000000 
 7594              		.section	.bss.encoderTurnVal,"aw",%nobits
 7595              		.align	2
 7598              	encoderTurnVal:
 7599 0000 00000000 		.space	4
 7600              		.section	.bss.fullSampleReadIndex,"aw",%nobits
 7601              		.align	2
 7602              		.set	.LANCHOR17,. + 0
 7605              	fullSampleReadIndex:
 7606 0000 00000000 		.space	4
 7607              		.section	.bss.fullSampleReadIndexFraction,"aw",%nobits
ARM GAS  /var/folders/m5/x8wc2gdj7z5cpgcqdsb_gkj40000gn/T//cckXFIsJ.s 			page 203


 7608              		.align	2
 7609              		.set	.LANCHOR20,. + 0
 7612              	fullSampleReadIndexFraction:
 7613 0000 00000000 		.space	4
 7614              		.section	.bss.fullSampleReadIndexInt,"aw",%nobits
 7615              		.align	2
 7616              		.set	.LANCHOR19,. + 0
 7619              	fullSampleReadIndexInt:
 7620 0000 00000000 		.space	4
 7621              		.section	.bss.hw,"aw",%nobits
 7622              		.align	2
 7623              		.set	.LANCHOR38,. + 0
 7626              	hw:
 7627 0000 00000000 		.space	64
 7627      00000000 
 7627      00000000 
 7627      00000000 
 7627      00000000 
 7628              		.section	.bss.inputSig,"aw",%nobits
 7629              		.align	2
 7630              		.set	.LANCHOR52,. + 0
 7633              	inputSig:
 7634 0000 00000000 		.space	4
 7635              		.section	.bss.isPlaying,"aw",%nobits
 7636              		.set	.LANCHOR45,. + 0
 7639              	isPlaying:
 7640 0000 00       		.space	1
 7641              		.section	.bss.isRecording,"aw",%nobits
 7642              		.set	.LANCHOR39,. + 0
 7645              	isRecording:
 7646 0000 00       		.space	1
 7647              		.section	.bss.keyStartIndex,"aw",%nobits
 7648              		.align	2
 7649              		.set	.LANCHOR2,. + 0
 7652              	keyStartIndex:
 7653 0000 00000000 		.space	128
 7653      00000000 
 7653      00000000 
 7653      00000000 
 7653      00000000 
 7654              		.section	.bss.keyStates,"aw",%nobits
 7655              		.align	2
 7656              		.set	.LANCHOR1,. + 0
 7659              	keyStates:
 7660 0000 00000000 		.space	32
 7660      00000000 
 7660      00000000 
 7660      00000000 
 7660      00000000 
 7661              		.section	.bss.keyStopIndex,"aw",%nobits
 7662              		.align	2
 7663              		.set	.LANCHOR5,. + 0
 7666              	keyStopIndex:
 7667 0000 00000000 		.space	128
 7667      00000000 
 7667      00000000 
 7667      00000000 
ARM GAS  /var/folders/m5/x8wc2gdj7z5cpgcqdsb_gkj40000gn/T//cckXFIsJ.s 			page 204


 7667      00000000 
 7668              		.section	.bss.lcd,"aw",%nobits
 7669              		.align	2
 7670              		.set	.LANCHOR30,. + 0
 7673              	lcd:
 7674 0000 00000000 		.space	26
 7674      00000000 
 7674      00000000 
 7674      00000000 
 7674      00000000 
 7675              		.section	.bss.lengthTrack,"aw",%nobits
 7676              		.align	2
 7677              		.set	.LANCHOR41,. + 0
 7680              	lengthTrack:
 7681 0000 00000000 		.space	4
 7682              		.section	.bss.lopass,"aw",%nobits
 7683              		.align	2
 7684              		.set	.LANCHOR35,. + 0
 7687              	lopass:
 7688 0000 00000000 		.space	76
 7688      00000000 
 7688      00000000 
 7688      00000000 
 7688      00000000 
 7689              		.section	.bss.mode,"aw",%nobits
 7690              		.set	.LANCHOR31,. + 0
 7693              	mode:
 7694 0000 00       		.space	1
 7695              		.section	.bss.noteKey,"aw",%nobits
 7696              		.align	2
 7697              		.set	.LANCHOR47,. + 0
 7700              	noteKey:
 7701 0000 00000000 		.space	4
 7702              		.section	.bss.odTone,"aw",%nobits
 7703              		.align	2
 7704              		.set	.LANCHOR33,. + 0
 7707              	odTone:
 7708 0000 00000000 		.space	16
 7708      00000000 
 7708      00000000 
 7708      00000000 
 7709              		.section	.bss.outputMix,"aw",%nobits
 7710              		.align	2
 7711              		.set	.LANCHOR51,. + 0
 7714              	outputMix:
 7715 0000 00000000 		.space	4
 7716              		.section	.bss.overdrive,"aw",%nobits
 7717              		.align	2
 7718              		.set	.LANCHOR32,. + 0
 7721              	overdrive:
 7722 0000 00000000 		.space	12
 7722      00000000 
 7722      00000000 
 7723              		.section	.bss.playButton,"aw",%nobits
 7724              		.align	2
 7725              		.set	.LANCHOR8,. + 0
 7728              	playButton:
ARM GAS  /var/folders/m5/x8wc2gdj7z5cpgcqdsb_gkj40000gn/T//cckXFIsJ.s 			page 205


 7729 0000 00000000 		.space	16
 7729      00000000 
 7729      00000000 
 7729      00000000 
 7730              		.section	.bss.playButtonOverrule,"aw",%nobits
 7731              		.set	.LANCHOR43,. + 0
 7734              	playButtonOverrule:
 7735 0000 00       		.space	1
 7736              		.section	.bss.prevControlButtonStates,"aw",%nobits
 7737              		.align	2
 7738              		.set	.LANCHOR12,. + 0
 7741              	prevControlButtonStates:
 7742 0000 00000000 		.space	8
 7742      00000000 
 7743              		.section	.bss.readIndex,"aw",%nobits
 7744              		.align	2
 7745              		.set	.LANCHOR6,. + 0
 7748              	readIndex:
 7749 0000 00000000 		.space	4
 7750              		.section	.bss.readIndexFraction,"aw",%nobits
 7751              		.align	2
 7752              		.set	.LANCHOR16,. + 0
 7755              	readIndexFraction:
 7756 0000 00000000 		.space	4
 7757              		.section	.bss.readIndexInt,"aw",%nobits
 7758              		.align	2
 7759              		.set	.LANCHOR15,. + 0
 7762              	readIndexInt:
 7763 0000 00000000 		.space	4
 7764              		.section	.bss.readPitch,"aw",%nobits
 7765              		.align	2
 7768              	readPitch:
 7769 0000 00000000 		.space	4
 7770              		.section	.bss.recButton,"aw",%nobits
 7771              		.align	2
 7772              		.set	.LANCHOR9,. + 0
 7775              	recButton:
 7776 0000 00000000 		.space	16
 7776      00000000 
 7776      00000000 
 7776      00000000 
 7777              		.section	.bss.sampleSig,"aw",%nobits
 7778              		.align	2
 7779              		.set	.LANCHOR50,. + 0
 7782              	sampleSig:
 7783 0000 00000000 		.space	4
 7784              		.section	.bss.spliceBufferReadIndex,"aw",%nobits
 7785              		.align	2
 7786              		.set	.LANCHOR21,. + 0
 7789              	spliceBufferReadIndex:
 7790 0000 00000000 		.space	4
 7791              		.section	.bss.spliceBufferReadIndexFraction,"aw",%nobits
 7792              		.align	2
 7793              		.set	.LANCHOR25,. + 0
 7796              	spliceBufferReadIndexFraction:
 7797 0000 00000000 		.space	4
 7798              		.section	.bss.spliceBufferReadIndexInt,"aw",%nobits
ARM GAS  /var/folders/m5/x8wc2gdj7z5cpgcqdsb_gkj40000gn/T//cckXFIsJ.s 			page 206


 7799              		.align	2
 7800              		.set	.LANCHOR24,. + 0
 7803              	spliceBufferReadIndexInt:
 7804 0000 00000000 		.space	4
 7805              		.section	.bss.startPoint,"aw",%nobits
 7806              		.align	2
 7807              		.set	.LANCHOR3,. + 0
 7810              	startPoint:
 7811 0000 00000000 		.space	4
 7812              		.section	.bss.testValFloat,"aw",%nobits
 7813              		.align	2
 7814              		.set	.LANCHOR40,. + 0
 7817              	testValFloat:
 7818 0000 00000000 		.space	4
 7819              		.section	.bss.testValInt,"aw",%nobits
 7820              		.align	2
 7821              		.set	.LANCHOR42,. + 0
 7824              	testValInt:
 7825 0000 00000000 		.space	4
 7826              		.section	.bss.writeIndex,"aw",%nobits
 7827              		.align	2
 7828              		.set	.LANCHOR13,. + 0
 7831              	writeIndex:
 7832 0000 00000000 		.space	4
 7833              		.section	.data.baseFreq,"aw"
 7834              		.align	2
 7835              		.set	.LANCHOR22,. + 0
 7838              	baseFreq:
 7839 0000 0000DC43 		.word	1138491392
 7840              		.section	.data.currentSpliceBuffer,"aw"
 7841              		.align	2
 7842              		.set	.LANCHOR44,. + 0
 7845              	currentSpliceBuffer:
 7846 0000 01000000 		.word	1
 7847              		.section	.data.effectValues,"aw"
 7848              		.align	2
 7849              		.set	.LANCHOR34,. + 0
 7852              	effectValues:
 7853 0000 0000003F 		.word	1056964608
 7854 0004 00800944 		.word	1141473280
 7855 0008 0000003F 		.word	1056964608
 7856 000c 0000803F 		.word	1065353216
 7857 0010 00007A44 		.word	1148846080
 7858 0014 0000803E 		.word	1048576000
 7859              		.section	.data.inputAmp,"aw"
 7860              		.align	2
 7861              		.set	.LANCHOR49,. + 0
 7864              	inputAmp:
 7865 0000 0000803F 		.word	1065353216
 7866              		.section	.data.outputAmp,"aw"
 7867              		.align	2
 7868              		.set	.LANCHOR48,. + 0
 7871              	outputAmp:
 7872 0000 0000003F 		.word	1056964608
 7873              		.section	.data.readFactor,"aw"
 7874              		.align	2
 7875              		.set	.LANCHOR14,. + 0
ARM GAS  /var/folders/m5/x8wc2gdj7z5cpgcqdsb_gkj40000gn/T//cckXFIsJ.s 			page 207


 7878              	readFactor:
 7879 0000 0000803F 		.word	1065353216
 7880              		.section	.data.recordingLength,"aw"
 7881              		.align	2
 7882              		.set	.LANCHOR18,. + 0
 7885              	recordingLength:
 7886 0000 00E45700 		.word	5760000
 7887              		.section	.data.spliceBufferFourLength,"aw"
 7888              		.align	2
 7889              		.set	.LANCHOR28,. + 0
 7892              	spliceBufferFourLength:
 7893 0000 00A60E00 		.word	960000
 7894              		.section	.data.spliceBufferOneLength,"aw"
 7895              		.align	2
 7896              		.set	.LANCHOR23,. + 0
 7899              	spliceBufferOneLength:
 7900 0000 00A60E00 		.word	960000
 7901              		.section	.data.spliceBufferThreeLength,"aw"
 7902              		.align	2
 7903              		.set	.LANCHOR27,. + 0
 7906              	spliceBufferThreeLength:
 7907 0000 00A60E00 		.word	960000
 7908              		.section	.data.spliceBufferTwoLength,"aw"
 7909              		.align	2
 7910              		.set	.LANCHOR26,. + 0
 7913              	spliceBufferTwoLength:
 7914 0000 00A60E00 		.word	960000
 7915              		.section	.data.stopPoint,"aw"
 7916              		.align	2
 7917              		.set	.LANCHOR4,. + 0
 7920              	stopPoint:
 7921 0000 00E45700 		.word	5760000
 7922              		.section	.sdram_bss,"aw"
 7923              		.align	2
 7926              	spliceBufferFour:
 7927 0000 00000000 		.space	3840000
 7927      00000000 
 7927      00000000 
 7927      00000000 
 7927      00000000 
 7930              	spliceBufferThree:
 7931 3a9800 00000000 		.space	3840000
 7931      00000000 
 7931      00000000 
 7931      00000000 
 7931      00000000 
 7934              	spliceBufferTwo:
 7935 753000 00000000 		.space	3840000
 7935      00000000 
 7935      00000000 
 7935      00000000 
 7935      00000000 
 7938              	spliceBufferOne:
 7939 afc800 00000000 		.space	3840000
 7939      00000000 
 7939      00000000 
 7939      00000000 
ARM GAS  /var/folders/m5/x8wc2gdj7z5cpgcqdsb_gkj40000gn/T//cckXFIsJ.s 			page 208


 7939      00000000 
 7942              	recordingBuffer:
 7943 ea6000 00000000 		.space	23040000
 7943      00000000 
 7943      00000000 
 7943      00000000 
 7943      00000000 
 7944              		.text
 7945              	.Letext0:
 7946              		.file 22 "/Applications/ARM/arm-none-eabi/include/machine/_default_types.h"
 7947              		.file 23 "/Applications/ARM/arm-none-eabi/include/sys/_stdint.h"
 7948              		.file 24 "/Applications/ARM/arm-none-eabi/include/stdint.h"
 7949              		.file 25 "/Applications/ARM/lib/gcc/arm-none-eabi/10.3.1/include/stddef.h"
 7950              		.file 26 "/Applications/ARM/arm-none-eabi/include/c++/10.3.1/cmath"
 7951              		.file 27 "/Applications/ARM/arm-none-eabi/include/c++/10.3.1/bits/std_abs.h"
 7952              		.file 28 "/Applications/ARM/arm-none-eabi/include/c++/10.3.1/cstdlib"
 7953              		.file 29 "/Applications/ARM/arm-none-eabi/include/c++/10.3.1/cstdint"
 7954              		.file 30 "/Applications/ARM/arm-none-eabi/include/c++/10.3.1/type_traits"
 7955              		.file 31 "/Applications/ARM/arm-none-eabi/include/c++/10.3.1/debug/debug.h"
 7956              		.file 32 "/Applications/ARM/arm-none-eabi/include/c++/10.3.1/arm-none-eabi/thumb/v7e-m+dp/hard/bit
 7957              		.file 33 "/Applications/ARM/arm-none-eabi/include/c++/10.3.1/bits/algorithmfwd.h"
 7958              		.file 34 "/Applications/ARM/arm-none-eabi/include/c++/10.3.1/bits/stl_pair.h"
 7959              		.file 35 "/Applications/ARM/arm-none-eabi/include/c++/10.3.1/bits/exception_ptr.h"
 7960              		.file 36 "/Applications/ARM/arm-none-eabi/include/c++/10.3.1/cstdarg"
 7961              		.file 37 "/Applications/ARM/arm-none-eabi/include/c++/10.3.1/cstdio"
 7962              		.file 38 "/Applications/ARM/arm-none-eabi/include/c++/10.3.1/cstring"
 7963              		.file 39 "/Applications/ARM/arm-none-eabi/include/c++/10.3.1/cwchar"
 7964              		.file 40 "/Applications/ARM/arm-none-eabi/include/c++/10.3.1/clocale"
 7965              		.file 41 "/Applications/ARM/arm-none-eabi/include/c++/10.3.1/bits/basic_string.h"
 7966              		.file 42 "/Applications/ARM/arm-none-eabi/include/c++/10.3.1/bits/stl_iterator.h"
 7967              		.file 43 "/Applications/ARM/arm-none-eabi/include/c++/10.3.1/bits/predefined_ops.h"
 7968              		.file 44 "/Applications/ARM/arm-none-eabi/include/sys/_types.h"
 7969              		.file 45 "/Applications/ARM/arm-none-eabi/include/sys/reent.h"
 7970              		.file 46 "/Applications/ARM/arm-none-eabi/include/sys/lock.h"
 7971              		.file 47 "/Applications/ARM/arm-none-eabi/include/math.h"
 7972              		.file 48 "/Applications/ARM/arm-none-eabi/include/stdlib.h"
 7973              		.file 49 "/Applications/ARM/arm-none-eabi/include/c++/10.3.1/math.h"
 7974              		.file 50 "/Applications/ARM/arm-none-eabi/include/c++/10.3.1/stdlib.h"
 7975              		.file 51 "/Users/dominicfrugoli/Desktop/ProgrammingCode/DaisyCode/DaisyExamples/libDaisy/src/daisy
 7976              		.file 52 "/Users/dominicfrugoli/Desktop/ProgrammingCode/DaisyCode/DaisyExamples/libDaisy/src/per/t
 7977              		.file 53 "/Users/dominicfrugoli/Desktop/ProgrammingCode/DaisyCode/DaisyExamples/libDaisy/src/util/
 7978              		.file 54 "/Users/dominicfrugoli/Desktop/ProgrammingCode/DaisyCode/DaisyExamples/libDaisy/src/dev/m
 7979              		.file 55 "/Users/dominicfrugoli/Desktop/ProgrammingCode/DaisyCode/DaisyExamples/libDaisy/src/per/g
 7980              		.file 56 "/Users/dominicfrugoli/Desktop/ProgrammingCode/DaisyCode/DaisyExamples/libDaisy/src/dev/s
 7981              		.file 57 "/Applications/ARM/lib/gcc/arm-none-eabi/10.3.1/include/stdarg.h"
 7982              		.file 58 "/Applications/ARM/arm-none-eabi/include/stdio.h"
 7983              		.file 59 "/Applications/ARM/arm-none-eabi/include/string.h"
 7984              		.file 60 "/Users/dominicfrugoli/Desktop/ProgrammingCode/DaisyCode/DaisyExamples/DaisySP/Source/Con
 7985              		.file 61 "/Users/dominicfrugoli/Desktop/ProgrammingCode/DaisyCode/DaisyExamples/DaisySP/Source/Uti
 7986              		.file 62 "/Applications/ARM/arm-none-eabi/include/wchar.h"
 7987              		.file 63 "/Applications/ARM/arm-none-eabi/include/locale.h"
 7988              		.file 64 "/Users/dominicfrugoli/Desktop/ProgrammingCode/DaisyCode/DaisyExamples/libDaisy/src/dev/s
 7989              		.file 65 "<built-in>"
ARM GAS  /var/folders/m5/x8wc2gdj7z5cpgcqdsb_gkj40000gn/T//cckXFIsJ.s 			page 209


DEFINED SYMBOLS
                            *ABS*:0000000000000000 sardinia.cpp
/var/folders/m5/x8wc2gdj7z5cpgcqdsb_gkj40000gn/T//cckXFIsJ.s:19     .text._ZN5daisy6SwitchD2Ev:0000000000000000 $t
/var/folders/m5/x8wc2gdj7z5cpgcqdsb_gkj40000gn/T//cckXFIsJ.s:26     .text._ZN5daisy6SwitchD2Ev:0000000000000000 _ZN5daisy6SwitchD2Ev
/var/folders/m5/x8wc2gdj7z5cpgcqdsb_gkj40000gn/T//cckXFIsJ.s:26     .text._ZN5daisy6SwitchD2Ev:0000000000000000 _ZN5daisy6SwitchD1Ev
/var/folders/m5/x8wc2gdj7z5cpgcqdsb_gkj40000gn/T//cckXFIsJ.s:43     .text._ZN5daisy7EncoderD2Ev:0000000000000000 $t
/var/folders/m5/x8wc2gdj7z5cpgcqdsb_gkj40000gn/T//cckXFIsJ.s:50     .text._ZN5daisy7EncoderD2Ev:0000000000000000 _ZN5daisy7EncoderD2Ev
/var/folders/m5/x8wc2gdj7z5cpgcqdsb_gkj40000gn/T//cckXFIsJ.s:50     .text._ZN5daisy7EncoderD2Ev:0000000000000000 _ZN5daisy7EncoderD1Ev
/var/folders/m5/x8wc2gdj7z5cpgcqdsb_gkj40000gn/T//cckXFIsJ.s:72     .text._ZN5daisy10LcdHD44780D2Ev:0000000000000000 $t
/var/folders/m5/x8wc2gdj7z5cpgcqdsb_gkj40000gn/T//cckXFIsJ.s:79     .text._ZN5daisy10LcdHD44780D2Ev:0000000000000000 _ZN5daisy10LcdHD44780D2Ev
/var/folders/m5/x8wc2gdj7z5cpgcqdsb_gkj40000gn/T//cckXFIsJ.s:79     .text._ZN5daisy10LcdHD44780D2Ev:0000000000000000 _ZN5daisy10LcdHD44780D1Ev
/var/folders/m5/x8wc2gdj7z5cpgcqdsb_gkj40000gn/T//cckXFIsJ.s:96     .text._ZN5daisy9DaisySeedD2Ev:0000000000000000 $t
/var/folders/m5/x8wc2gdj7z5cpgcqdsb_gkj40000gn/T//cckXFIsJ.s:103    .text._ZN5daisy9DaisySeedD2Ev:0000000000000000 _ZN5daisy9DaisySeedD2Ev
/var/folders/m5/x8wc2gdj7z5cpgcqdsb_gkj40000gn/T//cckXFIsJ.s:103    .text._ZN5daisy9DaisySeedD2Ev:0000000000000000 _ZN5daisy9DaisySeedD1Ev
/var/folders/m5/x8wc2gdj7z5cpgcqdsb_gkj40000gn/T//cckXFIsJ.s:144    .text._ZN7daisysp3SvfD2Ev:0000000000000000 $t
/var/folders/m5/x8wc2gdj7z5cpgcqdsb_gkj40000gn/T//cckXFIsJ.s:151    .text._ZN7daisysp3SvfD2Ev:0000000000000000 _ZN7daisysp3SvfD2Ev
/var/folders/m5/x8wc2gdj7z5cpgcqdsb_gkj40000gn/T//cckXFIsJ.s:151    .text._ZN7daisysp3SvfD2Ev:0000000000000000 _ZN7daisysp3SvfD1Ev
/var/folders/m5/x8wc2gdj7z5cpgcqdsb_gkj40000gn/T//cckXFIsJ.s:168    .text._ZN7daisysp6ChorusD2Ev:0000000000000000 $t
/var/folders/m5/x8wc2gdj7z5cpgcqdsb_gkj40000gn/T//cckXFIsJ.s:175    .text._ZN7daisysp6ChorusD2Ev:0000000000000000 _ZN7daisysp6ChorusD2Ev
/var/folders/m5/x8wc2gdj7z5cpgcqdsb_gkj40000gn/T//cckXFIsJ.s:175    .text._ZN7daisysp6ChorusD2Ev:0000000000000000 _ZN7daisysp6ChorusD1Ev
/var/folders/m5/x8wc2gdj7z5cpgcqdsb_gkj40000gn/T//cckXFIsJ.s:192    .text._ZN7daisysp9OverdriveD2Ev:0000000000000000 $t
/var/folders/m5/x8wc2gdj7z5cpgcqdsb_gkj40000gn/T//cckXFIsJ.s:199    .text._ZN7daisysp9OverdriveD2Ev:0000000000000000 _ZN7daisysp9OverdriveD2Ev
/var/folders/m5/x8wc2gdj7z5cpgcqdsb_gkj40000gn/T//cckXFIsJ.s:199    .text._ZN7daisysp9OverdriveD2Ev:0000000000000000 _ZN7daisysp9OverdriveD1Ev
/var/folders/m5/x8wc2gdj7z5cpgcqdsb_gkj40000gn/T//cckXFIsJ.s:216    .text._ZN7daisysp7OnePoleD2Ev:0000000000000000 $t
/var/folders/m5/x8wc2gdj7z5cpgcqdsb_gkj40000gn/T//cckXFIsJ.s:223    .text._ZN7daisysp7OnePoleD2Ev:0000000000000000 _ZN7daisysp7OnePoleD2Ev
/var/folders/m5/x8wc2gdj7z5cpgcqdsb_gkj40000gn/T//cckXFIsJ.s:223    .text._ZN7daisysp7OnePoleD2Ev:0000000000000000 _ZN7daisysp7OnePoleD1Ev
/var/folders/m5/x8wc2gdj7z5cpgcqdsb_gkj40000gn/T//cckXFIsJ.s:240    .text._Z16AdvanceReadIndexv.part.0:0000000000000000 $t
/var/folders/m5/x8wc2gdj7z5cpgcqdsb_gkj40000gn/T//cckXFIsJ.s:246    .text._Z16AdvanceReadIndexv.part.0:0000000000000000 _Z16AdvanceReadIndexv.part.0
/var/folders/m5/x8wc2gdj7z5cpgcqdsb_gkj40000gn/T//cckXFIsJ.s:364    .text._Z16AdvanceReadIndexv.part.0:0000000000000048 $d
/var/folders/m5/x8wc2gdj7z5cpgcqdsb_gkj40000gn/T//cckXFIsJ.s:375    .text._Z12InitControlsv:0000000000000000 $t
/var/folders/m5/x8wc2gdj7z5cpgcqdsb_gkj40000gn/T//cckXFIsJ.s:382    .text._Z12InitControlsv:0000000000000000 _Z12InitControlsv
/var/folders/m5/x8wc2gdj7z5cpgcqdsb_gkj40000gn/T//cckXFIsJ.s:599    .text._Z12InitControlsv:0000000000000200 $d
/var/folders/m5/x8wc2gdj7z5cpgcqdsb_gkj40000gn/T//cckXFIsJ.s:609    .text._Z10RisingEdgebb:0000000000000000 $t
/var/folders/m5/x8wc2gdj7z5cpgcqdsb_gkj40000gn/T//cckXFIsJ.s:616    .text._Z10RisingEdgebb:0000000000000000 _Z10RisingEdgebb
/var/folders/m5/x8wc2gdj7z5cpgcqdsb_gkj40000gn/T//cckXFIsJ.s:637    .text._Z11FallingEdgebb:0000000000000000 $t
/var/folders/m5/x8wc2gdj7z5cpgcqdsb_gkj40000gn/T//cckXFIsJ.s:644    .text._Z11FallingEdgebb:0000000000000000 _Z11FallingEdgebb
/var/folders/m5/x8wc2gdj7z5cpgcqdsb_gkj40000gn/T//cckXFIsJ.s:662    .text._Z25RisingEdge_ControlButtonsi:0000000000000000 $t
/var/folders/m5/x8wc2gdj7z5cpgcqdsb_gkj40000gn/T//cckXFIsJ.s:669    .text._Z25RisingEdge_ControlButtonsi:0000000000000000 _Z25RisingEdge_ControlButtonsi
/var/folders/m5/x8wc2gdj7z5cpgcqdsb_gkj40000gn/T//cckXFIsJ.s:698    .text._Z25RisingEdge_ControlButtonsi:0000000000000014 $d
/var/folders/m5/x8wc2gdj7z5cpgcqdsb_gkj40000gn/T//cckXFIsJ.s:704    .text._Z26FallingEdge_ControlButtonsi:0000000000000000 $t
/var/folders/m5/x8wc2gdj7z5cpgcqdsb_gkj40000gn/T//cckXFIsJ.s:711    .text._Z26FallingEdge_ControlButtonsi:0000000000000000 _Z26FallingEdge_ControlButtonsi
/var/folders/m5/x8wc2gdj7z5cpgcqdsb_gkj40000gn/T//cckXFIsJ.s:741    .text._Z26FallingEdge_ControlButtonsi:0000000000000010 $d
/var/folders/m5/x8wc2gdj7z5cpgcqdsb_gkj40000gn/T//cckXFIsJ.s:747    .text._Z13EncoderTurnedv:0000000000000000 $t
/var/folders/m5/x8wc2gdj7z5cpgcqdsb_gkj40000gn/T//cckXFIsJ.s:754    .text._Z13EncoderTurnedv:0000000000000000 _Z13EncoderTurnedv
/var/folders/m5/x8wc2gdj7z5cpgcqdsb_gkj40000gn/T//cckXFIsJ.s:795    .text._Z13EncoderTurnedv:0000000000000020 $d
/var/folders/m5/x8wc2gdj7z5cpgcqdsb_gkj40000gn/T//cckXFIsJ.s:800    .text._Z13EncoderTurnedN5daisy7EncoderE:0000000000000000 $t
/var/folders/m5/x8wc2gdj7z5cpgcqdsb_gkj40000gn/T//cckXFIsJ.s:807    .text._Z13EncoderTurnedN5daisy7EncoderE:0000000000000000 _Z13EncoderTurnedN5daisy7EncoderE
/var/folders/m5/x8wc2gdj7z5cpgcqdsb_gkj40000gn/T//cckXFIsJ.s:851    .text._Z10InitBufferv:0000000000000000 $t
/var/folders/m5/x8wc2gdj7z5cpgcqdsb_gkj40000gn/T//cckXFIsJ.s:858    .text._Z10InitBufferv:0000000000000000 _Z10InitBufferv
/var/folders/m5/x8wc2gdj7z5cpgcqdsb_gkj40000gn/T//cckXFIsJ.s:930    .text._Z10InitBufferv:0000000000000040 $d
/var/folders/m5/x8wc2gdj7z5cpgcqdsb_gkj40000gn/T//cckXFIsJ.s:7942   .sdram_bss:0000000000ea6000 recordingBuffer
/var/folders/m5/x8wc2gdj7z5cpgcqdsb_gkj40000gn/T//cckXFIsJ.s:7938   .sdram_bss:0000000000afc800 spliceBufferOne
/var/folders/m5/x8wc2gdj7z5cpgcqdsb_gkj40000gn/T//cckXFIsJ.s:7934   .sdram_bss:0000000000753000 spliceBufferTwo
/var/folders/m5/x8wc2gdj7z5cpgcqdsb_gkj40000gn/T//cckXFIsJ.s:7930   .sdram_bss:00000000003a9800 spliceBufferThree
/var/folders/m5/x8wc2gdj7z5cpgcqdsb_gkj40000gn/T//cckXFIsJ.s:7926   .sdram_bss:0000000000000000 spliceBufferFour
/var/folders/m5/x8wc2gdj7z5cpgcqdsb_gkj40000gn/T//cckXFIsJ.s:943    .text._Z12RecordSamplef:0000000000000000 $t
/var/folders/m5/x8wc2gdj7z5cpgcqdsb_gkj40000gn/T//cckXFIsJ.s:950    .text._Z12RecordSamplef:0000000000000000 _Z12RecordSamplef
ARM GAS  /var/folders/m5/x8wc2gdj7z5cpgcqdsb_gkj40000gn/T//cckXFIsJ.s 			page 210


/var/folders/m5/x8wc2gdj7z5cpgcqdsb_gkj40000gn/T//cckXFIsJ.s:979    .text._Z12RecordSamplef:0000000000000014 $d
/var/folders/m5/x8wc2gdj7z5cpgcqdsb_gkj40000gn/T//cckXFIsJ.s:985    .text._Z14ResetReadIndexv:0000000000000000 $t
/var/folders/m5/x8wc2gdj7z5cpgcqdsb_gkj40000gn/T//cckXFIsJ.s:992    .text._Z14ResetReadIndexv:0000000000000000 _Z14ResetReadIndexv
/var/folders/m5/x8wc2gdj7z5cpgcqdsb_gkj40000gn/T//cckXFIsJ.s:1011   .text._Z14ResetReadIndexv:0000000000000014 $d
/var/folders/m5/x8wc2gdj7z5cpgcqdsb_gkj40000gn/T//cckXFIsJ.s:1017   .text._Z16AdvanceReadIndexv:0000000000000000 $t
/var/folders/m5/x8wc2gdj7z5cpgcqdsb_gkj40000gn/T//cckXFIsJ.s:1024   .text._Z16AdvanceReadIndexv:0000000000000000 _Z16AdvanceReadIndexv
/var/folders/m5/x8wc2gdj7z5cpgcqdsb_gkj40000gn/T//cckXFIsJ.s:1060   .text._Z16AdvanceReadIndexv:0000000000000030 $d
/var/folders/m5/x8wc2gdj7z5cpgcqdsb_gkj40000gn/T//cckXFIsJ.s:1067   .text._Z9GetSamplev:0000000000000000 $t
/var/folders/m5/x8wc2gdj7z5cpgcqdsb_gkj40000gn/T//cckXFIsJ.s:1074   .text._Z9GetSamplev:0000000000000000 _Z9GetSamplev
/var/folders/m5/x8wc2gdj7z5cpgcqdsb_gkj40000gn/T//cckXFIsJ.s:1134   .text._Z9GetSamplev:0000000000000040 $d
/var/folders/m5/x8wc2gdj7z5cpgcqdsb_gkj40000gn/T//cckXFIsJ.s:1142   .text._Z19FullSampleGetSamplev:0000000000000000 $t
/var/folders/m5/x8wc2gdj7z5cpgcqdsb_gkj40000gn/T//cckXFIsJ.s:1149   .text._Z19FullSampleGetSamplev:0000000000000000 _Z19FullSampleGetSamplev
/var/folders/m5/x8wc2gdj7z5cpgcqdsb_gkj40000gn/T//cckXFIsJ.s:1244   .text._Z19FullSampleGetSamplev:0000000000000078 $d
/var/folders/m5/x8wc2gdj7z5cpgcqdsb_gkj40000gn/T//cckXFIsJ.s:1255   .text._Z21SpliceBufferGetSampleiii:0000000000000000 $t
/var/folders/m5/x8wc2gdj7z5cpgcqdsb_gkj40000gn/T//cckXFIsJ.s:1262   .text._Z21SpliceBufferGetSampleiii:0000000000000000 _Z21SpliceBufferGetSampleiii
/var/folders/m5/x8wc2gdj7z5cpgcqdsb_gkj40000gn/T//cckXFIsJ.s:1864   .text._Z21SpliceBufferGetSampleiii:000000000000029c $d
/var/folders/m5/x8wc2gdj7z5cpgcqdsb_gkj40000gn/T//cckXFIsJ.s:1889   .text._Z17StoreSpliceBufferi:0000000000000000 $t
/var/folders/m5/x8wc2gdj7z5cpgcqdsb_gkj40000gn/T//cckXFIsJ.s:1896   .text._Z17StoreSpliceBufferi:0000000000000000 _Z17StoreSpliceBufferi
/var/folders/m5/x8wc2gdj7z5cpgcqdsb_gkj40000gn/T//cckXFIsJ.s:2758   .text._Z17StoreSpliceBufferi:00000000000002c8 $d
/var/folders/m5/x8wc2gdj7z5cpgcqdsb_gkj40000gn/T//cckXFIsJ.s:2778   .text._Z15AnyKeyIsPressedv:0000000000000000 $t
/var/folders/m5/x8wc2gdj7z5cpgcqdsb_gkj40000gn/T//cckXFIsJ.s:2785   .text._Z15AnyKeyIsPressedv:0000000000000000 _Z15AnyKeyIsPressedv
/var/folders/m5/x8wc2gdj7z5cpgcqdsb_gkj40000gn/T//cckXFIsJ.s:2822   .text._Z15AnyKeyIsPressedv:0000000000000018 $d
/var/folders/m5/x8wc2gdj7z5cpgcqdsb_gkj40000gn/T//cckXFIsJ.s:2827   .text._Z18FindNextPressedKeyi:0000000000000000 $t
/var/folders/m5/x8wc2gdj7z5cpgcqdsb_gkj40000gn/T//cckXFIsJ.s:2834   .text._Z18FindNextPressedKeyi:0000000000000000 _Z18FindNextPressedKeyi
/var/folders/m5/x8wc2gdj7z5cpgcqdsb_gkj40000gn/T//cckXFIsJ.s:2887   .text._Z18FindNextPressedKeyi:000000000000001c $d
/var/folders/m5/x8wc2gdj7z5cpgcqdsb_gkj40000gn/T//cckXFIsJ.s:2892   .text._Z19FindFirstPressedKeyv:0000000000000000 $t
/var/folders/m5/x8wc2gdj7z5cpgcqdsb_gkj40000gn/T//cckXFIsJ.s:2899   .text._Z19FindFirstPressedKeyv:0000000000000000 _Z19FindFirstPressedKeyv
/var/folders/m5/x8wc2gdj7z5cpgcqdsb_gkj40000gn/T//cckXFIsJ.s:2943   .text._Z19FindFirstPressedKeyv:000000000000001c $d
/var/folders/m5/x8wc2gdj7z5cpgcqdsb_gkj40000gn/T//cckXFIsJ.s:2948   .text._Z12SetKeyIndexsv:0000000000000000 $t
/var/folders/m5/x8wc2gdj7z5cpgcqdsb_gkj40000gn/T//cckXFIsJ.s:2955   .text._Z12SetKeyIndexsv:0000000000000000 _Z12SetKeyIndexsv
/var/folders/m5/x8wc2gdj7z5cpgcqdsb_gkj40000gn/T//cckXFIsJ.s:3127   .text._Z12SetKeyIndexsv:000000000000009c $d
/var/folders/m5/x8wc2gdj7z5cpgcqdsb_gkj40000gn/T//cckXFIsJ.s:3143   .text._Z13GetStartPointv:0000000000000000 $t
/var/folders/m5/x8wc2gdj7z5cpgcqdsb_gkj40000gn/T//cckXFIsJ.s:3150   .text._Z13GetStartPointv:0000000000000000 _Z13GetStartPointv
/var/folders/m5/x8wc2gdj7z5cpgcqdsb_gkj40000gn/T//cckXFIsJ.s:3166   .text._Z13GetStartPointv:0000000000000008 $d
/var/folders/m5/x8wc2gdj7z5cpgcqdsb_gkj40000gn/T//cckXFIsJ.s:3171   .text._Z12GetStopPointv:0000000000000000 $t
/var/folders/m5/x8wc2gdj7z5cpgcqdsb_gkj40000gn/T//cckXFIsJ.s:3178   .text._Z12GetStopPointv:0000000000000000 _Z12GetStopPointv
/var/folders/m5/x8wc2gdj7z5cpgcqdsb_gkj40000gn/T//cckXFIsJ.s:3194   .text._Z12GetStopPointv:0000000000000008 $d
/var/folders/m5/x8wc2gdj7z5cpgcqdsb_gkj40000gn/T//cckXFIsJ.s:3199   .text._Z7InitLCDv:0000000000000000 $t
/var/folders/m5/x8wc2gdj7z5cpgcqdsb_gkj40000gn/T//cckXFIsJ.s:3206   .text._Z7InitLCDv:0000000000000000 _Z7InitLCDv
/var/folders/m5/x8wc2gdj7z5cpgcqdsb_gkj40000gn/T//cckXFIsJ.s:3284   .text._Z7InitLCDv:000000000000005c $d
/var/folders/m5/x8wc2gdj7z5cpgcqdsb_gkj40000gn/T//cckXFIsJ.s:3290   .rodata._Z9PrintMenufPb.str1.4:0000000000000000 $d
/var/folders/m5/x8wc2gdj7z5cpgcqdsb_gkj40000gn/T//cckXFIsJ.s:3312   .text._Z9PrintMenufPb:0000000000000000 $t
/var/folders/m5/x8wc2gdj7z5cpgcqdsb_gkj40000gn/T//cckXFIsJ.s:3319   .text._Z9PrintMenufPb:0000000000000000 _Z9PrintMenufPb
/var/folders/m5/x8wc2gdj7z5cpgcqdsb_gkj40000gn/T//cckXFIsJ.s:3490   .text._Z9PrintMenufPb:00000000000000b8 $d
/var/folders/m5/x8wc2gdj7z5cpgcqdsb_gkj40000gn/T//cckXFIsJ.s:3503   .text._Z10UpdateModei:0000000000000000 $t
/var/folders/m5/x8wc2gdj7z5cpgcqdsb_gkj40000gn/T//cckXFIsJ.s:3510   .text._Z10UpdateModei:0000000000000000 _Z10UpdateModei
/var/folders/m5/x8wc2gdj7z5cpgcqdsb_gkj40000gn/T//cckXFIsJ.s:3535   .text._Z10UpdateModei:0000000000000010 $d
/var/folders/m5/x8wc2gdj7z5cpgcqdsb_gkj40000gn/T//cckXFIsJ.s:3540   .text._Z11InitEffectsf:0000000000000000 $t
/var/folders/m5/x8wc2gdj7z5cpgcqdsb_gkj40000gn/T//cckXFIsJ.s:3547   .text._Z11InitEffectsf:0000000000000000 _Z11InitEffectsf
/var/folders/m5/x8wc2gdj7z5cpgcqdsb_gkj40000gn/T//cckXFIsJ.s:3761   .text._Z11InitEffectsf:00000000000000ac $d
/var/folders/m5/x8wc2gdj7z5cpgcqdsb_gkj40000gn/T//cckXFIsJ.s:7557   .bss.chorus:0000000000000000 chorus
/var/folders/m5/x8wc2gdj7z5cpgcqdsb_gkj40000gn/T//cckXFIsJ.s:3776   .text._Z14ProcessEffectsf:0000000000000000 $t
/var/folders/m5/x8wc2gdj7z5cpgcqdsb_gkj40000gn/T//cckXFIsJ.s:3783   .text._Z14ProcessEffectsf:0000000000000000 _Z14ProcessEffectsf
/var/folders/m5/x8wc2gdj7z5cpgcqdsb_gkj40000gn/T//cckXFIsJ.s:3940   .text._Z14ProcessEffectsf:000000000000009c $d
/var/folders/m5/x8wc2gdj7z5cpgcqdsb_gkj40000gn/T//cckXFIsJ.s:3952   .text._Z23ProcessEffectParametersv:0000000000000000 $t
/var/folders/m5/x8wc2gdj7z5cpgcqdsb_gkj40000gn/T//cckXFIsJ.s:3959   .text._Z23ProcessEffectParametersv:0000000000000000 _Z23ProcessEffectParametersv
/var/folders/m5/x8wc2gdj7z5cpgcqdsb_gkj40000gn/T//cckXFIsJ.s:4087   .text._Z23ProcessEffectParametersv:0000000000000094 $d
ARM GAS  /var/folders/m5/x8wc2gdj7z5cpgcqdsb_gkj40000gn/T//cckXFIsJ.s 			page 211


/var/folders/m5/x8wc2gdj7z5cpgcqdsb_gkj40000gn/T//cckXFIsJ.s:4101   .text._Z15IncrementEffecti:0000000000000000 $t
/var/folders/m5/x8wc2gdj7z5cpgcqdsb_gkj40000gn/T//cckXFIsJ.s:4108   .text._Z15IncrementEffecti:0000000000000000 _Z15IncrementEffecti
/var/folders/m5/x8wc2gdj7z5cpgcqdsb_gkj40000gn/T//cckXFIsJ.s:4148   .text._Z15IncrementEffecti:000000000000001c $d
/var/folders/m5/x8wc2gdj7z5cpgcqdsb_gkj40000gn/T//cckXFIsJ.s:4153   .text.startup.main:0000000000000000 $t
/var/folders/m5/x8wc2gdj7z5cpgcqdsb_gkj40000gn/T//cckXFIsJ.s:4160   .text.startup.main:0000000000000000 main
/var/folders/m5/x8wc2gdj7z5cpgcqdsb_gkj40000gn/T//cckXFIsJ.s:4257   .text.startup.main:000000000000006c $d
/var/folders/m5/x8wc2gdj7z5cpgcqdsb_gkj40000gn/T//cckXFIsJ.s:6529   .text._Z13AudioCallbackPKPKfPPfj:0000000000000000 _Z13AudioCallbackPKPKfPPfj
/var/folders/m5/x8wc2gdj7z5cpgcqdsb_gkj40000gn/T//cckXFIsJ.s:4267   .text._Z18RecordModeControlsv:0000000000000000 $t
/var/folders/m5/x8wc2gdj7z5cpgcqdsb_gkj40000gn/T//cckXFIsJ.s:4274   .text._Z18RecordModeControlsv:0000000000000000 _Z18RecordModeControlsv
/var/folders/m5/x8wc2gdj7z5cpgcqdsb_gkj40000gn/T//cckXFIsJ.s:4684   .text._Z18RecordModeControlsv:0000000000000118 $d
/var/folders/m5/x8wc2gdj7z5cpgcqdsb_gkj40000gn/T//cckXFIsJ.s:4700   .text._Z16PlayModeControlsv:0000000000000000 $t
/var/folders/m5/x8wc2gdj7z5cpgcqdsb_gkj40000gn/T//cckXFIsJ.s:4707   .text._Z16PlayModeControlsv:0000000000000000 _Z16PlayModeControlsv
/var/folders/m5/x8wc2gdj7z5cpgcqdsb_gkj40000gn/T//cckXFIsJ.s:4871   .text._Z16PlayModeControlsv:0000000000000074 $d
/var/folders/m5/x8wc2gdj7z5cpgcqdsb_gkj40000gn/T//cckXFIsJ.s:4881   .text._Z17ProcessControlsARv:0000000000000000 $t
/var/folders/m5/x8wc2gdj7z5cpgcqdsb_gkj40000gn/T//cckXFIsJ.s:4888   .text._Z17ProcessControlsARv:0000000000000000 _Z17ProcessControlsARv
/var/folders/m5/x8wc2gdj7z5cpgcqdsb_gkj40000gn/T//cckXFIsJ.s:5201   .text._Z17ProcessControlsARv:00000000000000c4 $d
/var/folders/m5/x8wc2gdj7z5cpgcqdsb_gkj40000gn/T//cckXFIsJ.s:5215   .text._Z10UpdateKeysv:0000000000000000 $t
/var/folders/m5/x8wc2gdj7z5cpgcqdsb_gkj40000gn/T//cckXFIsJ.s:5222   .text._Z10UpdateKeysv:0000000000000000 _Z10UpdateKeysv
/var/folders/m5/x8wc2gdj7z5cpgcqdsb_gkj40000gn/T//cckXFIsJ.s:5427   .text._Z10UpdateKeysv:00000000000000d0 $d
/var/folders/m5/x8wc2gdj7z5cpgcqdsb_gkj40000gn/T//cckXFIsJ.s:5438   .text._Z17ProcessControlsKRv:0000000000000000 $t
/var/folders/m5/x8wc2gdj7z5cpgcqdsb_gkj40000gn/T//cckXFIsJ.s:5445   .text._Z17ProcessControlsKRv:0000000000000000 _Z17ProcessControlsKRv
/var/folders/m5/x8wc2gdj7z5cpgcqdsb_gkj40000gn/T//cckXFIsJ.s:6505   .text._Z17ProcessControlsKRv:0000000000000204 $d
/var/folders/m5/x8wc2gdj7z5cpgcqdsb_gkj40000gn/T//cckXFIsJ.s:6522   .text._Z13AudioCallbackPKPKfPPfj:0000000000000000 $t
/var/folders/m5/x8wc2gdj7z5cpgcqdsb_gkj40000gn/T//cckXFIsJ.s:6962   .text._Z13AudioCallbackPKPKfPPfj:00000000000001a8 $d
/var/folders/m5/x8wc2gdj7z5cpgcqdsb_gkj40000gn/T//cckXFIsJ.s:6988   .text._Z20UpdateControlButtonsv:0000000000000000 $t
/var/folders/m5/x8wc2gdj7z5cpgcqdsb_gkj40000gn/T//cckXFIsJ.s:6995   .text._Z20UpdateControlButtonsv:0000000000000000 _Z20UpdateControlButtonsv
/var/folders/m5/x8wc2gdj7z5cpgcqdsb_gkj40000gn/T//cckXFIsJ.s:7053   .text._Z20UpdateControlButtonsv:0000000000000030 $d
/var/folders/m5/x8wc2gdj7z5cpgcqdsb_gkj40000gn/T//cckXFIsJ.s:7059   .text._Z25RecordControlButtonStatesv:0000000000000000 $t
/var/folders/m5/x8wc2gdj7z5cpgcqdsb_gkj40000gn/T//cckXFIsJ.s:7066   .text._Z25RecordControlButtonStatesv:0000000000000000 _Z25RecordControlButtonStatesv
/var/folders/m5/x8wc2gdj7z5cpgcqdsb_gkj40000gn/T//cckXFIsJ.s:7090   .text._Z25RecordControlButtonStatesv:0000000000000010 $d
/var/folders/m5/x8wc2gdj7z5cpgcqdsb_gkj40000gn/T//cckXFIsJ.s:7096   .text._Z10ModeSelectv:0000000000000000 $t
/var/folders/m5/x8wc2gdj7z5cpgcqdsb_gkj40000gn/T//cckXFIsJ.s:7103   .text._Z10ModeSelectv:0000000000000000 _Z10ModeSelectv
/var/folders/m5/x8wc2gdj7z5cpgcqdsb_gkj40000gn/T//cckXFIsJ.s:7202   .text._Z10ModeSelectv:0000000000000024 $d
/var/folders/m5/x8wc2gdj7z5cpgcqdsb_gkj40000gn/T//cckXFIsJ.s:7209   .text.startup._GLOBAL__sub_I_adcConfig:0000000000000000 $t
/var/folders/m5/x8wc2gdj7z5cpgcqdsb_gkj40000gn/T//cckXFIsJ.s:7215   .text.startup._GLOBAL__sub_I_adcConfig:0000000000000000 _GLOBAL__sub_I_adcConfig
/var/folders/m5/x8wc2gdj7z5cpgcqdsb_gkj40000gn/T//cckXFIsJ.s:7444   .text.startup._GLOBAL__sub_I_adcConfig:0000000000000070 $d
/var/folders/m5/x8wc2gdj7z5cpgcqdsb_gkj40000gn/T//cckXFIsJ.s:7468   .init_array:0000000000000000 $d
/var/folders/m5/x8wc2gdj7z5cpgcqdsb_gkj40000gn/T//cckXFIsJ.s:7824   .bss.testValInt:0000000000000000 testValInt
/var/folders/m5/x8wc2gdj7z5cpgcqdsb_gkj40000gn/T//cckXFIsJ.s:7817   .bss.testValFloat:0000000000000000 testValFloat
/var/folders/m5/x8wc2gdj7z5cpgcqdsb_gkj40000gn/T//cckXFIsJ.s:7864   .data.inputAmp:0000000000000000 inputAmp
/var/folders/m5/x8wc2gdj7z5cpgcqdsb_gkj40000gn/T//cckXFIsJ.s:7871   .data.outputAmp:0000000000000000 outputAmp
/var/folders/m5/x8wc2gdj7z5cpgcqdsb_gkj40000gn/T//cckXFIsJ.s:7633   .bss.inputSig:0000000000000000 inputSig
/var/folders/m5/x8wc2gdj7z5cpgcqdsb_gkj40000gn/T//cckXFIsJ.s:7782   .bss.sampleSig:0000000000000000 sampleSig
/var/folders/m5/x8wc2gdj7z5cpgcqdsb_gkj40000gn/T//cckXFIsJ.s:7714   .bss.outputMix:0000000000000000 outputMix
/var/folders/m5/x8wc2gdj7z5cpgcqdsb_gkj40000gn/T//cckXFIsJ.s:7626   .bss.hw:0000000000000000 hw
/var/folders/m5/x8wc2gdj7z5cpgcqdsb_gkj40000gn/T//cckXFIsJ.s:7852   .data.effectValues:0000000000000000 effectValues
/var/folders/m5/x8wc2gdj7z5cpgcqdsb_gkj40000gn/T//cckXFIsJ.s:7585   .bss.effectStates:0000000000000000 effectStates
/var/folders/m5/x8wc2gdj7z5cpgcqdsb_gkj40000gn/T//cckXFIsJ.s:7571   .bss.currentEffect:0000000000000000 currentEffect
/var/folders/m5/x8wc2gdj7z5cpgcqdsb_gkj40000gn/T//cckXFIsJ.s:7687   .bss.lopass:0000000000000000 lopass
/var/folders/m5/x8wc2gdj7z5cpgcqdsb_gkj40000gn/T//cckXFIsJ.s:7707   .bss.odTone:0000000000000000 odTone
/var/folders/m5/x8wc2gdj7z5cpgcqdsb_gkj40000gn/T//cckXFIsJ.s:7721   .bss.overdrive:0000000000000000 overdrive
/var/folders/m5/x8wc2gdj7z5cpgcqdsb_gkj40000gn/T//cckXFIsJ.s:7693   .bss.mode:0000000000000000 mode
/var/folders/m5/x8wc2gdj7z5cpgcqdsb_gkj40000gn/T//cckXFIsJ.s:7673   .bss.lcd:0000000000000000 lcd
/var/folders/m5/x8wc2gdj7z5cpgcqdsb_gkj40000gn/T//cckXFIsJ.s:7892   .data.spliceBufferFourLength:0000000000000000 spliceBufferFourLength
/var/folders/m5/x8wc2gdj7z5cpgcqdsb_gkj40000gn/T//cckXFIsJ.s:7906   .data.spliceBufferThreeLength:0000000000000000 spliceBufferThreeLength
/var/folders/m5/x8wc2gdj7z5cpgcqdsb_gkj40000gn/T//cckXFIsJ.s:7913   .data.spliceBufferTwoLength:0000000000000000 spliceBufferTwoLength
/var/folders/m5/x8wc2gdj7z5cpgcqdsb_gkj40000gn/T//cckXFIsJ.s:7899   .data.spliceBufferOneLength:0000000000000000 spliceBufferOneLength
ARM GAS  /var/folders/m5/x8wc2gdj7z5cpgcqdsb_gkj40000gn/T//cckXFIsJ.s 			page 212


/var/folders/m5/x8wc2gdj7z5cpgcqdsb_gkj40000gn/T//cckXFIsJ.s:7796   .bss.spliceBufferReadIndexFraction:0000000000000000 spliceBufferReadIndexFraction
/var/folders/m5/x8wc2gdj7z5cpgcqdsb_gkj40000gn/T//cckXFIsJ.s:7803   .bss.spliceBufferReadIndexInt:0000000000000000 spliceBufferReadIndexInt
/var/folders/m5/x8wc2gdj7z5cpgcqdsb_gkj40000gn/T//cckXFIsJ.s:7789   .bss.spliceBufferReadIndex:0000000000000000 spliceBufferReadIndex
/var/folders/m5/x8wc2gdj7z5cpgcqdsb_gkj40000gn/T//cckXFIsJ.s:7544   .bss.SpliceBufferIsPlaying:0000000000000000 SpliceBufferIsPlaying
/var/folders/m5/x8wc2gdj7z5cpgcqdsb_gkj40000gn/T//cckXFIsJ.s:7845   .data.currentSpliceBuffer:0000000000000000 currentSpliceBuffer
/var/folders/m5/x8wc2gdj7z5cpgcqdsb_gkj40000gn/T//cckXFIsJ.s:7838   .data.baseFreq:0000000000000000 baseFreq
/var/folders/m5/x8wc2gdj7z5cpgcqdsb_gkj40000gn/T//cckXFIsJ.s:7639   .bss.isPlaying:0000000000000000 isPlaying
/var/folders/m5/x8wc2gdj7z5cpgcqdsb_gkj40000gn/T//cckXFIsJ.s:7645   .bss.isRecording:0000000000000000 isRecording
/var/folders/m5/x8wc2gdj7z5cpgcqdsb_gkj40000gn/T//cckXFIsJ.s:7700   .bss.noteKey:0000000000000000 noteKey
/var/folders/m5/x8wc2gdj7z5cpgcqdsb_gkj40000gn/T//cckXFIsJ.s:7578   .bss.currentKey:0000000000000000 currentKey
/var/folders/m5/x8wc2gdj7z5cpgcqdsb_gkj40000gn/T//cckXFIsJ.s:7920   .data.stopPoint:0000000000000000 stopPoint
/var/folders/m5/x8wc2gdj7z5cpgcqdsb_gkj40000gn/T//cckXFIsJ.s:7810   .bss.startPoint:0000000000000000 startPoint
/var/folders/m5/x8wc2gdj7z5cpgcqdsb_gkj40000gn/T//cckXFIsJ.s:7659   .bss.keyStates:0000000000000000 keyStates
/var/folders/m5/x8wc2gdj7z5cpgcqdsb_gkj40000gn/T//cckXFIsJ.s:7666   .bss.keyStopIndex:0000000000000000 keyStopIndex
/var/folders/m5/x8wc2gdj7z5cpgcqdsb_gkj40000gn/T//cckXFIsJ.s:7652   .bss.keyStartIndex:0000000000000000 keyStartIndex
/var/folders/m5/x8wc2gdj7z5cpgcqdsb_gkj40000gn/T//cckXFIsJ.s:7612   .bss.fullSampleReadIndexFraction:0000000000000000 fullSampleReadIndexFraction
/var/folders/m5/x8wc2gdj7z5cpgcqdsb_gkj40000gn/T//cckXFIsJ.s:7619   .bss.fullSampleReadIndexInt:0000000000000000 fullSampleReadIndexInt
/var/folders/m5/x8wc2gdj7z5cpgcqdsb_gkj40000gn/T//cckXFIsJ.s:7605   .bss.fullSampleReadIndex:0000000000000000 fullSampleReadIndex
/var/folders/m5/x8wc2gdj7z5cpgcqdsb_gkj40000gn/T//cckXFIsJ.s:7680   .bss.lengthTrack:0000000000000000 lengthTrack
/var/folders/m5/x8wc2gdj7z5cpgcqdsb_gkj40000gn/T//cckXFIsJ.s:7885   .data.recordingLength:0000000000000000 recordingLength
/var/folders/m5/x8wc2gdj7z5cpgcqdsb_gkj40000gn/T//cckXFIsJ.s:7831   .bss.writeIndex:0000000000000000 writeIndex
/var/folders/m5/x8wc2gdj7z5cpgcqdsb_gkj40000gn/T//cckXFIsJ.s:7768   .bss.readPitch:0000000000000000 readPitch
/var/folders/m5/x8wc2gdj7z5cpgcqdsb_gkj40000gn/T//cckXFIsJ.s:7878   .data.readFactor:0000000000000000 readFactor
/var/folders/m5/x8wc2gdj7z5cpgcqdsb_gkj40000gn/T//cckXFIsJ.s:7755   .bss.readIndexFraction:0000000000000000 readIndexFraction
/var/folders/m5/x8wc2gdj7z5cpgcqdsb_gkj40000gn/T//cckXFIsJ.s:7762   .bss.readIndexInt:0000000000000000 readIndexInt
/var/folders/m5/x8wc2gdj7z5cpgcqdsb_gkj40000gn/T//cckXFIsJ.s:7748   .bss.readIndex:0000000000000000 readIndex
/var/folders/m5/x8wc2gdj7z5cpgcqdsb_gkj40000gn/T//cckXFIsJ.s:7734   .bss.playButtonOverrule:0000000000000000 playButtonOverrule
/var/folders/m5/x8wc2gdj7z5cpgcqdsb_gkj40000gn/T//cckXFIsJ.s:7741   .bss.prevControlButtonStates:0000000000000000 prevControlButtonStates
/var/folders/m5/x8wc2gdj7z5cpgcqdsb_gkj40000gn/T//cckXFIsJ.s:7564   .bss.controlButtonStates:0000000000000000 controlButtonStates
/var/folders/m5/x8wc2gdj7z5cpgcqdsb_gkj40000gn/T//cckXFIsJ.s:7598   .bss.encoderTurnVal:0000000000000000 encoderTurnVal
/var/folders/m5/x8wc2gdj7z5cpgcqdsb_gkj40000gn/T//cckXFIsJ.s:7775   .bss.recButton:0000000000000000 recButton
/var/folders/m5/x8wc2gdj7z5cpgcqdsb_gkj40000gn/T//cckXFIsJ.s:7728   .bss.playButton:0000000000000000 playButton
/var/folders/m5/x8wc2gdj7z5cpgcqdsb_gkj40000gn/T//cckXFIsJ.s:7592   .bss.encoder:0000000000000000 encoder
/var/folders/m5/x8wc2gdj7z5cpgcqdsb_gkj40000gn/T//cckXFIsJ.s:7551   .bss.adcConfig:0000000000000000 adcConfig
/var/folders/m5/x8wc2gdj7z5cpgcqdsb_gkj40000gn/T//cckXFIsJ.s:7531   .rodata:0000000000000000 $d
/var/folders/m5/x8wc2gdj7z5cpgcqdsb_gkj40000gn/T//cckXFIsJ.s:7545   .bss.SpliceBufferIsPlaying:0000000000000000 $d
/var/folders/m5/x8wc2gdj7z5cpgcqdsb_gkj40000gn/T//cckXFIsJ.s:7547   .bss.adcConfig:0000000000000000 $d
/var/folders/m5/x8wc2gdj7z5cpgcqdsb_gkj40000gn/T//cckXFIsJ.s:7554   .bss.chorus:0000000000000000 $d
/var/folders/m5/x8wc2gdj7z5cpgcqdsb_gkj40000gn/T//cckXFIsJ.s:7560   .bss.controlButtonStates:0000000000000000 $d
/var/folders/m5/x8wc2gdj7z5cpgcqdsb_gkj40000gn/T//cckXFIsJ.s:7567   .bss.currentEffect:0000000000000000 $d
/var/folders/m5/x8wc2gdj7z5cpgcqdsb_gkj40000gn/T//cckXFIsJ.s:7574   .bss.currentKey:0000000000000000 $d
/var/folders/m5/x8wc2gdj7z5cpgcqdsb_gkj40000gn/T//cckXFIsJ.s:7581   .bss.effectStates:0000000000000000 $d
/var/folders/m5/x8wc2gdj7z5cpgcqdsb_gkj40000gn/T//cckXFIsJ.s:7588   .bss.encoder:0000000000000000 $d
/var/folders/m5/x8wc2gdj7z5cpgcqdsb_gkj40000gn/T//cckXFIsJ.s:7595   .bss.encoderTurnVal:0000000000000000 $d
/var/folders/m5/x8wc2gdj7z5cpgcqdsb_gkj40000gn/T//cckXFIsJ.s:7601   .bss.fullSampleReadIndex:0000000000000000 $d
/var/folders/m5/x8wc2gdj7z5cpgcqdsb_gkj40000gn/T//cckXFIsJ.s:7608   .bss.fullSampleReadIndexFraction:0000000000000000 $d
/var/folders/m5/x8wc2gdj7z5cpgcqdsb_gkj40000gn/T//cckXFIsJ.s:7615   .bss.fullSampleReadIndexInt:0000000000000000 $d
/var/folders/m5/x8wc2gdj7z5cpgcqdsb_gkj40000gn/T//cckXFIsJ.s:7622   .bss.hw:0000000000000000 $d
/var/folders/m5/x8wc2gdj7z5cpgcqdsb_gkj40000gn/T//cckXFIsJ.s:7629   .bss.inputSig:0000000000000000 $d
/var/folders/m5/x8wc2gdj7z5cpgcqdsb_gkj40000gn/T//cckXFIsJ.s:7640   .bss.isPlaying:0000000000000000 $d
/var/folders/m5/x8wc2gdj7z5cpgcqdsb_gkj40000gn/T//cckXFIsJ.s:7646   .bss.isRecording:0000000000000000 $d
/var/folders/m5/x8wc2gdj7z5cpgcqdsb_gkj40000gn/T//cckXFIsJ.s:7648   .bss.keyStartIndex:0000000000000000 $d
/var/folders/m5/x8wc2gdj7z5cpgcqdsb_gkj40000gn/T//cckXFIsJ.s:7655   .bss.keyStates:0000000000000000 $d
/var/folders/m5/x8wc2gdj7z5cpgcqdsb_gkj40000gn/T//cckXFIsJ.s:7662   .bss.keyStopIndex:0000000000000000 $d
/var/folders/m5/x8wc2gdj7z5cpgcqdsb_gkj40000gn/T//cckXFIsJ.s:7669   .bss.lcd:0000000000000000 $d
/var/folders/m5/x8wc2gdj7z5cpgcqdsb_gkj40000gn/T//cckXFIsJ.s:7676   .bss.lengthTrack:0000000000000000 $d
/var/folders/m5/x8wc2gdj7z5cpgcqdsb_gkj40000gn/T//cckXFIsJ.s:7683   .bss.lopass:0000000000000000 $d
ARM GAS  /var/folders/m5/x8wc2gdj7z5cpgcqdsb_gkj40000gn/T//cckXFIsJ.s 			page 213


/var/folders/m5/x8wc2gdj7z5cpgcqdsb_gkj40000gn/T//cckXFIsJ.s:7694   .bss.mode:0000000000000000 $d
/var/folders/m5/x8wc2gdj7z5cpgcqdsb_gkj40000gn/T//cckXFIsJ.s:7696   .bss.noteKey:0000000000000000 $d
/var/folders/m5/x8wc2gdj7z5cpgcqdsb_gkj40000gn/T//cckXFIsJ.s:7703   .bss.odTone:0000000000000000 $d
/var/folders/m5/x8wc2gdj7z5cpgcqdsb_gkj40000gn/T//cckXFIsJ.s:7710   .bss.outputMix:0000000000000000 $d
/var/folders/m5/x8wc2gdj7z5cpgcqdsb_gkj40000gn/T//cckXFIsJ.s:7717   .bss.overdrive:0000000000000000 $d
/var/folders/m5/x8wc2gdj7z5cpgcqdsb_gkj40000gn/T//cckXFIsJ.s:7724   .bss.playButton:0000000000000000 $d
/var/folders/m5/x8wc2gdj7z5cpgcqdsb_gkj40000gn/T//cckXFIsJ.s:7735   .bss.playButtonOverrule:0000000000000000 $d
/var/folders/m5/x8wc2gdj7z5cpgcqdsb_gkj40000gn/T//cckXFIsJ.s:7737   .bss.prevControlButtonStates:0000000000000000 $d
/var/folders/m5/x8wc2gdj7z5cpgcqdsb_gkj40000gn/T//cckXFIsJ.s:7744   .bss.readIndex:0000000000000000 $d
/var/folders/m5/x8wc2gdj7z5cpgcqdsb_gkj40000gn/T//cckXFIsJ.s:7751   .bss.readIndexFraction:0000000000000000 $d
/var/folders/m5/x8wc2gdj7z5cpgcqdsb_gkj40000gn/T//cckXFIsJ.s:7758   .bss.readIndexInt:0000000000000000 $d
/var/folders/m5/x8wc2gdj7z5cpgcqdsb_gkj40000gn/T//cckXFIsJ.s:7765   .bss.readPitch:0000000000000000 $d
/var/folders/m5/x8wc2gdj7z5cpgcqdsb_gkj40000gn/T//cckXFIsJ.s:7771   .bss.recButton:0000000000000000 $d
/var/folders/m5/x8wc2gdj7z5cpgcqdsb_gkj40000gn/T//cckXFIsJ.s:7778   .bss.sampleSig:0000000000000000 $d
/var/folders/m5/x8wc2gdj7z5cpgcqdsb_gkj40000gn/T//cckXFIsJ.s:7785   .bss.spliceBufferReadIndex:0000000000000000 $d
/var/folders/m5/x8wc2gdj7z5cpgcqdsb_gkj40000gn/T//cckXFIsJ.s:7792   .bss.spliceBufferReadIndexFraction:0000000000000000 $d
/var/folders/m5/x8wc2gdj7z5cpgcqdsb_gkj40000gn/T//cckXFIsJ.s:7799   .bss.spliceBufferReadIndexInt:0000000000000000 $d
/var/folders/m5/x8wc2gdj7z5cpgcqdsb_gkj40000gn/T//cckXFIsJ.s:7806   .bss.startPoint:0000000000000000 $d
/var/folders/m5/x8wc2gdj7z5cpgcqdsb_gkj40000gn/T//cckXFIsJ.s:7813   .bss.testValFloat:0000000000000000 $d
/var/folders/m5/x8wc2gdj7z5cpgcqdsb_gkj40000gn/T//cckXFIsJ.s:7820   .bss.testValInt:0000000000000000 $d
/var/folders/m5/x8wc2gdj7z5cpgcqdsb_gkj40000gn/T//cckXFIsJ.s:7827   .bss.writeIndex:0000000000000000 $d
/var/folders/m5/x8wc2gdj7z5cpgcqdsb_gkj40000gn/T//cckXFIsJ.s:7834   .data.baseFreq:0000000000000000 $d
/var/folders/m5/x8wc2gdj7z5cpgcqdsb_gkj40000gn/T//cckXFIsJ.s:7841   .data.currentSpliceBuffer:0000000000000000 $d
/var/folders/m5/x8wc2gdj7z5cpgcqdsb_gkj40000gn/T//cckXFIsJ.s:7848   .data.effectValues:0000000000000000 $d
/var/folders/m5/x8wc2gdj7z5cpgcqdsb_gkj40000gn/T//cckXFIsJ.s:7860   .data.inputAmp:0000000000000000 $d
/var/folders/m5/x8wc2gdj7z5cpgcqdsb_gkj40000gn/T//cckXFIsJ.s:7867   .data.outputAmp:0000000000000000 $d
/var/folders/m5/x8wc2gdj7z5cpgcqdsb_gkj40000gn/T//cckXFIsJ.s:7874   .data.readFactor:0000000000000000 $d
/var/folders/m5/x8wc2gdj7z5cpgcqdsb_gkj40000gn/T//cckXFIsJ.s:7881   .data.recordingLength:0000000000000000 $d
/var/folders/m5/x8wc2gdj7z5cpgcqdsb_gkj40000gn/T//cckXFIsJ.s:7888   .data.spliceBufferFourLength:0000000000000000 $d
/var/folders/m5/x8wc2gdj7z5cpgcqdsb_gkj40000gn/T//cckXFIsJ.s:7895   .data.spliceBufferOneLength:0000000000000000 $d
/var/folders/m5/x8wc2gdj7z5cpgcqdsb_gkj40000gn/T//cckXFIsJ.s:7902   .data.spliceBufferThreeLength:0000000000000000 $d
/var/folders/m5/x8wc2gdj7z5cpgcqdsb_gkj40000gn/T//cckXFIsJ.s:7909   .data.spliceBufferTwoLength:0000000000000000 $d
/var/folders/m5/x8wc2gdj7z5cpgcqdsb_gkj40000gn/T//cckXFIsJ.s:7916   .data.stopPoint:0000000000000000 $d
/var/folders/m5/x8wc2gdj7z5cpgcqdsb_gkj40000gn/T//cckXFIsJ.s:7923   .sdram_bss:0000000000000000 $d
                           .group:0000000000000000 _ZN5daisy6SwitchD5Ev
                           .group:0000000000000000 _ZN5daisy7EncoderD5Ev
                           .group:0000000000000000 _ZN5daisy10LcdHD44780D5Ev
                           .group:0000000000000000 _ZN5daisy9DaisySeedD5Ev
                           .group:0000000000000000 _ZN7daisysp3SvfD5Ev
                           .group:0000000000000000 _ZN7daisysp6ChorusD5Ev
                           .group:0000000000000000 _ZN7daisysp9OverdriveD5Ev
                           .group:0000000000000000 _ZN7daisysp7OnePoleD5Ev

UNDEFINED SYMBOLS
_ZN5daisy16AdcChannelConfig7InitMuxE12dsy_gpio_pinjS1_S1_S1_NS0_15ConversionSpeedE
_ZN5daisy6Switch4InitE12dsy_gpio_pinf
_ZN5daisy7Encoder4InitE12dsy_gpio_pinS1_S1_f
memset
powf
_ZN5daisy10LcdHD447804InitERKNS0_6ConfigE
_ZN5daisy10LcdHD447805ClearEv
_ZN5daisy10LcdHD447809SetCursorEhh
_ZN5daisy10LcdHD447805PrintEPKc
_ZN7daisysp9Overdrive4InitEv
_ZN7daisysp9Overdrive8SetDriveEf
tanf
_ZN7daisysp6Chorus4InitEf
ARM GAS  /var/folders/m5/x8wc2gdj7z5cpgcqdsb_gkj40000gn/T//cckXFIsJ.s 			page 214


_ZN7daisysp6Chorus11SetLfoDepthEf
_ZN7daisysp6Chorus10SetLfoFreqEf
_ZN7daisysp3Svf4InitEf
_ZN7daisysp3Svf7SetFreqEf
_ZN7daisysp3Svf6SetResEf
_ZN7daisysp9Overdrive7ProcessEf
_ZN7daisysp6Chorus7ProcessEf
_ZN7daisysp3Svf7ProcessEf
_ZN5daisy9DaisySeed4InitEb
_ZN5daisy9DaisySeed17SetAudioBlockSizeEj
_ZN5daisy9DaisySeed18SetAudioSampleRateENS_9SaiHandle6Config10SampleRateE
_ZN5daisy9DaisySeed15AudioSampleRateEv
_ZN5daisy9AdcHandle4InitEPNS_16AdcChannelConfigEjNS0_12OverSamplingE
_ZN5daisy9AdcHandle5StartEv
_ZN5daisy9DaisySeed10StartAudioEPFvPKPKfPPfjE
_ZN5daisy6System5DelayEm
_ZNK5daisy9AdcHandle11GetMuxFloatEhh
_ZN5daisy7Encoder8DebounceEv
__aeabi_atexit
__dso_handle
